

Microchip MPLAB XC8 Assembler V3.10 build 20250813170317 
                                                                                               Thu Jul  2 00:29:33 2026

Microchip MPLAB XC8 C Compiler v3.10 (Free license) build 20250813170317 Og1 
     1                           	processor	16F877A
     2                           	pagewidth 120
     3                           	opt	flic
     4                           	psect	idataBANK0,global,class=CODE,space=0,delta=2,noexec
     5                           	psect	idataBANK1,global,class=CODE,space=0,delta=2,noexec
     6                           	psect	strings,global,class=STRING,space=0,delta=2,noexec
     7                           	psect	stringtext,global,reloc=256,class=STRCODE,space=0,delta=2,noexec
     8                           	psect	cinit,global,class=CODE,space=0,merge=1,delta=2
     9                           	psect	bssCOMMON,global,class=COMMON,space=1,delta=1,noexec
    10                           	psect	bssBANK0,global,class=BANK0,space=1,delta=1,noexec
    11                           	psect	dataBANK0,global,class=BANK0,space=1,delta=1,noexec
    12                           	psect	bssBANK1,global,class=BANK1,space=1,delta=1,noexec
    13                           	psect	dataBANK1,global,class=BANK1,space=1,delta=1,noexec
    14                           	psect	inittext,global,class=CODE,space=0,delta=2
    15                           	psect	clrtext,global,class=CODE,space=0,delta=2
    16                           	psect	cstackBANK1,global,class=BANK1,space=1,delta=1,noexec
    17                           	psect	cstackCOMMON,global,class=COMMON,space=1,delta=1,noexec
    18                           	psect	cstackBANK0,global,class=BANK0,space=1,delta=1,noexec
    19                           	psect	maintext,global,class=CODE,space=0,split=1,delta=2
    20                           	psect	text1,local,class=CODE,space=0,merge=1,delta=2
    21                           	psect	text2,local,class=CODE,space=0,merge=1,delta=2
    22                           	psect	text3,local,class=CODE,space=0,merge=1,delta=2
    23                           	psect	text4,local,class=CODE,space=0,merge=1,delta=2
    24                           	psect	text5,local,class=CODE,space=0,merge=1,delta=2
    25                           	psect	text6,local,class=CODE,space=0,merge=1,delta=2
    26                           	psect	text7,local,class=CODE,space=0,merge=1,delta=2
    27                           	psect	text8,local,class=CODE,space=0,merge=1,delta=2,group=1
    28                           	psect	text9,local,class=CODE,space=0,merge=1,delta=2
    29                           	psect	text10,local,class=CODE,space=0,merge=1,delta=2
    30                           	psect	text11,local,class=CODE,space=0,merge=1,delta=2
    31                           	psect	text12,local,class=CODE,space=0,merge=1,delta=2
    32                           	psect	text13,local,class=CODE,space=0,merge=1,delta=2
    33                           	psect	text14,local,class=CODE,space=0,merge=1,delta=2
    34                           	psect	text15,local,class=CODE,space=0,merge=1,delta=2
    35                           	psect	text16,local,class=CODE,space=0,merge=1,delta=2,group=1
    36                           	psect	text17,local,class=CODE,space=0,merge=1,delta=2
    37                           	psect	text18,local,class=CODE,space=0,merge=1,delta=2
    38                           	psect	text19,local,class=CODE,space=0,merge=1,delta=2
    39                           	psect	text20,local,class=CODE,space=0,merge=1,delta=2
    40                           	psect	text21,local,class=CODE,space=0,merge=1,delta=2
    41                           	psect	text22,local,class=CODE,space=0,merge=1,delta=2
    42                           	psect	text23,local,class=CODE,space=0,merge=1,delta=2
    43                           	psect	text24,local,class=CODE,space=0,merge=1,delta=2
    44                           	psect	text25,local,class=CODE,space=0,merge=1,delta=2
    45                           	psect	text26,local,class=CODE,space=0,merge=1,delta=2
    46                           	psect	text27,local,class=CODE,space=0,merge=1,delta=2
    47                           	psect	text28,local,class=CODE,space=0,merge=1,delta=2
    48                           	psect	text29,local,class=CODE,space=0,merge=1,delta=2
    49                           	psect	text30,local,class=CODE,space=0,merge=1,delta=2
    50                           	psect	text31,local,class=CODE,space=0,merge=1,delta=2
    51                           	psect	text32,local,class=CODE,space=0,merge=1,delta=2
    52                           	psect	text33,local,class=CODE,space=0,merge=1,delta=2
    53                           	psect	text34,local,class=CODE,space=0,merge=1,delta=2
    54                           	psect	text35,local,class=CODE,space=0,merge=1,delta=2
    55                           	psect	text36,local,class=CODE,space=0,merge=1,delta=2,group=1
    56                           	psect	text37,local,class=CODE,space=0,merge=1,delta=2,group=1
    57                           	psect	text38,local,class=CODE,space=0,merge=1,delta=2,group=1
    58                           	psect	text39,local,class=CODE,space=0,merge=1,delta=2
    59                           	psect	text40,local,class=CODE,space=0,merge=1,delta=2
    60                           	psect	text41,local,class=CODE,space=0,merge=1,delta=2
    61                           	psect	text42,local,class=CODE,space=0,merge=1,delta=2
    62                           	psect	text43,local,class=CODE,space=0,merge=1,delta=2
    63                           	psect	text44,local,class=CODE,space=0,merge=1,delta=2
    64                           	psect	text45,local,class=CODE,space=0,merge=1,delta=2,group=1
    65                           	psect	text46,local,class=CODE,space=0,merge=1,delta=2,group=1
    66                           	psect	text47,local,class=CODE,space=0,merge=1,delta=2
    67                           	psect	text48,local,class=CODE,space=0,merge=1,delta=2
    68                           	psect	intentry,global,class=CODE,space=0,delta=2
    69                           	psect	idloc,global,abs,ovrld,class=IDLOC,space=5,delta=2,noexec
    70                           	psect	config,global,abs,ovrld,class=CONFIG,space=4,delta=2,noexec
    71                           	dabs	1,0x7E,2
    72     0000                     
    73                           ; Version 2.20
    74                           ; Generated 12/02/2020 GMT
    75                           ; 
    76                           ; Copyright © 2020, Microchip Technology Inc. and its subsidiaries ("Microchip")
    77                           ; All rights reserved.
    78                           ; 
    79                           ; This software is developed by Microchip Technology Inc. and its subsidiaries ("Microch
      +                          ip").
    80                           ; 
    81                           ; Redistribution and use in source and binary forms, with or without modification, are
    82                           ; permitted provided that the following conditions are met:
    83                           ; 
    84                           ;     1. Redistributions of source code must retain the above copyright notice, this lis
      +                          t of
    85                           ;        conditions and the following disclaimer.
    86                           ; 
    87                           ;     2. Redistributions in binary form must reproduce the above copyright notice, this 
      +                          list
    88                           ;        of conditions and the following disclaimer in the documentation and/or other
    89                           ;        materials provided with the distribution.
    90                           ; 
    91                           ;     3. Microchip's name may not be used to endorse or promote products derived from th
      +                          is
    92                           ;        software without specific prior written permission.
    93                           ; 
    94                           ; THIS SOFTWARE IS PROVIDED BY MICROCHIP "AS IS" AND ANY EXPRESS OR IMPLIED WARRANTIES,
    95                           ; INCLUDING, BUT NOT LIMITED TO, THE IMPLIED WARRANTIES OF MERCHANTABILITY AND FITNESS F
      +                          OR
    96                           ; PURPOSE ARE DISCLAIMED.  IN NO EVENT SHALL MICROCHIP BE LIABLE FOR ANY DIRECT, INDIREC
      +                          T,
    97                           ; INCIDENTAL, SPECIAL, EXEMPLARY, OR CONSEQUENTIAL DAMAGES (INCLUDING BUT NOT LIMITED TO
    98                           ; PROCUREMENT OF SUBSTITUTE GOODS OR SERVICES; LOSS OF USE, DATA OR PROFITS; OR BUSINESS
    99                           ; INTERRUPTION) HOWSOEVER CAUSED AND ON ANY THEORY OF LIABILITY, WHETHER IN CONTRACT, ST
      +                          RICT
   100                           ; LIABILITY, OR TORT (INCLUDING NEGLIGENCE OR OTHERWISE) ARISING IN ANY WAY OUT OF THE U
      +                          SE OF
   101                           ; THIS SOFTWARE, EVEN IF ADVISED OF THE POSSIBILITY OF SUCH DAMAGE.
   102                           ; 
   103                           ; 
   104                           ; Code-generator required, PIC16F877A Definitions
   105                           ; 
   106                           ; SFR Addresses
   107     0004                     fsr             equ	4
   108     0004                     fsr0            equ	4
   109     0000                     indf            equ	0
   110     0000                     indf0           equ	0
   111     0002                     pc              equ	2
   112     0002                     pcl             equ	2
   113     000A                     pclath          equ	10
   114     0003                     status          equ	3
   115     0000                     INDF            equ	0	;# 
   116     0001                     TMR0            equ	1	;# 
   117     0002                     PCL             equ	2	;# 
   118     0003                     STATUS          equ	3	;# 
   119     0004                     FSR             equ	4	;# 
   120     0005                     PORTA           equ	5	;# 
   121     0006                     PORTB           equ	6	;# 
   122     0007                     PORTC           equ	7	;# 
   123     0008                     PORTD           equ	8	;# 
   124     0009                     PORTE           equ	9	;# 
   125     000A                     PCLATH          equ	10	;# 
   126     000B                     INTCON          equ	11	;# 
   127     000C                     PIR1            equ	12	;# 
   128     000D                     PIR2            equ	13	;# 
   129     000E                     TMR1            equ	14	;# 
   130     000E                     TMR1L           equ	14	;# 
   131     000F                     TMR1H           equ	15	;# 
   132     0010                     T1CON           equ	16	;# 
   133     0011                     TMR2            equ	17	;# 
   134     0012                     T2CON           equ	18	;# 
   135     0013                     SSPBUF          equ	19	;# 
   136     0014                     SSPCON          equ	20	;# 
   137     0015                     CCPR1           equ	21	;# 
   138     0015                     CCPR1L          equ	21	;# 
   139     0016                     CCPR1H          equ	22	;# 
   140     0017                     CCP1CON         equ	23	;# 
   141     0018                     RCSTA           equ	24	;# 
   142     0019                     TXREG           equ	25	;# 
   143     001A                     RCREG           equ	26	;# 
   144     001B                     CCPR2           equ	27	;# 
   145     001B                     CCPR2L          equ	27	;# 
   146     001C                     CCPR2H          equ	28	;# 
   147     001D                     CCP2CON         equ	29	;# 
   148     001E                     ADRESH          equ	30	;# 
   149     001F                     ADCON0          equ	31	;# 
   150     0081                     OPTION_REG      equ	129	;# 
   151     0085                     TRISA           equ	133	;# 
   152     0086                     TRISB           equ	134	;# 
   153     0087                     TRISC           equ	135	;# 
   154     0088                     TRISD           equ	136	;# 
   155     0089                     TRISE           equ	137	;# 
   156     008C                     PIE1            equ	140	;# 
   157     008D                     PIE2            equ	141	;# 
   158     008E                     PCON            equ	142	;# 
   159     0091                     SSPCON2         equ	145	;# 
   160     0092                     PR2             equ	146	;# 
   161     0093                     SSPADD          equ	147	;# 
   162     0094                     SSPSTAT         equ	148	;# 
   163     0098                     TXSTA           equ	152	;# 
   164     0099                     SPBRG           equ	153	;# 
   165     009C                     CMCON           equ	156	;# 
   166     009D                     CVRCON          equ	157	;# 
   167     009E                     ADRESL          equ	158	;# 
   168     009F                     ADCON1          equ	159	;# 
   169     010C                     EEDATA          equ	268	;# 
   170     010D                     EEADR           equ	269	;# 
   171     010E                     EEDATH          equ	270	;# 
   172     010F                     EEADRH          equ	271	;# 
   173     018C                     EECON1          equ	396	;# 
   174     018D                     EECON2          equ	397	;# 
   175     0000                     INDF            equ	0	;# 
   176     0001                     TMR0            equ	1	;# 
   177     0002                     PCL             equ	2	;# 
   178     0003                     STATUS          equ	3	;# 
   179     0004                     FSR             equ	4	;# 
   180     0005                     PORTA           equ	5	;# 
   181     0006                     PORTB           equ	6	;# 
   182     0007                     PORTC           equ	7	;# 
   183     0008                     PORTD           equ	8	;# 
   184     0009                     PORTE           equ	9	;# 
   185     000A                     PCLATH          equ	10	;# 
   186     000B                     INTCON          equ	11	;# 
   187     000C                     PIR1            equ	12	;# 
   188     000D                     PIR2            equ	13	;# 
   189     000E                     TMR1            equ	14	;# 
   190     000E                     TMR1L           equ	14	;# 
   191     000F                     TMR1H           equ	15	;# 
   192     0010                     T1CON           equ	16	;# 
   193     0011                     TMR2            equ	17	;# 
   194     0012                     T2CON           equ	18	;# 
   195     0013                     SSPBUF          equ	19	;# 
   196     0014                     SSPCON          equ	20	;# 
   197     0015                     CCPR1           equ	21	;# 
   198     0015                     CCPR1L          equ	21	;# 
   199     0016                     CCPR1H          equ	22	;# 
   200     0017                     CCP1CON         equ	23	;# 
   201     0018                     RCSTA           equ	24	;# 
   202     0019                     TXREG           equ	25	;# 
   203     001A                     RCREG           equ	26	;# 
   204     001B                     CCPR2           equ	27	;# 
   205     001B                     CCPR2L          equ	27	;# 
   206     001C                     CCPR2H          equ	28	;# 
   207     001D                     CCP2CON         equ	29	;# 
   208     001E                     ADRESH          equ	30	;# 
   209     001F                     ADCON0          equ	31	;# 
   210     0081                     OPTION_REG      equ	129	;# 
   211     0085                     TRISA           equ	133	;# 
   212     0086                     TRISB           equ	134	;# 
   213     0087                     TRISC           equ	135	;# 
   214     0088                     TRISD           equ	136	;# 
   215     0089                     TRISE           equ	137	;# 
   216     008C                     PIE1            equ	140	;# 
   217     008D                     PIE2            equ	141	;# 
   218     008E                     PCON            equ	142	;# 
   219     0091                     SSPCON2         equ	145	;# 
   220     0092                     PR2             equ	146	;# 
   221     0093                     SSPADD          equ	147	;# 
   222     0094                     SSPSTAT         equ	148	;# 
   223     0098                     TXSTA           equ	152	;# 
   224     0099                     SPBRG           equ	153	;# 
   225     009C                     CMCON           equ	156	;# 
   226     009D                     CVRCON          equ	157	;# 
   227     009E                     ADRESL          equ	158	;# 
   228     009F                     ADCON1          equ	159	;# 
   229     010C                     EEDATA          equ	268	;# 
   230     010D                     EEADR           equ	269	;# 
   231     010E                     EEDATH          equ	270	;# 
   232     010F                     EEADRH          equ	271	;# 
   233     018C                     EECON1          equ	396	;# 
   234     018D                     EECON2          equ	397	;# 
   235     0000                     INDF            equ	0	;# 
   236     0001                     TMR0            equ	1	;# 
   237     0002                     PCL             equ	2	;# 
   238     0003                     STATUS          equ	3	;# 
   239     0004                     FSR             equ	4	;# 
   240     0005                     PORTA           equ	5	;# 
   241     0006                     PORTB           equ	6	;# 
   242     0007                     PORTC           equ	7	;# 
   243     0008                     PORTD           equ	8	;# 
   244     0009                     PORTE           equ	9	;# 
   245     000A                     PCLATH          equ	10	;# 
   246     000B                     INTCON          equ	11	;# 
   247     000C                     PIR1            equ	12	;# 
   248     000D                     PIR2            equ	13	;# 
   249     000E                     TMR1            equ	14	;# 
   250     000E                     TMR1L           equ	14	;# 
   251     000F                     TMR1H           equ	15	;# 
   252     0010                     T1CON           equ	16	;# 
   253     0011                     TMR2            equ	17	;# 
   254     0012                     T2CON           equ	18	;# 
   255     0013                     SSPBUF          equ	19	;# 
   256     0014                     SSPCON          equ	20	;# 
   257     0015                     CCPR1           equ	21	;# 
   258     0015                     CCPR1L          equ	21	;# 
   259     0016                     CCPR1H          equ	22	;# 
   260     0017                     CCP1CON         equ	23	;# 
   261     0018                     RCSTA           equ	24	;# 
   262     0019                     TXREG           equ	25	;# 
   263     001A                     RCREG           equ	26	;# 
   264     001B                     CCPR2           equ	27	;# 
   265     001B                     CCPR2L          equ	27	;# 
   266     001C                     CCPR2H          equ	28	;# 
   267     001D                     CCP2CON         equ	29	;# 
   268     001E                     ADRESH          equ	30	;# 
   269     001F                     ADCON0          equ	31	;# 
   270     0081                     OPTION_REG      equ	129	;# 
   271     0085                     TRISA           equ	133	;# 
   272     0086                     TRISB           equ	134	;# 
   273     0087                     TRISC           equ	135	;# 
   274     0088                     TRISD           equ	136	;# 
   275     0089                     TRISE           equ	137	;# 
   276     008C                     PIE1            equ	140	;# 
   277     008D                     PIE2            equ	141	;# 
   278     008E                     PCON            equ	142	;# 
   279     0091                     SSPCON2         equ	145	;# 
   280     0092                     PR2             equ	146	;# 
   281     0093                     SSPADD          equ	147	;# 
   282     0094                     SSPSTAT         equ	148	;# 
   283     0098                     TXSTA           equ	152	;# 
   284     0099                     SPBRG           equ	153	;# 
   285     009C                     CMCON           equ	156	;# 
   286     009D                     CVRCON          equ	157	;# 
   287     009E                     ADRESL          equ	158	;# 
   288     009F                     ADCON1          equ	159	;# 
   289     010C                     EEDATA          equ	268	;# 
   290     010D                     EEADR           equ	269	;# 
   291     010E                     EEDATH          equ	270	;# 
   292     010F                     EEADRH          equ	271	;# 
   293     018C                     EECON1          equ	396	;# 
   294     018D                     EECON2          equ	397	;# 
   295     0000                     INDF            equ	0	;# 
   296     0001                     TMR0            equ	1	;# 
   297     0002                     PCL             equ	2	;# 
   298     0003                     STATUS          equ	3	;# 
   299     0004                     FSR             equ	4	;# 
   300     0005                     PORTA           equ	5	;# 
   301     0006                     PORTB           equ	6	;# 
   302     0007                     PORTC           equ	7	;# 
   303     0008                     PORTD           equ	8	;# 
   304     0009                     PORTE           equ	9	;# 
   305     000A                     PCLATH          equ	10	;# 
   306     000B                     INTCON          equ	11	;# 
   307     000C                     PIR1            equ	12	;# 
   308     000D                     PIR2            equ	13	;# 
   309     000E                     TMR1            equ	14	;# 
   310     000E                     TMR1L           equ	14	;# 
   311     000F                     TMR1H           equ	15	;# 
   312     0010                     T1CON           equ	16	;# 
   313     0011                     TMR2            equ	17	;# 
   314     0012                     T2CON           equ	18	;# 
   315     0013                     SSPBUF          equ	19	;# 
   316     0014                     SSPCON          equ	20	;# 
   317     0015                     CCPR1           equ	21	;# 
   318     0015                     CCPR1L          equ	21	;# 
   319     0016                     CCPR1H          equ	22	;# 
   320     0017                     CCP1CON         equ	23	;# 
   321     0018                     RCSTA           equ	24	;# 
   322     0019                     TXREG           equ	25	;# 
   323     001A                     RCREG           equ	26	;# 
   324     001B                     CCPR2           equ	27	;# 
   325     001B                     CCPR2L          equ	27	;# 
   326     001C                     CCPR2H          equ	28	;# 
   327     001D                     CCP2CON         equ	29	;# 
   328     001E                     ADRESH          equ	30	;# 
   329     001F                     ADCON0          equ	31	;# 
   330     0081                     OPTION_REG      equ	129	;# 
   331     0085                     TRISA           equ	133	;# 
   332     0086                     TRISB           equ	134	;# 
   333     0087                     TRISC           equ	135	;# 
   334     0088                     TRISD           equ	136	;# 
   335     0089                     TRISE           equ	137	;# 
   336     008C                     PIE1            equ	140	;# 
   337     008D                     PIE2            equ	141	;# 
   338     008E                     PCON            equ	142	;# 
   339     0091                     SSPCON2         equ	145	;# 
   340     0092                     PR2             equ	146	;# 
   341     0093                     SSPADD          equ	147	;# 
   342     0094                     SSPSTAT         equ	148	;# 
   343     0098                     TXSTA           equ	152	;# 
   344     0099                     SPBRG           equ	153	;# 
   345     009C                     CMCON           equ	156	;# 
   346     009D                     CVRCON          equ	157	;# 
   347     009E                     ADRESL          equ	158	;# 
   348     009F                     ADCON1          equ	159	;# 
   349     010C                     EEDATA          equ	268	;# 
   350     010D                     EEADR           equ	269	;# 
   351     010E                     EEDATH          equ	270	;# 
   352     010F                     EEADRH          equ	271	;# 
   353     018C                     EECON1          equ	396	;# 
   354     018D                     EECON2          equ	397	;# 
   355     0000                     INDF            equ	0	;# 
   356     0001                     TMR0            equ	1	;# 
   357     0002                     PCL             equ	2	;# 
   358     0003                     STATUS          equ	3	;# 
   359     0004                     FSR             equ	4	;# 
   360     0005                     PORTA           equ	5	;# 
   361     0006                     PORTB           equ	6	;# 
   362     0007                     PORTC           equ	7	;# 
   363     0008                     PORTD           equ	8	;# 
   364     0009                     PORTE           equ	9	;# 
   365     000A                     PCLATH          equ	10	;# 
   366     000B                     INTCON          equ	11	;# 
   367     000C                     PIR1            equ	12	;# 
   368     000D                     PIR2            equ	13	;# 
   369     000E                     TMR1            equ	14	;# 
   370     000E                     TMR1L           equ	14	;# 
   371     000F                     TMR1H           equ	15	;# 
   372     0010                     T1CON           equ	16	;# 
   373     0011                     TMR2            equ	17	;# 
   374     0012                     T2CON           equ	18	;# 
   375     0013                     SSPBUF          equ	19	;# 
   376     0014                     SSPCON          equ	20	;# 
   377     0015                     CCPR1           equ	21	;# 
   378     0015                     CCPR1L          equ	21	;# 
   379     0016                     CCPR1H          equ	22	;# 
   380     0017                     CCP1CON         equ	23	;# 
   381     0018                     RCSTA           equ	24	;# 
   382     0019                     TXREG           equ	25	;# 
   383     001A                     RCREG           equ	26	;# 
   384     001B                     CCPR2           equ	27	;# 
   385     001B                     CCPR2L          equ	27	;# 
   386     001C                     CCPR2H          equ	28	;# 
   387     001D                     CCP2CON         equ	29	;# 
   388     001E                     ADRESH          equ	30	;# 
   389     001F                     ADCON0          equ	31	;# 
   390     0081                     OPTION_REG      equ	129	;# 
   391     0085                     TRISA           equ	133	;# 
   392     0086                     TRISB           equ	134	;# 
   393     0087                     TRISC           equ	135	;# 
   394     0088                     TRISD           equ	136	;# 
   395     0089                     TRISE           equ	137	;# 
   396     008C                     PIE1            equ	140	;# 
   397     008D                     PIE2            equ	141	;# 
   398     008E                     PCON            equ	142	;# 
   399     0091                     SSPCON2         equ	145	;# 
   400     0092                     PR2             equ	146	;# 
   401     0093                     SSPADD          equ	147	;# 
   402     0094                     SSPSTAT         equ	148	;# 
   403     0098                     TXSTA           equ	152	;# 
   404     0099                     SPBRG           equ	153	;# 
   405     009C                     CMCON           equ	156	;# 
   406     009D                     CVRCON          equ	157	;# 
   407     009E                     ADRESL          equ	158	;# 
   408     009F                     ADCON1          equ	159	;# 
   409     010C                     EEDATA          equ	268	;# 
   410     010D                     EEADR           equ	269	;# 
   411     010E                     EEDATH          equ	270	;# 
   412     010F                     EEADRH          equ	271	;# 
   413     018C                     EECON1          equ	396	;# 
   414     018D                     EECON2          equ	397	;# 
   415     0000                     INDF            equ	0	;# 
   416     0001                     TMR0            equ	1	;# 
   417     0002                     PCL             equ	2	;# 
   418     0003                     STATUS          equ	3	;# 
   419     0004                     FSR             equ	4	;# 
   420     0005                     PORTA           equ	5	;# 
   421     0006                     PORTB           equ	6	;# 
   422     0007                     PORTC           equ	7	;# 
   423     0008                     PORTD           equ	8	;# 
   424     0009                     PORTE           equ	9	;# 
   425     000A                     PCLATH          equ	10	;# 
   426     000B                     INTCON          equ	11	;# 
   427     000C                     PIR1            equ	12	;# 
   428     000D                     PIR2            equ	13	;# 
   429     000E                     TMR1            equ	14	;# 
   430     000E                     TMR1L           equ	14	;# 
   431     000F                     TMR1H           equ	15	;# 
   432     0010                     T1CON           equ	16	;# 
   433     0011                     TMR2            equ	17	;# 
   434     0012                     T2CON           equ	18	;# 
   435     0013                     SSPBUF          equ	19	;# 
   436     0014                     SSPCON          equ	20	;# 
   437     0015                     CCPR1           equ	21	;# 
   438     0015                     CCPR1L          equ	21	;# 
   439     0016                     CCPR1H          equ	22	;# 
   440     0017                     CCP1CON         equ	23	;# 
   441     0018                     RCSTA           equ	24	;# 
   442     0019                     TXREG           equ	25	;# 
   443     001A                     RCREG           equ	26	;# 
   444     001B                     CCPR2           equ	27	;# 
   445     001B                     CCPR2L          equ	27	;# 
   446     001C                     CCPR2H          equ	28	;# 
   447     001D                     CCP2CON         equ	29	;# 
   448     001E                     ADRESH          equ	30	;# 
   449     001F                     ADCON0          equ	31	;# 
   450     0081                     OPTION_REG      equ	129	;# 
   451     0085                     TRISA           equ	133	;# 
   452     0086                     TRISB           equ	134	;# 
   453     0087                     TRISC           equ	135	;# 
   454     0088                     TRISD           equ	136	;# 
   455     0089                     TRISE           equ	137	;# 
   456     008C                     PIE1            equ	140	;# 
   457     008D                     PIE2            equ	141	;# 
   458     008E                     PCON            equ	142	;# 
   459     0091                     SSPCON2         equ	145	;# 
   460     0092                     PR2             equ	146	;# 
   461     0093                     SSPADD          equ	147	;# 
   462     0094                     SSPSTAT         equ	148	;# 
   463     0098                     TXSTA           equ	152	;# 
   464     0099                     SPBRG           equ	153	;# 
   465     009C                     CMCON           equ	156	;# 
   466     009D                     CVRCON          equ	157	;# 
   467     009E                     ADRESL          equ	158	;# 
   468     009F                     ADCON1          equ	159	;# 
   469     010C                     EEDATA          equ	268	;# 
   470     010D                     EEADR           equ	269	;# 
   471     010E                     EEDATH          equ	270	;# 
   472     010F                     EEADRH          equ	271	;# 
   473     018C                     EECON1          equ	396	;# 
   474     018D                     EECON2          equ	397	;# 
   475     0000                     INDF            equ	0	;# 
   476     0001                     TMR0            equ	1	;# 
   477     0002                     PCL             equ	2	;# 
   478     0003                     STATUS          equ	3	;# 
   479     0004                     FSR             equ	4	;# 
   480     0005                     PORTA           equ	5	;# 
   481     0006                     PORTB           equ	6	;# 
   482     0007                     PORTC           equ	7	;# 
   483     0008                     PORTD           equ	8	;# 
   484     0009                     PORTE           equ	9	;# 
   485     000A                     PCLATH          equ	10	;# 
   486     000B                     INTCON          equ	11	;# 
   487     000C                     PIR1            equ	12	;# 
   488     000D                     PIR2            equ	13	;# 
   489     000E                     TMR1            equ	14	;# 
   490     000E                     TMR1L           equ	14	;# 
   491     000F                     TMR1H           equ	15	;# 
   492     0010                     T1CON           equ	16	;# 
   493     0011                     TMR2            equ	17	;# 
   494     0012                     T2CON           equ	18	;# 
   495     0013                     SSPBUF          equ	19	;# 
   496     0014                     SSPCON          equ	20	;# 
   497     0015                     CCPR1           equ	21	;# 
   498     0015                     CCPR1L          equ	21	;# 
   499     0016                     CCPR1H          equ	22	;# 
   500     0017                     CCP1CON         equ	23	;# 
   501     0018                     RCSTA           equ	24	;# 
   502     0019                     TXREG           equ	25	;# 
   503     001A                     RCREG           equ	26	;# 
   504     001B                     CCPR2           equ	27	;# 
   505     001B                     CCPR2L          equ	27	;# 
   506     001C                     CCPR2H          equ	28	;# 
   507     001D                     CCP2CON         equ	29	;# 
   508     001E                     ADRESH          equ	30	;# 
   509     001F                     ADCON0          equ	31	;# 
   510     0081                     OPTION_REG      equ	129	;# 
   511     0085                     TRISA           equ	133	;# 
   512     0086                     TRISB           equ	134	;# 
   513     0087                     TRISC           equ	135	;# 
   514     0088                     TRISD           equ	136	;# 
   515     0089                     TRISE           equ	137	;# 
   516     008C                     PIE1            equ	140	;# 
   517     008D                     PIE2            equ	141	;# 
   518     008E                     PCON            equ	142	;# 
   519     0091                     SSPCON2         equ	145	;# 
   520     0092                     PR2             equ	146	;# 
   521     0093                     SSPADD          equ	147	;# 
   522     0094                     SSPSTAT         equ	148	;# 
   523     0098                     TXSTA           equ	152	;# 
   524     0099                     SPBRG           equ	153	;# 
   525     009C                     CMCON           equ	156	;# 
   526     009D                     CVRCON          equ	157	;# 
   527     009E                     ADRESL          equ	158	;# 
   528     009F                     ADCON1          equ	159	;# 
   529     010C                     EEDATA          equ	268	;# 
   530     010D                     EEADR           equ	269	;# 
   531     010E                     EEDATH          equ	270	;# 
   532     010F                     EEADRH          equ	271	;# 
   533     018C                     EECON1          equ	396	;# 
   534     018D                     EECON2          equ	397	;# 
   535     0000                     INDF            equ	0	;# 
   536     0001                     TMR0            equ	1	;# 
   537     0002                     PCL             equ	2	;# 
   538     0003                     STATUS          equ	3	;# 
   539     0004                     FSR             equ	4	;# 
   540     0005                     PORTA           equ	5	;# 
   541     0006                     PORTB           equ	6	;# 
   542     0007                     PORTC           equ	7	;# 
   543     0008                     PORTD           equ	8	;# 
   544     0009                     PORTE           equ	9	;# 
   545     000A                     PCLATH          equ	10	;# 
   546     000B                     INTCON          equ	11	;# 
   547     000C                     PIR1            equ	12	;# 
   548     000D                     PIR2            equ	13	;# 
   549     000E                     TMR1            equ	14	;# 
   550     000E                     TMR1L           equ	14	;# 
   551     000F                     TMR1H           equ	15	;# 
   552     0010                     T1CON           equ	16	;# 
   553     0011                     TMR2            equ	17	;# 
   554     0012                     T2CON           equ	18	;# 
   555     0013                     SSPBUF          equ	19	;# 
   556     0014                     SSPCON          equ	20	;# 
   557     0015                     CCPR1           equ	21	;# 
   558     0015                     CCPR1L          equ	21	;# 
   559     0016                     CCPR1H          equ	22	;# 
   560     0017                     CCP1CON         equ	23	;# 
   561     0018                     RCSTA           equ	24	;# 
   562     0019                     TXREG           equ	25	;# 
   563     001A                     RCREG           equ	26	;# 
   564     001B                     CCPR2           equ	27	;# 
   565     001B                     CCPR2L          equ	27	;# 
   566     001C                     CCPR2H          equ	28	;# 
   567     001D                     CCP2CON         equ	29	;# 
   568     001E                     ADRESH          equ	30	;# 
   569     001F                     ADCON0          equ	31	;# 
   570     0081                     OPTION_REG      equ	129	;# 
   571     0085                     TRISA           equ	133	;# 
   572     0086                     TRISB           equ	134	;# 
   573     0087                     TRISC           equ	135	;# 
   574     0088                     TRISD           equ	136	;# 
   575     0089                     TRISE           equ	137	;# 
   576     008C                     PIE1            equ	140	;# 
   577     008D                     PIE2            equ	141	;# 
   578     008E                     PCON            equ	142	;# 
   579     0091                     SSPCON2         equ	145	;# 
   580     0092                     PR2             equ	146	;# 
   581     0093                     SSPADD          equ	147	;# 
   582     0094                     SSPSTAT         equ	148	;# 
   583     0098                     TXSTA           equ	152	;# 
   584     0099                     SPBRG           equ	153	;# 
   585     009C                     CMCON           equ	156	;# 
   586     009D                     CVRCON          equ	157	;# 
   587     009E                     ADRESL          equ	158	;# 
   588     009F                     ADCON1          equ	159	;# 
   589     010C                     EEDATA          equ	268	;# 
   590     010D                     EEADR           equ	269	;# 
   591     010E                     EEDATH          equ	270	;# 
   592     010F                     EEADRH          equ	271	;# 
   593     018C                     EECON1          equ	396	;# 
   594     018D                     EECON2          equ	397	;# 
   595     0000                     INDF            equ	0	;# 
   596     0001                     TMR0            equ	1	;# 
   597     0002                     PCL             equ	2	;# 
   598     0003                     STATUS          equ	3	;# 
   599     0004                     FSR             equ	4	;# 
   600     0005                     PORTA           equ	5	;# 
   601     0006                     PORTB           equ	6	;# 
   602     0007                     PORTC           equ	7	;# 
   603     0008                     PORTD           equ	8	;# 
   604     0009                     PORTE           equ	9	;# 
   605     000A                     PCLATH          equ	10	;# 
   606     000B                     INTCON          equ	11	;# 
   607     000C                     PIR1            equ	12	;# 
   608     000D                     PIR2            equ	13	;# 
   609     000E                     TMR1            equ	14	;# 
   610     000E                     TMR1L           equ	14	;# 
   611     000F                     TMR1H           equ	15	;# 
   612     0010                     T1CON           equ	16	;# 
   613     0011                     TMR2            equ	17	;# 
   614     0012                     T2CON           equ	18	;# 
   615     0013                     SSPBUF          equ	19	;# 
   616     0014                     SSPCON          equ	20	;# 
   617     0015                     CCPR1           equ	21	;# 
   618     0015                     CCPR1L          equ	21	;# 
   619     0016                     CCPR1H          equ	22	;# 
   620     0017                     CCP1CON         equ	23	;# 
   621     0018                     RCSTA           equ	24	;# 
   622     0019                     TXREG           equ	25	;# 
   623     001A                     RCREG           equ	26	;# 
   624     001B                     CCPR2           equ	27	;# 
   625     001B                     CCPR2L          equ	27	;# 
   626     001C                     CCPR2H          equ	28	;# 
   627     001D                     CCP2CON         equ	29	;# 
   628     001E                     ADRESH          equ	30	;# 
   629     001F                     ADCON0          equ	31	;# 
   630     0081                     OPTION_REG      equ	129	;# 
   631     0085                     TRISA           equ	133	;# 
   632     0086                     TRISB           equ	134	;# 
   633     0087                     TRISC           equ	135	;# 
   634     0088                     TRISD           equ	136	;# 
   635     0089                     TRISE           equ	137	;# 
   636     008C                     PIE1            equ	140	;# 
   637     008D                     PIE2            equ	141	;# 
   638     008E                     PCON            equ	142	;# 
   639     0091                     SSPCON2         equ	145	;# 
   640     0092                     PR2             equ	146	;# 
   641     0093                     SSPADD          equ	147	;# 
   642     0094                     SSPSTAT         equ	148	;# 
   643     0098                     TXSTA           equ	152	;# 
   644     0099                     SPBRG           equ	153	;# 
   645     009C                     CMCON           equ	156	;# 
   646     009D                     CVRCON          equ	157	;# 
   647     009E                     ADRESL          equ	158	;# 
   648     009F                     ADCON1          equ	159	;# 
   649     010C                     EEDATA          equ	268	;# 
   650     010D                     EEADR           equ	269	;# 
   651     010E                     EEDATH          equ	270	;# 
   652     010F                     EEADRH          equ	271	;# 
   653     018C                     EECON1          equ	396	;# 
   654     018D                     EECON2          equ	397	;# 
   655     0000                     INDF            equ	0	;# 
   656     0001                     TMR0            equ	1	;# 
   657     0002                     PCL             equ	2	;# 
   658     0003                     STATUS          equ	3	;# 
   659     0004                     FSR             equ	4	;# 
   660     0005                     PORTA           equ	5	;# 
   661     0006                     PORTB           equ	6	;# 
   662     0007                     PORTC           equ	7	;# 
   663     0008                     PORTD           equ	8	;# 
   664     0009                     PORTE           equ	9	;# 
   665     000A                     PCLATH          equ	10	;# 
   666     000B                     INTCON          equ	11	;# 
   667     000C                     PIR1            equ	12	;# 
   668     000D                     PIR2            equ	13	;# 
   669     000E                     TMR1            equ	14	;# 
   670     000E                     TMR1L           equ	14	;# 
   671     000F                     TMR1H           equ	15	;# 
   672     0010                     T1CON           equ	16	;# 
   673     0011                     TMR2            equ	17	;# 
   674     0012                     T2CON           equ	18	;# 
   675     0013                     SSPBUF          equ	19	;# 
   676     0014                     SSPCON          equ	20	;# 
   677     0015                     CCPR1           equ	21	;# 
   678     0015                     CCPR1L          equ	21	;# 
   679     0016                     CCPR1H          equ	22	;# 
   680     0017                     CCP1CON         equ	23	;# 
   681     0018                     RCSTA           equ	24	;# 
   682     0019                     TXREG           equ	25	;# 
   683     001A                     RCREG           equ	26	;# 
   684     001B                     CCPR2           equ	27	;# 
   685     001B                     CCPR2L          equ	27	;# 
   686     001C                     CCPR2H          equ	28	;# 
   687     001D                     CCP2CON         equ	29	;# 
   688     001E                     ADRESH          equ	30	;# 
   689     001F                     ADCON0          equ	31	;# 
   690     0081                     OPTION_REG      equ	129	;# 
   691     0085                     TRISA           equ	133	;# 
   692     0086                     TRISB           equ	134	;# 
   693     0087                     TRISC           equ	135	;# 
   694     0088                     TRISD           equ	136	;# 
   695     0089                     TRISE           equ	137	;# 
   696     008C                     PIE1            equ	140	;# 
   697     008D                     PIE2            equ	141	;# 
   698     008E                     PCON            equ	142	;# 
   699     0091                     SSPCON2         equ	145	;# 
   700     0092                     PR2             equ	146	;# 
   701     0093                     SSPADD          equ	147	;# 
   702     0094                     SSPSTAT         equ	148	;# 
   703     0098                     TXSTA           equ	152	;# 
   704     0099                     SPBRG           equ	153	;# 
   705     009C                     CMCON           equ	156	;# 
   706     009D                     CVRCON          equ	157	;# 
   707     009E                     ADRESL          equ	158	;# 
   708     009F                     ADCON1          equ	159	;# 
   709     010C                     EEDATA          equ	268	;# 
   710     010D                     EEADR           equ	269	;# 
   711     010E                     EEDATH          equ	270	;# 
   712     010F                     EEADRH          equ	271	;# 
   713     018C                     EECON1          equ	396	;# 
   714     018D                     EECON2          equ	397	;# 
   715     0000                     INDF            equ	0	;# 
   716     0001                     TMR0            equ	1	;# 
   717     0002                     PCL             equ	2	;# 
   718     0003                     STATUS          equ	3	;# 
   719     0004                     FSR             equ	4	;# 
   720     0005                     PORTA           equ	5	;# 
   721     0006                     PORTB           equ	6	;# 
   722     0007                     PORTC           equ	7	;# 
   723     0008                     PORTD           equ	8	;# 
   724     0009                     PORTE           equ	9	;# 
   725     000A                     PCLATH          equ	10	;# 
   726     000B                     INTCON          equ	11	;# 
   727     000C                     PIR1            equ	12	;# 
   728     000D                     PIR2            equ	13	;# 
   729     000E                     TMR1            equ	14	;# 
   730     000E                     TMR1L           equ	14	;# 
   731     000F                     TMR1H           equ	15	;# 
   732     0010                     T1CON           equ	16	;# 
   733     0011                     TMR2            equ	17	;# 
   734     0012                     T2CON           equ	18	;# 
   735     0013                     SSPBUF          equ	19	;# 
   736     0014                     SSPCON          equ	20	;# 
   737     0015                     CCPR1           equ	21	;# 
   738     0015                     CCPR1L          equ	21	;# 
   739     0016                     CCPR1H          equ	22	;# 
   740     0017                     CCP1CON         equ	23	;# 
   741     0018                     RCSTA           equ	24	;# 
   742     0019                     TXREG           equ	25	;# 
   743     001A                     RCREG           equ	26	;# 
   744     001B                     CCPR2           equ	27	;# 
   745     001B                     CCPR2L          equ	27	;# 
   746     001C                     CCPR2H          equ	28	;# 
   747     001D                     CCP2CON         equ	29	;# 
   748     001E                     ADRESH          equ	30	;# 
   749     001F                     ADCON0          equ	31	;# 
   750     0081                     OPTION_REG      equ	129	;# 
   751     0085                     TRISA           equ	133	;# 
   752     0086                     TRISB           equ	134	;# 
   753     0087                     TRISC           equ	135	;# 
   754     0088                     TRISD           equ	136	;# 
   755     0089                     TRISE           equ	137	;# 
   756     008C                     PIE1            equ	140	;# 
   757     008D                     PIE2            equ	141	;# 
   758     008E                     PCON            equ	142	;# 
   759     0091                     SSPCON2         equ	145	;# 
   760     0092                     PR2             equ	146	;# 
   761     0093                     SSPADD          equ	147	;# 
   762     0094                     SSPSTAT         equ	148	;# 
   763     0098                     TXSTA           equ	152	;# 
   764     0099                     SPBRG           equ	153	;# 
   765     009C                     CMCON           equ	156	;# 
   766     009D                     CVRCON          equ	157	;# 
   767     009E                     ADRESL          equ	158	;# 
   768     009F                     ADCON1          equ	159	;# 
   769     010C                     EEDATA          equ	268	;# 
   770     010D                     EEADR           equ	269	;# 
   771     010E                     EEDATH          equ	270	;# 
   772     010F                     EEADRH          equ	271	;# 
   773     018C                     EECON1          equ	396	;# 
   774     018D                     EECON2          equ	397	;# 
   775     0000                     INDF            equ	0	;# 
   776     0001                     TMR0            equ	1	;# 
   777     0002                     PCL             equ	2	;# 
   778     0003                     STATUS          equ	3	;# 
   779     0004                     FSR             equ	4	;# 
   780     0005                     PORTA           equ	5	;# 
   781     0006                     PORTB           equ	6	;# 
   782     0007                     PORTC           equ	7	;# 
   783     0008                     PORTD           equ	8	;# 
   784     0009                     PORTE           equ	9	;# 
   785     000A                     PCLATH          equ	10	;# 
   786     000B                     INTCON          equ	11	;# 
   787     000C                     PIR1            equ	12	;# 
   788     000D                     PIR2            equ	13	;# 
   789     000E                     TMR1            equ	14	;# 
   790     000E                     TMR1L           equ	14	;# 
   791     000F                     TMR1H           equ	15	;# 
   792     0010                     T1CON           equ	16	;# 
   793     0011                     TMR2            equ	17	;# 
   794     0012                     T2CON           equ	18	;# 
   795     0013                     SSPBUF          equ	19	;# 
   796     0014                     SSPCON          equ	20	;# 
   797     0015                     CCPR1           equ	21	;# 
   798     0015                     CCPR1L          equ	21	;# 
   799     0016                     CCPR1H          equ	22	;# 
   800     0017                     CCP1CON         equ	23	;# 
   801     0018                     RCSTA           equ	24	;# 
   802     0019                     TXREG           equ	25	;# 
   803     001A                     RCREG           equ	26	;# 
   804     001B                     CCPR2           equ	27	;# 
   805     001B                     CCPR2L          equ	27	;# 
   806     001C                     CCPR2H          equ	28	;# 
   807     001D                     CCP2CON         equ	29	;# 
   808     001E                     ADRESH          equ	30	;# 
   809     001F                     ADCON0          equ	31	;# 
   810     0081                     OPTION_REG      equ	129	;# 
   811     0085                     TRISA           equ	133	;# 
   812     0086                     TRISB           equ	134	;# 
   813     0087                     TRISC           equ	135	;# 
   814     0088                     TRISD           equ	136	;# 
   815     0089                     TRISE           equ	137	;# 
   816     008C                     PIE1            equ	140	;# 
   817     008D                     PIE2            equ	141	;# 
   818     008E                     PCON            equ	142	;# 
   819     0091                     SSPCON2         equ	145	;# 
   820     0092                     PR2             equ	146	;# 
   821     0093                     SSPADD          equ	147	;# 
   822     0094                     SSPSTAT         equ	148	;# 
   823     0098                     TXSTA           equ	152	;# 
   824     0099                     SPBRG           equ	153	;# 
   825     009C                     CMCON           equ	156	;# 
   826     009D                     CVRCON          equ	157	;# 
   827     009E                     ADRESL          equ	158	;# 
   828     009F                     ADCON1          equ	159	;# 
   829     010C                     EEDATA          equ	268	;# 
   830     010D                     EEADR           equ	269	;# 
   831     010E                     EEDATH          equ	270	;# 
   832     010F                     EEADRH          equ	271	;# 
   833     018C                     EECON1          equ	396	;# 
   834     018D                     EECON2          equ	397	;# 
   835     0000                     INDF            equ	0	;# 
   836     0001                     TMR0            equ	1	;# 
   837     0002                     PCL             equ	2	;# 
   838     0003                     STATUS          equ	3	;# 
   839     0004                     FSR             equ	4	;# 
   840     0005                     PORTA           equ	5	;# 
   841     0006                     PORTB           equ	6	;# 
   842     0007                     PORTC           equ	7	;# 
   843     0008                     PORTD           equ	8	;# 
   844     0009                     PORTE           equ	9	;# 
   845     000A                     PCLATH          equ	10	;# 
   846     000B                     INTCON          equ	11	;# 
   847     000C                     PIR1            equ	12	;# 
   848     000D                     PIR2            equ	13	;# 
   849     000E                     TMR1            equ	14	;# 
   850     000E                     TMR1L           equ	14	;# 
   851     000F                     TMR1H           equ	15	;# 
   852     0010                     T1CON           equ	16	;# 
   853     0011                     TMR2            equ	17	;# 
   854     0012                     T2CON           equ	18	;# 
   855     0013                     SSPBUF          equ	19	;# 
   856     0014                     SSPCON          equ	20	;# 
   857     0015                     CCPR1           equ	21	;# 
   858     0015                     CCPR1L          equ	21	;# 
   859     0016                     CCPR1H          equ	22	;# 
   860     0017                     CCP1CON         equ	23	;# 
   861     0018                     RCSTA           equ	24	;# 
   862     0019                     TXREG           equ	25	;# 
   863     001A                     RCREG           equ	26	;# 
   864     001B                     CCPR2           equ	27	;# 
   865     001B                     CCPR2L          equ	27	;# 
   866     001C                     CCPR2H          equ	28	;# 
   867     001D                     CCP2CON         equ	29	;# 
   868     001E                     ADRESH          equ	30	;# 
   869     001F                     ADCON0          equ	31	;# 
   870     0081                     OPTION_REG      equ	129	;# 
   871     0085                     TRISA           equ	133	;# 
   872     0086                     TRISB           equ	134	;# 
   873     0087                     TRISC           equ	135	;# 
   874     0088                     TRISD           equ	136	;# 
   875     0089                     TRISE           equ	137	;# 
   876     008C                     PIE1            equ	140	;# 
   877     008D                     PIE2            equ	141	;# 
   878     008E                     PCON            equ	142	;# 
   879     0091                     SSPCON2         equ	145	;# 
   880     0092                     PR2             equ	146	;# 
   881     0093                     SSPADD          equ	147	;# 
   882     0094                     SSPSTAT         equ	148	;# 
   883     0098                     TXSTA           equ	152	;# 
   884     0099                     SPBRG           equ	153	;# 
   885     009C                     CMCON           equ	156	;# 
   886     009D                     CVRCON          equ	157	;# 
   887     009E                     ADRESL          equ	158	;# 
   888     009F                     ADCON1          equ	159	;# 
   889     010C                     EEDATA          equ	268	;# 
   890     010D                     EEADR           equ	269	;# 
   891     010E                     EEDATH          equ	270	;# 
   892     010F                     EEADRH          equ	271	;# 
   893     018C                     EECON1          equ	396	;# 
   894     018D                     EECON2          equ	397	;# 
   895                           
   896                           	psect	idataBANK0
   897     0880                     __pidataBANK0:
   898                           
   899                           ;initializer for _delay
   900     0880  341E               	retlw	30
   901     0881  3400               	retlw	0
   902                           
   903                           ;initializer for read_digital_keypad@once
   904     0882  3401               	retlw	1
   905                           
   906                           	psect	idataBANK1
   907     0945                     __pidataBANK1:
   908                           
   909                           ;initializer for _event
   910     0945  3442               	retlw	low (STR_6| (0+32768))
   911     0946  3484               	retlw	high (STR_6| (0+32768))
   912     0947  343F               	retlw	low (STR_7| (0+32768))
   913     0948  3484               	retlw	high (STR_7| (0+32768))
   914     0949  3433               	retlw	low (STR_8| (0+32768))
   915     094A  3484               	retlw	high (STR_8| (0+32768))
   916     094B  3436               	retlw	low (STR_9| (0+32768))
   917     094C  3484               	retlw	high (STR_9| (0+32768))
   918     094D  3439               	retlw	low (STR_10| (0+32768))
   919     094E  3484               	retlw	high (STR_10| (0+32768))
   920     094F  343C               	retlw	low (STR_11| (0+32768))
   921     0950  3484               	retlw	high (STR_11| (0+32768))
   922     0951  3445               	retlw	low (STR_12| (0+32768))
   923     0952  3484               	retlw	high (STR_12| (0+32768))
   924     0953  3430               	retlw	low (STR_13| (0+32768))
   925     0954  3484               	retlw	high (STR_13| (0+32768))
   926                           
   927                           ;initializer for _menu_options
   928     0955  34B8               	retlw	low (STR_14| (0+32768))
   929     0956  3483               	retlw	high (STR_14| (0+32768))
   930     0957  34C7               	retlw	low (STR_15| (0+32768))
   931     0958  3483               	retlw	high (STR_15| (0+32768))
   932     0959  34E5               	retlw	low (STR_16| (0+32768))
   933     095A  3483               	retlw	high (STR_16| (0+32768))
   934     095B  34A9               	retlw	low (STR_17| (0+32768))
   935     095C  3483               	retlw	high (STR_17| (0+32768))
   936     095D  34D6               	retlw	low (STR_18| (0+32768))
   937     095E  3483               	retlw	high (STR_18| (0+32768))
   938                           
   939                           ;initializer for _original_password
   940     095F  3430               	retlw	48
   941     0960  3431               	retlw	49
   942     0961  3430               	retlw	48
   943     0962  3431               	retlw	49
   944     0019                     _TXREG          set	25
   945     001A                     _RCREG          set	26
   946     0001                     _TMR0           set	1
   947     0013                     _SSPBUF         set	19
   948     0006                     _PORTB          set	6
   949     0008                     _PORTD          set	8
   950     001E                     _ADRESH         set	30
   951     001F                     _ADCON0         set	31
   952     0064                     _TXIF           set	100
   953     0065                     _RCIF           set	101
   954     00C4                     _CREN           set	196
   955     00C7                     _SPEN           set	199
   956     005D                     _TMR0IE         set	93
   957     005F                     _GIE            set	95
   958     005A                     _TMR0IF         set	90
   959     00A5                     _SSPEN          set	165
   960     00A3                     _SSPM3          set	163
   961     0049                     _RE1            set	73
   962     004A                     _RE2            set	74
   963     00FA                     _nDONE          set	250
   964     00FA                     _GO             set	250
   965     00F8                     _ADON           set	248
   966     0099                     _SPBRG          set	153
   967     0091                     _SSPCON2        set	145
   968     0093                     _SSPADD         set	147
   969     0086                     _TRISB          set	134
   970     0088                     _TRISD          set	136
   971     009E                     _ADRESL         set	158
   972     040B                     _PSA            set	1035
   973     040D                     _T0CS           set	1037
   974     048E                     _ACKSTAT        set	1166
   975     048C                     _ACKEN          set	1164
   976     048D                     _ACKDT          set	1165
   977     048B                     _RCEN           set	1163
   978     048A                     _PEN            set	1162
   979     0488                     _SEN            set	1160
   980     04A2                     _R_nW           set	1186
   981     0449                     _TRISE1         set	1097
   982     044A                     _TRISE2         set	1098
   983     04FF                     _ADFM           set	1279
   984                           
   985                           	psect	strings
   986     0800                     __pstrings:
   987     0800                     stringtab:
   988     0800                     __stringtab:
   989                           
   990                           ;	String table - string pointers are 2 bytes each
   991     0800  1BFF               	btfsc	btemp+1,7
   992     0801  280A               	ljmp	stringcode
   993     0802  1383               	bcf	3,7
   994     0803  187F               	btfsc	btemp+1,0
   995     0804  1783               	bsf	3,7
   996     0805  0800               	movf	0,w
   997     0806  0A84               	incf	4,f
   998     0807  1903               	skipnz
   999     0808  0AFF               	incf	btemp+1,f
  1000     0809  0008               	return
  1001     080A                     stringcode:
  1002     080A  087F               	movf	btemp+1,w
  1003     080B  397F               	andlw	127
  1004     080C  008A               	movwf	10
  1005     080D  0804               	movf	4,w
  1006     080E  0A84               	incf	4,f
  1007     080F  1903               	skipnz
  1008     0810  0AFF               	incf	btemp+1,f
  1009     0811  0082               	movwf	2
  1010     0812                     __stringbase:
  1011     0812                     __end_of__stringtab:
  1012                           
  1013                           	psect	stringtext
  1014     0300                     __pstringtext:
  1015     0300                     STR_31:
  1016     0300  3423               	retlw	35	;'#'
  1017     0301  3420               	retlw	32	;' '
  1018     0302  3454               	retlw	84	;'T'
  1019     0303  3449               	retlw	73	;'I'
  1020     0304  344D               	retlw	77	;'M'
  1021     0305  3445               	retlw	69	;'E'
  1022     0306  3420               	retlw	32	;' '
  1023     0307  3420               	retlw	32	;' '
  1024     0308  3420               	retlw	32	;' '
  1025     0309  3420               	retlw	32	;' '
  1026     030A  3420               	retlw	32	;' '
  1027     030B  3445               	retlw	69	;'E'
  1028     030C  3456               	retlw	86	;'V'
  1029     030D  3420               	retlw	32	;' '
  1030     030E  3453               	retlw	83	;'S'
  1031     030F  3450               	retlw	80	;'P'
  1032     0310  340A               	retlw	10
  1033     0311  3400               	retlw	0
  1034     0312                     STR_35:
  1035     0312  3420               	retlw	32	;' '
  1036     0313  3420               	retlw	32	;' '
  1037     0314  3420               	retlw	32	;' '
  1038     0315  3420               	retlw	32	;' '
  1039     0316  3448               	retlw	72	;'H'
  1040     0317  3448               	retlw	72	;'H'
  1041     0318  343A               	retlw	58	;':'
  1042     0319  344D               	retlw	77	;'M'
  1043     031A  344D               	retlw	77	;'M'
  1044     031B  343A               	retlw	58	;':'
  1045     031C  3453               	retlw	83	;'S'
  1046     031D  3453               	retlw	83	;'S'
  1047     031E  3420               	retlw	32	;' '
  1048     031F  3420               	retlw	32	;' '
  1049     0320  3420               	retlw	32	;' '
  1050     0321  3420               	retlw	32	;' '
  1051     0322  3400               	retlw	0
  1052     0323                     STR_28:
  1053     0323  3443               	retlw	67	;'C'
  1054     0324  346C               	retlw	108	;'l'
  1055     0325  3465               	retlw	101	;'e'
  1056     0326  3461               	retlw	97	;'a'
  1057     0327  3472               	retlw	114	;'r'
  1058     0328  3469               	retlw	105	;'i'
  1059     0329  346E               	retlw	110	;'n'
  1060     032A  3467               	retlw	103	;'g'
  1061     032B  3420               	retlw	32	;' '
  1062     032C  344C               	retlw	76	;'L'
  1063     032D  346F               	retlw	111	;'o'
  1064     032E  3467               	retlw	103	;'g'
  1065     032F  3473               	retlw	115	;'s'
  1066     0330  342E               	retlw	46	;'.'
  1067     0331  342E               	retlw	46	;'.'
  1068     0332  342E               	retlw	46	;'.'
  1069     0333  3400               	retlw	0
  1070     0334                     STR_19:
  1071     0334  3420               	retlw	32	;' '
  1072     0335  3454               	retlw	84	;'T'
  1073     0336  3449               	retlw	73	;'I'
  1074     0337  344D               	retlw	77	;'M'
  1075     0338  3445               	retlw	69	;'E'
  1076     0339  3420               	retlw	32	;' '
  1077     033A  3420               	retlw	32	;' '
  1078     033B  3420               	retlw	32	;' '
  1079     033C  3420               	retlw	32	;' '
  1080     033D  3420               	retlw	32	;' '
  1081     033E  3445               	retlw	69	;'E'
  1082     033F  3456               	retlw	86	;'V'
  1083     0340  3420               	retlw	32	;' '
  1084     0341  3420               	retlw	32	;' '
  1085     0342  3453               	retlw	83	;'S'
  1086     0343  3450               	retlw	80	;'P'
  1087     0344  3400               	retlw	0
  1088     0345                     STR_27:
  1089     0345  3423               	retlw	35	;'#'
  1090     0346  3420               	retlw	32	;' '
  1091     0347  3454               	retlw	84	;'T'
  1092     0348  3449               	retlw	73	;'I'
  1093     0349  344D               	retlw	77	;'M'
  1094     034A  3445               	retlw	69	;'E'
  1095     034B  3420               	retlw	32	;' '
  1096     034C  3420               	retlw	32	;' '
  1097     034D  3420               	retlw	32	;' '
  1098     034E  3420               	retlw	32	;' '
  1099     034F  3420               	retlw	32	;' '
  1100     0350  3445               	retlw	69	;'E'
  1101     0351  3456               	retlw	86	;'V'
  1102     0352  3420               	retlw	32	;' '
  1103     0353  3453               	retlw	83	;'S'
  1104     0354  3450               	retlw	80	;'P'
  1105     0355  3400               	retlw	0
  1106     0356                     STR_2:
  1107     0356  3420               	retlw	32	;' '
  1108     0357  3420               	retlw	32	;' '
  1109     0358  3420               	retlw	32	;' '
  1110     0359  3420               	retlw	32	;' '
  1111     035A  3420               	retlw	32	;' '
  1112     035B  3420               	retlw	32	;' '
  1113     035C  3420               	retlw	32	;' '
  1114     035D  3420               	retlw	32	;' '
  1115     035E  3420               	retlw	32	;' '
  1116     035F  3420               	retlw	32	;' '
  1117     0360  3420               	retlw	32	;' '
  1118     0361  3420               	retlw	32	;' '
  1119     0362  3420               	retlw	32	;' '
  1120     0363  3420               	retlw	32	;' '
  1121     0364  3420               	retlw	32	;' '
  1122     0365  3420               	retlw	32	;' '
  1123     0366  3400               	retlw	0
  1124     0367                     STR_4:
  1125     0367  3420               	retlw	32	;' '
  1126     0368  3445               	retlw	69	;'E'
  1127     0369  344E               	retlw	78	;'N'
  1128     036A  3454               	retlw	84	;'T'
  1129     036B  3445               	retlw	69	;'E'
  1130     036C  3452               	retlw	82	;'R'
  1131     036D  3449               	retlw	73	;'I'
  1132     036E  344E               	retlw	78	;'N'
  1133     036F  3447               	retlw	71	;'G'
  1134     0370  3420               	retlw	32	;' '
  1135     0371  3457               	retlw	87	;'W'
  1136     0372  3441               	retlw	65	;'A'
  1137     0373  3449               	retlw	73	;'I'
  1138     0374  3454               	retlw	84	;'T'
  1139     0375  3420               	retlw	32	;' '
  1140     0376  3420               	retlw	32	;' '
  1141     0377  3400               	retlw	0
  1142     0378                     STR_1:
  1143     0378  3420               	retlw	32	;' '
  1144     0379  3445               	retlw	69	;'E'
  1145     037A  344E               	retlw	78	;'N'
  1146     037B  3454               	retlw	84	;'T'
  1147     037C  3445               	retlw	69	;'E'
  1148     037D  3452               	retlw	82	;'R'
  1149     037E  3420               	retlw	32	;' '
  1150     037F  3450               	retlw	80	;'P'
  1151     0380  3441               	retlw	65	;'A'
  1152     0381  3453               	retlw	83	;'S'
  1153     0382  3453               	retlw	83	;'S'
  1154     0383  3457               	retlw	87	;'W'
  1155     0384  344F               	retlw	79	;'O'
  1156     0385  3452               	retlw	82	;'R'
  1157     0386  3444               	retlw	68	;'D'
  1158     0387  3420               	retlw	32	;' '
  1159     0388  3400               	retlw	0
  1160     0389                     STR_20:
  1161     0389  3458               	retlw	88	;'X'
  1162     038A  3458               	retlw	88	;'X'
  1163     038B  3458               	retlw	88	;'X'
  1164     038C  3458               	retlw	88	;'X'
  1165     038D  3458               	retlw	88	;'X'
  1166     038E  3458               	retlw	88	;'X'
  1167     038F  3458               	retlw	88	;'X'
  1168     0390  3458               	retlw	88	;'X'
  1169     0391  3458               	retlw	88	;'X'
  1170     0392  3458               	retlw	88	;'X'
  1171     0393  3458               	retlw	88	;'X'
  1172     0394  3458               	retlw	88	;'X'
  1173     0395  3458               	retlw	88	;'X'
  1174     0396  3458               	retlw	88	;'X'
  1175     0397  3458               	retlw	88	;'X'
  1176     0398  3400               	retlw	0
  1177     0399                     STR_3:
  1178     0399  3441               	retlw	65	;'A'
  1179     039A  3463               	retlw	99	;'c'
  1180     039B  3463               	retlw	99	;'c'
  1181     039C  3465               	retlw	101	;'e'
  1182     039D  3473               	retlw	115	;'s'
  1183     039E  3473               	retlw	115	;'s'
  1184     039F  3420               	retlw	32	;' '
  1185     03A0  3447               	retlw	71	;'G'
  1186     03A1  3472               	retlw	114	;'r'
  1187     03A2  3461               	retlw	97	;'a'
  1188     03A3  346E               	retlw	110	;'n'
  1189     03A4  3474               	retlw	116	;'t'
  1190     03A5  3465               	retlw	101	;'e'
  1191     03A6  3464               	retlw	100	;'d'
  1192     03A7  342E               	retlw	46	;'.'
  1193     03A8  3400               	retlw	0
  1194     03A9                     STR_17:
  1195     03A9  3453               	retlw	83	;'S'
  1196     03AA  3465               	retlw	101	;'e'
  1197     03AB  3474               	retlw	116	;'t'
  1198     03AC  3420               	retlw	32	;' '
  1199     03AD  3454               	retlw	84	;'T'
  1200     03AE  3469               	retlw	105	;'i'
  1201     03AF  346D               	retlw	109	;'m'
  1202     03B0  3465               	retlw	101	;'e'
  1203     03B1  3420               	retlw	32	;' '
  1204     03B2  3420               	retlw	32	;' '
  1205     03B3  3420               	retlw	32	;' '
  1206     03B4  3420               	retlw	32	;' '
  1207     03B5  3420               	retlw	32	;' '
  1208     03B6  3420               	retlw	32	;' '
  1209     03B7  3400               	retlw	0
  1210     03B8                     STR_14:
  1211     03B8  3456               	retlw	86	;'V'
  1212     03B9  3469               	retlw	105	;'i'
  1213     03BA  3465               	retlw	101	;'e'
  1214     03BB  3477               	retlw	119	;'w'
  1215     03BC  3420               	retlw	32	;' '
  1216     03BD  344C               	retlw	76	;'L'
  1217     03BE  346F               	retlw	111	;'o'
  1218     03BF  3467               	retlw	103	;'g'
  1219     03C0  3420               	retlw	32	;' '
  1220     03C1  3420               	retlw	32	;' '
  1221     03C2  3420               	retlw	32	;' '
  1222     03C3  3420               	retlw	32	;' '
  1223     03C4  3420               	retlw	32	;' '
  1224     03C5  3420               	retlw	32	;' '
  1225     03C6  3400               	retlw	0
  1226     03C7                     STR_15:
  1227     03C7  3443               	retlw	67	;'C'
  1228     03C8  346C               	retlw	108	;'l'
  1229     03C9  3465               	retlw	101	;'e'
  1230     03CA  3461               	retlw	97	;'a'
  1231     03CB  3472               	retlw	114	;'r'
  1232     03CC  3420               	retlw	32	;' '
  1233     03CD  344C               	retlw	76	;'L'
  1234     03CE  346F               	retlw	111	;'o'
  1235     03CF  3467               	retlw	103	;'g'
  1236     03D0  3420               	retlw	32	;' '
  1237     03D1  3420               	retlw	32	;' '
  1238     03D2  3420               	retlw	32	;' '
  1239     03D3  3420               	retlw	32	;' '
  1240     03D4  3420               	retlw	32	;' '
  1241     03D5  3400               	retlw	0
  1242     03D6                     STR_18:
  1243     03D6  3443               	retlw	67	;'C'
  1244     03D7  3468               	retlw	104	;'h'
  1245     03D8  3461               	retlw	97	;'a'
  1246     03D9  346E               	retlw	110	;'n'
  1247     03DA  3467               	retlw	103	;'g'
  1248     03DB  3465               	retlw	101	;'e'
  1249     03DC  3420               	retlw	32	;' '
  1250     03DD  3450               	retlw	80	;'P'
  1251     03DE  3461               	retlw	97	;'a'
  1252     03DF  3473               	retlw	115	;'s'
  1253     03E0  3473               	retlw	115	;'s'
  1254     03E1  3420               	retlw	32	;' '
  1255     03E2  3420               	retlw	32	;' '
  1256     03E3  3420               	retlw	32	;' '
  1257     03E4  3400               	retlw	0
  1258     03E5                     STR_16:
  1259     03E5  3444               	retlw	68	;'D'
  1260     03E6  346F               	retlw	111	;'o'
  1261     03E7  3477               	retlw	119	;'w'
  1262     03E8  346E               	retlw	110	;'n'
  1263     03E9  346C               	retlw	108	;'l'
  1264     03EA  346F               	retlw	111	;'o'
  1265     03EB  3461               	retlw	97	;'a'
  1266     03EC  3464               	retlw	100	;'d'
  1267     03ED  3420               	retlw	32	;' '
  1268     03EE  344C               	retlw	76	;'L'
  1269     03EF  346F               	retlw	111	;'o'
  1270     03F0  3467               	retlw	103	;'g'
  1271     03F1  3420               	retlw	32	;' '
  1272     03F2  3420               	retlw	32	;' '
  1273     03F3  3400               	retlw	0
  1274     03F4                     STR_30:
  1275     03F4  3444               	retlw	68	;'D'
  1276     03F5  346F               	retlw	111	;'o'
  1277     03F6  3477               	retlw	119	;'w'
  1278     03F7  346E               	retlw	110	;'n'
  1279     03F8  346C               	retlw	108	;'l'
  1280     03F9  346F               	retlw	111	;'o'
  1281     03FA  3461               	retlw	97	;'a'
  1282     03FB  3464               	retlw	100	;'d'
  1283     03FC  3469               	retlw	105	;'i'
  1284     03FD  346E               	retlw	110	;'n'
  1285     03FE  3467               	retlw	103	;'g'
  1286     03FF  342E               	retlw	46	;'.'
  1287     0400  342E               	retlw	46	;'.'
  1288     0401  342E               	retlw	46	;'.'
  1289     0402  3400               	retlw	0
  1290     0403                     STR_5:
  1291     0403  3453               	retlw	83	;'S'
  1292     0404  3465               	retlw	101	;'e'
  1293     0405  3463               	retlw	99	;'c'
  1294     0406  346F               	retlw	111	;'o'
  1295     0407  346E               	retlw	110	;'n'
  1296     0408  3464               	retlw	100	;'d'
  1297     0409  3473               	retlw	115	;'s'
  1298     040A  3420               	retlw	32	;' '
  1299     040B  346C               	retlw	108	;'l'
  1300     040C  3465               	retlw	101	;'e'
  1301     040D  3466               	retlw	102	;'f'
  1302     040E  3474               	retlw	116	;'t'
  1303     040F  343A               	retlw	58	;':'
  1304     0410  3420               	retlw	32	;' '
  1305     0411  3400               	retlw	0
  1306     0412                     STR_26:
  1307     0412  3441               	retlw	65	;'A'
  1308     0413  3476               	retlw	118	;'v'
  1309     0414  3461               	retlw	97	;'a'
  1310     0415  3469               	retlw	105	;'i'
  1311     0416  346C               	retlw	108	;'l'
  1312     0417  3461               	retlw	97	;'a'
  1313     0418  3462               	retlw	98	;'b'
  1314     0419  346C               	retlw	108	;'l'
  1315     041A  3465               	retlw	101	;'e'
  1316     041B  3400               	retlw	0
  1317     041C                     STR_29:
  1318     041C  344C               	retlw	76	;'L'
  1319     041D  346F               	retlw	111	;'o'
  1320     041E  3467               	retlw	103	;'g'
  1321     041F  3473               	retlw	115	;'s'
  1322     0420  3420               	retlw	32	;' '
  1323     0421  3461               	retlw	97	;'a'
  1324     0422  3472               	retlw	114	;'r'
  1325     0423  3465               	retlw	101	;'e'
  1326     0424  3400               	retlw	0
  1327     0425                     STR_25:
  1328     0425  344E               	retlw	78	;'N'
  1329     0426  346F               	retlw	111	;'o'
  1330     0427  3420               	retlw	32	;' '
  1331     0428  344C               	retlw	76	;'L'
  1332     0429  346F               	retlw	111	;'o'
  1333     042A  3467               	retlw	103	;'g'
  1334     042B  3473               	retlw	115	;'s'
  1335     042C  3400               	retlw	0
  1336     042D                     STR_21:
  1337     042D  342A               	retlw	42	;'*'
  1338     042E  3420               	retlw	32	;' '
  1339     042F  3400               	retlw	0
  1340     0430                     STR_13:
  1341     0430  3443               	retlw	67	;'C'
  1342     0431  3420               	retlw	32	;' '
  1343     0432  3400               	retlw	0
  1344     0433                     STR_8:
  1345     0433  3447               	retlw	71	;'G'
  1346     0434  3431               	retlw	49	;'1'
  1347     0435  3400               	retlw	0
  1348     0436                     STR_9:
  1349     0436  3447               	retlw	71	;'G'
  1350     0437  3432               	retlw	50	;'2'
  1351     0438  3400               	retlw	0
  1352     0439                     STR_10:
  1353     0439  3447               	retlw	71	;'G'
  1354     043A  3433               	retlw	51	;'3'
  1355     043B  3400               	retlw	0
  1356     043C                     STR_11:
  1357     043C  3447               	retlw	71	;'G'
  1358     043D  3434               	retlw	52	;'4'
  1359     043E  3400               	retlw	0
  1360     043F                     STR_7:
  1361     043F  3447               	retlw	71	;'G'
  1362     0440  344E               	retlw	78	;'N'
  1363     0441  3400               	retlw	0
  1364     0442                     STR_6:
  1365     0442  344F               	retlw	79	;'O'
  1366     0443  344E               	retlw	78	;'N'
  1367     0444  3400               	retlw	0
  1368     0445                     STR_12:
  1369     0445  3447               	retlw	71	;'G'
  1370     0446  3452               	retlw	82	;'R'
  1371     0447  3400               	retlw	0
  1372     042D                     STR_23          equ	STR_21
  1373     0364                     STR_22          equ	STR_2+14
  1374     0364                     STR_24          equ	STR_2+14
  1375     0364                     STR_32          equ	STR_2+14
  1376     0364                     STR_33          equ	STR_2+14
  1377     0364                     STR_34          equ	STR_2+14
  1378                           
  1379                           	psect	cinit
  1380     000F                     start_initialization:	
  1381                           ; #config settings
  1382                           
  1383     000F                     __initialization:
  1384                           
  1385                           ; Initialize objects allocated to BANK1
  1386     000F  1383               	bcf	3,7	;select IRP bank0
  1387     0010  30BE               	movlw	low (__pdataBANK1+30)
  1388     0011  00FD               	movwf	btemp+-1
  1389     0012  3009               	movlw	high __pidataBANK1
  1390     0013  00FE               	movwf	btemp
  1391     0014  3045               	movlw	low __pidataBANK1
  1392     0015  00FF               	movwf	btemp+1
  1393     0016  30A0               	movlw	low __pdataBANK1
  1394     0017  0084               	movwf	4
  1395     0018  120A  158A  2103  120A  118A  	fcall	init_ram0
  1396                           
  1397                           ; Initialize objects allocated to BANK0
  1398     001D  3070               	movlw	low (__pdataBANK0+3)
  1399     001E  00FD               	movwf	btemp+-1
  1400     001F  3008               	movlw	high __pidataBANK0
  1401     0020  00FE               	movwf	btemp
  1402     0021  3080               	movlw	low __pidataBANK0
  1403     0022  00FF               	movwf	btemp+1
  1404     0023  306D               	movlw	low __pdataBANK0
  1405     0024  0084               	movwf	4
  1406     0025  120A  158A  2103  120A  118A  	fcall	init_ram0
  1407                           
  1408                           ; Clear objects allocated to BANK1
  1409     002A  30BE               	movlw	low __pbssBANK1
  1410     002B  0084               	movwf	4
  1411     002C  30DA               	movlw	low (__pbssBANK1+28)
  1412     002D  120A  118A  22F8  120A  118A  	fcall	clear_ram0
  1413                           
  1414                           ; Clear objects allocated to BANK0
  1415     0032  304D               	movlw	low __pbssBANK0
  1416     0033  0084               	movwf	4
  1417     0034  306D               	movlw	low (__pbssBANK0+32)
  1418     0035  120A  118A  22F8  120A  118A  	fcall	clear_ram0
  1419                           
  1420                           ; Clear objects allocated to COMMON
  1421     003A  01FA               	clrf	__pbssCOMMON& (0+127)
  1422     003B  01FB               	clrf	(__pbssCOMMON+1)& (0+127)
  1423     003C                     end_of_initialization:	
  1424                           ;End of C runtime variable initialization code
  1425                           
  1426     003C                     __end_of__initialization:
  1427     003C  0183               	clrf	3
  1428     003D  120A  158A  2C59   	ljmp	_main	;jump to C main() function
  1429                           
  1430                           	psect	bssCOMMON
  1431     007A                     __pbssCOMMON:
  1432     007A                     _pos:
  1433     007A                     	ds	2
  1434                           
  1435                           	psect	bssBANK0
  1436     004D                     __pbssBANK0:
  1437     004D                     _user_entered_password:
  1438     004D                     	ds	4
  1439     0051                     isr@count:
  1440     0051                     	ds	2
  1441     0053                     write_event@address:
  1442     0053                     	ds	2
  1443     0055                     _event_count:
  1444     0055                     	ds	2
  1445     0057                     _adc_val:
  1446     0057                     	ds	2
  1447     0059                     _attempt_no:
  1448     0059                     	ds	2
  1449     005B                     _index:
  1450     005B                     	ds	2
  1451     005D                     _access:
  1452     005D                     	ds	1
  1453     005E                     _time:
  1454     005E                     	ds	9
  1455     0067                     _speed:
  1456     0067                     	ds	3
  1457     006A                     _clock_reg:
  1458     006A                     	ds	3
  1459                           
  1460                           	psect	dataBANK0
  1461     006D                     __pdataBANK0:
  1462     006D                     _delay:
  1463     006D                     	ds	2
  1464     006F                     read_digital_keypad@once:
  1465     006F                     	ds	1
  1466                           
  1467                           	psect	bssBANK1
  1468     00BE                     __pbssBANK1:
  1469     00BE                     _logs:
  1470     00BE                     	ds	17
  1471     00CF                     read_event@event:
  1472     00CF                     	ds	11
  1473                           
  1474                           	psect	dataBANK1
  1475     00A0                     __pdataBANK1:
  1476     00A0                     _event:
  1477     00A0                     	ds	16
  1478     00B0                     _menu_options:
  1479     00B0                     	ds	10
  1480     00BA                     _original_password:
  1481     00BA                     	ds	4
  1482                           
  1483                           	psect	inittext
  1484     08FF                     init_fetch0:	
  1485                           ;	Called with low address in FSR and high address in W
  1486                           
  1487     08FF  087E               	movf	btemp,w
  1488     0900  008A               	movwf	10
  1489     0901  087F               	movf	btemp+1,w
  1490     0902  0082               	movwf	2
  1491     0903                     init_ram0:	
  1492                           ;Called with:
  1493                           ;	high address of idata address in btemp 
  1494                           ;	low address of idata address in btemp+1 
  1495                           ;	low address of data in FSR
  1496                           ;	high address + 1 of data in btemp-1
  1497                           
  1498     0903  120A  158A  20FF  120A  158A  	fcall	init_fetch0
  1499     0908  0080               	movwf	0
  1500     0909  0A84               	incf	4,f
  1501     090A  0804               	movf	4,w
  1502     090B  067D               	xorwf	btemp+-1,w
  1503     090C  1903               	btfsc	3,2
  1504     090D  3400               	retlw	0
  1505     090E  0AFF               	incf	btemp+1,f
  1506     090F  1903               	btfsc	3,2
  1507     0910  0AFE               	incf	btemp,f
  1508     0911  2903               	goto	init_ram0
  1509                           
  1510                           	psect	clrtext
  1511     02F8                     clear_ram0:	
  1512                           ;	Called with FSR containing the base address, and
  1513                           ;	W with the last address+1
  1514                           
  1515     02F8  0064               	clrwdt	;clear the watchdog before getting into this loop
  1516     02F9                     clrloop0:
  1517     02F9  0180               	clrf	0	;clear RAM location pointed to by FSR
  1518     02FA  0A84               	incf	4,f	;increment pointer
  1519     02FB  0604               	xorwf	4,w	;XOR with final address
  1520     02FC  1903               	btfsc	3,2	;have we reached the end yet?
  1521     02FD  3400               	retlw	0	;all done for this memory range, return
  1522     02FE  0604               	xorwf	4,w	;XOR again to restore value
  1523     02FF  2AF9               	goto	clrloop0	;do the next byte
  1524                           
  1525                           	psect	cstackBANK1
  1526     00DA                     __pcstackBANK1:
  1527     00DA                     main@key:
  1528                           
  1529                           ; 1 bytes @ 0x0
  1530     00DA                     	ds	1
  1531     00DB                     main@operation:
  1532                           
  1533                           ; 1 bytes @ 0x1
  1534     00DB                     	ds	1
  1535                           
  1536                           	psect	cstackCOMMON
  1537     0070                     __pcstackCOMMON:
  1538     0070                     ?_read_digital_keypad:
  1539     0070                     ?_run_delay:	
  1540                           ; 1 bytes @ 0x0
  1541                           
  1542     0070                     ?_init_timer0:	
  1543                           ; 1 bytes @ 0x0
  1544                           
  1545     0070                     ?_read_external_eeprom:	
  1546                           ; 1 bytes @ 0x0
  1547                           
  1548     0070                     ?_view_log:	
  1549                           ; 1 bytes @ 0x0
  1550                           
  1551     0070                     ?_clear_log:	
  1552                           ; 1 bytes @ 0x0
  1553                           
  1554     0070                     ?_download_log:	
  1555                           ; 1 bytes @ 0x0
  1556                           
  1557     0070                     ?_put_char:	
  1558                           ; 1 bytes @ 0x0
  1559                           
  1560     0070                     ?_read_ds1307:	
  1561                           ; 1 bytes @ 0x0
  1562                           
  1563     0070                     ?_i2c_start:	
  1564                           ; 1 bytes @ 0x0
  1565                           
  1566     0070                     ?_i2c_rep_start:	
  1567                           ; 1 bytes @ 0x0
  1568                           
  1569     0070                     ?_i2c_read:	
  1570                           ; 1 bytes @ 0x0
  1571                           
  1572     0070                     ?_i2c_stop:	
  1573                           ; 1 bytes @ 0x0
  1574                           
  1575     0070                     ?_init_adc:	
  1576                           ; 1 bytes @ 0x0
  1577                           
  1578     0070                     ?_auth_user:	
  1579                           ; 1 bytes @ 0x0
  1580                           
  1581     0070                     ?_init_display_controller:	
  1582                           ; 1 bytes @ 0x0
  1583                           
  1584     0070                     ?_init_clcd:	
  1585                           ; 1 bytes @ 0x0
  1586                           
  1587     0070                     ?_clear_screen:	
  1588                           ; 1 bytes @ 0x0
  1589                           
  1590     0070                     ?_write_event:	
  1591                           ; 1 bytes @ 0x0
  1592                           
  1593     0070                     ?_dashboard:	
  1594                           ; 1 bytes @ 0x0
  1595                           
  1596     0070                     ?_main_menu:	
  1597                           ; 1 bytes @ 0x0
  1598                           
  1599     0070                     ?_read_and_format_log:	
  1600                           ; 1 bytes @ 0x0
  1601                           
  1602     0070                     ?_init_digital_keypad:	
  1603                           ; 1 bytes @ 0x0
  1604                           
  1605     0070                     ?_init_ds1307:	
  1606                           ; 1 bytes @ 0x0
  1607                           
  1608     0070                     ?_i2c_wait_for_idle:	
  1609                           ; 1 bytes @ 0x0
  1610                           
  1611     0070                     ?_isr:	
  1612                           ; 1 bytes @ 0x0
  1613                           
  1614     0070                     ?_init_config:	
  1615                           ; 1 bytes @ 0x0
  1616                           
  1617     0070                     ?_main:	
  1618                           ; 1 bytes @ 0x0
  1619                           
  1620     0070                     ?_i2c_write:	
  1621                           ; 1 bytes @ 0x0
  1622                           
  1623     0070                     ??_isr:	
  1624                           ; 2 bytes @ 0x0
  1625                           
  1626                           
  1627                           ; 1 bytes @ 0x0
  1628     0070                     	ds	2
  1629     0072                     ?_clcd_write:
  1630     0072                     ?_read_adc:	
  1631                           ; 1 bytes @ 0x2
  1632                           
  1633     0072                     ?___wmul:	
  1634                           ; 2 bytes @ 0x2
  1635                           
  1636     0072                     ?___lwdiv:	
  1637                           ; 2 bytes @ 0x2
  1638                           
  1639     0072                     ?___lwmod:	
  1640                           ; 2 bytes @ 0x2
  1641                           
  1642     0072                     ?___lldiv:	
  1643                           ; 2 bytes @ 0x2
  1644                           
  1645     0072                     ?___xxtofl:	
  1646                           ; 4 bytes @ 0x2
  1647                           
  1648     0072                     clcd_write@mode:	
  1649                           ; 4 bytes @ 0x2
  1650                           
  1651     0072                     i2c_read@ack:	
  1652                           ; 1 bytes @ 0x2
  1653                           
  1654     0072                     i2c_write@data:	
  1655                           ; 1 bytes @ 0x2
  1656                           
  1657     0072                     put_char@data:	
  1658                           ; 1 bytes @ 0x2
  1659                           
  1660     0072                     ___wmul@multiplier:	
  1661                           ; 1 bytes @ 0x2
  1662                           
  1663     0072                     ___lwdiv@divisor:	
  1664                           ; 2 bytes @ 0x2
  1665                           
  1666     0072                     ___lwmod@divisor:	
  1667                           ; 2 bytes @ 0x2
  1668                           
  1669     0072                     ___lldiv@divisor:	
  1670                           ; 2 bytes @ 0x2
  1671                           
  1672     0072                     ___xxtofl@val:	
  1673                           ; 4 bytes @ 0x2
  1674                           
  1675     0072                     ??_read_digital_keypad:	
  1676                           ; 4 bytes @ 0x2
  1677                           
  1678     0072                     ??_init_timer0:	
  1679                           ; 1 bytes @ 0x2
  1680                           
  1681     0072                     ??_put_char:	
  1682                           ; 1 bytes @ 0x2
  1683                           
  1684     0072                     ??_i2c_start:	
  1685                           ; 1 bytes @ 0x2
  1686                           
  1687     0072                     ??_i2c_write:	
  1688                           ; 1 bytes @ 0x2
  1689                           
  1690     0072                     ??_i2c_rep_start:	
  1691                           ; 1 bytes @ 0x2
  1692                           
  1693     0072                     ??_i2c_read:	
  1694                           ; 1 bytes @ 0x2
  1695                           
  1696     0072                     ??_i2c_stop:	
  1697                           ; 1 bytes @ 0x2
  1698                           
  1699     0072                     ??_init_adc:	
  1700                           ; 1 bytes @ 0x2
  1701                           
  1702     0072                     ??_init_digital_keypad:	
  1703                           ; 1 bytes @ 0x2
  1704                           
  1705     0072                     ??_i2c_wait_for_idle:	
  1706                           ; 1 bytes @ 0x2
  1707                           
  1708                           
  1709                           ; 1 bytes @ 0x2
  1710     0072                     	ds	1
  1711     0073                     ?_write_external_eeprom:
  1712     0073                     ?_put_s:	
  1713                           ; 1 bytes @ 0x3
  1714                           
  1715     0073                     ?_write_ds1307:	
  1716                           ; 1 bytes @ 0x3
  1717                           
  1718     0073                     read_digital_keypad@mode:	
  1719                           ; 1 bytes @ 0x3
  1720                           
  1721     0073                     write_ds1307@data:	
  1722                           ; 1 bytes @ 0x3
  1723                           
  1724     0073                     write_external_eeprom@data:	
  1725                           ; 1 bytes @ 0x3
  1726                           
  1727     0073                     i2c_read@data:	
  1728                           ; 1 bytes @ 0x3
  1729                           
  1730     0073                     put_s@s:	
  1731                           ; 1 bytes @ 0x3
  1732                           
  1733     0073                     ??_clcd_write:	
  1734                           ; 2 bytes @ 0x3
  1735                           
  1736                           
  1737                           ; 1 bytes @ 0x3
  1738     0073                     	ds	1
  1739     0074                     read_ds1307@addr:
  1740     0074                     write_ds1307@addr:	
  1741                           ; 1 bytes @ 0x4
  1742                           
  1743     0074                     write_external_eeprom@address:	
  1744                           ; 1 bytes @ 0x4
  1745                           
  1746     0074                     read_external_eeprom@address:	
  1747                           ; 1 bytes @ 0x4
  1748                           
  1749     0074                     ___wmul@multiplicand:	
  1750                           ; 1 bytes @ 0x4
  1751                           
  1752     0074                     ___lwdiv@dividend:	
  1753                           ; 2 bytes @ 0x4
  1754                           
  1755     0074                     ___lwmod@dividend:	
  1756                           ; 2 bytes @ 0x4
  1757                           
  1758     0074                     ??_read_external_eeprom:	
  1759                           ; 2 bytes @ 0x4
  1760                           
  1761     0074                     ??_write_external_eeprom:	
  1762                           ; 1 bytes @ 0x4
  1763                           
  1764     0074                     ??_read_ds1307:	
  1765                           ; 1 bytes @ 0x4
  1766                           
  1767     0074                     ??_write_ds1307:	
  1768                           ; 1 bytes @ 0x4
  1769                           
  1770     0074                     ??_read_adc:	
  1771                           ; 1 bytes @ 0x4
  1772                           
  1773                           
  1774                           ; 1 bytes @ 0x4
  1775     0074                     	ds	1
  1776     0075                     read_adc@channel:
  1777     0075                     clcd_write@byte:	
  1778                           ; 1 bytes @ 0x5
  1779                           
  1780     0075                     read_ds1307@data:	
  1781                           ; 1 bytes @ 0x5
  1782                           
  1783     0075                     read_external_eeprom@data:	
  1784                           ; 1 bytes @ 0x5
  1785                           
  1786     0075                     write_external_eeprom@wait:	
  1787                           ; 1 bytes @ 0x5
  1788                           
  1789     0075                     ??_put_s:	
  1790                           ; 2 bytes @ 0x5
  1791                           
  1792                           
  1793                           ; 1 bytes @ 0x5
  1794     0075                     	ds	1
  1795     0076                     ?_clcd_print:
  1796     0076                     ?_get_time:	
  1797                           ; 1 bytes @ 0x6
  1798                           
  1799     0076                     init_ds1307@dummy:	
  1800                           ; 1 bytes @ 0x6
  1801                           
  1802     0076                     get_time@clock_reg:	
  1803                           ; 1 bytes @ 0x6
  1804                           
  1805     0076                     ___lwdiv@counter:	
  1806                           ; 1 bytes @ 0x6
  1807                           
  1808     0076                     ___lwmod@counter:	
  1809                           ; 1 bytes @ 0x6
  1810                           
  1811     0076                     read_adc@adc_reg_val:	
  1812                           ; 1 bytes @ 0x6
  1813                           
  1814     0076                     clcd_print@str:	
  1815                           ; 2 bytes @ 0x6
  1816                           
  1817     0076                     ___wmul@product:	
  1818                           ; 2 bytes @ 0x6
  1819                           
  1820     0076                     ___lldiv@dividend:	
  1821                           ; 2 bytes @ 0x6
  1822                           
  1823     0076                     ??_init_display_controller:	
  1824                           ; 4 bytes @ 0x6
  1825                           
  1826     0076                     ??_clear_screen:	
  1827                           ; 1 bytes @ 0x6
  1828                           
  1829     0076                     ??_init_ds1307:	
  1830                           ; 1 bytes @ 0x6
  1831                           
  1832     0076                     ??___wmul:	
  1833                           ; 1 bytes @ 0x6
  1834                           
  1835     0076                     ??___lwdiv:	
  1836                           ; 1 bytes @ 0x6
  1837                           
  1838     0076                     ??___lwmod:	
  1839                           ; 1 bytes @ 0x6
  1840                           
  1841     0076                     ??___xxtofl:	
  1842                           ; 1 bytes @ 0x6
  1843                           
  1844                           
  1845                           ; 1 bytes @ 0x6
  1846     0076                     	ds	1
  1847     0077                     write_event@i:
  1848     0077                     ___lwdiv@quotient:	
  1849                           ; 2 bytes @ 0x7
  1850                           
  1851     0077                     ??_get_time:	
  1852                           ; 2 bytes @ 0x7
  1853                           
  1854                           
  1855                           ; 1 bytes @ 0x7
  1856     0077                     	ds	1
  1857     0078                     ?_read_event:
  1858     0078                     clcd_print@addr:	
  1859                           ; 1 bytes @ 0x8
  1860                           
  1861     0078                     read_event@addr:	
  1862                           ; 1 bytes @ 0x8
  1863                           
  1864     0078                     ??_init_clcd:	
  1865                           ; 2 bytes @ 0x8
  1866                           
  1867                           
  1868                           ; 1 bytes @ 0x8
  1869     0078                     	ds	1
  1870     0079                     ?_clcd_putch:
  1871     0079                     ?_display_time:	
  1872                           ; 1 bytes @ 0x9
  1873                           
  1874     0079                     clcd_putch@addr:	
  1875                           ; 1 bytes @ 0x9
  1876                           
  1877     0079                     display_time@clock_reg:	
  1878                           ; 1 bytes @ 0x9
  1879                           
  1880     0079                     ??_clcd_print:	
  1881                           ; 1 bytes @ 0x9
  1882                           
  1883     0079                     ??_print_star:	
  1884                           ; 1 bytes @ 0x9
  1885                           
  1886                           
  1887                           ; 1 bytes @ 0x9
  1888     0079                     	ds	1
  1889     007A                     ??_clcd_putch:
  1890     007A                     ??_run_delay:	
  1891                           ; 1 bytes @ 0xA
  1892                           
  1893     007A                     ??_read_event:	
  1894                           ; 1 bytes @ 0xA
  1895                           
  1896     007A                     ??_init_config:	
  1897                           ; 1 bytes @ 0xA
  1898                           
  1899     007A                     ??_main:	
  1900                           ; 1 bytes @ 0xA
  1901                           
  1902                           
  1903                           	psect	cstackBANK0
  1904     0020                     __pcstackBANK0:	
  1905                           ; 1 bytes @ 0xA
  1906                           
  1907     0020                     ?_print_star:
  1908     0020                     clcd_putch@data:	
  1909                           ; 1 bytes @ 0x0
  1910                           
  1911     0020                     ___xxtofl@sign:	
  1912                           ; 1 bytes @ 0x0
  1913                           
  1914     0020                     read_event@i:	
  1915                           ; 1 bytes @ 0x0
  1916                           
  1917     0020                     print_star@position:	
  1918                           ; 2 bytes @ 0x0
  1919                           
  1920     0020                     ??_display_time:	
  1921                           ; 2 bytes @ 0x0
  1922                           
  1923     0020                     ??_clear_log:	
  1924                           ; 1 bytes @ 0x0
  1925                           
  1926     0020                     ??_write_event:	
  1927                           ; 1 bytes @ 0x0
  1928                           
  1929     0020                     ??___lldiv:	
  1930                           ; 1 bytes @ 0x0
  1931                           
  1932                           
  1933                           ; 1 bytes @ 0x0
  1934     0020                     	ds	1
  1935     0021                     ___xxtofl@exp:
  1936     0021                     ___lldiv@quotient:	
  1937                           ; 1 bytes @ 0x1
  1938                           
  1939     0021                     ??_auth_user:	
  1940                           ; 4 bytes @ 0x1
  1941                           
  1942                           
  1943                           ; 1 bytes @ 0x1
  1944     0021                     	ds	1
  1945     0022                     ___xxtofl@arg:
  1946     0022                     ??_read_and_format_log:	
  1947                           ; 4 bytes @ 0x2
  1948                           
  1949                           
  1950                           ; 1 bytes @ 0x2
  1951     0022                     	ds	2
  1952     0024                     auth_user@key:
  1953     0024                     read_and_format_log@log:	
  1954                           ; 1 bytes @ 0x4
  1955                           
  1956                           
  1957                           ; 1 bytes @ 0x4
  1958     0024                     	ds	1
  1959     0025                     ___lldiv@counter:
  1960     0025                     auth_user@i:	
  1961                           ; 1 bytes @ 0x5
  1962                           
  1963     0025                     read_and_format_log@col:	
  1964                           ; 2 bytes @ 0x5
  1965                           
  1966                           
  1967                           ; 2 bytes @ 0x5
  1968     0025                     	ds	1
  1969     0026                     ?_init_uart:
  1970     0026                     ?_init_i2c:	
  1971                           ; 1 bytes @ 0x6
  1972                           
  1973     0026                     ?___fldiv:	
  1974                           ; 1 bytes @ 0x6
  1975                           
  1976     0026                     init_i2c@baud:	
  1977                           ; 4 bytes @ 0x6
  1978                           
  1979     0026                     init_uart@baud:	
  1980                           ; 4 bytes @ 0x6
  1981                           
  1982     0026                     ___fldiv@a:	
  1983                           ; 4 bytes @ 0x6
  1984                           
  1985                           
  1986                           ; 4 bytes @ 0x6
  1987     0026                     	ds	1
  1988     0027                     read_and_format_log@index:
  1989                           
  1990                           ; 1 bytes @ 0x7
  1991     0027                     	ds	1
  1992     0028                     read_and_format_log@i:
  1993                           
  1994                           ; 2 bytes @ 0x8
  1995     0028                     	ds	2
  1996     002A                     ___fldiv@b:
  1997     002A                     ??_view_log:	
  1998                           ; 4 bytes @ 0xA
  1999                           
  2000     002A                     ??_download_log:	
  2001                           ; 1 bytes @ 0xA
  2002                           
  2003     002A                     ??_init_uart:	
  2004                           ; 1 bytes @ 0xA
  2005                           
  2006     002A                     ??_init_i2c:	
  2007                           ; 1 bytes @ 0xA
  2008                           
  2009                           
  2010                           ; 1 bytes @ 0xA
  2011     002A                     	ds	2
  2012     002C                     view_log@key:
  2013                           
  2014                           ; 2 bytes @ 0xC
  2015     002C                     	ds	1
  2016     002D                     download_log@i:
  2017                           
  2018                           ; 2 bytes @ 0xD
  2019     002D                     	ds	1
  2020     002E                     view_log@curr_log:
  2021     002E                     ??___fldiv:	
  2022                           ; 2 bytes @ 0xE
  2023                           
  2024                           
  2025                           ; 1 bytes @ 0xE
  2026     002E                     	ds	2
  2027     0030                     ??_main_menu:
  2028                           
  2029                           ; 1 bytes @ 0x10
  2030     0030                     	ds	2
  2031     0032                     main_menu@key:
  2032                           
  2033                           ; 1 bytes @ 0x12
  2034     0032                     	ds	1
  2035     0033                     main_menu@star:
  2036     0033                     ___fldiv@rem:	
  2037                           ; 1 bytes @ 0x13
  2038                           
  2039                           
  2040                           ; 4 bytes @ 0x13
  2041     0033                     	ds	1
  2042     0034                     main_menu@selected_menu:
  2043                           
  2044                           ; 2 bytes @ 0x14
  2045     0034                     	ds	2
  2046     0036                     main_menu@menu_index:
  2047                           
  2048                           ; 2 bytes @ 0x16
  2049     0036                     	ds	1
  2050     0037                     ___fldiv@sign:
  2051                           
  2052                           ; 1 bytes @ 0x17
  2053     0037                     	ds	1
  2054     0038                     ___fldiv@new_exp:
  2055                           
  2056                           ; 2 bytes @ 0x18
  2057     0038                     	ds	2
  2058     003A                     ___fldiv@grs:
  2059                           
  2060                           ; 4 bytes @ 0x1A
  2061     003A                     	ds	4
  2062     003E                     ___fldiv@bexp:
  2063                           
  2064                           ; 1 bytes @ 0x1E
  2065     003E                     	ds	1
  2066     003F                     ___fldiv@aexp:
  2067                           
  2068                           ; 1 bytes @ 0x1F
  2069     003F                     	ds	1
  2070     0040                     ?___fltol:
  2071     0040                     ___fltol@f1:	
  2072                           ; 4 bytes @ 0x20
  2073                           
  2074                           
  2075                           ; 4 bytes @ 0x20
  2076     0040                     	ds	4
  2077     0044                     ??___fltol:
  2078                           
  2079                           ; 1 bytes @ 0x24
  2080     0044                     	ds	4
  2081     0048                     ___fltol@sign1:
  2082                           
  2083                           ; 1 bytes @ 0x28
  2084     0048                     	ds	1
  2085     0049                     ___fltol@exp1:
  2086                           
  2087                           ; 1 bytes @ 0x29
  2088     0049                     	ds	1
  2089     004A                     ??_dashboard:
  2090                           
  2091                           ; 1 bytes @ 0x2A
  2092     004A                     	ds	2
  2093     004C                     dashboard@key:
  2094                           
  2095                           ; 1 bytes @ 0x2C
  2096     004C                     	ds	1
  2097                           
  2098                           	psect	maintext
  2099     0C59                     __pmaintext:	
  2100 ;;
  2101 ;;Main: autosize = 0, tempsize = 0, incstack = 0, save=0
  2102 ;;
  2103 ;; *************** function _main *****************
  2104 ;; Defined at:
  2105 ;;		line 31 in file "/home/santhoshtk/Desktop/EMERTXE/MC/25014_Car_Black__Box.X/25014_Car_Black_Box.X/main.c"
  2106 ;; Parameters:    Size  Location     Type
  2107 ;;		None
  2108 ;; Auto vars:     Size  Location     Type
  2109 ;;  operation       1    1[BANK1 ] unsigned char 
  2110 ;;  key             1    0[BANK1 ] unsigned char 
  2111 ;; Return value:  Size  Location     Type
  2112 ;;                  1    wreg      void 
  2113 ;; Registers used:
  2114 ;;		wreg, fsr0l, fsr0h, status,2, status,0, pclath, btemp1, cstack
  2115 ;; Tracked objects:
  2116 ;;		On entry : B00/0
  2117 ;;		On exit  : 0/0
  2118 ;;		Unchanged: 0/0
  2119 ;; Data sizes:     COMMON   BANK0   BANK1   BANK3   BANK2
  2120 ;;      Params:         0       0       0       0       0
  2121 ;;      Locals:         0       0       2       0       0
  2122 ;;      Temps:          0       0       0       0       0
  2123 ;;      Totals:         0       0       2       0       0
  2124 ;;Total ram usage:        2 bytes
  2125 ;; Hardware stack levels required when called: 7
  2126 ;; This function calls:
  2127 ;;		_auth_user
  2128 ;;		_dashboard
  2129 ;;		_init_config
  2130 ;;		_main_menu
  2131 ;;		_read_digital_keypad
  2132 ;; This function is called by:
  2133 ;;		Startup code after reset
  2134 ;; This function uses a non-reentrant model
  2135 ;;
  2136                           
  2137     0C59                     _main:	
  2138                           ;psect for function _main
  2139                           
  2140     0C59                     l3924:	
  2141                           ;incstack = 0
  2142                           ; Regs used in _main: [wreg-fsr0h+status,2+status,0+pclath+btemp1+cstack]
  2143                           
  2144                           
  2145                           ;/home/santhoshtk/Desktop/EMERTXE/MC/25014_Car_Black__Box.X/25014_Car_Black_Box.X/main.c
      +                          : 32:     init_config();
  2146     0C59  120A  158A  23B9  120A  158A  	fcall	_init_config
  2147     0C5E                     l3926:
  2148                           
  2149                           ;/home/santhoshtk/Desktop/EMERTXE/MC/25014_Car_Black__Box.X/25014_Car_Black_Box.X/main.c
      +                          : 34:     unsigned char key, operation = 0;
  2150     0C5E  1683               	bsf	3,5	;RP0=1, select bank1
  2151     0C5F  1303               	bcf	3,6	;RP1=0, select bank1
  2152     0C60  01DB               	clrf	main@operation^(0+128)
  2153     0C61                     l3928:
  2154                           
  2155                           ;/home/santhoshtk/Desktop/EMERTXE/MC/25014_Car_Black__Box.X/25014_Car_Black_Box.X/main.c
      +                          : 37:     {;/home/santhoshtk/Desktop/EMERTXE/MC/25014_Car_Black__Box.X/25014_Car_Black_B
      +                          ox.X/main.c: 38:         key = read_digital_keypad(1);
  2156     0C61  3001               	movlw	1
  2157     0C62  120A  158A  2278  120A  158A  	fcall	_read_digital_keypad
  2158     0C67  1683               	bsf	3,5	;RP0=1, select bank1
  2159     0C68  1303               	bcf	3,6	;RP1=0, select bank1
  2160     0C69  00DA               	movwf	main@key^(0+128)
  2161     0C6A                     l3930:
  2162                           
  2163                           ;/home/santhoshtk/Desktop/EMERTXE/MC/25014_Car_Black__Box.X/25014_Car_Black_Box.X/main.c
      +                          : 40:         if(key == 0x37)
  2164     0C6A  3037               	movlw	55
  2165     0C6B  065A               	xorwf	main@key^(0+128),w
  2166     0C6C  1D03               	btfss	3,2
  2167     0C6D  2C6F               	goto	u4821
  2168     0C6E  2C70               	goto	u4820
  2169     0C6F                     u4821:
  2170     0C6F  2C72               	goto	l3934
  2171     0C70                     u4820:
  2172     0C70                     l3932:
  2173                           
  2174                           ;/home/santhoshtk/Desktop/EMERTXE/MC/25014_Car_Black__Box.X/25014_Car_Black_Box.X/main.c
      +                          : 41:         {;/home/santhoshtk/Desktop/EMERTXE/MC/25014_Car_Black__Box.X/25014_Car_Bla
      +                          ck_Box.X/main.c: 42:             operation = 1;
  2175     0C70  3001               	movlw	1
  2176     0C71  00DB               	movwf	main@operation^(0+128)
  2177     0C72                     l3934:
  2178                           
  2179                           ;/home/santhoshtk/Desktop/EMERTXE/MC/25014_Car_Black__Box.X/25014_Car_Black_Box.X/main.c
      +                          : 46:         if(operation == 0)
  2180     0C72  085B               	movf	main@operation^(0+128),w
  2181     0C73  1D03               	btfss	3,2
  2182     0C74  2C76               	goto	u4831
  2183     0C75  2C77               	goto	u4830
  2184     0C76                     u4831:
  2185     0C76  2C7E               	goto	l3938
  2186     0C77                     u4830:
  2187     0C77                     l3936:
  2188                           
  2189                           ;/home/santhoshtk/Desktop/EMERTXE/MC/25014_Car_Black__Box.X/25014_Car_Black_Box.X/main.c
      +                          : 47:         {;/home/santhoshtk/Desktop/EMERTXE/MC/25014_Car_Black__Box.X/25014_Car_Bla
      +                          ck_Box.X/main.c: 48:             dashboard(key);
  2190     0C77  085A               	movf	main@key^(0+128),w
  2191     0C78  120A  118A  2448  120A  158A  	fcall	_dashboard
  2192                           
  2193                           ;/home/santhoshtk/Desktop/EMERTXE/MC/25014_Car_Black__Box.X/25014_Car_Black_Box.X/main.c
      +                          : 49:         }
  2194     0C7D  2C61               	goto	l3928
  2195     0C7E                     l3938:
  2196     0C7E  035B               	decf	main@operation^(0+128),w
  2197     0C7F  1D03               	btfss	3,2
  2198     0C80  2C82               	goto	u4841
  2199     0C81  2C83               	goto	u4840
  2200     0C82                     u4841:
  2201     0C82  2C61               	goto	l3928
  2202     0C83                     u4840:
  2203     0C83                     l3940:
  2204                           
  2205                           ;/home/santhoshtk/Desktop/EMERTXE/MC/25014_Car_Black__Box.X/25014_Car_Black_Box.X/main.c
      +                          : 51:         {;/home/santhoshtk/Desktop/EMERTXE/MC/25014_Car_Black__Box.X/25014_Car_Bla
      +                          ck_Box.X/main.c: 52:             if(access == 1) {
  2206     0C83  1283               	bcf	3,5	;RP0=0, select bank0
  2207     0C84  1303               	bcf	3,6	;RP1=0, select bank0
  2208     0C85  035D               	decf	_access,w
  2209     0C86  1D03               	btfss	3,2
  2210     0C87  2C89               	goto	u4851
  2211     0C88  2C8A               	goto	u4850
  2212     0C89                     u4851:
  2213     0C89  2C96               	goto	l3948
  2214     0C8A                     u4850:
  2215     0C8A                     l3942:
  2216                           
  2217                           ;/home/santhoshtk/Desktop/EMERTXE/MC/25014_Car_Black__Box.X/25014_Car_Black_Box.X/main.c
      +                          : 53:                 main_menu();
  2218     0C8A  120A  118A  262E  120A  158A  	fcall	_main_menu
  2219     0C8F                     l3944:
  2220                           
  2221                           ;/home/santhoshtk/Desktop/EMERTXE/MC/25014_Car_Black__Box.X/25014_Car_Black_Box.X/main.c
      +                          : 54:                 operation = 0;
  2222     0C8F  1683               	bsf	3,5	;RP0=1, select bank1
  2223     0C90  1303               	bcf	3,6	;RP1=0, select bank1
  2224     0C91  01DB               	clrf	main@operation^(0+128)
  2225     0C92                     l3946:
  2226                           
  2227                           ;/home/santhoshtk/Desktop/EMERTXE/MC/25014_Car_Black__Box.X/25014_Car_Black_Box.X/main.c
      +                          : 55:                 access = 0;
  2228     0C92  1283               	bcf	3,5	;RP0=0, select bank0
  2229     0C93  1303               	bcf	3,6	;RP1=0, select bank0
  2230     0C94  01DD               	clrf	_access
  2231                           
  2232                           ;/home/santhoshtk/Desktop/EMERTXE/MC/25014_Car_Black__Box.X/25014_Car_Black_Box.X/main.c
      +                          : 56:             }
  2233     0C95  2C61               	goto	l3928
  2234     0C96                     l3948:
  2235     0C96  120A  118A  26F6  120A  158A  	fcall	_auth_user
  2236     0C9B  2C61               	goto	l3928
  2237     0C9C  120A  118A  280C   	ljmp	start
  2238     0C9F                     __end_of_main:
  2239                           
  2240                           	psect	text1
  2241     062E                     __ptext1:	
  2242 ;; *************** function _main_menu *****************
  2243 ;; Defined at:
  2244 ;;		line 163 in file "/home/santhoshtk/Desktop/EMERTXE/MC/25014_Car_Black__Box.X/25014_Car_Black_Box.X/dashboard.c"
  2245 ;; Parameters:    Size  Location     Type
  2246 ;;		None
  2247 ;; Auto vars:     Size  Location     Type
  2248 ;;  selected_men    2   20[BANK0 ] unsigned int 
  2249 ;;  menu_index      2   22[BANK0 ] unsigned int 
  2250 ;;  star            1   19[BANK0 ] unsigned char 
  2251 ;;  key             1   18[BANK0 ] unsigned char 
  2252 ;; Return value:  Size  Location     Type
  2253 ;;                  1    wreg      void 
  2254 ;; Registers used:
  2255 ;;		wreg, fsr0l, fsr0h, status,2, status,0, pclath, btemp1, cstack
  2256 ;; Tracked objects:
  2257 ;;		On entry : 0/0
  2258 ;;		On exit  : 0/0
  2259 ;;		Unchanged: 0/0
  2260 ;; Data sizes:     COMMON   BANK0   BANK1   BANK3   BANK2
  2261 ;;      Params:         0       0       0       0       0
  2262 ;;      Locals:         0       6       0       0       0
  2263 ;;      Temps:          0       2       0       0       0
  2264 ;;      Totals:         0       8       0       0       0
  2265 ;;Total ram usage:        8 bytes
  2266 ;; Hardware stack levels used: 1
  2267 ;; Hardware stack levels required when called: 6
  2268 ;; This function calls:
  2269 ;;		_clcd_print
  2270 ;;		_clear_log
  2271 ;;		_clear_screen
  2272 ;;		_download_log
  2273 ;;		_print_star
  2274 ;;		_read_digital_keypad
  2275 ;;		_view_log
  2276 ;; This function is called by:
  2277 ;;		_main
  2278 ;; This function uses a non-reentrant model
  2279 ;;
  2280                           
  2281     062E                     _main_menu:	
  2282                           ;psect for function _main_menu
  2283                           
  2284     062E                     l3784:	
  2285                           ;incstack = 0
  2286                           ; Regs used in _main_menu: [wreg-fsr0h+status,2+status,0+pclath+btemp1+cstack]
  2287                           
  2288                           
  2289                           ;/home/santhoshtk/Desktop/EMERTXE/MC/25014_Car_Black__Box.X/25014_Car_Black_Box.X/dashbo
      +                          ard.c: 165:  unsigned int menu_index = 0;
  2290     062E  1283               	bcf	3,5	;RP0=0, select bank0
  2291     062F  1303               	bcf	3,6	;RP1=0, select bank0
  2292     0630  01B6               	clrf	main_menu@menu_index
  2293     0631  01B7               	clrf	main_menu@menu_index+1
  2294                           
  2295                           ;/home/santhoshtk/Desktop/EMERTXE/MC/25014_Car_Black__Box.X/25014_Car_Black_Box.X/dashbo
      +                          ard.c: 166:  unsigned char star = 0;
  2296     0632  01B3               	clrf	main_menu@star
  2297     0633                     l3786:
  2298                           
  2299                           ;/home/santhoshtk/Desktop/EMERTXE/MC/25014_Car_Black__Box.X/25014_Car_Black_Box.X/dashbo
      +                          ard.c: 167:  unsigned char key;;/home/santhoshtk/Desktop/EMERTXE/MC/25014_Car_Black__Box
      +                          .X/25014_Car_Black_Box.X/dashboard.c: 169:  clear_screen();
  2300     0633  120A  158A  2090  120A  118A  	fcall	_clear_screen
  2301     0638                     l3788:
  2302                           
  2303                           ;/home/santhoshtk/Desktop/EMERTXE/MC/25014_Car_Black__Box.X/25014_Car_Black_Box.X/dashbo
      +                          ard.c: 173:   print_star(star);
  2304     0638  1283               	bcf	3,5	;RP0=0, select bank0
  2305     0639  1303               	bcf	3,6	;RP1=0, select bank0
  2306     063A  0833               	movf	main_menu@star,w
  2307     063B  00B0               	movwf	??_main_menu
  2308     063C  01B1               	clrf	??_main_menu+1
  2309     063D  0830               	movf	??_main_menu,w
  2310     063E  00A0               	movwf	print_star@position
  2311     063F  0831               	movf	??_main_menu+1,w
  2312     0640  00A1               	movwf	print_star@position+1
  2313     0641  120A  158A  2423  120A  118A  	fcall	_print_star
  2314     0646                     l3790:
  2315                           
  2316                           ;/home/santhoshtk/Desktop/EMERTXE/MC/25014_Car_Black__Box.X/25014_Car_Black_Box.X/dashbo
      +                          ard.c: 174:   clcd_print(menu_options[menu_index], (0x80 + 2));
  2317     0646  1283               	bcf	3,5	;RP0=0, select bank0
  2318     0647  1303               	bcf	3,6	;RP1=0, select bank0
  2319     0648  0836               	movf	main_menu@menu_index,w
  2320     0649  00B0               	movwf	??_main_menu
  2321     064A  0730               	addwf	??_main_menu,w
  2322     064B  3EB0               	addlw	(low (_menu_options| 0))& (0+255)
  2323     064C  0084               	movwf	4
  2324     064D  1383               	bcf	3,7	;select IRP bank1
  2325     064E  0800               	movf	0,w
  2326     064F  00F6               	movwf	clcd_print@str
  2327     0650  0A84               	incf	4,f
  2328     0651  0800               	movf	0,w
  2329     0652  0384               	decf	4,f
  2330     0653  00F7               	movwf	clcd_print@str+1
  2331     0654  3082               	movlw	130
  2332     0655  00F8               	movwf	clcd_print@addr
  2333     0656  120A  158A  22F8  120A  118A  	fcall	_clcd_print
  2334     065B                     l3792:
  2335                           
  2336                           ;/home/santhoshtk/Desktop/EMERTXE/MC/25014_Car_Black__Box.X/25014_Car_Black_Box.X/dashbo
      +                          ard.c: 175:   clcd_print(menu_options[menu_index + 1], (0xC0 + 2));
  2337     065B  1283               	bcf	3,5	;RP0=0, select bank0
  2338     065C  1303               	bcf	3,6	;RP1=0, select bank0
  2339     065D  0836               	movf	main_menu@menu_index,w
  2340     065E  00B0               	movwf	??_main_menu
  2341     065F  0730               	addwf	??_main_menu,w
  2342     0660  3EB2               	addlw	(low ((_menu_options| 0+2)))& (0+255)
  2343     0661  0084               	movwf	4
  2344     0662  1383               	bcf	3,7	;select IRP bank1
  2345     0663  0800               	movf	0,w
  2346     0664  00F6               	movwf	clcd_print@str
  2347     0665  0A84               	incf	4,f
  2348     0666  0800               	movf	0,w
  2349     0667  0384               	decf	4,f
  2350     0668  00F7               	movwf	clcd_print@str+1
  2351     0669  30C2               	movlw	194
  2352     066A  00F8               	movwf	clcd_print@addr
  2353     066B  120A  158A  22F8  120A  118A  	fcall	_clcd_print
  2354     0670                     l3794:
  2355                           
  2356                           ;/home/santhoshtk/Desktop/EMERTXE/MC/25014_Car_Black__Box.X/25014_Car_Black_Box.X/dashbo
      +                          ard.c: 177:   key = read_digital_keypad(1);
  2357     0670  3001               	movlw	1
  2358     0671  120A  158A  2278  120A  118A  	fcall	_read_digital_keypad
  2359     0676  1283               	bcf	3,5	;RP0=0, select bank0
  2360     0677  1303               	bcf	3,6	;RP1=0, select bank0
  2361     0678  00B2               	movwf	main_menu@key
  2362     0679                     l3796:
  2363                           
  2364                           ;/home/santhoshtk/Desktop/EMERTXE/MC/25014_Car_Black__Box.X/25014_Car_Black_Box.X/dashbo
      +                          ard.c: 179:   if(key == 0x3E){
  2365     0679  303E               	movlw	62
  2366     067A  0632               	xorwf	main_menu@key,w
  2367     067B  1D03               	btfss	3,2
  2368     067C  2E7E               	goto	u4611
  2369     067D  2E7F               	goto	u4610
  2370     067E                     u4611:
  2371     067E  2E93               	goto	l3806
  2372     067F                     u4610:
  2373     067F                     l3798:
  2374                           
  2375                           ;/home/santhoshtk/Desktop/EMERTXE/MC/25014_Car_Black__Box.X/25014_Car_Black_Box.X/dashbo
      +                          ard.c: 180:    if(star == 1){
  2376     067F  0333               	decf	main_menu@star,w
  2377     0680  1D03               	btfss	3,2
  2378     0681  2E83               	goto	u4621
  2379     0682  2E84               	goto	u4620
  2380     0683                     u4621:
  2381     0683  2E86               	goto	l3802
  2382     0684                     u4620:
  2383     0684                     l3800:
  2384                           
  2385                           ;/home/santhoshtk/Desktop/EMERTXE/MC/25014_Car_Black__Box.X/25014_Car_Black_Box.X/dashbo
      +                          ard.c: 181:     star = 0;
  2386     0684  01B3               	clrf	main_menu@star
  2387                           
  2388                           ;/home/santhoshtk/Desktop/EMERTXE/MC/25014_Car_Black__Box.X/25014_Car_Black_Box.X/dashbo
      +                          ard.c: 182:    }
  2389     0685  2E38               	goto	l3788
  2390     0686                     l3802:
  2391     0686  0836               	movf	main_menu@menu_index,w
  2392     0687  0437               	iorwf	main_menu@menu_index+1,w
  2393     0688  1903               	btfsc	3,2
  2394     0689  2E8B               	goto	u4631
  2395     068A  2E8C               	goto	u4630
  2396     068B                     u4631:
  2397     068B  2E38               	goto	l3788
  2398     068C                     u4630:
  2399     068C                     l3804:
  2400     068C  3001               	movlw	1
  2401     068D  02B6               	subwf	main_menu@menu_index,f
  2402     068E  3000               	movlw	0
  2403     068F  1C03               	skipc
  2404     0690  03B7               	decf	main_menu@menu_index+1,f
  2405     0691  02B7               	subwf	main_menu@menu_index+1,f
  2406     0692  2E38               	goto	l3788
  2407     0693                     l3806:
  2408     0693  303D               	movlw	61
  2409     0694  0632               	xorwf	main_menu@key,w
  2410     0695  1D03               	btfss	3,2
  2411     0696  2E98               	goto	u4641
  2412     0697  2E99               	goto	u4640
  2413     0698                     u4641:
  2414     0698  2EB1               	goto	l3816
  2415     0699                     u4640:
  2416     0699                     l3808:
  2417                           
  2418                           ;/home/santhoshtk/Desktop/EMERTXE/MC/25014_Car_Black__Box.X/25014_Car_Black_Box.X/dashbo
      +                          ard.c: 188:    if(star == 0){
  2419     0699  0833               	movf	main_menu@star,w
  2420     069A  1D03               	btfss	3,2
  2421     069B  2E9D               	goto	u4651
  2422     069C  2E9E               	goto	u4650
  2423     069D                     u4651:
  2424     069D  2EA1               	goto	l3812
  2425     069E                     u4650:
  2426     069E                     l3810:
  2427                           
  2428                           ;/home/santhoshtk/Desktop/EMERTXE/MC/25014_Car_Black__Box.X/25014_Car_Black_Box.X/dashbo
      +                          ard.c: 189:     star = 1;
  2429     069E  3001               	movlw	1
  2430     069F  00B3               	movwf	main_menu@star
  2431                           
  2432                           ;/home/santhoshtk/Desktop/EMERTXE/MC/25014_Car_Black__Box.X/25014_Car_Black_Box.X/dashbo
      +                          ard.c: 190:    }
  2433     06A0  2E38               	goto	l3788
  2434     06A1                     l3812:
  2435     06A1  3000               	movlw	0
  2436     06A2  0237               	subwf	main_menu@menu_index+1,w
  2437     06A3  3003               	movlw	3
  2438     06A4  1903               	skipnz
  2439     06A5  0236               	subwf	main_menu@menu_index,w
  2440     06A6  1803               	skipnc
  2441     06A7  2EA9               	goto	u4661
  2442     06A8  2EAA               	goto	u4660
  2443     06A9                     u4661:
  2444     06A9  2E38               	goto	l3788
  2445     06AA                     u4660:
  2446     06AA                     l3814:
  2447     06AA  3001               	movlw	1
  2448     06AB  07B6               	addwf	main_menu@menu_index,f
  2449     06AC  1803               	skipnc
  2450     06AD  0AB7               	incf	main_menu@menu_index+1,f
  2451     06AE  3000               	movlw	0
  2452     06AF  07B7               	addwf	main_menu@menu_index+1,f
  2453     06B0  2E38               	goto	l3788
  2454     06B1                     l3816:
  2455     06B1  3037               	movlw	55
  2456     06B2  0632               	xorwf	main_menu@key,w
  2457     06B3  1D03               	btfss	3,2
  2458     06B4  2EB6               	goto	u4671
  2459     06B5  2EB7               	goto	u4670
  2460     06B6                     u4671:
  2461     06B6  2EEA               	goto	l3840
  2462     06B7                     u4670:
  2463     06B7                     l3818:
  2464                           
  2465                           ;/home/santhoshtk/Desktop/EMERTXE/MC/25014_Car_Black__Box.X/25014_Car_Black_Box.X/dashbo
      +                          ard.c: 197:    unsigned int selected_menu = menu_index + star;
  2466     06B7  0833               	movf	main_menu@star,w
  2467     06B8  0736               	addwf	main_menu@menu_index,w
  2468     06B9  00B4               	movwf	main_menu@selected_menu
  2469     06BA  0837               	movf	main_menu@menu_index+1,w
  2470     06BB  1803               	skipnc
  2471     06BC  0A37               	incf	main_menu@menu_index+1,w
  2472     06BD  00B5               	movwf	main_menu@selected_menu+1
  2473     06BE                     l3820:
  2474                           
  2475                           ;/home/santhoshtk/Desktop/EMERTXE/MC/25014_Car_Black__Box.X/25014_Car_Black_Box.X/dashbo
      +                          ard.c: 198:    clear_screen();
  2476     06BE  120A  158A  2090  120A  118A  	fcall	_clear_screen
  2477     06C3                     l3822:
  2478                           
  2479                           ;/home/santhoshtk/Desktop/EMERTXE/MC/25014_Car_Black__Box.X/25014_Car_Black_Box.X/dashbo
      +                          ard.c: 200:    if(selected_menu == 0){
  2480     06C3  1283               	bcf	3,5	;RP0=0, select bank0
  2481     06C4  1303               	bcf	3,6	;RP1=0, select bank0
  2482     06C5  0834               	movf	main_menu@selected_menu,w
  2483     06C6  0435               	iorwf	main_menu@selected_menu+1,w
  2484     06C7  1D03               	btfss	3,2
  2485     06C8  2ECA               	goto	u4681
  2486     06C9  2ECB               	goto	u4680
  2487     06CA                     u4681:
  2488     06CA  2ED1               	goto	l3826
  2489     06CB                     u4680:
  2490     06CB                     l3824:
  2491                           
  2492                           ;/home/santhoshtk/Desktop/EMERTXE/MC/25014_Car_Black__Box.X/25014_Car_Black_Box.X/dashbo
      +                          ard.c: 201:     view_log();
  2493     06CB  120A  158A  276B  120A  118A  	fcall	_view_log
  2494                           
  2495                           ;/home/santhoshtk/Desktop/EMERTXE/MC/25014_Car_Black__Box.X/25014_Car_Black_Box.X/dashbo
      +                          ard.c: 202:    }
  2496     06D0  2E38               	goto	l3788
  2497     06D1                     l3826:
  2498     06D1  0334               	decf	main_menu@selected_menu,w
  2499     06D2  0435               	iorwf	main_menu@selected_menu+1,w
  2500     06D3  1D03               	btfss	3,2
  2501     06D4  2ED6               	goto	u4691
  2502     06D5  2ED7               	goto	u4690
  2503     06D6                     u4691:
  2504     06D6  2EDD               	goto	l3830
  2505     06D7                     u4690:
  2506     06D7                     l3828:
  2507                           
  2508                           ;/home/santhoshtk/Desktop/EMERTXE/MC/25014_Car_Black__Box.X/25014_Car_Black_Box.X/dashbo
      +                          ard.c: 204:     clear_log();
  2509     06D7  120A  158A  2182  120A  118A  	fcall	_clear_log
  2510                           
  2511                           ;/home/santhoshtk/Desktop/EMERTXE/MC/25014_Car_Black__Box.X/25014_Car_Black_Box.X/dashbo
      +                          ard.c: 205:    }
  2512     06DC  2E38               	goto	l3788
  2513     06DD                     l3830:
  2514     06DD  3002               	movlw	2
  2515     06DE  0634               	xorwf	main_menu@selected_menu,w
  2516     06DF  0435               	iorwf	main_menu@selected_menu+1,w
  2517     06E0  1D03               	btfss	3,2
  2518     06E1  2EE3               	goto	u4701
  2519     06E2  2EE4               	goto	u4700
  2520     06E3                     u4701:
  2521     06E3  2E38               	goto	l3788
  2522     06E4                     u4700:
  2523     06E4                     l3832:
  2524                           
  2525                           ;/home/santhoshtk/Desktop/EMERTXE/MC/25014_Car_Black__Box.X/25014_Car_Black_Box.X/dashbo
      +                          ard.c: 207:     download_log();
  2526     06E4  120A  158A  254A  120A  118A  	fcall	_download_log
  2527                           
  2528                           ;/home/santhoshtk/Desktop/EMERTXE/MC/25014_Car_Black__Box.X/25014_Car_Black_Box.X/dashbo
      +                          ard.c: 208:    }
  2529     06E9  2E38               	goto	l3788
  2530     06EA                     l3840:
  2531     06EA  302F               	movlw	47
  2532     06EB  0632               	xorwf	main_menu@key,w
  2533     06EC  1D03               	btfss	3,2
  2534     06ED  2EEF               	goto	u4711
  2535     06EE  2EF0               	goto	u4710
  2536     06EF                     u4711:
  2537     06EF  2E38               	goto	l3788
  2538     06F0                     u4710:
  2539     06F0                     l3842:
  2540                           
  2541                           ;/home/santhoshtk/Desktop/EMERTXE/MC/25014_Car_Black__Box.X/25014_Car_Black_Box.X/dashbo
      +                          ard.c: 219:    clear_screen();
  2542     06F0  120A  158A  2090  120A  118A  	fcall	_clear_screen
  2543     06F5                     l216:
  2544     06F5  0008               	return
  2545     06F6                     __end_of_main_menu:
  2546                           
  2547                           	psect	text2
  2548     0F6B                     __ptext2:	
  2549 ;; *************** function _view_log *****************
  2550 ;; Defined at:
  2551 ;;		line 248 in file "/home/santhoshtk/Desktop/EMERTXE/MC/25014_Car_Black__Box.X/25014_Car_Black_Box.X/dashboard.c"
  2552 ;; Parameters:    Size  Location     Type
  2553 ;;		None
  2554 ;; Auto vars:     Size  Location     Type
  2555 ;;  curr_log        2   14[BANK0 ] unsigned int 
  2556 ;;  key             2   12[BANK0 ] unsigned int 
  2557 ;;  log             2    0        PTR unsigned char 
  2558 ;; Return value:  Size  Location     Type
  2559 ;;                  1    wreg      void 
  2560 ;; Registers used:
  2561 ;;		wreg, fsr0l, fsr0h, status,2, status,0, pclath, btemp1, cstack
  2562 ;; Tracked objects:
  2563 ;;		On entry : 0/0
  2564 ;;		On exit  : 0/0
  2565 ;;		Unchanged: 0/0
  2566 ;; Data sizes:     COMMON   BANK0   BANK1   BANK3   BANK2
  2567 ;;      Params:         0       0       0       0       0
  2568 ;;      Locals:         0       4       0       0       0
  2569 ;;      Temps:          0       2       0       0       0
  2570 ;;      Totals:         0       6       0       0       0
  2571 ;;Total ram usage:        6 bytes
  2572 ;; Hardware stack levels used: 1
  2573 ;; Hardware stack levels required when called: 2
  2574 ;; This function calls:
  2575 ;;		_clcd_print
  2576 ;;		_read_and_format_log
  2577 ;;		_read_digital_keypad
  2578 ;; This function is called by:
  2579 ;;		_main_menu
  2580 ;; This function uses a non-reentrant model
  2581 ;;
  2582                           
  2583     0F6B                     _view_log:	
  2584                           ;psect for function _view_log
  2585                           
  2586     0F6B                     l3374:	
  2587                           ;incstack = 0
  2588                           ; Regs used in _view_log: [wreg-fsr0h+status,2+status,0+pclath+btemp1+cstack]
  2589                           
  2590                           
  2591                           ;/home/santhoshtk/Desktop/EMERTXE/MC/25014_Car_Black__Box.X/25014_Car_Black_Box.X/dashbo
      +                          ard.c: 251:  char *log;;/home/santhoshtk/Desktop/EMERTXE/MC/25014_Car_Black__Box.X/25014
      +                          _Car_Black_Box.X/dashboard.c: 252:  unsigned int curr_log = 0;
  2592     0F6B  1283               	bcf	3,5	;RP0=0, select bank0
  2593     0F6C  1303               	bcf	3,6	;RP1=0, select bank0
  2594     0F6D  01AE               	clrf	view_log@curr_log
  2595     0F6E  01AF               	clrf	view_log@curr_log+1
  2596     0F6F                     l3376:
  2597                           
  2598                           ;/home/santhoshtk/Desktop/EMERTXE/MC/25014_Car_Black__Box.X/25014_Car_Black_Box.X/dashbo
      +                          ard.c: 253:  unsigned int key;;/home/santhoshtk/Desktop/EMERTXE/MC/25014_Car_Black__Box.
      +                          X/25014_Car_Black_Box.X/dashboard.c: 256:  read_and_format_log(curr_log);
  2599     0F6F  3000               	movlw	0
  2600     0F70  120A  158A  26E4  120A  158A  	fcall	_read_and_format_log
  2601     0F75                     l3378:
  2602                           
  2603                           ;/home/santhoshtk/Desktop/EMERTXE/MC/25014_Car_Black__Box.X/25014_Car_Black_Box.X/dashbo
      +                          ard.c: 261:   if(event_count == 0){
  2604     0F75  1283               	bcf	3,5	;RP0=0, select bank0
  2605     0F76  1303               	bcf	3,6	;RP1=0, select bank0
  2606     0F77  0855               	movf	_event_count,w
  2607     0F78  0456               	iorwf	_event_count+1,w
  2608     0F79  1D03               	btfss	3,2
  2609     0F7A  2F7C               	goto	u3831
  2610     0F7B  2F7D               	goto	u3830
  2611     0F7C                     u3831:
  2612     0F7C  2F94               	goto	l3382
  2613     0F7D                     u3830:
  2614     0F7D                     l3380:
  2615                           
  2616                           ;/home/santhoshtk/Desktop/EMERTXE/MC/25014_Car_Black__Box.X/25014_Car_Black_Box.X/dashbo
      +                          ard.c: 262:    clcd_print("No Logs", (0x80 + 0));
  2617     0F7D  3025               	movlw	low (STR_25| (0+32768))
  2618     0F7E  00F6               	movwf	clcd_print@str
  2619     0F7F  3084               	movlw	high (STR_25| (0+32768))
  2620     0F80  00F7               	movwf	clcd_print@str+1
  2621     0F81  3080               	movlw	128
  2622     0F82  00F8               	movwf	clcd_print@addr
  2623     0F83  120A  158A  22F8  120A  158A  	fcall	_clcd_print
  2624                           
  2625                           ;/home/santhoshtk/Desktop/EMERTXE/MC/25014_Car_Black__Box.X/25014_Car_Black_Box.X/dashbo
      +                          ard.c: 263:    clcd_print("Available", (0xC0 + 0));
  2626     0F88  3012               	movlw	low (STR_26| (0+32768))
  2627     0F89  00F6               	movwf	clcd_print@str
  2628     0F8A  3084               	movlw	high (STR_26| (0+32768))
  2629     0F8B  00F7               	movwf	clcd_print@str+1
  2630     0F8C  30C0               	movlw	192
  2631     0F8D  00F8               	movwf	clcd_print@addr
  2632     0F8E  120A  158A  22F8  120A  158A  	fcall	_clcd_print
  2633                           
  2634                           ;/home/santhoshtk/Desktop/EMERTXE/MC/25014_Car_Black__Box.X/25014_Car_Black_Box.X/dashbo
      +                          ard.c: 264:   }
  2635     0F93  2FAA               	goto	l3384
  2636     0F94                     l3382:
  2637                           
  2638                           ;/home/santhoshtk/Desktop/EMERTXE/MC/25014_Car_Black__Box.X/25014_Car_Black_Box.X/dashbo
      +                          ard.c: 267:    clcd_print("# TIME     EV SP", (0x80 + 0));
  2639     0F94  3045               	movlw	low (STR_27| (0+32768))
  2640     0F95  00F6               	movwf	clcd_print@str
  2641     0F96  3083               	movlw	high (STR_27| (0+32768))
  2642     0F97  00F7               	movwf	clcd_print@str+1
  2643     0F98  3080               	movlw	128
  2644     0F99  00F8               	movwf	clcd_print@addr
  2645     0F9A  120A  158A  22F8  120A  158A  	fcall	_clcd_print
  2646                           
  2647                           ;/home/santhoshtk/Desktop/EMERTXE/MC/25014_Car_Black__Box.X/25014_Car_Black_Box.X/dashbo
      +                          ard.c: 268:    clcd_print(logs, (0xC0 + 0));
  2648     0F9F  30BE               	movlw	(low (_logs| 0))& (0+255)
  2649     0FA0  00F6               	movwf	clcd_print@str
  2650     0FA1  3000               	movlw	0
  2651     0FA2  00F7               	movwf	clcd_print@str+1
  2652     0FA3  30C0               	movlw	192
  2653     0FA4  00F8               	movwf	clcd_print@addr
  2654     0FA5  120A  158A  22F8  120A  158A  	fcall	_clcd_print
  2655     0FAA                     l3384:
  2656                           
  2657                           ;/home/santhoshtk/Desktop/EMERTXE/MC/25014_Car_Black__Box.X/25014_Car_Black_Box.X/dashbo
      +                          ard.c: 272:   key = read_digital_keypad(1);
  2658     0FAA  3001               	movlw	1
  2659     0FAB  120A  158A  2278  120A  158A  	fcall	_read_digital_keypad
  2660     0FB0  1283               	bcf	3,5	;RP0=0, select bank0
  2661     0FB1  1303               	bcf	3,6	;RP1=0, select bank0
  2662     0FB2  00AA               	movwf	??_view_log
  2663     0FB3  01AB               	clrf	??_view_log+1
  2664     0FB4  082A               	movf	??_view_log,w
  2665     0FB5  00AC               	movwf	view_log@key
  2666     0FB6  082B               	movf	??_view_log+1,w
  2667     0FB7  00AD               	movwf	view_log@key+1
  2668     0FB8                     l3386:
  2669                           
  2670                           ;/home/santhoshtk/Desktop/EMERTXE/MC/25014_Car_Black__Box.X/25014_Car_Black_Box.X/dashbo
      +                          ard.c: 274:   if(key == 0x3E){
  2671     0FB8  303E               	movlw	62
  2672     0FB9  062C               	xorwf	view_log@key,w
  2673     0FBA  042D               	iorwf	view_log@key+1,w
  2674     0FBB  1D03               	btfss	3,2
  2675     0FBC  2FBE               	goto	u3841
  2676     0FBD  2FBF               	goto	u3840
  2677     0FBE                     u3841:
  2678     0FBE  2FD2               	goto	l3394
  2679     0FBF                     u3840:
  2680     0FBF                     l3388:
  2681                           
  2682                           ;/home/santhoshtk/Desktop/EMERTXE/MC/25014_Car_Black__Box.X/25014_Car_Black_Box.X/dashbo
      +                          ard.c: 275:    if(curr_log > 0) curr_log--;
  2683     0FBF  082E               	movf	view_log@curr_log,w
  2684     0FC0  042F               	iorwf	view_log@curr_log+1,w
  2685     0FC1  1903               	btfsc	3,2
  2686     0FC2  2FC4               	goto	u3851
  2687     0FC3  2FC5               	goto	u3850
  2688     0FC4                     u3851:
  2689     0FC4  2FCB               	goto	l3392
  2690     0FC5                     u3850:
  2691     0FC5                     l3390:
  2692     0FC5  3001               	movlw	1
  2693     0FC6  02AE               	subwf	view_log@curr_log,f
  2694     0FC7  3000               	movlw	0
  2695     0FC8  1C03               	skipc
  2696     0FC9  03AF               	decf	view_log@curr_log+1,f
  2697     0FCA  02AF               	subwf	view_log@curr_log+1,f
  2698     0FCB                     l3392:
  2699                           
  2700                           ;/home/santhoshtk/Desktop/EMERTXE/MC/25014_Car_Black__Box.X/25014_Car_Black_Box.X/dashbo
      +                          ard.c: 276:    read_and_format_log(curr_log);
  2701     0FCB  082E               	movf	view_log@curr_log,w
  2702     0FCC  120A  158A  26E4  120A  158A  	fcall	_read_and_format_log
  2703                           
  2704                           ;/home/santhoshtk/Desktop/EMERTXE/MC/25014_Car_Black__Box.X/25014_Car_Black_Box.X/dashbo
      +                          ard.c: 277:   }
  2705     0FD1  2F75               	goto	l3378
  2706     0FD2                     l3394:
  2707     0FD2  303D               	movlw	61
  2708     0FD3  062C               	xorwf	view_log@key,w
  2709     0FD4  042D               	iorwf	view_log@key+1,w
  2710     0FD5  1D03               	btfss	3,2
  2711     0FD6  2FD8               	goto	u3861
  2712     0FD7  2FD9               	goto	u3860
  2713     0FD8                     u3861:
  2714     0FD8  2FF8               	goto	l3402
  2715     0FD9                     u3860:
  2716     0FD9                     l3396:
  2717                           
  2718                           ;/home/santhoshtk/Desktop/EMERTXE/MC/25014_Car_Black__Box.X/25014_Car_Black_Box.X/dashbo
      +                          ard.c: 280:    if(curr_log < event_count - 1) curr_log++;
  2719     0FD9  0855               	movf	_event_count,w
  2720     0FDA  3EFF               	addlw	255
  2721     0FDB  00AA               	movwf	??_view_log
  2722     0FDC  0856               	movf	_event_count+1,w
  2723     0FDD  1803               	skipnc
  2724     0FDE  3E01               	addlw	1
  2725     0FDF  3EFF               	addlw	255
  2726     0FE0  00AB               	movwf	??_view_log+1
  2727     0FE1  082B               	movf	??_view_log+1,w
  2728     0FE2  022F               	subwf	view_log@curr_log+1,w
  2729     0FE3  1D03               	skipz
  2730     0FE4  2FE7               	goto	u3875
  2731     0FE5  082A               	movf	??_view_log,w
  2732     0FE6  022E               	subwf	view_log@curr_log,w
  2733     0FE7                     u3875:
  2734     0FE7  1803               	skipnc
  2735     0FE8  2FEA               	goto	u3871
  2736     0FE9  2FEB               	goto	u3870
  2737     0FEA                     u3871:
  2738     0FEA  2FF1               	goto	l3400
  2739     0FEB                     u3870:
  2740     0FEB                     l3398:
  2741     0FEB  3001               	movlw	1
  2742     0FEC  07AE               	addwf	view_log@curr_log,f
  2743     0FED  1803               	skipnc
  2744     0FEE  0AAF               	incf	view_log@curr_log+1,f
  2745     0FEF  3000               	movlw	0
  2746     0FF0  07AF               	addwf	view_log@curr_log+1,f
  2747     0FF1                     l3400:
  2748                           
  2749                           ;/home/santhoshtk/Desktop/EMERTXE/MC/25014_Car_Black__Box.X/25014_Car_Black_Box.X/dashbo
      +                          ard.c: 281:    read_and_format_log(curr_log);
  2750     0FF1  082E               	movf	view_log@curr_log,w
  2751     0FF2  120A  158A  26E4  120A  158A  	fcall	_read_and_format_log
  2752                           
  2753                           ;/home/santhoshtk/Desktop/EMERTXE/MC/25014_Car_Black__Box.X/25014_Car_Black_Box.X/dashbo
      +                          ard.c: 282:   }
  2754     0FF7  2F75               	goto	l3378
  2755     0FF8                     l3402:
  2756     0FF8  302F               	movlw	47
  2757     0FF9  062C               	xorwf	view_log@key,w
  2758     0FFA  042D               	iorwf	view_log@key+1,w
  2759     0FFB  1D03               	btfss	3,2
  2760     0FFC  2FFE               	goto	u3881
  2761     0FFD  2FFF               	goto	u3880
  2762     0FFE                     u3881:
  2763     0FFE  2F75               	goto	l3378
  2764     0FFF                     u3880:
  2765     0FFF                     l246:
  2766     0FFF  0008               	return
  2767     1000                     __end_of_view_log:
  2768                           
  2769                           	psect	text3
  2770     0C23                     __ptext3:	
  2771 ;; *************** function _print_star *****************
  2772 ;; Defined at:
  2773 ;;		line 151 in file "/home/santhoshtk/Desktop/EMERTXE/MC/25014_Car_Black__Box.X/25014_Car_Black_Box.X/dashboard.c"
  2774 ;; Parameters:    Size  Location     Type
  2775 ;;  position        2    0[BANK0 ] unsigned int 
  2776 ;; Auto vars:     Size  Location     Type
  2777 ;;		None
  2778 ;; Return value:  Size  Location     Type
  2779 ;;                  1    wreg      void 
  2780 ;; Registers used:
  2781 ;;		wreg, fsr0l, fsr0h, status,2, status,0, pclath, btemp1, cstack
  2782 ;; Tracked objects:
  2783 ;;		On entry : 0/0
  2784 ;;		On exit  : 0/0
  2785 ;;		Unchanged: 0/0
  2786 ;; Data sizes:     COMMON   BANK0   BANK1   BANK3   BANK2
  2787 ;;      Params:         0       2       0       0       0
  2788 ;;      Locals:         0       0       0       0       0
  2789 ;;      Temps:          0       0       0       0       0
  2790 ;;      Totals:         0       2       0       0       0
  2791 ;;Total ram usage:        2 bytes
  2792 ;; Hardware stack levels used: 1
  2793 ;; Hardware stack levels required when called: 2
  2794 ;; This function calls:
  2795 ;;		_clcd_print
  2796 ;; This function is called by:
  2797 ;;		_main_menu
  2798 ;; This function uses a non-reentrant model
  2799 ;;
  2800                           
  2801     0C23                     _print_star:	
  2802                           ;psect for function _print_star
  2803                           
  2804     0C23                     l3368:	
  2805                           ;incstack = 0
  2806                           ; Regs used in _print_star: [wreg-fsr0h+status,2+status,0+pclath+btemp1+cstack]
  2807                           
  2808                           
  2809                           ;/home/santhoshtk/Desktop/EMERTXE/MC/25014_Car_Black__Box.X/25014_Car_Black_Box.X/dashbo
      +                          ard.c: 152:  if(position == 0){
  2810     0C23  1283               	bcf	3,5	;RP0=0, select bank0
  2811     0C24  1303               	bcf	3,6	;RP1=0, select bank0
  2812     0C25  0820               	movf	print_star@position,w
  2813     0C26  0421               	iorwf	print_star@position+1,w
  2814     0C27  1D03               	btfss	3,2
  2815     0C28  2C2A               	goto	u3821
  2816     0C29  2C2B               	goto	u3820
  2817     0C2A                     u3821:
  2818     0C2A  2C42               	goto	l3372
  2819     0C2B                     u3820:
  2820     0C2B                     l3370:
  2821                           
  2822                           ;/home/santhoshtk/Desktop/EMERTXE/MC/25014_Car_Black__Box.X/25014_Car_Black_Box.X/dashbo
      +                          ard.c: 153:   clcd_print("* ", (0x80 + 0));
  2823     0C2B  302D               	movlw	low (STR_21| (0+32768))
  2824     0C2C  00F6               	movwf	clcd_print@str
  2825     0C2D  3084               	movlw	high (STR_21| (0+32768))
  2826     0C2E  00F7               	movwf	clcd_print@str+1
  2827     0C2F  3080               	movlw	128
  2828     0C30  00F8               	movwf	clcd_print@addr
  2829     0C31  120A  158A  22F8  120A  158A  	fcall	_clcd_print
  2830                           
  2831                           ;/home/santhoshtk/Desktop/EMERTXE/MC/25014_Car_Black__Box.X/25014_Car_Black_Box.X/dashbo
      +                          ard.c: 154:   clcd_print("  ", (0xC0 + 0));
  2832     0C36  3064               	movlw	low ((STR_2+14)| (0+32768))
  2833     0C37  00F6               	movwf	clcd_print@str
  2834     0C38  3083               	movlw	high ((STR_2+14)| (0+32768))
  2835     0C39  00F7               	movwf	clcd_print@str+1
  2836     0C3A  30C0               	movlw	192
  2837     0C3B  00F8               	movwf	clcd_print@addr
  2838     0C3C  120A  158A  22F8  120A  158A  	fcall	_clcd_print
  2839                           
  2840                           ;/home/santhoshtk/Desktop/EMERTXE/MC/25014_Car_Black__Box.X/25014_Car_Black_Box.X/dashbo
      +                          ard.c: 155:  }
  2841     0C41  2C58               	goto	l190
  2842     0C42                     l3372:
  2843                           
  2844                           ;/home/santhoshtk/Desktop/EMERTXE/MC/25014_Car_Black__Box.X/25014_Car_Black_Box.X/dashbo
      +                          ard.c: 157:   clcd_print("* ", (0xC0 + 0));
  2845     0C42  302D               	movlw	low (STR_21| (0+32768))
  2846     0C43  00F6               	movwf	clcd_print@str
  2847     0C44  3084               	movlw	high (STR_21| (0+32768))
  2848     0C45  00F7               	movwf	clcd_print@str+1
  2849     0C46  30C0               	movlw	192
  2850     0C47  00F8               	movwf	clcd_print@addr
  2851     0C48  120A  158A  22F8  120A  158A  	fcall	_clcd_print
  2852                           
  2853                           ;/home/santhoshtk/Desktop/EMERTXE/MC/25014_Car_Black__Box.X/25014_Car_Black_Box.X/dashbo
      +                          ard.c: 158:   clcd_print("  ", (0x80 + 0));
  2854     0C4D  3064               	movlw	low ((STR_2+14)| (0+32768))
  2855     0C4E  00F6               	movwf	clcd_print@str
  2856     0C4F  3083               	movlw	high ((STR_2+14)| (0+32768))
  2857     0C50  00F7               	movwf	clcd_print@str+1
  2858     0C51  3080               	movlw	128
  2859     0C52  00F8               	movwf	clcd_print@addr
  2860     0C53  120A  158A  22F8  120A  158A  	fcall	_clcd_print
  2861     0C58                     l190:
  2862     0C58  0008               	return
  2863     0C59                     __end_of_print_star:
  2864                           
  2865                           	psect	text4
  2866     0D4A                     __ptext4:	
  2867 ;; *************** function _download_log *****************
  2868 ;; Defined at:
  2869 ;;		line 301 in file "/home/santhoshtk/Desktop/EMERTXE/MC/25014_Car_Black__Box.X/25014_Car_Black_Box.X/dashboard.c"
  2870 ;; Parameters:    Size  Location     Type
  2871 ;;		None
  2872 ;; Auto vars:     Size  Location     Type
  2873 ;;  i               2   13[BANK0 ] unsigned int 
  2874 ;; Return value:  Size  Location     Type
  2875 ;;                  1    wreg      void 
  2876 ;; Registers used:
  2877 ;;		wreg, fsr0l, fsr0h, status,2, status,0, pclath, btemp1, cstack
  2878 ;; Tracked objects:
  2879 ;;		On entry : 0/0
  2880 ;;		On exit  : 0/0
  2881 ;;		Unchanged: 0/0
  2882 ;; Data sizes:     COMMON   BANK0   BANK1   BANK3   BANK2
  2883 ;;      Params:         0       0       0       0       0
  2884 ;;      Locals:         0       2       0       0       0
  2885 ;;      Temps:          0       3       0       0       0
  2886 ;;      Totals:         0       5       0       0       0
  2887 ;;Total ram usage:        5 bytes
  2888 ;; Hardware stack levels used: 1
  2889 ;; Hardware stack levels required when called: 5
  2890 ;; This function calls:
  2891 ;;		_clcd_print
  2892 ;;		_put_char
  2893 ;;		_put_s
  2894 ;;		_read_and_format_log
  2895 ;; This function is called by:
  2896 ;;		_main_menu
  2897 ;; This function uses a non-reentrant model
  2898 ;;
  2899                           
  2900     0D4A                     _download_log:	
  2901                           ;psect for function _download_log
  2902                           
  2903     0D4A                     l3414:	
  2904                           ;incstack = 0
  2905                           ; Regs used in _download_log: [wreg-fsr0h+status,2+status,0+pclath+btemp1+cstack]
  2906                           
  2907                           
  2908                           ;/home/santhoshtk/Desktop/EMERTXE/MC/25014_Car_Black__Box.X/25014_Car_Black_Box.X/dashbo
      +                          ard.c: 303:  clcd_print("Logs are", (0x80 + 0));
  2909     0D4A  301C               	movlw	low (STR_29| (0+32768))
  2910     0D4B  00F6               	movwf	clcd_print@str
  2911     0D4C  3084               	movlw	high (STR_29| (0+32768))
  2912     0D4D  00F7               	movwf	clcd_print@str+1
  2913     0D4E  3080               	movlw	128
  2914     0D4F  00F8               	movwf	clcd_print@addr
  2915     0D50  120A  158A  22F8  120A  158A  	fcall	_clcd_print
  2916                           
  2917                           ;/home/santhoshtk/Desktop/EMERTXE/MC/25014_Car_Black__Box.X/25014_Car_Black_Box.X/dashbo
      +                          ard.c: 304:  clcd_print("Downloading...", (0xC0 + 0));
  2918     0D55  30F4               	movlw	low (STR_30| (0+32768))
  2919     0D56  00F6               	movwf	clcd_print@str
  2920     0D57  3083               	movlw	high (STR_30| (0+32768))
  2921     0D58  00F7               	movwf	clcd_print@str+1
  2922     0D59  30C0               	movlw	192
  2923     0D5A  00F8               	movwf	clcd_print@addr
  2924     0D5B  120A  158A  22F8  120A  158A  	fcall	_clcd_print
  2925                           
  2926                           ;/home/santhoshtk/Desktop/EMERTXE/MC/25014_Car_Black__Box.X/25014_Car_Black_Box.X/dashbo
      +                          ard.c: 307:  put_s("# TIME     EV SP\n");
  2927     0D60  3000               	movlw	low (STR_31| (0+32768))
  2928     0D61  00F3               	movwf	put_s@s
  2929     0D62  3083               	movlw	high (STR_31| (0+32768))
  2930     0D63  00F4               	movwf	put_s@s+1
  2931     0D64  120A  158A  222A  120A  158A  	fcall	_put_s
  2932     0D69                     l3416:
  2933                           
  2934                           ;/home/santhoshtk/Desktop/EMERTXE/MC/25014_Car_Black__Box.X/25014_Car_Black_Box.X/dashbo
      +                          ard.c: 310:  for(unsigned int i = 0; i < event_count; i++){
  2935     0D69  1283               	bcf	3,5	;RP0=0, select bank0
  2936     0D6A  1303               	bcf	3,6	;RP1=0, select bank0
  2937     0D6B  01AD               	clrf	download_log@i
  2938     0D6C  01AE               	clrf	download_log@i+1
  2939     0D6D  2D9A               	goto	l3426
  2940     0D6E                     l3418:
  2941                           
  2942                           ;/home/santhoshtk/Desktop/EMERTXE/MC/25014_Car_Black__Box.X/25014_Car_Black_Box.X/dashbo
      +                          ard.c: 311:   read_and_format_log(i);
  2943     0D6E  082D               	movf	download_log@i,w
  2944     0D6F  120A  158A  26E4  120A  158A  	fcall	_read_and_format_log
  2945                           
  2946                           ;/home/santhoshtk/Desktop/EMERTXE/MC/25014_Car_Black__Box.X/25014_Car_Black_Box.X/dashbo
      +                          ard.c: 312:   put_s(logs);
  2947     0D74  30BE               	movlw	(low (_logs| 0))& (0+255)
  2948     0D75  00F3               	movwf	put_s@s
  2949     0D76  3000               	movlw	0
  2950     0D77  00F4               	movwf	put_s@s+1
  2951     0D78  120A  158A  222A  120A  158A  	fcall	_put_s
  2952     0D7D                     l3420:
  2953                           
  2954                           ;/home/santhoshtk/Desktop/EMERTXE/MC/25014_Car_Black__Box.X/25014_Car_Black_Box.X/dashbo
      +                          ard.c: 313:   put_char('\n');
  2955     0D7D  300A               	movlw	10
  2956     0D7E  120A  158A  20D5  120A  158A  	fcall	_put_char
  2957     0D83                     l3422:
  2958                           
  2959                           ;/home/santhoshtk/Desktop/EMERTXE/MC/25014_Car_Black__Box.X/25014_Car_Black_Box.X/dashbo
      +                          ard.c: 315:   _delay((unsigned long)((500)*(20000000/4000.0)));
  2960     0D83  300D               	movlw	13
  2961     0D84  1283               	bcf	3,5	;RP0=0, select bank0
  2962     0D85  1303               	bcf	3,6	;RP1=0, select bank0
  2963     0D86  00AC               	movwf	??_download_log+2
  2964     0D87  30AF               	movlw	175
  2965     0D88  00AB               	movwf	??_download_log+1
  2966     0D89  30B5               	movlw	181
  2967     0D8A  00AA               	movwf	??_download_log
  2968     0D8B                     u4867:
  2969     0D8B  0BAA               	decfsz	??_download_log,f
  2970     0D8C  2D8B               	goto	u4867
  2971     0D8D  0BAB               	decfsz	??_download_log+1,f
  2972     0D8E  2D8B               	goto	u4867
  2973     0D8F  0BAC               	decfsz	??_download_log+2,f
  2974     0D90  2D8B               	goto	u4867
  2975     0D91  2D92               	nop2
  2976     0D92                     l3424:
  2977                           
  2978                           ;/home/santhoshtk/Desktop/EMERTXE/MC/25014_Car_Black__Box.X/25014_Car_Black_Box.X/dashbo
      +                          ard.c: 316:  }
  2979     0D92  3001               	movlw	1
  2980     0D93  1283               	bcf	3,5	;RP0=0, select bank0
  2981     0D94  1303               	bcf	3,6	;RP1=0, select bank0
  2982     0D95  07AD               	addwf	download_log@i,f
  2983     0D96  1803               	skipnc
  2984     0D97  0AAE               	incf	download_log@i+1,f
  2985     0D98  3000               	movlw	0
  2986     0D99  07AE               	addwf	download_log@i+1,f
  2987     0D9A                     l3426:
  2988     0D9A  0856               	movf	_event_count+1,w
  2989     0D9B  022E               	subwf	download_log@i+1,w
  2990     0D9C  1D03               	skipz
  2991     0D9D  2DA0               	goto	u3895
  2992     0D9E  0855               	movf	_event_count,w
  2993     0D9F  022D               	subwf	download_log@i,w
  2994     0DA0                     u3895:
  2995     0DA0  1C03               	skipc
  2996     0DA1  2DA3               	goto	u3891
  2997     0DA2  2DA4               	goto	u3890
  2998     0DA3                     u3891:
  2999     0DA3  2D6E               	goto	l3418
  3000     0DA4                     u3890:
  3001     0DA4                     l257:
  3002     0DA4  0008               	return
  3003     0DA5                     __end_of_download_log:
  3004                           
  3005                           	psect	text5
  3006     0EE4                     __ptext5:	
  3007 ;; *************** function _read_and_format_log *****************
  3008 ;; Defined at:
  3009 ;;		line 226 in file "/home/santhoshtk/Desktop/EMERTXE/MC/25014_Car_Black__Box.X/25014_Car_Black_Box.X/dashboard.c"
  3010 ;; Parameters:    Size  Location     Type
  3011 ;;  index           1    wreg     unsigned char 
  3012 ;; Auto vars:     Size  Location     Type
  3013 ;;  index           1    7[BANK0 ] unsigned char 
  3014 ;;  i               2    8[BANK0 ] unsigned int 
  3015 ;;  col             2    5[BANK0 ] unsigned int 
  3016 ;;  log             1    4[BANK0 ] PTR unsigned char 
  3017 ;;		 -> read_event@event(11), 
  3018 ;; Return value:  Size  Location     Type
  3019 ;;                  1    wreg      void 
  3020 ;; Registers used:
  3021 ;;		wreg, fsr0l, fsr0h, status,2, status,0, pclath, btemp1, cstack
  3022 ;; Tracked objects:
  3023 ;;		On entry : 0/0
  3024 ;;		On exit  : 0/0
  3025 ;;		Unchanged: 0/0
  3026 ;; Data sizes:     COMMON   BANK0   BANK1   BANK3   BANK2
  3027 ;;      Params:         0       0       0       0       0
  3028 ;;      Locals:         0       6       0       0       0
  3029 ;;      Temps:          0       2       0       0       0
  3030 ;;      Totals:         0       8       0       0       0
  3031 ;;Total ram usage:        8 bytes
  3032 ;; Hardware stack levels used: 1
  3033 ;; Hardware stack levels required when called: 1
  3034 ;; This function calls:
  3035 ;;		___wmul
  3036 ;;		_read_event
  3037 ;; This function is called by:
  3038 ;;		_view_log
  3039 ;;		_download_log
  3040 ;; This function uses a non-reentrant model
  3041 ;;
  3042                           
  3043     0EE4                     _read_and_format_log:	
  3044                           ;psect for function _read_and_format_log
  3045                           
  3046                           
  3047                           ;incstack = 0
  3048                           ; Regs used in _read_and_format_log: [wreg-fsr0h+status,2+status,0+pclath+btemp1+cstack]
  3049                           ;read_and_format_log@index stored from wreg
  3050     0EE4  1283               	bcf	3,5	;RP0=0, select bank0
  3051     0EE5  1303               	bcf	3,6	;RP1=0, select bank0
  3052     0EE6  00A7               	movwf	read_and_format_log@index
  3053     0EE7                     l3160:
  3054                           
  3055                           ;/home/santhoshtk/Desktop/EMERTXE/MC/25014_Car_Black__Box.X/25014_Car_Black_Box.X/dashbo
      +                          ard.c: 228:  char *log = read_event(index * 10);
  3056     0EE7  0827               	movf	read_and_format_log@index,w
  3057     0EE8  00A2               	movwf	??_read_and_format_log
  3058     0EE9  01A3               	clrf	??_read_and_format_log+1
  3059     0EEA  0822               	movf	??_read_and_format_log,w
  3060     0EEB  00F2               	movwf	___wmul@multiplier
  3061     0EEC  0823               	movf	??_read_and_format_log+1,w
  3062     0EED  00F3               	movwf	___wmul@multiplier+1
  3063     0EEE  300A               	movlw	10
  3064     0EEF  00F4               	movwf	___wmul@multiplicand
  3065     0EF0  3000               	movlw	0
  3066     0EF1  00F5               	movwf	___wmul@multiplicand+1
  3067     0EF2  120A  158A  2205  120A  158A  	fcall	___wmul
  3068     0EF7  0873               	movf	?___wmul+1,w
  3069     0EF8  00F9               	movwf	read_event@addr+1
  3070     0EF9  0872               	movf	?___wmul,w
  3071     0EFA  00F8               	movwf	read_event@addr
  3072     0EFB  120A  158A  21E2  120A  158A  	fcall	_read_event
  3073     0F00  1283               	bcf	3,5	;RP0=0, select bank0
  3074     0F01  1303               	bcf	3,6	;RP1=0, select bank0
  3075     0F02  00A4               	movwf	read_and_format_log@log
  3076     0F03                     l3162:
  3077                           
  3078                           ;/home/santhoshtk/Desktop/EMERTXE/MC/25014_Car_Black__Box.X/25014_Car_Black_Box.X/dashbo
      +                          ard.c: 229:  unsigned int col = 0;
  3079     0F03  01A5               	clrf	read_and_format_log@col
  3080     0F04  01A6               	clrf	read_and_format_log@col+1
  3081     0F05                     l3164:
  3082                           
  3083                           ;/home/santhoshtk/Desktop/EMERTXE/MC/25014_Car_Black__Box.X/25014_Car_Black_Box.X/dashbo
      +                          ard.c: 231:  for(unsigned int i = 0; i < 16; i++){
  3084     0F05  01A8               	clrf	read_and_format_log@i
  3085     0F06  01A9               	clrf	read_and_format_log@i+1
  3086     0F07                     l3170:
  3087                           
  3088                           ;/home/santhoshtk/Desktop/EMERTXE/MC/25014_Car_Black__Box.X/25014_Car_Black_Box.X/dashbo
      +                          ard.c: 233:   if(i == 0) logs[i] = index + '0';
  3089     0F07  0828               	movf	read_and_format_log@i,w
  3090     0F08  0429               	iorwf	read_and_format_log@i+1,w
  3091     0F09  1D03               	btfss	3,2
  3092     0F0A  2F0C               	goto	u3441
  3093     0F0B  2F0D               	goto	u3440
  3094     0F0C                     u3441:
  3095     0F0C  2F15               	goto	l3174
  3096     0F0D                     u3440:
  3097     0F0D                     l3172:
  3098     0F0D  0828               	movf	read_and_format_log@i,w
  3099     0F0E  3EBE               	addlw	(low (_logs| 0))& (0+255)
  3100     0F0F  0084               	movwf	4
  3101     0F10  0827               	movf	read_and_format_log@index,w
  3102     0F11  3E30               	addlw	48
  3103     0F12  1383               	bcf	3,7	;select IRP bank1
  3104     0F13  0080               	movwf	0
  3105     0F14  2F58               	goto	l3192
  3106     0F15                     l3174:
  3107     0F15  3004               	movlw	4
  3108     0F16  0628               	xorwf	read_and_format_log@i,w
  3109     0F17  0429               	iorwf	read_and_format_log@i+1,w
  3110     0F18  1903               	btfsc	3,2
  3111     0F19  2F1B               	goto	u3451
  3112     0F1A  2F1C               	goto	u3450
  3113     0F1B                     u3451:
  3114     0F1B  2F23               	goto	l3178
  3115     0F1C                     u3450:
  3116     0F1C                     l3176:
  3117     0F1C  3007               	movlw	7
  3118     0F1D  0628               	xorwf	read_and_format_log@i,w
  3119     0F1E  0429               	iorwf	read_and_format_log@i+1,w
  3120     0F1F  1D03               	btfss	3,2
  3121     0F20  2F22               	goto	u3461
  3122     0F21  2F23               	goto	u3460
  3123     0F22                     u3461:
  3124     0F22  2F2A               	goto	l3180
  3125     0F23                     u3460:
  3126     0F23                     l3178:
  3127     0F23  0828               	movf	read_and_format_log@i,w
  3128     0F24  3EBE               	addlw	(low (_logs| 0))& (0+255)
  3129     0F25  0084               	movwf	4
  3130     0F26  303A               	movlw	58
  3131     0F27  1383               	bcf	3,7	;select IRP bank1
  3132     0F28  0080               	movwf	0
  3133     0F29  2F58               	goto	l3192
  3134     0F2A                     l3180:
  3135     0F2A  0328               	decf	read_and_format_log@i,w
  3136     0F2B  0429               	iorwf	read_and_format_log@i+1,w
  3137     0F2C  1903               	btfsc	3,2
  3138     0F2D  2F2F               	goto	u3471
  3139     0F2E  2F30               	goto	u3470
  3140     0F2F                     u3471:
  3141     0F2F  2F3E               	goto	l3186
  3142     0F30                     u3470:
  3143     0F30                     l3182:
  3144     0F30  300A               	movlw	10
  3145     0F31  0628               	xorwf	read_and_format_log@i,w
  3146     0F32  0429               	iorwf	read_and_format_log@i+1,w
  3147     0F33  1903               	btfsc	3,2
  3148     0F34  2F36               	goto	u3481
  3149     0F35  2F37               	goto	u3480
  3150     0F36                     u3481:
  3151     0F36  2F3E               	goto	l3186
  3152     0F37                     u3480:
  3153     0F37                     l3184:
  3154     0F37  300D               	movlw	13
  3155     0F38  0628               	xorwf	read_and_format_log@i,w
  3156     0F39  0429               	iorwf	read_and_format_log@i+1,w
  3157     0F3A  1D03               	btfss	3,2
  3158     0F3B  2F3D               	goto	u3491
  3159     0F3C  2F3E               	goto	u3490
  3160     0F3D                     u3491:
  3161     0F3D  2F45               	goto	l3188
  3162     0F3E                     u3490:
  3163     0F3E                     l3186:
  3164     0F3E  0828               	movf	read_and_format_log@i,w
  3165     0F3F  3EBE               	addlw	(low (_logs| 0))& (0+255)
  3166     0F40  0084               	movwf	4
  3167     0F41  3020               	movlw	32
  3168     0F42  1383               	bcf	3,7	;select IRP bank1
  3169     0F43  0080               	movwf	0
  3170     0F44  2F58               	goto	l3192
  3171     0F45                     l3188:
  3172                           
  3173                           ;/home/santhoshtk/Desktop/EMERTXE/MC/25014_Car_Black__Box.X/25014_Car_Black_Box.X/dashbo
      +                          ard.c: 240:    logs[i] = log[col++];
  3174     0F45  0825               	movf	read_and_format_log@col,w
  3175     0F46  0724               	addwf	read_and_format_log@log,w
  3176     0F47  00A2               	movwf	??_read_and_format_log
  3177     0F48  0822               	movf	??_read_and_format_log,w
  3178     0F49  0084               	movwf	4
  3179     0F4A  1383               	bcf	3,7	;select IRP bank0
  3180     0F4B  0800               	movf	0,w
  3181     0F4C  00FF               	movwf	btemp1
  3182     0F4D  0828               	movf	read_and_format_log@i,w
  3183     0F4E  3EBE               	addlw	(low (_logs| 0))& (0+255)
  3184     0F4F  0084               	movwf	4
  3185     0F50  087F               	movf	btemp1,w
  3186     0F51  0080               	movwf	0
  3187     0F52                     l3190:
  3188     0F52  3001               	movlw	1
  3189     0F53  07A5               	addwf	read_and_format_log@col,f
  3190     0F54  1803               	skipnc
  3191     0F55  0AA6               	incf	read_and_format_log@col+1,f
  3192     0F56  3000               	movlw	0
  3193     0F57  07A6               	addwf	read_and_format_log@col+1,f
  3194     0F58                     l3192:
  3195                           
  3196                           ;/home/santhoshtk/Desktop/EMERTXE/MC/25014_Car_Black__Box.X/25014_Car_Black_Box.X/dashbo
      +                          ard.c: 242:  }
  3197     0F58  3001               	movlw	1
  3198     0F59  07A8               	addwf	read_and_format_log@i,f
  3199     0F5A  1803               	skipnc
  3200     0F5B  0AA9               	incf	read_and_format_log@i+1,f
  3201     0F5C  3000               	movlw	0
  3202     0F5D  07A9               	addwf	read_and_format_log@i+1,f
  3203     0F5E                     l3194:
  3204     0F5E  3000               	movlw	0
  3205     0F5F  0229               	subwf	read_and_format_log@i+1,w
  3206     0F60  3010               	movlw	16
  3207     0F61  1903               	skipnz
  3208     0F62  0228               	subwf	read_and_format_log@i,w
  3209     0F63  1C03               	skipc
  3210     0F64  2F66               	goto	u3501
  3211     0F65  2F67               	goto	u3500
  3212     0F66                     u3501:
  3213     0F66  2F07               	goto	l3170
  3214     0F67                     u3500:
  3215     0F67                     l3196:
  3216                           
  3217                           ;/home/santhoshtk/Desktop/EMERTXE/MC/25014_Car_Black__Box.X/25014_Car_Black_Box.X/dashbo
      +                          ard.c: 244:  logs[16] = '\0';
  3218     0F67  1683               	bsf	3,5	;RP0=1, select bank1
  3219     0F68  1303               	bcf	3,6	;RP1=0, select bank1
  3220     0F69  01CE               	clrf	(_logs^(0+128)+16)
  3221     0F6A                     l233:
  3222     0F6A  0008               	return
  3223     0F6B                     __end_of_read_and_format_log:
  3224                           
  3225                           	psect	text6
  3226     09E2                     __ptext6:	
  3227 ;; *************** function _read_event *****************
  3228 ;; Defined at:
  3229 ;;		line 49 in file "/home/santhoshtk/Desktop/EMERTXE/MC/25014_Car_Black__Box.X/25014_Car_Black_Box.X/dashboard.c"
  3230 ;; Parameters:    Size  Location     Type
  3231 ;;  addr            2    8[COMMON] unsigned int 
  3232 ;; Auto vars:     Size  Location     Type
  3233 ;;  i               2    0[BANK0 ] unsigned int 
  3234 ;; Return value:  Size  Location     Type
  3235 ;;                  1    8[COMMON] PTR unsigned char 
  3236 ;; Registers used:
  3237 ;;		wreg, fsr0l, fsr0h, status,2, status,0, pclath, cstack
  3238 ;; Tracked objects:
  3239 ;;		On entry : 0/0
  3240 ;;		On exit  : 0/0
  3241 ;;		Unchanged: 0/0
  3242 ;; Data sizes:     COMMON   BANK0   BANK1   BANK3   BANK2
  3243 ;;      Params:         2       0       0       0       0
  3244 ;;      Locals:         0       2       0       0       0
  3245 ;;      Temps:          0       0       0       0       0
  3246 ;;      Totals:         2       2       0       0       0
  3247 ;;Total ram usage:        4 bytes
  3248 ;; Hardware stack levels used: 1
  3249 ;; Hardware stack levels required when called: 3
  3250 ;; This function calls:
  3251 ;;		_read_external_eeprom
  3252 ;; This function is called by:
  3253 ;;		_read_and_format_log
  3254 ;; This function uses a non-reentrant model
  3255 ;;
  3256                           
  3257     09E2                     _read_event:	
  3258                           ;psect for function _read_event
  3259                           
  3260     09E2                     l3058:	
  3261                           ;incstack = 0
  3262                           ; Regs used in _read_event: [wreg-fsr0h+status,2+status,0+pclath+cstack]
  3263                           
  3264                           
  3265                           ;/home/santhoshtk/Desktop/EMERTXE/MC/25014_Car_Black__Box.X/25014_Car_Black_Box.X/dashbo
      +                          ard.c: 50:  static char event[11];;/home/santhoshtk/Desktop/EMERTXE/MC/25014_Car_Black__
      +                          Box.X/25014_Car_Black_Box.X/dashboard.c: 52:  for(unsigned int i = 0; i < 10; i++){
  3266     09E2  1283               	bcf	3,5	;RP0=0, select bank0
  3267     09E3  1303               	bcf	3,6	;RP1=0, select bank0
  3268     09E4  01A0               	clrf	read_event@i
  3269     09E5  01A1               	clrf	read_event@i+1
  3270     09E6                     l3064:
  3271                           
  3272                           ;/home/santhoshtk/Desktop/EMERTXE/MC/25014_Car_Black__Box.X/25014_Car_Black_Box.X/dashbo
      +                          ard.c: 53:   event[i] = read_external_eeprom(addr + i);
  3273     09E6  0820               	movf	read_event@i,w
  3274     09E7  3ECF               	addlw	(low (read_event@event| 0))& (0+255)
  3275     09E8  0084               	movwf	4
  3276     09E9  0820               	movf	read_event@i,w
  3277     09EA  0778               	addwf	read_event@addr,w
  3278     09EB  120A  158A  22CD  120A  158A  	fcall	_read_external_eeprom
  3279     09F0  1383               	bcf	3,7	;select IRP bank1
  3280     09F1  0080               	movwf	0
  3281     09F2                     l3066:
  3282                           
  3283                           ;/home/santhoshtk/Desktop/EMERTXE/MC/25014_Car_Black__Box.X/25014_Car_Black_Box.X/dashbo
      +                          ard.c: 54:  }
  3284     09F2  3001               	movlw	1
  3285     09F3  1283               	bcf	3,5	;RP0=0, select bank0
  3286     09F4  1303               	bcf	3,6	;RP1=0, select bank0
  3287     09F5  07A0               	addwf	read_event@i,f
  3288     09F6  1803               	skipnc
  3289     09F7  0AA1               	incf	read_event@i+1,f
  3290     09F8  3000               	movlw	0
  3291     09F9  07A1               	addwf	read_event@i+1,f
  3292     09FA                     l3068:
  3293     09FA  3000               	movlw	0
  3294     09FB  0221               	subwf	read_event@i+1,w
  3295     09FC  300A               	movlw	10
  3296     09FD  1903               	skipnz
  3297     09FE  0220               	subwf	read_event@i,w
  3298     09FF  1C03               	skipc
  3299     0A00  2A02               	goto	u3321
  3300     0A01  2A03               	goto	u3320
  3301     0A02                     u3321:
  3302     0A02  29E6               	goto	l3064
  3303     0A03                     u3320:
  3304     0A03                     l3070:
  3305                           
  3306                           ;/home/santhoshtk/Desktop/EMERTXE/MC/25014_Car_Black__Box.X/25014_Car_Black_Box.X/dashbo
      +                          ard.c: 56:  return event;
  3307     0A03  30CF               	movlw	(low (read_event@event| 0))& (0+255)
  3308     0A04                     l157:
  3309     0A04  0008               	return
  3310     0A05                     __end_of_read_event:
  3311                           
  3312                           	psect	text7
  3313     0ACD                     __ptext7:	
  3314 ;; *************** function _read_external_eeprom *****************
  3315 ;; Defined at:
  3316 ;;		line 16 in file "/home/santhoshtk/Desktop/EMERTXE/MC/25014_Car_Black__Box.X/25014_Car_Black_Box.X/external_eeprom.c"
  3317 ;; Parameters:    Size  Location     Type
  3318 ;;  address         1    wreg     unsigned char 
  3319 ;; Auto vars:     Size  Location     Type
  3320 ;;  address         1    4[COMMON] unsigned char 
  3321 ;;  data            1    5[COMMON] unsigned char 
  3322 ;; Return value:  Size  Location     Type
  3323 ;;                  1    wreg      unsigned char 
  3324 ;; Registers used:
  3325 ;;		wreg, status,2, status,0, pclath, cstack
  3326 ;; Tracked objects:
  3327 ;;		On entry : 0/0
  3328 ;;		On exit  : 0/0
  3329 ;;		Unchanged: 0/0
  3330 ;; Data sizes:     COMMON   BANK0   BANK1   BANK3   BANK2
  3331 ;;      Params:         0       0       0       0       0
  3332 ;;      Locals:         2       0       0       0       0
  3333 ;;      Temps:          0       0       0       0       0
  3334 ;;      Totals:         2       0       0       0       0
  3335 ;;Total ram usage:        2 bytes
  3336 ;; Hardware stack levels used: 1
  3337 ;; Hardware stack levels required when called: 2
  3338 ;; This function calls:
  3339 ;;		_i2c_read
  3340 ;;		_i2c_rep_start
  3341 ;;		_i2c_start
  3342 ;;		_i2c_stop
  3343 ;;		_i2c_write
  3344 ;; This function is called by:
  3345 ;;		_read_event
  3346 ;; This function uses a non-reentrant model
  3347 ;;
  3348                           
  3349     0ACD                     _read_external_eeprom:	
  3350                           ;psect for function _read_external_eeprom
  3351                           
  3352                           
  3353                           ;incstack = 0
  3354                           ; Regs used in _read_external_eeprom: [wreg+status,2+status,0+pclath+cstack]
  3355                           ;read_external_eeprom@address stored from wreg
  3356     0ACD  00F4               	movwf	read_external_eeprom@address
  3357     0ACE                     l3032:
  3358                           
  3359                           ;/home/santhoshtk/Desktop/EMERTXE/MC/25014_Car_Black__Box.X/25014_Car_Black_Box.X/extern
      +                          al_eeprom.c: 16: unsigned char read_external_eeprom(unsigned char address);/home/santhos
      +                          htk/Desktop/EMERTXE/MC/25014_Car_Black__Box.X/25014_Car_Black_Box.X/external_eeprom.c: 1
      +                          7: {;/home/santhoshtk/Desktop/EMERTXE/MC/25014_Car_Black__Box.X/25014_Car_Black_Box.X/ex
      +                          ternal_eeprom.c: 18:     unsigned char data;;/home/santhoshtk/Desktop/EMERTXE/MC/25014_C
      +                          ar_Black__Box.X/25014_Car_Black_Box.X/external_eeprom.c: 20:     i2c_start();
  3360     0ACE  120A  158A  2098  120A  158A  	fcall	_i2c_start
  3361                           
  3362                           ;/home/santhoshtk/Desktop/EMERTXE/MC/25014_Car_Black__Box.X/25014_Car_Black_Box.X/extern
      +                          al_eeprom.c: 21:     i2c_write(0xA0);
  3363     0AD3  30A0               	movlw	160
  3364     0AD4  120A  158A  20BF  120A  158A  	fcall	_i2c_write
  3365                           
  3366                           ;/home/santhoshtk/Desktop/EMERTXE/MC/25014_Car_Black__Box.X/25014_Car_Black_Box.X/extern
      +                          al_eeprom.c: 22:     i2c_write(address);
  3367     0AD9  0874               	movf	read_external_eeprom@address,w
  3368     0ADA  120A  158A  20BF  120A  158A  	fcall	_i2c_write
  3369                           
  3370                           ;/home/santhoshtk/Desktop/EMERTXE/MC/25014_Car_Black__Box.X/25014_Car_Black_Box.X/extern
      +                          al_eeprom.c: 23:     i2c_rep_start();
  3371     0ADF  120A  158A  20B4  120A  158A  	fcall	_i2c_rep_start
  3372                           
  3373                           ;/home/santhoshtk/Desktop/EMERTXE/MC/25014_Car_Black__Box.X/25014_Car_Black_Box.X/extern
      +                          al_eeprom.c: 24:     i2c_write(0xA1);
  3374     0AE4  30A1               	movlw	161
  3375     0AE5  120A  158A  20BF  120A  158A  	fcall	_i2c_write
  3376                           
  3377                           ;/home/santhoshtk/Desktop/EMERTXE/MC/25014_Car_Black__Box.X/25014_Car_Black_Box.X/extern
      +                          al_eeprom.c: 25:     data = i2c_read(0);
  3378     0AEA  3000               	movlw	0
  3379     0AEB  120A  158A  21C1  120A  158A  	fcall	_i2c_read
  3380     0AF0  00F5               	movwf	read_external_eeprom@data
  3381                           
  3382                           ;/home/santhoshtk/Desktop/EMERTXE/MC/25014_Car_Black__Box.X/25014_Car_Black_Box.X/extern
      +                          al_eeprom.c: 26:     i2c_stop();
  3383     0AF1  120A  158A  20A1  120A  158A  	fcall	_i2c_stop
  3384     0AF6                     l3034:
  3385                           
  3386                           ;/home/santhoshtk/Desktop/EMERTXE/MC/25014_Car_Black__Box.X/25014_Car_Black_Box.X/extern
      +                          al_eeprom.c: 28:     return data;
  3387     0AF6  0875               	movf	read_external_eeprom@data,w
  3388     0AF7                     l350:
  3389     0AF7  0008               	return
  3390     0AF8                     __end_of_read_external_eeprom:
  3391                           
  3392                           	psect	text8
  3393     0A05                     __ptext8:	
  3394 ;; *************** function ___wmul *****************
  3395 ;; Defined at:
  3396 ;;		line 15 in file "/opt/microchip/xc8/v3.10/pic/sources/c99/common/Umul16.c"
  3397 ;; Parameters:    Size  Location     Type
  3398 ;;  multiplier      2    2[COMMON] unsigned int 
  3399 ;;  multiplicand    2    4[COMMON] unsigned int 
  3400 ;; Auto vars:     Size  Location     Type
  3401 ;;  product         2    6[COMMON] unsigned int 
  3402 ;; Return value:  Size  Location     Type
  3403 ;;                  2    2[COMMON] unsigned int 
  3404 ;; Registers used:
  3405 ;;		wreg, status,2, status,0
  3406 ;; Tracked objects:
  3407 ;;		On entry : 0/0
  3408 ;;		On exit  : 0/0
  3409 ;;		Unchanged: 0/0
  3410 ;; Data sizes:     COMMON   BANK0   BANK1   BANK3   BANK2
  3411 ;;      Params:         4       0       0       0       0
  3412 ;;      Locals:         2       0       0       0       0
  3413 ;;      Temps:          0       0       0       0       0
  3414 ;;      Totals:         6       0       0       0       0
  3415 ;;Total ram usage:        6 bytes
  3416 ;; Hardware stack levels used: 1
  3417 ;; Hardware stack levels required when called: 1
  3418 ;; This function calls:
  3419 ;;		Nothing
  3420 ;; This function is called by:
  3421 ;;		_read_and_format_log
  3422 ;;		_set_time
  3423 ;; This function uses a non-reentrant model
  3424 ;;
  3425                           
  3426     0A05                     ___wmul:	
  3427                           ;psect for function ___wmul
  3428                           
  3429     0A05                     l3076:	
  3430                           ;incstack = 0
  3431                           ; Regs used in ___wmul: [wreg+status,2+status,0]
  3432                           
  3433     0A05  01F6               	clrf	___wmul@product
  3434     0A06  01F7               	clrf	___wmul@product+1
  3435     0A07                     l3078:
  3436     0A07  1C72               	btfss	___wmul@multiplier,0
  3437     0A08  2A0A               	goto	u3341
  3438     0A09  2A0B               	goto	u3340
  3439     0A0A                     u3341:
  3440     0A0A  2A11               	goto	l592
  3441     0A0B                     u3340:
  3442     0A0B                     l3080:
  3443     0A0B  0874               	movf	___wmul@multiplicand,w
  3444     0A0C  07F6               	addwf	___wmul@product,f
  3445     0A0D  1803               	skipnc
  3446     0A0E  0AF7               	incf	___wmul@product+1,f
  3447     0A0F  0875               	movf	___wmul@multiplicand+1,w
  3448     0A10  07F7               	addwf	___wmul@product+1,f
  3449     0A11                     l592:
  3450     0A11  3001               	movlw	1
  3451     0A12                     u3355:
  3452     0A12  1003               	clrc
  3453     0A13  0DF4               	rlf	___wmul@multiplicand,f
  3454     0A14  0DF5               	rlf	___wmul@multiplicand+1,f
  3455     0A15  3EFF               	addlw	-1
  3456     0A16  1D03               	skipz
  3457     0A17  2A12               	goto	u3355
  3458     0A18                     l3082:
  3459     0A18  3001               	movlw	1
  3460     0A19                     u3365:
  3461     0A19  1003               	clrc
  3462     0A1A  0CF3               	rrf	___wmul@multiplier+1,f
  3463     0A1B  0CF2               	rrf	___wmul@multiplier,f
  3464     0A1C  3EFF               	addlw	-1
  3465     0A1D  1D03               	skipz
  3466     0A1E  2A19               	goto	u3365
  3467     0A1F                     l3084:
  3468     0A1F  0872               	movf	___wmul@multiplier,w
  3469     0A20  0473               	iorwf	___wmul@multiplier+1,w
  3470     0A21  1D03               	btfss	3,2
  3471     0A22  2A24               	goto	u3371
  3472     0A23  2A25               	goto	u3370
  3473     0A24                     u3371:
  3474     0A24  2A07               	goto	l3078
  3475     0A25                     u3370:
  3476     0A25                     l3086:
  3477     0A25  0877               	movf	___wmul@product+1,w
  3478     0A26  00F3               	movwf	?___wmul+1
  3479     0A27  0876               	movf	___wmul@product,w
  3480     0A28  00F2               	movwf	?___wmul
  3481     0A29                     l594:
  3482     0A29  0008               	return
  3483     0A2A                     __end_of___wmul:
  3484                           
  3485                           	psect	text9
  3486     0A2A                     __ptext9:	
  3487 ;; *************** function _put_s *****************
  3488 ;; Defined at:
  3489 ;;		line 46 in file "/home/santhoshtk/Desktop/EMERTXE/MC/25014_Car_Black__Box.X/25014_Car_Black_Box.X/uart.c"
  3490 ;; Parameters:    Size  Location     Type
  3491 ;;  s               2    3[COMMON] PTR const unsigned char 
  3492 ;;		 -> STR_31(18), logs(17), 
  3493 ;; Auto vars:     Size  Location     Type
  3494 ;;		None
  3495 ;; Return value:  Size  Location     Type
  3496 ;;                  1    wreg      void 
  3497 ;; Registers used:
  3498 ;;		wreg, fsr0l, fsr0h, status,2, status,0, pclath, btemp1, cstack
  3499 ;; Tracked objects:
  3500 ;;		On entry : 0/0
  3501 ;;		On exit  : 0/0
  3502 ;;		Unchanged: 0/0
  3503 ;; Data sizes:     COMMON   BANK0   BANK1   BANK3   BANK2
  3504 ;;      Params:         2       0       0       0       0
  3505 ;;      Locals:         0       0       0       0       0
  3506 ;;      Temps:          0       0       0       0       0
  3507 ;;      Totals:         2       0       0       0       0
  3508 ;;Total ram usage:        2 bytes
  3509 ;; Hardware stack levels used: 1
  3510 ;; Hardware stack levels required when called: 2
  3511 ;; This function calls:
  3512 ;;		_put_char
  3513 ;; This function is called by:
  3514 ;;		_download_log
  3515 ;; This function uses a non-reentrant model
  3516 ;;
  3517                           
  3518     0A2A                     _put_s:	
  3519                           ;psect for function _put_s
  3520                           
  3521     0A2A                     l3198:	
  3522                           ;incstack = 0
  3523                           ; Regs used in _put_s: [wreg-fsr0h+status,2+status,0+pclath+btemp1+cstack]
  3524                           
  3525                           
  3526                           ;/home/santhoshtk/Desktop/EMERTXE/MC/25014_Car_Black__Box.X/25014_Car_Black_Box.X/uart.c
      +                          : 46: void put_s(const char *s);/home/santhoshtk/Desktop/EMERTXE/MC/25014_Car_Black__Box
      +                          .X/25014_Car_Black_Box.X/uart.c: 47: {;/home/santhoshtk/Desktop/EMERTXE/MC/25014_Car_Bla
      +                          ck__Box.X/25014_Car_Black_Box.X/uart.c: 48:     while (*s)
  3527     0A2A  2A3F               	goto	l3204
  3528     0A2B                     l3200:
  3529                           
  3530                           ;/home/santhoshtk/Desktop/EMERTXE/MC/25014_Car_Black__Box.X/25014_Car_Black_Box.X/uart.c
      +                          : 49:     {;/home/santhoshtk/Desktop/EMERTXE/MC/25014_Car_Black__Box.X/25014_Car_Black_B
      +                          ox.X/uart.c: 50:         put_char(*s++);
  3531     0A2B  0874               	movf	put_s@s+1,w
  3532     0A2C  00FF               	movwf	btemp1
  3533     0A2D  0873               	movf	put_s@s,w
  3534     0A2E  0084               	movwf	4
  3535     0A2F  120A  158A  2000  120A  158A  	fcall	stringtab
  3536     0A34  120A  158A  20D5  120A  158A  	fcall	_put_char
  3537     0A39                     l3202:
  3538     0A39  3001               	movlw	1
  3539     0A3A  07F3               	addwf	put_s@s,f
  3540     0A3B  1803               	skipnc
  3541     0A3C  0AF4               	incf	put_s@s+1,f
  3542     0A3D  3000               	movlw	0
  3543     0A3E  07F4               	addwf	put_s@s+1,f
  3544     0A3F                     l3204:
  3545                           
  3546                           ;/home/santhoshtk/Desktop/EMERTXE/MC/25014_Car_Black__Box.X/25014_Car_Black_Box.X/uart.c
      +                          : 48:     while (*s)
  3547     0A3F  0874               	movf	put_s@s+1,w
  3548     0A40  1283               	bcf	3,5	;RP0=0, select bank0
  3549     0A41  1303               	bcf	3,6	;RP1=0, select bank0
  3550     0A42  00FF               	movwf	btemp1
  3551     0A43  0873               	movf	put_s@s,w
  3552     0A44  0084               	movwf	4
  3553     0A45  120A  158A  2000  120A  158A  	fcall	stringtab
  3554     0A4A  3A00               	xorlw	0
  3555     0A4B  1D03               	skipz
  3556     0A4C  2A4E               	goto	u3511
  3557     0A4D  2A4F               	goto	u3510
  3558     0A4E                     u3511:
  3559     0A4E  2A2B               	goto	l3200
  3560     0A4F                     u3510:
  3561     0A4F                     l506:
  3562     0A4F  0008               	return
  3563     0A50                     __end_of_put_s:
  3564                           
  3565                           	psect	text10
  3566     08D5                     __ptext10:	
  3567 ;; *************** function _put_char *****************
  3568 ;; Defined at:
  3569 ;;		line 31 in file "/home/santhoshtk/Desktop/EMERTXE/MC/25014_Car_Black__Box.X/25014_Car_Black_Box.X/uart.c"
  3570 ;; Parameters:    Size  Location     Type
  3571 ;;  data            1    wreg     unsigned char 
  3572 ;; Auto vars:     Size  Location     Type
  3573 ;;  data            1    2[COMMON] unsigned char 
  3574 ;; Return value:  Size  Location     Type
  3575 ;;                  1    wreg      void 
  3576 ;; Registers used:
  3577 ;;		wreg
  3578 ;; Tracked objects:
  3579 ;;		On entry : 0/0
  3580 ;;		On exit  : 0/0
  3581 ;;		Unchanged: 0/0
  3582 ;; Data sizes:     COMMON   BANK0   BANK1   BANK3   BANK2
  3583 ;;      Params:         0       0       0       0       0
  3584 ;;      Locals:         1       0       0       0       0
  3585 ;;      Temps:          0       0       0       0       0
  3586 ;;      Totals:         1       0       0       0       0
  3587 ;;Total ram usage:        1 bytes
  3588 ;; Hardware stack levels used: 1
  3589 ;; Hardware stack levels required when called: 1
  3590 ;; This function calls:
  3591 ;;		Nothing
  3592 ;; This function is called by:
  3593 ;;		_download_log
  3594 ;;		_put_s
  3595 ;; This function uses a non-reentrant model
  3596 ;;
  3597                           
  3598     08D5                     _put_char:	
  3599                           ;psect for function _put_char
  3600                           
  3601                           
  3602                           ;incstack = 0
  3603                           ; Regs used in _put_char: [wreg]
  3604                           ;put_char@data stored from wreg
  3605     08D5  00F2               	movwf	put_char@data
  3606     08D6                     l3074:
  3607                           
  3608                           ;/home/santhoshtk/Desktop/EMERTXE/MC/25014_Car_Black__Box.X/25014_Car_Black_Box.X/uart.c
      +                          : 31: void put_char(unsigned char data);/home/santhoshtk/Desktop/EMERTXE/MC/25014_Car_Bl
      +                          ack__Box.X/25014_Car_Black_Box.X/uart.c: 32: {;/home/santhoshtk/Desktop/EMERTXE/MC/25014
      +                          _Car_Black__Box.X/25014_Car_Black_Box.X/uart.c: 34:     TXREG = data;
  3609     08D6  0872               	movf	put_char@data,w
  3610     08D7  1283               	bcf	3,5	;RP0=0, select bank0
  3611     08D8  1303               	bcf	3,6	;RP1=0, select bank0
  3612     08D9  0099               	movwf	25	;volatile
  3613     08DA                     l498:	
  3614                           ;/home/santhoshtk/Desktop/EMERTXE/MC/25014_Car_Black__Box.X/25014_Car_Black_Box.X/uart.c
      +                          : 40:     } while (TXIF != 1);
  3615                           
  3616     08DA  1E0C               	btfss	12,4	;volatile
  3617     08DB  28DD               	goto	u3331
  3618     08DC  28DE               	goto	u3330
  3619     08DD                     u3331:
  3620     08DD  28DA               	goto	l498
  3621     08DE                     u3330:
  3622     08DE                     l499:
  3623                           
  3624                           ;/home/santhoshtk/Desktop/EMERTXE/MC/25014_Car_Black__Box.X/25014_Car_Black_Box.X/uart.c
      +                          : 43:     TXIF = 0;
  3625     08DE  120C               	bcf	12,4	;volatile
  3626     08DF                     l500:
  3627     08DF  0008               	return
  3628     08E0                     __end_of_put_char:
  3629                           
  3630                           	psect	text11
  3631     0890                     __ptext11:	
  3632 ;; *************** function _clear_screen *****************
  3633 ;; Defined at:
  3634 ;;		line 75 in file "/home/santhoshtk/Desktop/EMERTXE/MC/25014_Car_Black__Box.X/25014_Car_Black_Box.X/clcd.c"
  3635 ;; Parameters:    Size  Location     Type
  3636 ;;		None
  3637 ;; Auto vars:     Size  Location     Type
  3638 ;;		None
  3639 ;; Return value:  Size  Location     Type
  3640 ;;                  1    wreg      void 
  3641 ;; Registers used:
  3642 ;;		wreg, status,2, status,0, pclath, cstack
  3643 ;; Tracked objects:
  3644 ;;		On entry : 0/0
  3645 ;;		On exit  : 0/0
  3646 ;;		Unchanged: 0/0
  3647 ;; Data sizes:     COMMON   BANK0   BANK1   BANK3   BANK2
  3648 ;;      Params:         0       0       0       0       0
  3649 ;;      Locals:         0       0       0       0       0
  3650 ;;      Temps:          0       0       0       0       0
  3651 ;;      Totals:         0       0       0       0       0
  3652 ;;Total ram usage:        0 bytes
  3653 ;; Hardware stack levels used: 1
  3654 ;; Hardware stack levels required when called: 2
  3655 ;; This function calls:
  3656 ;;		_clcd_write
  3657 ;; This function is called by:
  3658 ;;		_main_menu
  3659 ;; This function uses a non-reentrant model
  3660 ;;
  3661                           
  3662     0890                     _clear_screen:	
  3663                           ;psect for function _clear_screen
  3664                           
  3665     0890                     l3318:	
  3666                           ;incstack = 0
  3667                           ; Regs used in _clear_screen: [wreg+status,2+status,0+pclath+cstack]
  3668                           
  3669                           
  3670                           ;/home/santhoshtk/Desktop/EMERTXE/MC/25014_Car_Black__Box.X/25014_Car_Black_Box.X/clcd.c
      +                          : 76:     clcd_write(0x01, 0);
  3671     0890  01F2               	clrf	clcd_write@mode
  3672     0891  3001               	movlw	1
  3673     0892  120A  158A  23ED  120A  158A  	fcall	_clcd_write
  3674     0897                     l102:
  3675     0897  0008               	return
  3676     0898                     __end_of_clear_screen:
  3677                           
  3678                           	psect	text12
  3679     0982                     __ptext12:	
  3680 ;; *************** function _clear_log *****************
  3681 ;; Defined at:
  3682 ;;		line 293 in file "/home/santhoshtk/Desktop/EMERTXE/MC/25014_Car_Black__Box.X/25014_Car_Black_Box.X/dashboard.c"
  3683 ;; Parameters:    Size  Location     Type
  3684 ;;		None
  3685 ;; Auto vars:     Size  Location     Type
  3686 ;;		None
  3687 ;; Return value:  Size  Location     Type
  3688 ;;                  1    wreg      void 
  3689 ;; Registers used:
  3690 ;;		wreg, fsr0l, fsr0h, status,2, status,0, pclath, btemp1, cstack
  3691 ;; Tracked objects:
  3692 ;;		On entry : 0/0
  3693 ;;		On exit  : 0/0
  3694 ;;		Unchanged: 0/0
  3695 ;; Data sizes:     COMMON   BANK0   BANK1   BANK3   BANK2
  3696 ;;      Params:         0       0       0       0       0
  3697 ;;      Locals:         0       0       0       0       0
  3698 ;;      Temps:          0       3       0       0       0
  3699 ;;      Totals:         0       3       0       0       0
  3700 ;;Total ram usage:        3 bytes
  3701 ;; Hardware stack levels used: 1
  3702 ;; Hardware stack levels required when called: 2
  3703 ;; This function calls:
  3704 ;;		_clcd_print
  3705 ;; This function is called by:
  3706 ;;		_main_menu
  3707 ;; This function uses a non-reentrant model
  3708 ;;
  3709                           
  3710     0982                     _clear_log:	
  3711                           ;psect for function _clear_log
  3712                           
  3713     0982                     l3406:	
  3714                           ;incstack = 0
  3715                           ; Regs used in _clear_log: [wreg-fsr0h+status,2+status,0+pclath+btemp1+cstack]
  3716                           
  3717                           
  3718                           ;/home/santhoshtk/Desktop/EMERTXE/MC/25014_Car_Black__Box.X/25014_Car_Black_Box.X/dashbo
      +                          ard.c: 294:  event_count = 0;
  3719     0982  1283               	bcf	3,5	;RP0=0, select bank0
  3720     0983  1303               	bcf	3,6	;RP1=0, select bank0
  3721     0984  01D5               	clrf	_event_count
  3722     0985  01D6               	clrf	_event_count+1
  3723     0986                     l3408:
  3724                           
  3725                           ;/home/santhoshtk/Desktop/EMERTXE/MC/25014_Car_Black__Box.X/25014_Car_Black_Box.X/dashbo
      +                          ard.c: 295:  clcd_print("Clearing Logs...", (0x80 + 0));
  3726     0986  3023               	movlw	low (STR_28| (0+32768))
  3727     0987  00F6               	movwf	clcd_print@str
  3728     0988  3083               	movlw	high (STR_28| (0+32768))
  3729     0989  00F7               	movwf	clcd_print@str+1
  3730     098A  3080               	movlw	128
  3731     098B  00F8               	movwf	clcd_print@addr
  3732     098C  120A  158A  22F8  120A  158A  	fcall	_clcd_print
  3733     0991                     l3410:
  3734                           
  3735                           ;/home/santhoshtk/Desktop/EMERTXE/MC/25014_Car_Black__Box.X/25014_Car_Black_Box.X/dashbo
      +                          ard.c: 296:  _delay((unsigned long)((500)*(20000000/4000.0)));
  3736     0991  300D               	movlw	13
  3737     0992  1283               	bcf	3,5	;RP0=0, select bank0
  3738     0993  1303               	bcf	3,6	;RP1=0, select bank0
  3739     0994  00A2               	movwf	??_clear_log+2
  3740     0995  30AF               	movlw	175
  3741     0996  00A1               	movwf	??_clear_log+1
  3742     0997  30B5               	movlw	181
  3743     0998  00A0               	movwf	??_clear_log
  3744     0999                     u4877:
  3745     0999  0BA0               	decfsz	??_clear_log,f
  3746     099A  2999               	goto	u4877
  3747     099B  0BA1               	decfsz	??_clear_log+1,f
  3748     099C  2999               	goto	u4877
  3749     099D  0BA2               	decfsz	??_clear_log+2,f
  3750     099E  2999               	goto	u4877
  3751     099F  29A0               	nop2
  3752     09A0                     l251:
  3753     09A0  0008               	return
  3754     09A1                     __end_of_clear_log:
  3755                           
  3756                           	psect	text13
  3757     0BB9                     __ptext13:	
  3758 ;; *************** function _init_config *****************
  3759 ;; Defined at:
  3760 ;;		line 19 in file "/home/santhoshtk/Desktop/EMERTXE/MC/25014_Car_Black__Box.X/25014_Car_Black_Box.X/main.c"
  3761 ;; Parameters:    Size  Location     Type
  3762 ;;		None
  3763 ;; Auto vars:     Size  Location     Type
  3764 ;;		None
  3765 ;; Return value:  Size  Location     Type
  3766 ;;                  1    wreg      void 
  3767 ;; Registers used:
  3768 ;;		wreg, status,2, status,0, pclath, cstack
  3769 ;; Tracked objects:
  3770 ;;		On entry : 0/0
  3771 ;;		On exit  : 0/0
  3772 ;;		Unchanged: 0/0
  3773 ;; Data sizes:     COMMON   BANK0   BANK1   BANK3   BANK2
  3774 ;;      Params:         0       0       0       0       0
  3775 ;;      Locals:         0       0       0       0       0
  3776 ;;      Temps:          0       0       0       0       0
  3777 ;;      Totals:         0       0       0       0       0
  3778 ;;Total ram usage:        0 bytes
  3779 ;; Hardware stack levels used: 1
  3780 ;; Hardware stack levels required when called: 4
  3781 ;; This function calls:
  3782 ;;		_init_adc
  3783 ;;		_init_clcd
  3784 ;;		_init_digital_keypad
  3785 ;;		_init_ds1307
  3786 ;;		_init_i2c
  3787 ;;		_init_uart
  3788 ;; This function is called by:
  3789 ;;		_main
  3790 ;; This function uses a non-reentrant model
  3791 ;;
  3792                           
  3793     0BB9                     _init_config:	
  3794                           ;psect for function _init_config
  3795                           
  3796     0BB9                     l3846:	
  3797                           ;incstack = 0
  3798                           ; Regs used in _init_config: [wreg+status,2+status,0+pclath+cstack]
  3799                           
  3800                           
  3801                           ;/home/santhoshtk/Desktop/EMERTXE/MC/25014_Car_Black__Box.X/25014_Car_Black_Box.X/main.c
      +                          : 21:     init_adc();
  3802     0BB9  120A  158A  2089  120A  158A  	fcall	_init_adc
  3803     0BBE                     l3848:
  3804                           
  3805                           ;/home/santhoshtk/Desktop/EMERTXE/MC/25014_Car_Black__Box.X/25014_Car_Black_Box.X/main.c
      +                          : 22:     init_clcd();
  3806     0BBE  120A  158A  20CA  120A  158A  	fcall	_init_clcd
  3807     0BC3                     l3850:
  3808                           
  3809                           ;/home/santhoshtk/Desktop/EMERTXE/MC/25014_Car_Black__Box.X/25014_Car_Black_Box.X/main.c
      +                          : 23:     init_digital_keypad();
  3810     0BC3  120A  158A  2083  120A  158A  	fcall	_init_digital_keypad
  3811     0BC8                     l3852:
  3812                           
  3813                           ;/home/santhoshtk/Desktop/EMERTXE/MC/25014_Car_Black__Box.X/25014_Car_Black_Box.X/main.c
      +                          : 24:     init_i2c(100000);
  3814     0BC8  3000               	movlw	0
  3815     0BC9  1283               	bcf	3,5	;RP0=0, select bank0
  3816     0BCA  1303               	bcf	3,6	;RP1=0, select bank0
  3817     0BCB  00A9               	movwf	init_i2c@baud+3
  3818     0BCC  3001               	movlw	1
  3819     0BCD  00A8               	movwf	init_i2c@baud+2
  3820     0BCE  3086               	movlw	134
  3821     0BCF  00A7               	movwf	init_i2c@baud+1
  3822     0BD0  30A0               	movlw	160
  3823     0BD1  00A6               	movwf	init_i2c@baud
  3824     0BD2  120A  158A  2387  120A  158A  	fcall	_init_i2c
  3825     0BD7                     l3854:
  3826                           
  3827                           ;/home/santhoshtk/Desktop/EMERTXE/MC/25014_Car_Black__Box.X/25014_Car_Black_Box.X/main.c
      +                          : 25:     init_ds1307();
  3828     0BD7  120A  158A  20ED  120A  158A  	fcall	_init_ds1307
  3829     0BDC                     l3856:
  3830                           
  3831                           ;/home/santhoshtk/Desktop/EMERTXE/MC/25014_Car_Black__Box.X/25014_Car_Black_Box.X/main.c
      +                          : 26:     init_uart(9600);
  3832     0BDC  3000               	movlw	0
  3833     0BDD  1283               	bcf	3,5	;RP0=0, select bank0
  3834     0BDE  1303               	bcf	3,6	;RP1=0, select bank0
  3835     0BDF  00A9               	movwf	init_uart@baud+3
  3836     0BE0  3000               	movlw	0
  3837     0BE1  00A8               	movwf	init_uart@baud+2
  3838     0BE2  3025               	movlw	37
  3839     0BE3  00A7               	movwf	init_uart@baud+1
  3840     0BE4  3080               	movlw	128
  3841     0BE5  00A6               	movwf	init_uart@baud
  3842     0BE6  120A  158A  2357  120A  158A  	fcall	_init_uart
  3843     0BEB                     l3858:
  3844                           
  3845                           ;/home/santhoshtk/Desktop/EMERTXE/MC/25014_Car_Black__Box.X/25014_Car_Black_Box.X/main.c
      +                          : 28:     GIE = 1;
  3846     0BEB  178B               	bsf	11,7	;volatile
  3847     0BEC                     l444:
  3848     0BEC  0008               	return
  3849     0BED                     __end_of_init_config:
  3850                           
  3851                           	psect	text14
  3852     0B57                     __ptext14:	
  3853 ;; *************** function _init_uart *****************
  3854 ;; Defined at:
  3855 ;;		line 4 in file "/home/santhoshtk/Desktop/EMERTXE/MC/25014_Car_Black__Box.X/25014_Car_Black_Box.X/uart.c"
  3856 ;; Parameters:    Size  Location     Type
  3857 ;;  baud            4    6[BANK0 ] unsigned long 
  3858 ;; Auto vars:     Size  Location     Type
  3859 ;;		None
  3860 ;; Return value:  Size  Location     Type
  3861 ;;                  1    wreg      void 
  3862 ;; Registers used:
  3863 ;;		wreg, status,2, status,0, pclath, cstack
  3864 ;; Tracked objects:
  3865 ;;		On entry : 0/0
  3866 ;;		On exit  : 0/0
  3867 ;;		Unchanged: 0/0
  3868 ;; Data sizes:     COMMON   BANK0   BANK1   BANK3   BANK2
  3869 ;;      Params:         0       4       0       0       0
  3870 ;;      Locals:         0       0       0       0       0
  3871 ;;      Temps:          0       4       0       0       0
  3872 ;;      Totals:         0       8       0       0       0
  3873 ;;Total ram usage:        8 bytes
  3874 ;; Hardware stack levels used: 1
  3875 ;; Hardware stack levels required when called: 2
  3876 ;; This function calls:
  3877 ;;		___lldiv
  3878 ;; This function is called by:
  3879 ;;		_init_config
  3880 ;; This function uses a non-reentrant model
  3881 ;;
  3882                           
  3883     0B57                     _init_uart:	
  3884                           ;psect for function _init_uart
  3885                           
  3886     0B57                     l3442:	
  3887                           ;incstack = 0
  3888                           ; Regs used in _init_uart: [wreg+status,2+status,0+pclath+cstack]
  3889                           
  3890                           
  3891                           ;/home/santhoshtk/Desktop/EMERTXE/MC/25014_Car_Black__Box.X/25014_Car_Black_Box.X/uart.c
      +                          : 4: void init_uart(unsigned long baud);/home/santhoshtk/Desktop/EMERTXE/MC/25014_Car_Bl
      +                          ack__Box.X/25014_Car_Black_Box.X/uart.c: 5: {;/home/santhoshtk/Desktop/EMERTXE/MC/25014_
      +                          Car_Black__Box.X/25014_Car_Black_Box.X/uart.c: 7:     SPEN = 1;
  3892     0B57  1283               	bcf	3,5	;RP0=0, select bank0
  3893     0B58  1303               	bcf	3,6	;RP1=0, select bank0
  3894     0B59  1798               	bsf	24,7	;volatile
  3895                           
  3896                           ;/home/santhoshtk/Desktop/EMERTXE/MC/25014_Car_Black__Box.X/25014_Car_Black_Box.X/uart.c
      +                          : 10:     CREN = 1;
  3897     0B5A  1618               	bsf	24,4	;volatile
  3898     0B5B                     l3444:
  3899                           
  3900                           ;/home/santhoshtk/Desktop/EMERTXE/MC/25014_Car_Black__Box.X/25014_Car_Black_Box.X/uart.c
      +                          : 13:     SPBRG = (20000000 / (16 * baud)) - 1;
  3901     0B5B  0826               	movf	init_uart@baud,w
  3902     0B5C  00AA               	movwf	??_init_uart
  3903     0B5D  0827               	movf	init_uart@baud+1,w
  3904     0B5E  00AB               	movwf	??_init_uart+1
  3905     0B5F  0828               	movf	init_uart@baud+2,w
  3906     0B60  00AC               	movwf	??_init_uart+2
  3907     0B61  0829               	movf	init_uart@baud+3,w
  3908     0B62  00AD               	movwf	??_init_uart+3
  3909     0B63  3004               	movlw	4
  3910     0B64                     u3915:
  3911     0B64  1003               	clrc
  3912     0B65  0DAA               	rlf	??_init_uart,f
  3913     0B66  0DAB               	rlf	??_init_uart+1,f
  3914     0B67  0DAC               	rlf	??_init_uart+2,f
  3915     0B68  0DAD               	rlf	??_init_uart+3,f
  3916     0B69                     u3910:
  3917     0B69  3EFF               	addlw	-1
  3918     0B6A  1D03               	skipz
  3919     0B6B  2B64               	goto	u3915
  3920     0B6C  082D               	movf	??_init_uart+3,w
  3921     0B6D  00F5               	movwf	___lldiv@divisor+3
  3922     0B6E  082C               	movf	??_init_uart+2,w
  3923     0B6F  00F4               	movwf	___lldiv@divisor+2
  3924     0B70  082B               	movf	??_init_uart+1,w
  3925     0B71  00F3               	movwf	___lldiv@divisor+1
  3926     0B72  082A               	movf	??_init_uart,w
  3927     0B73  00F2               	movwf	___lldiv@divisor
  3928     0B74  3001               	movlw	1
  3929     0B75  00F9               	movwf	___lldiv@dividend+3
  3930     0B76  3031               	movlw	49
  3931     0B77  00F8               	movwf	___lldiv@dividend+2
  3932     0B78  302D               	movlw	45
  3933     0B79  00F7               	movwf	___lldiv@dividend+1
  3934     0B7A  3000               	movlw	0
  3935     0B7B  00F6               	movwf	___lldiv@dividend
  3936     0B7C  120A  158A  2608  120A  158A  	fcall	___lldiv
  3937     0B81  0872               	movf	?___lldiv,w
  3938     0B82  3EFF               	addlw	255
  3939     0B83  1683               	bsf	3,5	;RP0=1, select bank1
  3940     0B84  1303               	bcf	3,6	;RP1=0, select bank1
  3941     0B85  0099               	movwf	25	;volatile
  3942     0B86                     l488:
  3943     0B86  0008               	return
  3944     0B87                     __end_of_init_uart:
  3945                           
  3946                           	psect	text15
  3947     0B87                     __ptext15:	
  3948 ;; *************** function _init_i2c *****************
  3949 ;; Defined at:
  3950 ;;		line 4 in file "/home/santhoshtk/Desktop/EMERTXE/MC/25014_Car_Black__Box.X/25014_Car_Black_Box.X/i2c.c"
  3951 ;; Parameters:    Size  Location     Type
  3952 ;;  baud            4    6[BANK0 ] unsigned long 
  3953 ;; Auto vars:     Size  Location     Type
  3954 ;;		None
  3955 ;; Return value:  Size  Location     Type
  3956 ;;                  1    wreg      void 
  3957 ;; Registers used:
  3958 ;;		wreg, status,2, status,0, pclath, cstack
  3959 ;; Tracked objects:
  3960 ;;		On entry : 0/0
  3961 ;;		On exit  : 0/0
  3962 ;;		Unchanged: 0/0
  3963 ;; Data sizes:     COMMON   BANK0   BANK1   BANK3   BANK2
  3964 ;;      Params:         0       4       0       0       0
  3965 ;;      Locals:         0       0       0       0       0
  3966 ;;      Temps:          0       4       0       0       0
  3967 ;;      Totals:         0       8       0       0       0
  3968 ;;Total ram usage:        8 bytes
  3969 ;; Hardware stack levels used: 1
  3970 ;; Hardware stack levels required when called: 2
  3971 ;; This function calls:
  3972 ;;		___lldiv
  3973 ;; This function is called by:
  3974 ;;		_init_config
  3975 ;; This function uses a non-reentrant model
  3976 ;;
  3977                           
  3978     0B87                     _init_i2c:	
  3979                           ;psect for function _init_i2c
  3980                           
  3981     0B87                     l3436:	
  3982                           ;incstack = 0
  3983                           ; Regs used in _init_i2c: [wreg+status,2+status,0+pclath+cstack]
  3984                           
  3985                           
  3986                           ;/home/santhoshtk/Desktop/EMERTXE/MC/25014_Car_Black__Box.X/25014_Car_Black_Box.X/i2c.c:
      +                           4: void init_i2c(unsigned long baud);/home/santhoshtk/Desktop/EMERTXE/MC/25014_Car_Blac
      +                          k__Box.X/25014_Car_Black_Box.X/i2c.c: 5: {;/home/santhoshtk/Desktop/EMERTXE/MC/25014_Car
      +                          _Black__Box.X/25014_Car_Black_Box.X/i2c.c: 7:     SSPM3 = 1;
  3987     0B87  1283               	bcf	3,5	;RP0=0, select bank0
  3988     0B88  1303               	bcf	3,6	;RP1=0, select bank0
  3989     0B89  1594               	bsf	20,3	;volatile
  3990     0B8A                     l3438:
  3991                           
  3992                           ;/home/santhoshtk/Desktop/EMERTXE/MC/25014_Car_Black__Box.X/25014_Car_Black_Box.X/i2c.c:
      +                           10:     SSPADD = (unsigned char)(20000000 / (4 * baud)) - 1;
  3993     0B8A  0826               	movf	init_i2c@baud,w
  3994     0B8B  00AA               	movwf	??_init_i2c
  3995     0B8C  0827               	movf	init_i2c@baud+1,w
  3996     0B8D  00AB               	movwf	??_init_i2c+1
  3997     0B8E  0828               	movf	init_i2c@baud+2,w
  3998     0B8F  00AC               	movwf	??_init_i2c+2
  3999     0B90  0829               	movf	init_i2c@baud+3,w
  4000     0B91  00AD               	movwf	??_init_i2c+3
  4001     0B92  3002               	movlw	2
  4002     0B93                     u3905:
  4003     0B93  1003               	clrc
  4004     0B94  0DAA               	rlf	??_init_i2c,f
  4005     0B95  0DAB               	rlf	??_init_i2c+1,f
  4006     0B96  0DAC               	rlf	??_init_i2c+2,f
  4007     0B97  0DAD               	rlf	??_init_i2c+3,f
  4008     0B98                     u3900:
  4009     0B98  3EFF               	addlw	-1
  4010     0B99  1D03               	skipz
  4011     0B9A  2B93               	goto	u3905
  4012     0B9B  082D               	movf	??_init_i2c+3,w
  4013     0B9C  00F5               	movwf	___lldiv@divisor+3
  4014     0B9D  082C               	movf	??_init_i2c+2,w
  4015     0B9E  00F4               	movwf	___lldiv@divisor+2
  4016     0B9F  082B               	movf	??_init_i2c+1,w
  4017     0BA0  00F3               	movwf	___lldiv@divisor+1
  4018     0BA1  082A               	movf	??_init_i2c,w
  4019     0BA2  00F2               	movwf	___lldiv@divisor
  4020     0BA3  3001               	movlw	1
  4021     0BA4  00F9               	movwf	___lldiv@dividend+3
  4022     0BA5  3031               	movlw	49
  4023     0BA6  00F8               	movwf	___lldiv@dividend+2
  4024     0BA7  302D               	movlw	45
  4025     0BA8  00F7               	movwf	___lldiv@dividend+1
  4026     0BA9  3000               	movlw	0
  4027     0BAA  00F6               	movwf	___lldiv@dividend
  4028     0BAB  120A  158A  2608  120A  158A  	fcall	___lldiv
  4029     0BB0  0872               	movf	?___lldiv,w
  4030     0BB1  3EFF               	addlw	255
  4031     0BB2  1683               	bsf	3,5	;RP0=1, select bank1
  4032     0BB3  1303               	bcf	3,6	;RP1=0, select bank1
  4033     0BB4  0093               	movwf	19	;volatile
  4034     0BB5                     l3440:
  4035                           
  4036                           ;/home/santhoshtk/Desktop/EMERTXE/MC/25014_Car_Black__Box.X/25014_Car_Black_Box.X/i2c.c:
      +                           13:     SSPEN = 1;
  4037     0BB5  1283               	bcf	3,5	;RP0=0, select bank0
  4038     0BB6  1303               	bcf	3,6	;RP1=0, select bank0
  4039     0BB7  1694               	bsf	20,5	;volatile
  4040     0BB8                     l379:
  4041     0BB8  0008               	return
  4042     0BB9                     __end_of_init_i2c:
  4043                           
  4044                           	psect	text16
  4045     0E08                     __ptext16:	
  4046 ;; *************** function ___lldiv *****************
  4047 ;; Defined at:
  4048 ;;		line 5 in file "/opt/microchip/xc8/v3.10/pic/sources/c99/common/__lldiv.c"
  4049 ;; Parameters:    Size  Location     Type
  4050 ;;  divisor         4    2[COMMON] unsigned long 
  4051 ;;  dividend        4    6[COMMON] unsigned long 
  4052 ;; Auto vars:     Size  Location     Type
  4053 ;;  quotient        4    1[BANK0 ] unsigned long 
  4054 ;;  counter         1    5[BANK0 ] unsigned char 
  4055 ;; Return value:  Size  Location     Type
  4056 ;;                  4    2[COMMON] unsigned long 
  4057 ;; Registers used:
  4058 ;;		wreg, status,2, status,0
  4059 ;; Tracked objects:
  4060 ;;		On entry : 0/0
  4061 ;;		On exit  : 0/0
  4062 ;;		Unchanged: 0/0
  4063 ;; Data sizes:     COMMON   BANK0   BANK1   BANK3   BANK2
  4064 ;;      Params:         8       0       0       0       0
  4065 ;;      Locals:         0       5       0       0       0
  4066 ;;      Temps:          0       1       0       0       0
  4067 ;;      Totals:         8       6       0       0       0
  4068 ;;Total ram usage:       14 bytes
  4069 ;; Hardware stack levels used: 1
  4070 ;; Hardware stack levels required when called: 1
  4071 ;; This function calls:
  4072 ;;		Nothing
  4073 ;; This function is called by:
  4074 ;;		_init_i2c
  4075 ;;		_init_uart
  4076 ;; This function uses a non-reentrant model
  4077 ;;
  4078                           
  4079     0E08                     ___lldiv:	
  4080                           ;psect for function ___lldiv
  4081                           
  4082     0E08                     l3214:	
  4083                           ;incstack = 0
  4084                           ; Regs used in ___lldiv: [wreg+status,2+status,0]
  4085                           
  4086     0E08  3000               	movlw	0
  4087     0E09  1283               	bcf	3,5	;RP0=0, select bank0
  4088     0E0A  1303               	bcf	3,6	;RP1=0, select bank0
  4089     0E0B  00A4               	movwf	___lldiv@quotient+3
  4090     0E0C  3000               	movlw	0
  4091     0E0D  00A3               	movwf	___lldiv@quotient+2
  4092     0E0E  3000               	movlw	0
  4093     0E0F  00A2               	movwf	___lldiv@quotient+1
  4094     0E10  3000               	movlw	0
  4095     0E11  00A1               	movwf	___lldiv@quotient
  4096     0E12  0875               	movf	___lldiv@divisor+3,w
  4097     0E13  0474               	iorwf	___lldiv@divisor+2,w
  4098     0E14  0473               	iorwf	___lldiv@divisor+1,w
  4099     0E15  0472               	iorwf	___lldiv@divisor,w
  4100     0E16  1903               	skipnz
  4101     0E17  2E19               	goto	u3521
  4102     0E18  2E1A               	goto	u3520
  4103     0E19                     u3521:
  4104     0E19  2E65               	goto	l3234
  4105     0E1A                     u3520:
  4106     0E1A                     l3216:
  4107     0E1A  3001               	movlw	1
  4108     0E1B  00A5               	movwf	___lldiv@counter
  4109     0E1C  2E28               	goto	l3220
  4110     0E1D                     l3218:
  4111     0E1D  3001               	movlw	1
  4112     0E1E  00A0               	movwf	??___lldiv
  4113     0E1F                     u3535:
  4114     0E1F  1003               	clrc
  4115     0E20  0DF2               	rlf	___lldiv@divisor,f
  4116     0E21  0DF3               	rlf	___lldiv@divisor+1,f
  4117     0E22  0DF4               	rlf	___lldiv@divisor+2,f
  4118     0E23  0DF5               	rlf	___lldiv@divisor+3,f
  4119     0E24  0BA0               	decfsz	??___lldiv,f
  4120     0E25  2E1F               	goto	u3535
  4121     0E26  3001               	movlw	1
  4122     0E27  07A5               	addwf	___lldiv@counter,f
  4123     0E28                     l3220:
  4124     0E28  1FF5               	btfss	___lldiv@divisor+3,7
  4125     0E29  2E2B               	goto	u3541
  4126     0E2A  2E2C               	goto	u3540
  4127     0E2B                     u3541:
  4128     0E2B  2E1D               	goto	l3218
  4129     0E2C                     u3540:
  4130     0E2C                     l3222:
  4131     0E2C  3001               	movlw	1
  4132     0E2D  00A0               	movwf	??___lldiv
  4133     0E2E                     u3555:
  4134     0E2E  1003               	clrc
  4135     0E2F  0DA1               	rlf	___lldiv@quotient,f
  4136     0E30  0DA2               	rlf	___lldiv@quotient+1,f
  4137     0E31  0DA3               	rlf	___lldiv@quotient+2,f
  4138     0E32  0DA4               	rlf	___lldiv@quotient+3,f
  4139     0E33  0BA0               	decfsz	??___lldiv,f
  4140     0E34  2E2E               	goto	u3555
  4141     0E35                     l3224:
  4142     0E35  0875               	movf	___lldiv@divisor+3,w
  4143     0E36  0279               	subwf	___lldiv@dividend+3,w
  4144     0E37  1D03               	skipz
  4145     0E38  2E43               	goto	u3565
  4146     0E39  0874               	movf	___lldiv@divisor+2,w
  4147     0E3A  0278               	subwf	___lldiv@dividend+2,w
  4148     0E3B  1D03               	skipz
  4149     0E3C  2E43               	goto	u3565
  4150     0E3D  0873               	movf	___lldiv@divisor+1,w
  4151     0E3E  0277               	subwf	___lldiv@dividend+1,w
  4152     0E3F  1D03               	skipz
  4153     0E40  2E43               	goto	u3565
  4154     0E41  0872               	movf	___lldiv@divisor,w
  4155     0E42  0276               	subwf	___lldiv@dividend,w
  4156     0E43                     u3565:
  4157     0E43  1C03               	skipc
  4158     0E44  2E46               	goto	u3561
  4159     0E45  2E47               	goto	u3560
  4160     0E46                     u3561:
  4161     0E46  2E56               	goto	l3230
  4162     0E47                     u3560:
  4163     0E47                     l3226:
  4164     0E47  0872               	movf	___lldiv@divisor,w
  4165     0E48  02F6               	subwf	___lldiv@dividend,f
  4166     0E49  0873               	movf	___lldiv@divisor+1,w
  4167     0E4A  1C03               	skipc
  4168     0E4B  0F73               	incfsz	___lldiv@divisor+1,w
  4169     0E4C  02F7               	subwf	___lldiv@dividend+1,f
  4170     0E4D  0874               	movf	___lldiv@divisor+2,w
  4171     0E4E  1C03               	skipc
  4172     0E4F  0F74               	incfsz	___lldiv@divisor+2,w
  4173     0E50  02F8               	subwf	___lldiv@dividend+2,f
  4174     0E51  0875               	movf	___lldiv@divisor+3,w
  4175     0E52  1C03               	skipc
  4176     0E53  0F75               	incfsz	___lldiv@divisor+3,w
  4177     0E54  02F9               	subwf	___lldiv@dividend+3,f
  4178     0E55                     l3228:
  4179     0E55  1421               	bsf	___lldiv@quotient,0
  4180     0E56                     l3230:
  4181     0E56  3001               	movlw	1
  4182     0E57                     u3575:
  4183     0E57  1003               	clrc
  4184     0E58  0CF5               	rrf	___lldiv@divisor+3,f
  4185     0E59  0CF4               	rrf	___lldiv@divisor+2,f
  4186     0E5A  0CF3               	rrf	___lldiv@divisor+1,f
  4187     0E5B  0CF2               	rrf	___lldiv@divisor,f
  4188     0E5C  3EFF               	addlw	-1
  4189     0E5D  1D03               	skipz
  4190     0E5E  2E57               	goto	u3575
  4191     0E5F                     l3232:
  4192     0E5F  3001               	movlw	1
  4193     0E60  02A5               	subwf	___lldiv@counter,f
  4194     0E61  1D03               	btfss	3,2
  4195     0E62  2E64               	goto	u3581
  4196     0E63  2E65               	goto	u3580
  4197     0E64                     u3581:
  4198     0E64  2E2C               	goto	l3222
  4199     0E65                     u3580:
  4200     0E65                     l3234:
  4201     0E65  0824               	movf	___lldiv@quotient+3,w
  4202     0E66  00F5               	movwf	?___lldiv+3
  4203     0E67  0823               	movf	___lldiv@quotient+2,w
  4204     0E68  00F4               	movwf	?___lldiv+2
  4205     0E69  0822               	movf	___lldiv@quotient+1,w
  4206     0E6A  00F3               	movwf	?___lldiv+1
  4207     0E6B  0821               	movf	___lldiv@quotient,w
  4208     0E6C  00F2               	movwf	?___lldiv
  4209     0E6D                     l628:
  4210     0E6D  0008               	return
  4211     0E6E                     __end_of___lldiv:
  4212                           
  4213                           	psect	text17
  4214     08ED                     __ptext17:	
  4215 ;; *************** function _init_ds1307 *****************
  4216 ;; Defined at:
  4217 ;;		line 8 in file "/home/santhoshtk/Desktop/EMERTXE/MC/25014_Car_Black__Box.X/25014_Car_Black_Box.X/ds1307.c"
  4218 ;; Parameters:    Size  Location     Type
  4219 ;;		None
  4220 ;; Auto vars:     Size  Location     Type
  4221 ;;  dummy           1    6[COMMON] unsigned char 
  4222 ;; Return value:  Size  Location     Type
  4223 ;;                  1    wreg      void 
  4224 ;; Registers used:
  4225 ;;		wreg, status,2, status,0, pclath, cstack
  4226 ;; Tracked objects:
  4227 ;;		On entry : 0/0
  4228 ;;		On exit  : 0/0
  4229 ;;		Unchanged: 0/0
  4230 ;; Data sizes:     COMMON   BANK0   BANK1   BANK3   BANK2
  4231 ;;      Params:         0       0       0       0       0
  4232 ;;      Locals:         1       0       0       0       0
  4233 ;;      Temps:          0       0       0       0       0
  4234 ;;      Totals:         1       0       0       0       0
  4235 ;;Total ram usage:        1 bytes
  4236 ;; Hardware stack levels used: 1
  4237 ;; Hardware stack levels required when called: 3
  4238 ;; This function calls:
  4239 ;;		_read_ds1307
  4240 ;;		_write_ds1307
  4241 ;; This function is called by:
  4242 ;;		_init_config
  4243 ;; This function uses a non-reentrant model
  4244 ;;
  4245                           
  4246     08ED                     _init_ds1307:	
  4247                           ;psect for function _init_ds1307
  4248                           
  4249     08ED                     l3430:	
  4250                           ;incstack = 0
  4251                           ; Regs used in _init_ds1307: [wreg+status,2+status,0+pclath+cstack]
  4252                           
  4253                           
  4254                           ;/home/santhoshtk/Desktop/EMERTXE/MC/25014_Car_Black__Box.X/25014_Car_Black_Box.X/ds1307
      +                          .c: 10:     unsigned char dummy;;/home/santhoshtk/Desktop/EMERTXE/MC/25014_Car_Black__Bo
      +                          x.X/25014_Car_Black_Box.X/ds1307.c: 12:     dummy = read_ds1307(0x00);
  4255     08ED  3000               	movlw	0
  4256     08EE  120A  158A  22A2  120A  158A  	fcall	_read_ds1307
  4257     08F3  00F6               	movwf	init_ds1307@dummy
  4258     08F4                     l3432:
  4259                           
  4260                           ;/home/santhoshtk/Desktop/EMERTXE/MC/25014_Car_Black__Box.X/25014_Car_Black_Box.X/ds1307
      +                          .c: 13:     dummy = dummy & 0x7F;
  4261     08F4  307F               	movlw	127
  4262     08F5  05F6               	andwf	init_ds1307@dummy,f
  4263     08F6                     l3434:
  4264                           
  4265                           ;/home/santhoshtk/Desktop/EMERTXE/MC/25014_Car_Black__Box.X/25014_Car_Black_Box.X/ds1307
      +                          .c: 14:     write_ds1307(0x00, dummy);
  4266     08F6  0876               	movf	init_ds1307@dummy,w
  4267     08F7  00F3               	movwf	write_ds1307@data
  4268     08F8  3000               	movlw	0
  4269     08F9  120A  158A  2127  120A  158A  	fcall	_write_ds1307
  4270     08FE                     l319:
  4271     08FE  0008               	return
  4272     08FF                     __end_of_init_ds1307:
  4273                           
  4274                           	psect	text18
  4275     0927                     __ptext18:	
  4276 ;; *************** function _write_ds1307 *****************
  4277 ;; Defined at:
  4278 ;;		line 32 in file "/home/santhoshtk/Desktop/EMERTXE/MC/25014_Car_Black__Box.X/25014_Car_Black_Box.X/ds1307.c"
  4279 ;; Parameters:    Size  Location     Type
  4280 ;;  addr            1    wreg     unsigned char 
  4281 ;;  data            1    3[COMMON] unsigned char 
  4282 ;; Auto vars:     Size  Location     Type
  4283 ;;  addr            1    4[COMMON] unsigned char 
  4284 ;; Return value:  Size  Location     Type
  4285 ;;                  1    wreg      void 
  4286 ;; Registers used:
  4287 ;;		wreg, status,2, status,0, pclath, cstack
  4288 ;; Tracked objects:
  4289 ;;		On entry : 0/0
  4290 ;;		On exit  : 0/0
  4291 ;;		Unchanged: 0/0
  4292 ;; Data sizes:     COMMON   BANK0   BANK1   BANK3   BANK2
  4293 ;;      Params:         1       0       0       0       0
  4294 ;;      Locals:         1       0       0       0       0
  4295 ;;      Temps:          0       0       0       0       0
  4296 ;;      Totals:         2       0       0       0       0
  4297 ;;Total ram usage:        2 bytes
  4298 ;; Hardware stack levels used: 1
  4299 ;; Hardware stack levels required when called: 2
  4300 ;; This function calls:
  4301 ;;		_i2c_start
  4302 ;;		_i2c_stop
  4303 ;;		_i2c_write
  4304 ;; This function is called by:
  4305 ;;		_init_ds1307
  4306 ;; This function uses a non-reentrant model
  4307 ;;
  4308                           
  4309     0927                     _write_ds1307:	
  4310                           ;psect for function _write_ds1307
  4311                           
  4312                           
  4313                           ;incstack = 0
  4314                           ; Regs used in _write_ds1307: [wreg+status,2+status,0+pclath+cstack]
  4315                           ;write_ds1307@addr stored from wreg
  4316     0927  00F4               	movwf	write_ds1307@addr
  4317     0928                     l3212:
  4318                           
  4319                           ;/home/santhoshtk/Desktop/EMERTXE/MC/25014_Car_Black__Box.X/25014_Car_Black_Box.X/ds1307
      +                          .c: 32: void write_ds1307(unsigned char addr, unsigned char data);/home/santhoshtk/Deskt
      +                          op/EMERTXE/MC/25014_Car_Black__Box.X/25014_Car_Black_Box.X/ds1307.c: 33: {;/home/santhos
      +                          htk/Desktop/EMERTXE/MC/25014_Car_Black__Box.X/25014_Car_Black_Box.X/ds1307.c: 34:     i2
      +                          c_start();
  4320     0928  120A  158A  2098  120A  158A  	fcall	_i2c_start
  4321                           
  4322                           ;/home/santhoshtk/Desktop/EMERTXE/MC/25014_Car_Black__Box.X/25014_Car_Black_Box.X/ds1307
      +                          .c: 35:     i2c_write(0b11010000);
  4323     092D  30D0               	movlw	208
  4324     092E  120A  158A  20BF  120A  158A  	fcall	_i2c_write
  4325                           
  4326                           ;/home/santhoshtk/Desktop/EMERTXE/MC/25014_Car_Black__Box.X/25014_Car_Black_Box.X/ds1307
      +                          .c: 36:     i2c_write(addr);
  4327     0933  0874               	movf	write_ds1307@addr,w
  4328     0934  120A  158A  20BF  120A  158A  	fcall	_i2c_write
  4329                           
  4330                           ;/home/santhoshtk/Desktop/EMERTXE/MC/25014_Car_Black__Box.X/25014_Car_Black_Box.X/ds1307
      +                          .c: 37:     i2c_write(data);
  4331     0939  0873               	movf	write_ds1307@data,w
  4332     093A  120A  158A  20BF  120A  158A  	fcall	_i2c_write
  4333                           
  4334                           ;/home/santhoshtk/Desktop/EMERTXE/MC/25014_Car_Black__Box.X/25014_Car_Black_Box.X/ds1307
      +                          .c: 38:     i2c_stop();
  4335     093F  120A  158A  20A1  120A  158A  	fcall	_i2c_stop
  4336     0944                     l325:
  4337     0944  0008               	return
  4338     0945                     __end_of_write_ds1307:
  4339                           
  4340                           	psect	text19
  4341     0883                     __ptext19:	
  4342 ;; *************** function _init_digital_keypad *****************
  4343 ;; Defined at:
  4344 ;;		line 4 in file "/home/santhoshtk/Desktop/EMERTXE/MC/25014_Car_Black__Box.X/25014_Car_Black_Box.X/digital_keypad.c"
  4345 ;; Parameters:    Size  Location     Type
  4346 ;;		None
  4347 ;; Auto vars:     Size  Location     Type
  4348 ;;		None
  4349 ;; Return value:  Size  Location     Type
  4350 ;;                  1    wreg      void 
  4351 ;; Registers used:
  4352 ;;		wreg, status,2
  4353 ;; Tracked objects:
  4354 ;;		On entry : 0/0
  4355 ;;		On exit  : 0/0
  4356 ;;		Unchanged: 0/0
  4357 ;; Data sizes:     COMMON   BANK0   BANK1   BANK3   BANK2
  4358 ;;      Params:         0       0       0       0       0
  4359 ;;      Locals:         0       0       0       0       0
  4360 ;;      Temps:          0       0       0       0       0
  4361 ;;      Totals:         0       0       0       0       0
  4362 ;;Total ram usage:        0 bytes
  4363 ;; Hardware stack levels used: 1
  4364 ;; Hardware stack levels required when called: 1
  4365 ;; This function calls:
  4366 ;;		Nothing
  4367 ;; This function is called by:
  4368 ;;		_init_config
  4369 ;; This function uses a non-reentrant model
  4370 ;;
  4371                           
  4372     0883                     _init_digital_keypad:	
  4373                           ;psect for function _init_digital_keypad
  4374                           
  4375     0883                     l3428:	
  4376                           ;incstack = 0
  4377                           ; Regs used in _init_digital_keypad: [wreg+status,2]
  4378                           
  4379                           
  4380                           ;/home/santhoshtk/Desktop/EMERTXE/MC/25014_Car_Black__Box.X/25014_Car_Black_Box.X/digita
      +                          l_keypad.c: 7:     TRISB = TRISB | 0x3F;
  4381     0883  1683               	bsf	3,5	;RP0=1, select bank1
  4382     0884  1303               	bcf	3,6	;RP1=0, select bank1
  4383     0885  0806               	movf	6,w	;volatile
  4384     0886  383F               	iorlw	63
  4385     0887  0086               	movwf	6	;volatile
  4386     0888                     l288:
  4387     0888  0008               	return
  4388     0889                     __end_of_init_digital_keypad:
  4389                           
  4390                           	psect	text20
  4391     08CA                     __ptext20:	
  4392 ;; *************** function _init_clcd *****************
  4393 ;; Defined at:
  4394 ;;		line 45 in file "/home/santhoshtk/Desktop/EMERTXE/MC/25014_Car_Black__Box.X/25014_Car_Black_Box.X/clcd.c"
  4395 ;; Parameters:    Size  Location     Type
  4396 ;;		None
  4397 ;; Auto vars:     Size  Location     Type
  4398 ;;		None
  4399 ;; Return value:  Size  Location     Type
  4400 ;;                  1    wreg      void 
  4401 ;; Registers used:
  4402 ;;		wreg, status,2, status,0, pclath, cstack
  4403 ;; Tracked objects:
  4404 ;;		On entry : 0/0
  4405 ;;		On exit  : 0/0
  4406 ;;		Unchanged: 0/0
  4407 ;; Data sizes:     COMMON   BANK0   BANK1   BANK3   BANK2
  4408 ;;      Params:         0       0       0       0       0
  4409 ;;      Locals:         0       0       0       0       0
  4410 ;;      Temps:          0       0       0       0       0
  4411 ;;      Totals:         0       0       0       0       0
  4412 ;;Total ram usage:        0 bytes
  4413 ;; Hardware stack levels used: 1
  4414 ;; Hardware stack levels required when called: 3
  4415 ;; This function calls:
  4416 ;;		_init_display_controller
  4417 ;; This function is called by:
  4418 ;;		_init_config
  4419 ;; This function uses a non-reentrant model
  4420 ;;
  4421                           
  4422     08CA                     _init_clcd:	
  4423                           ;psect for function _init_clcd
  4424                           
  4425     08CA                     l3310:	
  4426                           ;incstack = 0
  4427                           ; Regs used in _init_clcd: [wreg+status,2+status,0+pclath+cstack]
  4428                           
  4429                           
  4430                           ;/home/santhoshtk/Desktop/EMERTXE/MC/25014_Car_Black__Box.X/25014_Car_Black_Box.X/clcd.c
      +                          : 48:     TRISD = 0x00;
  4431     08CA  1683               	bsf	3,5	;RP0=1, select bank1
  4432     08CB  1303               	bcf	3,6	;RP1=0, select bank1
  4433     08CC  0188               	clrf	8	;volatile
  4434     08CD                     l3312:
  4435                           
  4436                           ;/home/santhoshtk/Desktop/EMERTXE/MC/25014_Car_Black__Box.X/25014_Car_Black_Box.X/clcd.c
      +                          : 51:     TRISE2 = 0;
  4437     08CD  1109               	bcf	9,2	;volatile
  4438     08CE                     l3314:
  4439                           
  4440                           ;/home/santhoshtk/Desktop/EMERTXE/MC/25014_Car_Black__Box.X/25014_Car_Black_Box.X/clcd.c
      +                          : 52:     TRISE1 = 0;
  4441     08CE  1089               	bcf	9,1	;volatile
  4442     08CF                     l3316:
  4443                           
  4444                           ;/home/santhoshtk/Desktop/EMERTXE/MC/25014_Car_Black__Box.X/25014_Car_Black_Box.X/clcd.c
      +                          : 54:     init_display_controller();
  4445     08CF  120A  158A  25A5  120A  158A  	fcall	_init_display_controller
  4446     08D4                     l90:
  4447     08D4  0008               	return
  4448     08D5                     __end_of_init_clcd:
  4449                           
  4450                           	psect	text21
  4451     0DA5                     __ptext21:	
  4452 ;; *************** function _init_display_controller *****************
  4453 ;; Defined at:
  4454 ;;		line 22 in file "/home/santhoshtk/Desktop/EMERTXE/MC/25014_Car_Black__Box.X/25014_Car_Black_Box.X/clcd.c"
  4455 ;; Parameters:    Size  Location     Type
  4456 ;;		None
  4457 ;; Auto vars:     Size  Location     Type
  4458 ;;		None
  4459 ;; Return value:  Size  Location     Type
  4460 ;;                  1    wreg      void 
  4461 ;; Registers used:
  4462 ;;		wreg, status,2, status,0, pclath, cstack
  4463 ;; Tracked objects:
  4464 ;;		On entry : 0/0
  4465 ;;		On exit  : 0/0
  4466 ;;		Unchanged: 0/0
  4467 ;; Data sizes:     COMMON   BANK0   BANK1   BANK3   BANK2
  4468 ;;      Params:         0       0       0       0       0
  4469 ;;      Locals:         0       0       0       0       0
  4470 ;;      Temps:          2       0       0       0       0
  4471 ;;      Totals:         2       0       0       0       0
  4472 ;;Total ram usage:        2 bytes
  4473 ;; Hardware stack levels used: 1
  4474 ;; Hardware stack levels required when called: 2
  4475 ;; This function calls:
  4476 ;;		_clcd_write
  4477 ;; This function is called by:
  4478 ;;		_init_clcd
  4479 ;; This function uses a non-reentrant model
  4480 ;;
  4481                           
  4482     0DA5                     _init_display_controller:	
  4483                           ;psect for function _init_display_controller
  4484                           
  4485     0DA5                     l3130:	
  4486                           ;incstack = 0
  4487                           ; Regs used in _init_display_controller: [wreg+status,2+status,0+pclath+cstack]
  4488                           
  4489                           
  4490                           ;/home/santhoshtk/Desktop/EMERTXE/MC/25014_Car_Black__Box.X/25014_Car_Black_Box.X/clcd.c
      +                          : 25:     _delay((unsigned long)((30)*(20000000/4000.0)));
  4491     0DA5  30C3               	movlw	195
  4492     0DA6  00F7               	movwf	??_init_display_controller+1
  4493     0DA7  30CD               	movlw	205
  4494     0DA8  00F6               	movwf	??_init_display_controller
  4495     0DA9                     u4887:
  4496     0DA9  0BF6               	decfsz	??_init_display_controller,f
  4497     0DAA  2DA9               	goto	u4887
  4498     0DAB  0BF7               	decfsz	??_init_display_controller+1,f
  4499     0DAC  2DA9               	goto	u4887
  4500     0DAD                     l3132:
  4501                           
  4502                           ;/home/santhoshtk/Desktop/EMERTXE/MC/25014_Car_Black__Box.X/25014_Car_Black_Box.X/clcd.c
      +                          : 28:     clcd_write(0x33, 0);
  4503     0DAD  01F2               	clrf	clcd_write@mode
  4504     0DAE  3033               	movlw	51
  4505     0DAF  120A  158A  23ED  120A  158A  	fcall	_clcd_write
  4506     0DB4                     l3134:
  4507                           
  4508                           ;/home/santhoshtk/Desktop/EMERTXE/MC/25014_Car_Black__Box.X/25014_Car_Black_Box.X/clcd.c
      +                          : 29:     _delay((unsigned long)((4100)*(20000000/4000000.0)));
  4509     0DB4  301B               	movlw	27
  4510     0DB5  00F7               	movwf	??_init_display_controller+1
  4511     0DB6  309E               	movlw	158
  4512     0DB7  00F6               	movwf	??_init_display_controller
  4513     0DB8                     u4897:
  4514     0DB8  0BF6               	decfsz	??_init_display_controller,f
  4515     0DB9  2DB8               	goto	u4897
  4516     0DBA  0BF7               	decfsz	??_init_display_controller+1,f
  4517     0DBB  2DB8               	goto	u4897
  4518     0DBC  0000               	nop
  4519                           
  4520                           ;/home/santhoshtk/Desktop/EMERTXE/MC/25014_Car_Black__Box.X/25014_Car_Black_Box.X/clcd.c
      +                          : 30:     clcd_write(0x33, 0);
  4521     0DBD  01F2               	clrf	clcd_write@mode
  4522     0DBE  3033               	movlw	51
  4523     0DBF  120A  158A  23ED  120A  158A  	fcall	_clcd_write
  4524     0DC4                     l3136:
  4525                           
  4526                           ;/home/santhoshtk/Desktop/EMERTXE/MC/25014_Car_Black__Box.X/25014_Car_Black_Box.X/clcd.c
      +                          : 31:     _delay((unsigned long)((100)*(20000000/4000000.0)));
  4527     0DC4  30A6               	movlw	166
  4528     0DC5  00F6               	movwf	??_init_display_controller
  4529     0DC6                     u4907:
  4530     0DC6  0BF6               	decfsz	??_init_display_controller,f
  4531     0DC7  2DC6               	goto	u4907
  4532     0DC8  0000               	nop
  4533     0DC9                     l3138:
  4534                           
  4535                           ;/home/santhoshtk/Desktop/EMERTXE/MC/25014_Car_Black__Box.X/25014_Car_Black_Box.X/clcd.c
      +                          : 32:     clcd_write(0x33, 0);
  4536     0DC9  01F2               	clrf	clcd_write@mode
  4537     0DCA  3033               	movlw	51
  4538     0DCB  120A  158A  23ED  120A  158A  	fcall	_clcd_write
  4539     0DD0                     l3140:
  4540                           
  4541                           ;/home/santhoshtk/Desktop/EMERTXE/MC/25014_Car_Black__Box.X/25014_Car_Black_Box.X/clcd.c
      +                          : 33:     _delay((unsigned long)((1)*(20000000/4000000.0)));
  4542     0DD0  2DD1               	nop2	;2 cycle nop
  4543     0DD1  2DD2               	nop2	;2 cycle nop
  4544     0DD2  0000               	nop
  4545     0DD3                     l3142:
  4546                           
  4547                           ;/home/santhoshtk/Desktop/EMERTXE/MC/25014_Car_Black__Box.X/25014_Car_Black_Box.X/clcd.c
      +                          : 35:     clcd_write(0x02, 0);
  4548     0DD3  01F2               	clrf	clcd_write@mode
  4549     0DD4  3002               	movlw	2
  4550     0DD5  120A  158A  23ED  120A  158A  	fcall	_clcd_write
  4551     0DDA                     l3144:
  4552                           
  4553                           ;/home/santhoshtk/Desktop/EMERTXE/MC/25014_Car_Black__Box.X/25014_Car_Black_Box.X/clcd.c
      +                          : 36:     _delay((unsigned long)((100)*(20000000/4000000.0)));
  4554     0DDA  30A6               	movlw	166
  4555     0DDB  00F6               	movwf	??_init_display_controller
  4556     0DDC                     u4917:
  4557     0DDC  0BF6               	decfsz	??_init_display_controller,f
  4558     0DDD  2DDC               	goto	u4917
  4559     0DDE  0000               	nop
  4560                           
  4561                           ;/home/santhoshtk/Desktop/EMERTXE/MC/25014_Car_Black__Box.X/25014_Car_Black_Box.X/clcd.c
      +                          : 37:     clcd_write(0x28, 0);
  4562     0DDF  01F2               	clrf	clcd_write@mode
  4563     0DE0  3028               	movlw	40
  4564     0DE1  120A  158A  23ED  120A  158A  	fcall	_clcd_write
  4565     0DE6                     l3146:
  4566                           
  4567                           ;/home/santhoshtk/Desktop/EMERTXE/MC/25014_Car_Black__Box.X/25014_Car_Black_Box.X/clcd.c
      +                          : 38:     _delay((unsigned long)((100)*(20000000/4000000.0)));
  4568     0DE6  30A6               	movlw	166
  4569     0DE7  00F6               	movwf	??_init_display_controller
  4570     0DE8                     u4927:
  4571     0DE8  0BF6               	decfsz	??_init_display_controller,f
  4572     0DE9  2DE8               	goto	u4927
  4573     0DEA  0000               	nop
  4574     0DEB                     l3148:
  4575                           
  4576                           ;/home/santhoshtk/Desktop/EMERTXE/MC/25014_Car_Black__Box.X/25014_Car_Black_Box.X/clcd.c
      +                          : 39:     clcd_write(0x01, 0);
  4577     0DEB  01F2               	clrf	clcd_write@mode
  4578     0DEC  3001               	movlw	1
  4579     0DED  120A  158A  23ED  120A  158A  	fcall	_clcd_write
  4580                           
  4581                           ;/home/santhoshtk/Desktop/EMERTXE/MC/25014_Car_Black__Box.X/25014_Car_Black_Box.X/clcd.c
      +                          : 40:     _delay((unsigned long)((500)*(20000000/4000000.0)));
  4582     0DF2  3004               	movlw	4
  4583     0DF3  00F7               	movwf	??_init_display_controller+1
  4584     0DF4  303D               	movlw	61
  4585     0DF5  00F6               	movwf	??_init_display_controller
  4586     0DF6                     u4937:
  4587     0DF6  0BF6               	decfsz	??_init_display_controller,f
  4588     0DF7  2DF6               	goto	u4937
  4589     0DF8  0BF7               	decfsz	??_init_display_controller+1,f
  4590     0DF9  2DF6               	goto	u4937
  4591     0DFA  2DFB               	nop2
  4592     0DFB                     l3150:
  4593                           
  4594                           ;/home/santhoshtk/Desktop/EMERTXE/MC/25014_Car_Black__Box.X/25014_Car_Black_Box.X/clcd.c
      +                          : 41:     clcd_write(0x0C, 0);
  4595     0DFB  01F2               	clrf	clcd_write@mode
  4596     0DFC  300C               	movlw	12
  4597     0DFD  120A  158A  23ED  120A  158A  	fcall	_clcd_write
  4598     0E02                     l3152:
  4599                           
  4600                           ;/home/santhoshtk/Desktop/EMERTXE/MC/25014_Car_Black__Box.X/25014_Car_Black_Box.X/clcd.c
      +                          : 42:     _delay((unsigned long)((100)*(20000000/4000000.0)));
  4601     0E02  30A6               	movlw	166
  4602     0E03  00F6               	movwf	??_init_display_controller
  4603     0E04                     u4947:
  4604     0E04  0BF6               	decfsz	??_init_display_controller,f
  4605     0E05  2E04               	goto	u4947
  4606     0E06  0000               	nop
  4607     0E07                     l87:
  4608     0E07  0008               	return
  4609     0E08                     __end_of_init_display_controller:
  4610                           
  4611                           	psect	text22
  4612     0889                     __ptext22:	
  4613 ;; *************** function _init_adc *****************
  4614 ;; Defined at:
  4615 ;;		line 4 in file "/home/santhoshtk/Desktop/EMERTXE/MC/25014_Car_Black__Box.X/25014_Car_Black_Box.X/adc.c"
  4616 ;; Parameters:    Size  Location     Type
  4617 ;;		None
  4618 ;; Auto vars:     Size  Location     Type
  4619 ;;		None
  4620 ;; Return value:  Size  Location     Type
  4621 ;;                  1    wreg      void 
  4622 ;; Registers used:
  4623 ;;		None
  4624 ;; Tracked objects:
  4625 ;;		On entry : 0/0
  4626 ;;		On exit  : 0/0
  4627 ;;		Unchanged: 0/0
  4628 ;; Data sizes:     COMMON   BANK0   BANK1   BANK3   BANK2
  4629 ;;      Params:         0       0       0       0       0
  4630 ;;      Locals:         0       0       0       0       0
  4631 ;;      Temps:          0       0       0       0       0
  4632 ;;      Totals:         0       0       0       0       0
  4633 ;;Total ram usage:        0 bytes
  4634 ;; Hardware stack levels used: 1
  4635 ;; Hardware stack levels required when called: 1
  4636 ;; This function calls:
  4637 ;;		Nothing
  4638 ;; This function is called by:
  4639 ;;		_init_config
  4640 ;; This function uses a non-reentrant model
  4641 ;;
  4642                           
  4643     0889                     _init_adc:	
  4644                           ;psect for function _init_adc
  4645                           
  4646     0889                     l3286:	
  4647                           ;incstack = 0
  4648                           ; Regs used in _init_adc: []
  4649                           
  4650                           
  4651                           ;/home/santhoshtk/Desktop/EMERTXE/MC/25014_Car_Black__Box.X/25014_Car_Black_Box.X/adc.c:
      +                           7:     ADFM = 1;
  4652     0889  1683               	bsf	3,5	;RP0=1, select bank1
  4653     088A  1303               	bcf	3,6	;RP1=0, select bank1
  4654     088B  179F               	bsf	31,7	;volatile
  4655                           
  4656                           ;/home/santhoshtk/Desktop/EMERTXE/MC/25014_Car_Black__Box.X/25014_Car_Black_Box.X/adc.c:
      +                           10:     ADON = 1;
  4657     088C  1283               	bcf	3,5	;RP0=0, select bank0
  4658     088D  1303               	bcf	3,6	;RP1=0, select bank0
  4659     088E  141F               	bsf	31,0	;volatile
  4660     088F                     l17:
  4661     088F  0008               	return
  4662     0890                     __end_of_init_adc:
  4663                           
  4664                           	psect	text23
  4665     0448                     __ptext23:	
  4666 ;; *************** function _dashboard *****************
  4667 ;; Defined at:
  4668 ;;		line 89 in file "/home/santhoshtk/Desktop/EMERTXE/MC/25014_Car_Black__Box.X/25014_Car_Black_Box.X/dashboard.c"
  4669 ;; Parameters:    Size  Location     Type
  4670 ;;  key             1    wreg     unsigned char 
  4671 ;; Auto vars:     Size  Location     Type
  4672 ;;  key             1   44[BANK0 ] unsigned char 
  4673 ;; Return value:  Size  Location     Type
  4674 ;;                  1    wreg      void 
  4675 ;; Registers used:
  4676 ;;		wreg, fsr0l, fsr0h, status,2, status,0, pclath, btemp1, cstack
  4677 ;; Tracked objects:
  4678 ;;		On entry : 0/0
  4679 ;;		On exit  : 0/0
  4680 ;;		Unchanged: 0/0
  4681 ;; Data sizes:     COMMON   BANK0   BANK1   BANK3   BANK2
  4682 ;;      Params:         0       0       0       0       0
  4683 ;;      Locals:         0       1       0       0       0
  4684 ;;      Temps:          0       2       0       0       0
  4685 ;;      Totals:         0       3       0       0       0
  4686 ;;Total ram usage:        3 bytes
  4687 ;; Hardware stack levels used: 1
  4688 ;; Hardware stack levels required when called: 6
  4689 ;; This function calls:
  4690 ;;		___fldiv
  4691 ;;		___fltol
  4692 ;;		___lwdiv
  4693 ;;		___lwmod
  4694 ;;		___xxtofl
  4695 ;;		_clcd_print
  4696 ;;		_display_time
  4697 ;;		_get_time
  4698 ;;		_read_adc
  4699 ;;		_write_event
  4700 ;; This function is called by:
  4701 ;;		_main
  4702 ;; This function uses a non-reentrant model
  4703 ;;
  4704                           
  4705     0448                     _dashboard:	
  4706                           ;psect for function _dashboard
  4707                           
  4708                           
  4709                           ;incstack = 0
  4710                           ; Regs used in _dashboard: [wreg-fsr0h+status,2+status,0+pclath+btemp1+cstack]
  4711                           ;dashboard@key stored from wreg
  4712     0448  1283               	bcf	3,5	;RP0=0, select bank0
  4713     0449  1303               	bcf	3,6	;RP1=0, select bank0
  4714     044A  00CC               	movwf	dashboard@key
  4715     044B                     l3730:
  4716                           
  4717                           ;/home/santhoshtk/Desktop/EMERTXE/MC/25014_Car_Black__Box.X/25014_Car_Black_Box.X/dashbo
      +                          ard.c: 91:  clcd_print(" TIME     EV  SP", (0x80 + 0));
  4718     044B  3034               	movlw	low (STR_19| (0+32768))
  4719     044C  00F6               	movwf	clcd_print@str
  4720     044D  3083               	movlw	high (STR_19| (0+32768))
  4721     044E  00F7               	movwf	clcd_print@str+1
  4722     044F  3080               	movlw	128
  4723     0450  00F8               	movwf	clcd_print@addr
  4724     0451  120A  158A  22F8  120A  118A  	fcall	_clcd_print
  4725                           
  4726                           ;/home/santhoshtk/Desktop/EMERTXE/MC/25014_Car_Black__Box.X/25014_Car_Black_Box.X/dashbo
      +                          ard.c: 92:  clcd_print("XXXXXXXXXXXXXXX", (0x80 + 0));
  4727     0456  3089               	movlw	low (STR_20| (0+32768))
  4728     0457  00F6               	movwf	clcd_print@str
  4729     0458  3083               	movlw	high (STR_20| (0+32768))
  4730     0459  00F7               	movwf	clcd_print@str+1
  4731     045A  3080               	movlw	128
  4732     045B  00F8               	movwf	clcd_print@addr
  4733     045C  120A  158A  22F8  120A  118A  	fcall	_clcd_print
  4734     0461                     l3732:
  4735                           
  4736                           ;/home/santhoshtk/Desktop/EMERTXE/MC/25014_Car_Black__Box.X/25014_Car_Black_Box.X/dashbo
      +                          ard.c: 96:  get_time(clock_reg);
  4737     0461  306A               	movlw	(low (_clock_reg| 0))& (0+255)
  4738     0462  00F6               	movwf	get_time@clock_reg
  4739     0463  120A  158A  21A1  120A  118A  	fcall	_get_time
  4740     0468                     l3734:
  4741                           
  4742                           ;/home/santhoshtk/Desktop/EMERTXE/MC/25014_Car_Black__Box.X/25014_Car_Black_Box.X/dashbo
      +                          ard.c: 97:  display_time(clock_reg);
  4743     0468  306A               	movlw	(low (_clock_reg| 0))& (0+255)
  4744     0469  00F9               	movwf	display_time@clock_reg
  4745     046A  120A  158A  249F  120A  118A  	fcall	_display_time
  4746     046F                     l3736:
  4747                           
  4748                           ;/home/santhoshtk/Desktop/EMERTXE/MC/25014_Car_Black__Box.X/25014_Car_Black_Box.X/dashbo
      +                          ard.c: 101:  if(key == 0x3E){
  4749     046F  303E               	movlw	62
  4750     0470  1283               	bcf	3,5	;RP0=0, select bank0
  4751     0471  1303               	bcf	3,6	;RP1=0, select bank0
  4752     0472  064C               	xorwf	dashboard@key,w
  4753     0473  1D03               	btfss	3,2
  4754     0474  2C76               	goto	u4531
  4755     0475  2C77               	goto	u4530
  4756     0476                     u4531:
  4757     0476  2C9C               	goto	l3748
  4758     0477                     u4530:
  4759     0477                     l3738:
  4760                           
  4761                           ;/home/santhoshtk/Desktop/EMERTXE/MC/25014_Car_Black__Box.X/25014_Car_Black_Box.X/dashbo
      +                          ard.c: 104:   if(pos == 7){
  4762     0477  3007               	movlw	7
  4763     0478  067A               	xorwf	_pos,w
  4764     0479  047B               	iorwf	_pos+1,w
  4765     047A  1D03               	btfss	3,2
  4766     047B  2C7D               	goto	u4541
  4767     047C  2C7E               	goto	u4540
  4768     047D                     u4541:
  4769     047D  2C83               	goto	l3742
  4770     047E                     u4540:
  4771     047E                     l3740:
  4772                           
  4773                           ;/home/santhoshtk/Desktop/EMERTXE/MC/25014_Car_Black__Box.X/25014_Car_Black_Box.X/dashbo
      +                          ard.c: 105:    pos = 1;
  4774     047E  3001               	movlw	1
  4775     047F  00FA               	movwf	_pos
  4776     0480  3000               	movlw	0
  4777     0481  00FB               	movwf	_pos+1
  4778                           
  4779                           ;/home/santhoshtk/Desktop/EMERTXE/MC/25014_Car_Black__Box.X/25014_Car_Black_Box.X/dashbo
      +                          ard.c: 106:   }
  4780     0482  2CC9               	goto	l3766
  4781     0483                     l3742:
  4782     0483  087B               	movf	_pos+1,w
  4783     0484  3A80               	xorlw	128
  4784     0485  00FF               	movwf	btemp1
  4785     0486  3080               	movlw	128
  4786     0487  027F               	subwf	btemp1,w
  4787     0488  1D03               	skipz
  4788     0489  2C8C               	goto	u4555
  4789     048A  3006               	movlw	6
  4790     048B  027A               	subwf	_pos,w
  4791     048C                     u4555:
  4792     048C  1803               	skipnc
  4793     048D  2C8F               	goto	u4551
  4794     048E  2C90               	goto	u4550
  4795     048F                     u4551:
  4796     048F  2CC9               	goto	l3766
  4797     0490                     u4550:
  4798     0490                     l3744:
  4799                           
  4800                           ;/home/santhoshtk/Desktop/EMERTXE/MC/25014_Car_Black__Box.X/25014_Car_Black_Box.X/dashbo
      +                          ard.c: 108:    pos++;
  4801     0490  3001               	movlw	1
  4802     0491  07FA               	addwf	_pos,f
  4803     0492  1803               	skipnc
  4804     0493  0AFB               	incf	_pos+1,f
  4805     0494  3000               	movlw	0
  4806     0495  07FB               	addwf	_pos+1,f
  4807     0496                     l3746:
  4808                           
  4809                           ;/home/santhoshtk/Desktop/EMERTXE/MC/25014_Car_Black__Box.X/25014_Car_Black_Box.X/dashbo
      +                          ard.c: 109:    write_event();
  4810     0496  120A  118A  2560  120A  118A  	fcall	_write_event
  4811     049B  2CC9               	goto	l3766
  4812     049C                     l3748:
  4813     049C  303D               	movlw	61
  4814     049D  064C               	xorwf	dashboard@key,w
  4815     049E  1D03               	btfss	3,2
  4816     049F  2CA1               	goto	u4561
  4817     04A0  2CA2               	goto	u4560
  4818     04A1                     u4561:
  4819     04A1  2CBE               	goto	l3760
  4820     04A2                     u4560:
  4821     04A2                     l3750:
  4822                           
  4823                           ;/home/santhoshtk/Desktop/EMERTXE/MC/25014_Car_Black__Box.X/25014_Car_Black_Box.X/dashbo
      +                          ard.c: 115:   if(pos == 7){
  4824     04A2  3007               	movlw	7
  4825     04A3  067A               	xorwf	_pos,w
  4826     04A4  047B               	iorwf	_pos+1,w
  4827     04A5  1D03               	btfss	3,2
  4828     04A6  2CA8               	goto	u4571
  4829     04A7  2CA9               	goto	u4570
  4830     04A8                     u4571:
  4831     04A8  2CAA               	goto	l3754
  4832     04A9                     u4570:
  4833     04A9  2C7E               	goto	l3740
  4834     04AA                     l3754:
  4835     04AA  087B               	movf	_pos+1,w
  4836     04AB  3A80               	xorlw	128
  4837     04AC  00FF               	movwf	btemp1
  4838     04AD  3080               	movlw	128
  4839     04AE  027F               	subwf	btemp1,w
  4840     04AF  1D03               	skipz
  4841     04B0  2CB3               	goto	u4585
  4842     04B1  3002               	movlw	2
  4843     04B2  027A               	subwf	_pos,w
  4844     04B3                     u4585:
  4845     04B3  1C03               	skipc
  4846     04B4  2CB6               	goto	u4581
  4847     04B5  2CB7               	goto	u4580
  4848     04B6                     u4581:
  4849     04B6  2CC9               	goto	l3766
  4850     04B7                     u4580:
  4851     04B7                     l3756:
  4852                           
  4853                           ;/home/santhoshtk/Desktop/EMERTXE/MC/25014_Car_Black__Box.X/25014_Car_Black_Box.X/dashbo
      +                          ard.c: 119:    pos--;
  4854     04B7  30FF               	movlw	255
  4855     04B8  07FA               	addwf	_pos,f
  4856     04B9  1803               	skipnc
  4857     04BA  0AFB               	incf	_pos+1,f
  4858     04BB  30FF               	movlw	255
  4859     04BC  07FB               	addwf	_pos+1,f
  4860     04BD  2C96               	goto	l3746
  4861     04BE                     l3760:
  4862     04BE  303B               	movlw	59
  4863     04BF  064C               	xorwf	dashboard@key,w
  4864     04C0  1D03               	btfss	3,2
  4865     04C1  2CC3               	goto	u4591
  4866     04C2  2CC4               	goto	u4590
  4867     04C3                     u4591:
  4868     04C3  2CC9               	goto	l3766
  4869     04C4                     u4590:
  4870     04C4                     l3762:
  4871                           
  4872                           ;/home/santhoshtk/Desktop/EMERTXE/MC/25014_Car_Black__Box.X/25014_Car_Black_Box.X/dashbo
      +                          ard.c: 126:   pos = 7;
  4873     04C4  3007               	movlw	7
  4874     04C5  00FA               	movwf	_pos
  4875     04C6  3000               	movlw	0
  4876     04C7  00FB               	movwf	_pos+1
  4877     04C8  2C96               	goto	l3746
  4878     04C9                     l3766:
  4879                           
  4880                           ;/home/santhoshtk/Desktop/EMERTXE/MC/25014_Car_Black__Box.X/25014_Car_Black_Box.X/dashbo
      +                          ard.c: 131:  clcd_print(event[pos], (0xC0 + 10));
  4881     04C9  087A               	movf	_pos,w
  4882     04CA  1283               	bcf	3,5	;RP0=0, select bank0
  4883     04CB  1303               	bcf	3,6	;RP1=0, select bank0
  4884     04CC  00CA               	movwf	??_dashboard
  4885     04CD  074A               	addwf	??_dashboard,w
  4886     04CE  3EA0               	addlw	(low (_event| 0))& (0+255)
  4887     04CF  0084               	movwf	4
  4888     04D0  1383               	bcf	3,7	;select IRP bank1
  4889     04D1  0800               	movf	0,w
  4890     04D2  00F6               	movwf	clcd_print@str
  4891     04D3  0A84               	incf	4,f
  4892     04D4  0800               	movf	0,w
  4893     04D5  0384               	decf	4,f
  4894     04D6  00F7               	movwf	clcd_print@str+1
  4895     04D7  30CA               	movlw	202
  4896     04D8  00F8               	movwf	clcd_print@addr
  4897     04D9  120A  158A  22F8  120A  118A  	fcall	_clcd_print
  4898     04DE                     l3768:
  4899                           
  4900                           ;/home/santhoshtk/Desktop/EMERTXE/MC/25014_Car_Black__Box.X/25014_Car_Black_Box.X/dashbo
      +                          ard.c: 135:  adc_val = read_adc(0x00);
  4901     04DE  3000               	movlw	0
  4902     04DF  120A  158A  2163  120A  118A  	fcall	_read_adc
  4903     04E4  0873               	movf	?_read_adc+1,w
  4904     04E5  1283               	bcf	3,5	;RP0=0, select bank0
  4905     04E6  1303               	bcf	3,6	;RP1=0, select bank0
  4906     04E7  00D8               	movwf	_adc_val+1
  4907     04E8  0872               	movf	?_read_adc,w
  4908     04E9  00D7               	movwf	_adc_val
  4909     04EA                     l3770:
  4910                           
  4911                           ;/home/santhoshtk/Desktop/EMERTXE/MC/25014_Car_Black__Box.X/25014_Car_Black_Box.X/dashbo
      +                          ard.c: 138:  adc_val = adc_val / 10.23;
  4912     04EA  0857               	movf	_adc_val,w
  4913     04EB  00F2               	movwf	___xxtofl@val
  4914     04EC  0858               	movf	_adc_val+1,w
  4915     04ED  00F3               	movwf	___xxtofl@val+1
  4916     04EE  01F4               	clrf	___xxtofl@val+2
  4917     04EF  01F5               	clrf	___xxtofl@val+3
  4918     04F0  3000               	movlw	0
  4919     04F1  120A  118A  220A  120A  118A  	fcall	___xxtofl
  4920     04F6  0875               	movf	?___xxtofl+3,w
  4921     04F7  1283               	bcf	3,5	;RP0=0, select bank0
  4922     04F8  1303               	bcf	3,6	;RP1=0, select bank0
  4923     04F9  00AD               	movwf	___fldiv@b+3
  4924     04FA  0874               	movf	?___xxtofl+2,w
  4925     04FB  00AC               	movwf	___fldiv@b+2
  4926     04FC  0873               	movf	?___xxtofl+1,w
  4927     04FD  00AB               	movwf	___fldiv@b+1
  4928     04FE  0872               	movf	?___xxtofl,w
  4929     04FF  00AA               	movwf	___fldiv@b
  4930     0500  3041               	movlw	65
  4931     0501  00A9               	movwf	___fldiv@a+3
  4932     0502  3023               	movlw	35
  4933     0503  00A8               	movwf	___fldiv@a+2
  4934     0504  30AE               	movlw	174
  4935     0505  00A7               	movwf	___fldiv@a+1
  4936     0506  3014               	movlw	20
  4937     0507  00A6               	movwf	___fldiv@a
  4938     0508  120A  118A  2040  120A  118A  	fcall	___fldiv
  4939     050D  1283               	bcf	3,5	;RP0=0, select bank0
  4940     050E  1303               	bcf	3,6	;RP1=0, select bank0
  4941     050F  0829               	movf	?___fldiv+3,w
  4942     0510  00C3               	movwf	___fltol@f1+3
  4943     0511  0828               	movf	?___fldiv+2,w
  4944     0512  00C2               	movwf	___fltol@f1+2
  4945     0513  0827               	movf	?___fldiv+1,w
  4946     0514  00C1               	movwf	___fltol@f1+1
  4947     0515  0826               	movf	?___fldiv,w
  4948     0516  00C0               	movwf	___fltol@f1
  4949     0517  120A  158A  266E  120A  118A  	fcall	___fltol
  4950     051C  1283               	bcf	3,5	;RP0=0, select bank0
  4951     051D  1303               	bcf	3,6	;RP1=0, select bank0
  4952     051E  0841               	movf	?___fltol+1,w
  4953     051F  00D8               	movwf	_adc_val+1
  4954     0520  0840               	movf	?___fltol,w
  4955     0521  00D7               	movwf	_adc_val
  4956     0522                     l3772:
  4957                           
  4958                           ;/home/santhoshtk/Desktop/EMERTXE/MC/25014_Car_Black__Box.X/25014_Car_Black_Box.X/dashbo
      +                          ard.c: 141:  if(adc_val == 100) adc_val--;
  4959     0522  3064               	movlw	100
  4960     0523  0657               	xorwf	_adc_val,w
  4961     0524  0458               	iorwf	_adc_val+1,w
  4962     0525  1D03               	btfss	3,2
  4963     0526  2D28               	goto	u4601
  4964     0527  2D29               	goto	u4600
  4965     0528                     u4601:
  4966     0528  2D2F               	goto	l3776
  4967     0529                     u4600:
  4968     0529                     l3774:
  4969     0529  3001               	movlw	1
  4970     052A  02D7               	subwf	_adc_val,f
  4971     052B  3000               	movlw	0
  4972     052C  1C03               	skipc
  4973     052D  03D8               	decf	_adc_val+1,f
  4974     052E  02D8               	subwf	_adc_val+1,f
  4975     052F                     l3776:
  4976                           
  4977                           ;/home/santhoshtk/Desktop/EMERTXE/MC/25014_Car_Black__Box.X/25014_Car_Black_Box.X/dashbo
      +                          ard.c: 143:  speed[0] = (adc_val / 10) + '0';
  4978     052F  300A               	movlw	10
  4979     0530  00F2               	movwf	___lwdiv@divisor
  4980     0531  3000               	movlw	0
  4981     0532  00F3               	movwf	___lwdiv@divisor+1
  4982     0533  0858               	movf	_adc_val+1,w
  4983     0534  00F5               	movwf	___lwdiv@dividend+1
  4984     0535  0857               	movf	_adc_val,w
  4985     0536  00F4               	movwf	___lwdiv@dividend
  4986     0537  120A  118A  27BC  120A  118A  	fcall	___lwdiv
  4987     053C  0872               	movf	?___lwdiv,w
  4988     053D  3E30               	addlw	48
  4989     053E  1283               	bcf	3,5	;RP0=0, select bank0
  4990     053F  1303               	bcf	3,6	;RP1=0, select bank0
  4991     0540  00E7               	movwf	_speed
  4992     0541                     l3778:
  4993                           
  4994                           ;/home/santhoshtk/Desktop/EMERTXE/MC/25014_Car_Black__Box.X/25014_Car_Black_Box.X/dashbo
      +                          ard.c: 144:  speed[1] = (adc_val % 10) + '0';
  4995     0541  300A               	movlw	10
  4996     0542  00F2               	movwf	___lwmod@divisor
  4997     0543  3000               	movlw	0
  4998     0544  00F3               	movwf	___lwmod@divisor+1
  4999     0545  0858               	movf	_adc_val+1,w
  5000     0546  00F5               	movwf	___lwmod@dividend+1
  5001     0547  0857               	movf	_adc_val,w
  5002     0548  00F4               	movwf	___lwmod@dividend
  5003     0549  120A  118A  22C0  120A  118A  	fcall	___lwmod
  5004     054E  0872               	movf	?___lwmod,w
  5005     054F  3E30               	addlw	48
  5006     0550  1283               	bcf	3,5	;RP0=0, select bank0
  5007     0551  1303               	bcf	3,6	;RP1=0, select bank0
  5008     0552  00E8               	movwf	_speed+1
  5009     0553                     l3780:
  5010                           
  5011                           ;/home/santhoshtk/Desktop/EMERTXE/MC/25014_Car_Black__Box.X/25014_Car_Black_Box.X/dashbo
      +                          ard.c: 145:  speed[2] = '\0';
  5012     0553  01E9               	clrf	_speed+2
  5013     0554                     l3782:
  5014                           
  5015                           ;/home/santhoshtk/Desktop/EMERTXE/MC/25014_Car_Black__Box.X/25014_Car_Black_Box.X/dashbo
      +                          ard.c: 147:  clcd_print(speed, (0xC0 + 14));
  5016     0554  3067               	movlw	(low (_speed| 0))& (0+255)
  5017     0555  00F6               	movwf	clcd_print@str
  5018     0556  3000               	movlw	0
  5019     0557  00F7               	movwf	clcd_print@str+1
  5020     0558  30CE               	movlw	206
  5021     0559  00F8               	movwf	clcd_print@addr
  5022     055A  120A  158A  22F8  120A  118A  	fcall	_clcd_print
  5023     055F                     l185:
  5024     055F  0008               	return
  5025     0560                     __end_of_dashboard:
  5026                           
  5027                           	psect	text24
  5028     0560                     __ptext24:	
  5029 ;; *************** function _write_event *****************
  5030 ;; Defined at:
  5031 ;;		line 61 in file "/home/santhoshtk/Desktop/EMERTXE/MC/25014_Car_Black__Box.X/25014_Car_Black_Box.X/dashboard.c"
  5032 ;; Parameters:    Size  Location     Type
  5033 ;;		None
  5034 ;; Auto vars:     Size  Location     Type
  5035 ;;  i               2    7[COMMON] unsigned int 
  5036 ;; Return value:  Size  Location     Type
  5037 ;;                  1    wreg      void 
  5038 ;; Registers used:
  5039 ;;		wreg, fsr0l, fsr0h, status,2, status,0, pclath, btemp1, cstack
  5040 ;; Tracked objects:
  5041 ;;		On entry : 0/0
  5042 ;;		On exit  : 0/0
  5043 ;;		Unchanged: 0/0
  5044 ;; Data sizes:     COMMON   BANK0   BANK1   BANK3   BANK2
  5045 ;;      Params:         0       0       0       0       0
  5046 ;;      Locals:         2       0       0       0       0
  5047 ;;      Temps:          0       7       0       0       0
  5048 ;;      Totals:         2       7       0       0       0
  5049 ;;Total ram usage:        9 bytes
  5050 ;; Hardware stack levels used: 1
  5051 ;; Hardware stack levels required when called: 3
  5052 ;; This function calls:
  5053 ;;		___lwmod
  5054 ;;		_write_external_eeprom
  5055 ;; This function is called by:
  5056 ;;		_dashboard
  5057 ;; This function uses a non-reentrant model
  5058 ;;
  5059                           
  5060     0560                     _write_event:	
  5061                           ;psect for function _write_event
  5062                           
  5063     0560                     l3320:	
  5064                           ;incstack = 0
  5065                           ; Regs used in _write_event: [wreg-fsr0h+status,2+status,0+pclath+btemp1+cstack]
  5066                           
  5067                           
  5068                           ;/home/santhoshtk/Desktop/EMERTXE/MC/25014_Car_Black__Box.X/25014_Car_Black_Box.X/dashbo
      +                          ard.c: 63:  static unsigned int address = 0x00;;/home/santhoshtk/Desktop/EMERTXE/MC/2501
      +                          4_Car_Black__Box.X/25014_Car_Black_Box.X/dashboard.c: 69:  if(address == 100) address = 
      +                          0x00;
  5069     0560  3064               	movlw	100
  5070     0561  1283               	bcf	3,5	;RP0=0, select bank0
  5071     0562  1303               	bcf	3,6	;RP1=0, select bank0
  5072     0563  0653               	xorwf	write_event@address,w
  5073     0564  0454               	iorwf	write_event@address+1,w
  5074     0565  1D03               	btfss	3,2
  5075     0566  2D68               	goto	u3751
  5076     0567  2D69               	goto	u3750
  5077     0568                     u3751:
  5078     0568  2D6B               	goto	l162
  5079     0569                     u3750:
  5080     0569                     l3322:
  5081     0569  01D3               	clrf	write_event@address
  5082     056A  01D4               	clrf	write_event@address+1
  5083     056B                     l162:
  5084                           
  5085                           ;/home/santhoshtk/Desktop/EMERTXE/MC/25014_Car_Black__Box.X/25014_Car_Black_Box.X/dashbo
      +                          ard.c: 72:  for(unsigned int i = 0; i < 8; i++){
  5086     056B  01F7               	clrf	write_event@i
  5087     056C  01F8               	clrf	write_event@i+1
  5088     056D                     l3328:
  5089                           
  5090                           ;/home/santhoshtk/Desktop/EMERTXE/MC/25014_Car_Black__Box.X/25014_Car_Black_Box.X/dashbo
      +                          ard.c: 73:   if(i == 2 || i == 5) continue;
  5091     056D  3002               	movlw	2
  5092     056E  0677               	xorwf	write_event@i,w
  5093     056F  0478               	iorwf	write_event@i+1,w
  5094     0570  1903               	btfsc	3,2
  5095     0571  2D73               	goto	u3761
  5096     0572  2D74               	goto	u3760
  5097     0573                     u3761:
  5098     0573  2D92               	goto	l3338
  5099     0574                     u3760:
  5100     0574                     l3330:
  5101     0574  3005               	movlw	5
  5102     0575  0677               	xorwf	write_event@i,w
  5103     0576  0478               	iorwf	write_event@i+1,w
  5104     0577  1D03               	btfss	3,2
  5105     0578  2D7A               	goto	u3771
  5106     0579  2D7B               	goto	u3770
  5107     057A                     u3771:
  5108     057A  2D7C               	goto	l3334
  5109     057B                     u3770:
  5110     057B  2D92               	goto	l3338
  5111     057C                     l3334:
  5112     057C  0877               	movf	write_event@i,w
  5113     057D  3E5E               	addlw	(low (_time| 0))& (0+255)
  5114     057E  0084               	movwf	4
  5115     057F  1383               	bcf	3,7	;select IRP bank0
  5116     0580  0800               	movf	0,w
  5117     0581  00F3               	movwf	write_external_eeprom@data
  5118     0582  1283               	bcf	3,5	;RP0=0, select bank0
  5119     0583  1303               	bcf	3,6	;RP1=0, select bank0
  5120     0584  0853               	movf	write_event@address,w
  5121     0585  120A  158A  2327  120A  118A  	fcall	_write_external_eeprom
  5122     058A                     l3336:
  5123     058A  3001               	movlw	1
  5124     058B  1283               	bcf	3,5	;RP0=0, select bank0
  5125     058C  1303               	bcf	3,6	;RP1=0, select bank0
  5126     058D  07D3               	addwf	write_event@address,f
  5127     058E  1803               	skipnc
  5128     058F  0AD4               	incf	write_event@address+1,f
  5129     0590  3000               	movlw	0
  5130     0591  07D4               	addwf	write_event@address+1,f
  5131     0592                     l3338:
  5132     0592  3001               	movlw	1
  5133     0593  07F7               	addwf	write_event@i,f
  5134     0594  1803               	skipnc
  5135     0595  0AF8               	incf	write_event@i+1,f
  5136     0596  3000               	movlw	0
  5137     0597  07F8               	addwf	write_event@i+1,f
  5138     0598                     l3340:
  5139     0598  3000               	movlw	0
  5140     0599  0278               	subwf	write_event@i+1,w
  5141     059A  3008               	movlw	8
  5142     059B  1903               	skipnz
  5143     059C  0277               	subwf	write_event@i,w
  5144     059D  1C03               	skipc
  5145     059E  2DA0               	goto	u3781
  5146     059F  2DA1               	goto	u3780
  5147     05A0                     u3781:
  5148     05A0  2D6D               	goto	l3328
  5149     05A1                     u3780:
  5150     05A1                     l3342:
  5151                           
  5152                           ;/home/santhoshtk/Desktop/EMERTXE/MC/25014_Car_Black__Box.X/25014_Car_Black_Box.X/dashbo
      +                          ard.c: 78:  write_external_eeprom(address++, event[pos][0]);
  5153     05A1  087A               	movf	_pos,w
  5154     05A2  1283               	bcf	3,5	;RP0=0, select bank0
  5155     05A3  1303               	bcf	3,6	;RP1=0, select bank0
  5156     05A4  00A0               	movwf	??_write_event
  5157     05A5  0720               	addwf	??_write_event,w
  5158     05A6  3EA0               	addlw	(low (_event| 0))& (0+255)
  5159     05A7  0084               	movwf	4
  5160     05A8  1383               	bcf	3,7	;select IRP bank1
  5161     05A9  0800               	movf	0,w
  5162     05AA  00A1               	movwf	??_write_event+1
  5163     05AB  0A84               	incf	4,f
  5164     05AC  0800               	movf	0,w
  5165     05AD  00A2               	movwf	??_write_event+2
  5166     05AE  0822               	movf	??_write_event+2,w
  5167     05AF  00FF               	movwf	btemp1
  5168     05B0  0821               	movf	??_write_event+1,w
  5169     05B1  0084               	movwf	4
  5170     05B2  120A  158A  2000  120A  118A  	fcall	stringtab
  5171     05B7  00F3               	movwf	write_external_eeprom@data
  5172     05B8  0853               	movf	write_event@address,w
  5173     05B9  120A  158A  2327  120A  118A  	fcall	_write_external_eeprom
  5174     05BE                     l3344:
  5175     05BE  3001               	movlw	1
  5176     05BF  1283               	bcf	3,5	;RP0=0, select bank0
  5177     05C0  1303               	bcf	3,6	;RP1=0, select bank0
  5178     05C1  07D3               	addwf	write_event@address,f
  5179     05C2  1803               	skipnc
  5180     05C3  0AD4               	incf	write_event@address+1,f
  5181     05C4  3000               	movlw	0
  5182     05C5  07D4               	addwf	write_event@address+1,f
  5183     05C6                     l3346:
  5184                           
  5185                           ;/home/santhoshtk/Desktop/EMERTXE/MC/25014_Car_Black__Box.X/25014_Car_Black_Box.X/dashbo
      +                          ard.c: 79:  write_external_eeprom(address++, event[pos][1]);
  5186     05C6  3001               	movlw	1
  5187     05C7  00A0               	movwf	??_write_event
  5188     05C8  087A               	movf	_pos,w
  5189     05C9  00A1               	movwf	??_write_event+1
  5190     05CA  0721               	addwf	??_write_event+1,w
  5191     05CB  3EA0               	addlw	(low (_event| 0))& (0+255)
  5192     05CC  0084               	movwf	4
  5193     05CD  1383               	bcf	3,7	;select IRP bank1
  5194     05CE  0800               	movf	0,w
  5195     05CF  00A2               	movwf	??_write_event+2
  5196     05D0  0A84               	incf	4,f
  5197     05D1  0800               	movf	0,w
  5198     05D2  00A3               	movwf	??_write_event+3
  5199     05D3  0820               	movf	??_write_event,w
  5200     05D4  0722               	addwf	??_write_event+2,w
  5201     05D5  00A5               	movwf	??_write_event+5
  5202     05D6  0823               	movf	??_write_event+3,w
  5203     05D7  00A4               	movwf	??_write_event+4
  5204     05D8  1803               	skipnc
  5205     05D9  0AA4               	incf	??_write_event+4,f
  5206     05DA  1BA0               	btfsc	??_write_event,7
  5207     05DB  03A4               	decf	??_write_event+4,f
  5208     05DC  0824               	movf	??_write_event+4,w
  5209     05DD  00A6               	movwf	??_write_event+6
  5210     05DE  0826               	movf	??_write_event+6,w
  5211     05DF  00FF               	movwf	btemp1
  5212     05E0  0825               	movf	??_write_event+5,w
  5213     05E1  0084               	movwf	4
  5214     05E2  120A  158A  2000  120A  118A  	fcall	stringtab
  5215     05E7  00F3               	movwf	write_external_eeprom@data
  5216     05E8  0853               	movf	write_event@address,w
  5217     05E9  120A  158A  2327  120A  118A  	fcall	_write_external_eeprom
  5218     05EE  3001               	movlw	1
  5219     05EF  1283               	bcf	3,5	;RP0=0, select bank0
  5220     05F0  1303               	bcf	3,6	;RP1=0, select bank0
  5221     05F1  07D3               	addwf	write_event@address,f
  5222     05F2  1803               	skipnc
  5223     05F3  0AD4               	incf	write_event@address+1,f
  5224     05F4  3000               	movlw	0
  5225     05F5  07D4               	addwf	write_event@address+1,f
  5226     05F6                     l3348:
  5227                           
  5228                           ;/home/santhoshtk/Desktop/EMERTXE/MC/25014_Car_Black__Box.X/25014_Car_Black_Box.X/dashbo
      +                          ard.c: 82:  write_external_eeprom(address++, speed[0]);
  5229     05F6  0867               	movf	_speed,w
  5230     05F7  00F3               	movwf	write_external_eeprom@data
  5231     05F8  0853               	movf	write_event@address,w
  5232     05F9  120A  158A  2327  120A  118A  	fcall	_write_external_eeprom
  5233     05FE                     l3350:
  5234     05FE  3001               	movlw	1
  5235     05FF  1283               	bcf	3,5	;RP0=0, select bank0
  5236     0600  1303               	bcf	3,6	;RP1=0, select bank0
  5237     0601  07D3               	addwf	write_event@address,f
  5238     0602  1803               	skipnc
  5239     0603  0AD4               	incf	write_event@address+1,f
  5240     0604  3000               	movlw	0
  5241     0605  07D4               	addwf	write_event@address+1,f
  5242                           
  5243                           ;/home/santhoshtk/Desktop/EMERTXE/MC/25014_Car_Black__Box.X/25014_Car_Black_Box.X/dashbo
      +                          ard.c: 83:  write_external_eeprom(address++, speed[1]);
  5244     0606  0868               	movf	_speed+1,w
  5245     0607  00F3               	movwf	write_external_eeprom@data
  5246     0608  0853               	movf	write_event@address,w
  5247     0609  120A  158A  2327  120A  118A  	fcall	_write_external_eeprom
  5248     060E                     l3352:
  5249     060E  3001               	movlw	1
  5250     060F  1283               	bcf	3,5	;RP0=0, select bank0
  5251     0610  1303               	bcf	3,6	;RP1=0, select bank0
  5252     0611  07D3               	addwf	write_event@address,f
  5253     0612  1803               	skipnc
  5254     0613  0AD4               	incf	write_event@address+1,f
  5255     0614  3000               	movlw	0
  5256     0615  07D4               	addwf	write_event@address+1,f
  5257     0616                     l3354:
  5258                           
  5259                           ;/home/santhoshtk/Desktop/EMERTXE/MC/25014_Car_Black__Box.X/25014_Car_Black_Box.X/dashbo
      +                          ard.c: 85:  event_count = (event_count + 1) % 10;
  5260     0616  300A               	movlw	10
  5261     0617  00F2               	movwf	___lwmod@divisor
  5262     0618  3000               	movlw	0
  5263     0619  00F3               	movwf	___lwmod@divisor+1
  5264     061A  0855               	movf	_event_count,w
  5265     061B  3E01               	addlw	1
  5266     061C  00F4               	movwf	___lwmod@dividend
  5267     061D  0856               	movf	_event_count+1,w
  5268     061E  1803               	skipnc
  5269     061F  3E01               	addlw	1
  5270     0620  3E00               	addlw	0
  5271     0621  00F5               	movwf	___lwmod@dividend+1
  5272     0622  120A  118A  22C0  120A  118A  	fcall	___lwmod
  5273     0627  0873               	movf	?___lwmod+1,w
  5274     0628  1283               	bcf	3,5	;RP0=0, select bank0
  5275     0629  1303               	bcf	3,6	;RP1=0, select bank0
  5276     062A  00D6               	movwf	_event_count+1
  5277     062B  0872               	movf	?___lwmod,w
  5278     062C  00D5               	movwf	_event_count
  5279     062D                     l170:
  5280     062D  0008               	return
  5281     062E                     __end_of_write_event:
  5282                           
  5283                           	psect	text25
  5284     0B27                     __ptext25:	
  5285 ;; *************** function _write_external_eeprom *****************
  5286 ;; Defined at:
  5287 ;;		line 6 in file "/home/santhoshtk/Desktop/EMERTXE/MC/25014_Car_Black__Box.X/25014_Car_Black_Box.X/external_eeprom.c"
  5288 ;; Parameters:    Size  Location     Type
  5289 ;;  address         1    wreg     unsigned char 
  5290 ;;  data            1    3[COMMON] unsigned char 
  5291 ;; Auto vars:     Size  Location     Type
  5292 ;;  address         1    4[COMMON] unsigned char 
  5293 ;;  wait            2    5[COMMON] unsigned int 
  5294 ;; Return value:  Size  Location     Type
  5295 ;;                  1    wreg      void 
  5296 ;; Registers used:
  5297 ;;		wreg, status,2, status,0, pclath, cstack
  5298 ;; Tracked objects:
  5299 ;;		On entry : 0/0
  5300 ;;		On exit  : 0/0
  5301 ;;		Unchanged: 0/0
  5302 ;; Data sizes:     COMMON   BANK0   BANK1   BANK3   BANK2
  5303 ;;      Params:         1       0       0       0       0
  5304 ;;      Locals:         3       0       0       0       0
  5305 ;;      Temps:          0       0       0       0       0
  5306 ;;      Totals:         4       0       0       0       0
  5307 ;;Total ram usage:        4 bytes
  5308 ;; Hardware stack levels used: 1
  5309 ;; Hardware stack levels required when called: 2
  5310 ;; This function calls:
  5311 ;;		_i2c_start
  5312 ;;		_i2c_stop
  5313 ;;		_i2c_write
  5314 ;; This function is called by:
  5315 ;;		_write_event
  5316 ;; This function uses a non-reentrant model
  5317 ;;
  5318                           
  5319     0B27                     _write_external_eeprom:	
  5320                           ;psect for function _write_external_eeprom
  5321                           
  5322                           
  5323                           ;incstack = 0
  5324                           ; Regs used in _write_external_eeprom: [wreg+status,2+status,0+pclath+cstack]
  5325                           ;write_external_eeprom@address stored from wreg
  5326     0B27  00F4               	movwf	write_external_eeprom@address
  5327     0B28                     l3154:
  5328                           
  5329                           ;/home/santhoshtk/Desktop/EMERTXE/MC/25014_Car_Black__Box.X/25014_Car_Black_Box.X/extern
      +                          al_eeprom.c: 6: void write_external_eeprom(unsigned char address, unsigned char data);/h
      +                          ome/santhoshtk/Desktop/EMERTXE/MC/25014_Car_Black__Box.X/25014_Car_Black_Box.X/external_
      +                          eeprom.c: 7: {;/home/santhoshtk/Desktop/EMERTXE/MC/25014_Car_Black__Box.X/25014_Car_Blac
      +                          k_Box.X/external_eeprom.c: 8:     i2c_start();
  5330     0B28  120A  158A  2098  120A  158A  	fcall	_i2c_start
  5331                           
  5332                           ;/home/santhoshtk/Desktop/EMERTXE/MC/25014_Car_Black__Box.X/25014_Car_Black_Box.X/extern
      +                          al_eeprom.c: 9:     i2c_write(0xA0);
  5333     0B2D  30A0               	movlw	160
  5334     0B2E  120A  158A  20BF  120A  158A  	fcall	_i2c_write
  5335                           
  5336                           ;/home/santhoshtk/Desktop/EMERTXE/MC/25014_Car_Black__Box.X/25014_Car_Black_Box.X/extern
      +                          al_eeprom.c: 10:     i2c_write(address);
  5337     0B33  0874               	movf	write_external_eeprom@address,w
  5338     0B34  120A  158A  20BF  120A  158A  	fcall	_i2c_write
  5339                           
  5340                           ;/home/santhoshtk/Desktop/EMERTXE/MC/25014_Car_Black__Box.X/25014_Car_Black_Box.X/extern
      +                          al_eeprom.c: 11:     i2c_write(data);
  5341     0B39  0873               	movf	write_external_eeprom@data,w
  5342     0B3A  120A  158A  20BF  120A  158A  	fcall	_i2c_write
  5343                           
  5344                           ;/home/santhoshtk/Desktop/EMERTXE/MC/25014_Car_Black__Box.X/25014_Car_Black_Box.X/extern
      +                          al_eeprom.c: 12:     i2c_stop();
  5345     0B3F  120A  158A  20A1  120A  158A  	fcall	_i2c_stop
  5346     0B44                     l3156:
  5347                           
  5348                           ;/home/santhoshtk/Desktop/EMERTXE/MC/25014_Car_Black__Box.X/25014_Car_Black_Box.X/extern
      +                          al_eeprom.c: 13:     for (unsigned int wait = 3000;wait--;);
  5349     0B44  30B8               	movlw	184
  5350     0B45  00F5               	movwf	write_external_eeprom@wait
  5351     0B46  300B               	movlw	11
  5352     0B47  00F6               	movwf	write_external_eeprom@wait+1
  5353     0B48                     l3158:
  5354     0B48  3001               	movlw	1
  5355     0B49  02F5               	subwf	write_external_eeprom@wait,f
  5356     0B4A  3000               	movlw	0
  5357     0B4B  1C03               	skipc
  5358     0B4C  03F6               	decf	write_external_eeprom@wait+1,f
  5359     0B4D  02F6               	subwf	write_external_eeprom@wait+1,f
  5360     0B4E  0A75               	incf	write_external_eeprom@wait,w
  5361     0B4F  1D03               	skipz
  5362     0B50  2B55               	goto	u3431
  5363     0B51  0A76               	incf	write_external_eeprom@wait+1,w
  5364     0B52  1D03               	btfss	3,2
  5365     0B53  2B55               	goto	u3431
  5366     0B54  2B56               	goto	u3430
  5367     0B55                     u3431:
  5368     0B55  2B48               	goto	l3158
  5369     0B56                     u3430:
  5370     0B56                     l347:
  5371     0B56  0008               	return
  5372     0B57                     __end_of_write_external_eeprom:
  5373                           
  5374                           	psect	text26
  5375     0963                     __ptext26:	
  5376 ;; *************** function _read_adc *****************
  5377 ;; Defined at:
  5378 ;;		line 13 in file "/home/santhoshtk/Desktop/EMERTXE/MC/25014_Car_Black__Box.X/25014_Car_Black_Box.X/adc.c"
  5379 ;; Parameters:    Size  Location     Type
  5380 ;;  channel         1    wreg     unsigned char 
  5381 ;; Auto vars:     Size  Location     Type
  5382 ;;  channel         1    5[COMMON] unsigned char 
  5383 ;;  adc_reg_val     2    6[COMMON] unsigned short 
  5384 ;; Return value:  Size  Location     Type
  5385 ;;                  2    2[COMMON] unsigned short 
  5386 ;; Registers used:
  5387 ;;		wreg, status,2, status,0
  5388 ;; Tracked objects:
  5389 ;;		On entry : 0/0
  5390 ;;		On exit  : 0/0
  5391 ;;		Unchanged: 0/0
  5392 ;; Data sizes:     COMMON   BANK0   BANK1   BANK3   BANK2
  5393 ;;      Params:         2       0       0       0       0
  5394 ;;      Locals:         3       0       0       0       0
  5395 ;;      Temps:          1       0       0       0       0
  5396 ;;      Totals:         6       0       0       0       0
  5397 ;;Total ram usage:        6 bytes
  5398 ;; Hardware stack levels used: 1
  5399 ;; Hardware stack levels required when called: 1
  5400 ;; This function calls:
  5401 ;;		Nothing
  5402 ;; This function is called by:
  5403 ;;		_dashboard
  5404 ;; This function uses a non-reentrant model
  5405 ;;
  5406                           
  5407     0963                     _read_adc:	
  5408                           ;psect for function _read_adc
  5409                           
  5410                           
  5411                           ;incstack = 0
  5412                           ; Regs used in _read_adc: [wreg+status,2+status,0]
  5413                           ;read_adc@channel stored from wreg
  5414     0963  00F5               	movwf	read_adc@channel
  5415     0964                     l3288:
  5416                           
  5417                           ;/home/santhoshtk/Desktop/EMERTXE/MC/25014_Car_Black__Box.X/25014_Car_Black_Box.X/adc.c:
      +                           13: unsigned short read_adc(unsigned char channel);/home/santhoshtk/Desktop/EMERTXE/MC/
      +                          25014_Car_Black__Box.X/25014_Car_Black_Box.X/adc.c: 14: {;/home/santhoshtk/Desktop/EMERT
      +                          XE/MC/25014_Car_Black__Box.X/25014_Car_Black_Box.X/adc.c: 15:     unsigned short adc_reg
      +                          _val;;/home/santhoshtk/Desktop/EMERTXE/MC/25014_Car_Black__Box.X/25014_Car_Black_Box.X/a
      +                          dc.c: 18:     ADCON0 = (ADCON0 & 0xC7) | (channel << 3);
  5418     0964  0875               	movf	read_adc@channel,w
  5419     0965  00F4               	movwf	??_read_adc
  5420     0966  3003               	movlw	3
  5421     0967                     u3725:
  5422     0967  1003               	clrc
  5423     0968  0DF4               	rlf	??_read_adc,f
  5424     0969  3EFF               	addlw	-1
  5425     096A  1D03               	skipz
  5426     096B  2967               	goto	u3725
  5427     096C  1283               	bcf	3,5	;RP0=0, select bank0
  5428     096D  1303               	bcf	3,6	;RP1=0, select bank0
  5429     096E  081F               	movf	31,w	;volatile
  5430     096F  39C7               	andlw	199
  5431     0970  0474               	iorwf	??_read_adc,w
  5432     0971  009F               	movwf	31	;volatile
  5433     0972                     l3290:
  5434                           
  5435                           ;/home/santhoshtk/Desktop/EMERTXE/MC/25014_Car_Black__Box.X/25014_Car_Black_Box.X/adc.c:
      +                           21:     GO = 1;
  5436     0972  151F               	bsf	31,2	;volatile
  5437     0973                     l20:	
  5438                           ;/home/santhoshtk/Desktop/EMERTXE/MC/25014_Car_Black__Box.X/25014_Car_Black_Box.X/adc.c:
      +                           23:     while (nDONE);
  5439                           
  5440     0973  191F               	btfsc	31,2	;volatile
  5441     0974  2976               	goto	u3731
  5442     0975  2977               	goto	u3730
  5443     0976                     u3731:
  5444     0976  2973               	goto	l20
  5445     0977                     u3730:
  5446     0977                     l3292:
  5447                           
  5448                           ;/home/santhoshtk/Desktop/EMERTXE/MC/25014_Car_Black__Box.X/25014_Car_Black_Box.X/adc.c:
      +                           25:     adc_reg_val = (ADRESH << 8) | ADRESL;
  5449     0977  081E               	movf	30,w	;volatile
  5450     0978  00F7               	movwf	read_adc@adc_reg_val+1
  5451     0979  1683               	bsf	3,5	;RP0=1, select bank1
  5452     097A  1303               	bcf	3,6	;RP1=0, select bank1
  5453     097B  081E               	movf	30,w	;volatile
  5454     097C  00F6               	movwf	read_adc@adc_reg_val
  5455                           
  5456                           ;/home/santhoshtk/Desktop/EMERTXE/MC/25014_Car_Black__Box.X/25014_Car_Black_Box.X/adc.c:
      +                           27:     return adc_reg_val;
  5457     097D  0877               	movf	read_adc@adc_reg_val+1,w
  5458     097E  00F3               	movwf	?_read_adc+1
  5459     097F  0876               	movf	read_adc@adc_reg_val,w
  5460     0980  00F2               	movwf	?_read_adc
  5461     0981                     l23:
  5462     0981  0008               	return
  5463     0982                     __end_of_read_adc:
  5464                           
  5465                           	psect	text27
  5466     09A1                     __ptext27:	
  5467 ;; *************** function _get_time *****************
  5468 ;; Defined at:
  5469 ;;		line 41 in file "/home/santhoshtk/Desktop/EMERTXE/MC/25014_Car_Black__Box.X/25014_Car_Black_Box.X/ds1307.c"
  5470 ;; Parameters:    Size  Location     Type
  5471 ;;  clock_reg       1    6[COMMON] PTR unsigned char 
  5472 ;;		 -> clock_reg(3), 
  5473 ;; Auto vars:     Size  Location     Type
  5474 ;;		None
  5475 ;; Return value:  Size  Location     Type
  5476 ;;                  1    wreg      void 
  5477 ;; Registers used:
  5478 ;;		wreg, fsr0l, fsr0h, status,2, status,0, pclath, cstack
  5479 ;; Tracked objects:
  5480 ;;		On entry : 0/0
  5481 ;;		On exit  : 0/0
  5482 ;;		Unchanged: 0/0
  5483 ;; Data sizes:     COMMON   BANK0   BANK1   BANK3   BANK2
  5484 ;;      Params:         1       0       0       0       0
  5485 ;;      Locals:         0       0       0       0       0
  5486 ;;      Temps:          0       0       0       0       0
  5487 ;;      Totals:         1       0       0       0       0
  5488 ;;Total ram usage:        1 bytes
  5489 ;; Hardware stack levels used: 1
  5490 ;; Hardware stack levels required when called: 5
  5491 ;; This function calls:
  5492 ;;		_read_ds1307
  5493 ;; This function is called by:
  5494 ;;		_dashboard
  5495 ;; This function uses a non-reentrant model
  5496 ;;
  5497                           
  5498     09A1                     _get_time:	
  5499                           ;psect for function _get_time
  5500                           
  5501     09A1                     l3356:	
  5502                           ;incstack = 0
  5503                           ; Regs used in _get_time: [wreg-fsr0h+status,2+status,0+pclath+cstack]
  5504                           
  5505                           
  5506                           ;/home/santhoshtk/Desktop/EMERTXE/MC/25014_Car_Black__Box.X/25014_Car_Black_Box.X/ds1307
      +                          .c: 41: void get_time(unsigned char *clock_reg);/home/santhoshtk/Desktop/EMERTXE/MC/2501
      +                          4_Car_Black__Box.X/25014_Car_Black_Box.X/ds1307.c: 42: {;/home/santhoshtk/Desktop/EMERTX
      +                          E/MC/25014_Car_Black__Box.X/25014_Car_Black_Box.X/ds1307.c: 43:     clock_reg[0] = read_
      +                          ds1307(0x02);
  5507     09A1  0876               	movf	get_time@clock_reg,w
  5508     09A2  0084               	movwf	4
  5509     09A3  3002               	movlw	2
  5510     09A4  120A  158A  22A2  120A  158A  	fcall	_read_ds1307
  5511     09A9  1383               	bcf	3,7	;select IRP bank0
  5512     09AA  0080               	movwf	0
  5513                           
  5514                           ;/home/santhoshtk/Desktop/EMERTXE/MC/25014_Car_Black__Box.X/25014_Car_Black_Box.X/ds1307
      +                          .c: 44:     clock_reg[1] = read_ds1307(0x01);
  5515     09AB  0A76               	incf	get_time@clock_reg,w
  5516     09AC  0084               	movwf	4
  5517     09AD  3001               	movlw	1
  5518     09AE  120A  158A  22A2  120A  158A  	fcall	_read_ds1307
  5519     09B3  1383               	bcf	3,7	;select IRP bank0
  5520     09B4  0080               	movwf	0
  5521                           
  5522                           ;/home/santhoshtk/Desktop/EMERTXE/MC/25014_Car_Black__Box.X/25014_Car_Black_Box.X/ds1307
      +                          .c: 45:     clock_reg[2] = read_ds1307(0x00);
  5523     09B5  0876               	movf	get_time@clock_reg,w
  5524     09B6  3E02               	addlw	2
  5525     09B7  0084               	movwf	4
  5526     09B8  3000               	movlw	0
  5527     09B9  120A  158A  22A2  120A  158A  	fcall	_read_ds1307
  5528     09BE  1383               	bcf	3,7	;select IRP bank0
  5529     09BF  0080               	movwf	0
  5530     09C0                     l328:
  5531     09C0  0008               	return
  5532     09C1                     __end_of_get_time:
  5533                           
  5534                           	psect	text28
  5535     0AA2                     __ptext28:	
  5536 ;; *************** function _read_ds1307 *****************
  5537 ;; Defined at:
  5538 ;;		line 17 in file "/home/santhoshtk/Desktop/EMERTXE/MC/25014_Car_Black__Box.X/25014_Car_Black_Box.X/ds1307.c"
  5539 ;; Parameters:    Size  Location     Type
  5540 ;;  addr            1    wreg     unsigned char 
  5541 ;; Auto vars:     Size  Location     Type
  5542 ;;  addr            1    4[COMMON] unsigned char 
  5543 ;;  data            1    5[COMMON] unsigned char 
  5544 ;; Return value:  Size  Location     Type
  5545 ;;                  1    wreg      unsigned char 
  5546 ;; Registers used:
  5547 ;;		wreg, status,2, status,0, pclath, cstack
  5548 ;; Tracked objects:
  5549 ;;		On entry : 0/0
  5550 ;;		On exit  : 0/0
  5551 ;;		Unchanged: 0/0
  5552 ;; Data sizes:     COMMON   BANK0   BANK1   BANK3   BANK2
  5553 ;;      Params:         0       0       0       0       0
  5554 ;;      Locals:         2       0       0       0       0
  5555 ;;      Temps:          0       0       0       0       0
  5556 ;;      Totals:         2       0       0       0       0
  5557 ;;Total ram usage:        2 bytes
  5558 ;; Hardware stack levels used: 1
  5559 ;; Hardware stack levels required when called: 1
  5560 ;; This function calls:
  5561 ;;		_i2c_read
  5562 ;;		_i2c_rep_start
  5563 ;;		_i2c_start
  5564 ;;		_i2c_stop
  5565 ;;		_i2c_write
  5566 ;; This function is called by:
  5567 ;;		_init_ds1307
  5568 ;;		_get_time
  5569 ;; This function uses a non-reentrant model
  5570 ;;
  5571                           
  5572     0AA2                     _read_ds1307:	
  5573                           ;psect for function _read_ds1307
  5574                           
  5575                           
  5576                           ;incstack = 0
  5577                           ; Regs used in _read_ds1307: [wreg+status,2+status,0+pclath+cstack]
  5578                           ;read_ds1307@addr stored from wreg
  5579     0AA2  00F4               	movwf	read_ds1307@addr
  5580     0AA3                     l3206:
  5581                           
  5582                           ;/home/santhoshtk/Desktop/EMERTXE/MC/25014_Car_Black__Box.X/25014_Car_Black_Box.X/ds1307
      +                          .c: 17: unsigned char read_ds1307(unsigned char addr);/home/santhoshtk/Desktop/EMERTXE/M
      +                          C/25014_Car_Black__Box.X/25014_Car_Black_Box.X/ds1307.c: 18: {;/home/santhoshtk/Desktop/
      +                          EMERTXE/MC/25014_Car_Black__Box.X/25014_Car_Black_Box.X/ds1307.c: 19:     unsigned char 
      +                          data;;/home/santhoshtk/Desktop/EMERTXE/MC/25014_Car_Black__Box.X/25014_Car_Black_Box.X/d
      +                          s1307.c: 21:     i2c_start();
  5583     0AA3  120A  158A  2098  120A  158A  	fcall	_i2c_start
  5584                           
  5585                           ;/home/santhoshtk/Desktop/EMERTXE/MC/25014_Car_Black__Box.X/25014_Car_Black_Box.X/ds1307
      +                          .c: 22:     i2c_write(0b11010000);
  5586     0AA8  30D0               	movlw	208
  5587     0AA9  120A  158A  20BF  120A  158A  	fcall	_i2c_write
  5588                           
  5589                           ;/home/santhoshtk/Desktop/EMERTXE/MC/25014_Car_Black__Box.X/25014_Car_Black_Box.X/ds1307
      +                          .c: 23:     i2c_write(addr);
  5590     0AAE  0874               	movf	read_ds1307@addr,w
  5591     0AAF  120A  158A  20BF  120A  158A  	fcall	_i2c_write
  5592                           
  5593                           ;/home/santhoshtk/Desktop/EMERTXE/MC/25014_Car_Black__Box.X/25014_Car_Black_Box.X/ds1307
      +                          .c: 24:     i2c_rep_start();
  5594     0AB4  120A  158A  20B4  120A  158A  	fcall	_i2c_rep_start
  5595                           
  5596                           ;/home/santhoshtk/Desktop/EMERTXE/MC/25014_Car_Black__Box.X/25014_Car_Black_Box.X/ds1307
      +                          .c: 25:     i2c_write(0b11010001);
  5597     0AB9  30D1               	movlw	209
  5598     0ABA  120A  158A  20BF  120A  158A  	fcall	_i2c_write
  5599                           
  5600                           ;/home/santhoshtk/Desktop/EMERTXE/MC/25014_Car_Black__Box.X/25014_Car_Black_Box.X/ds1307
      +                          .c: 26:     data = i2c_read(0);
  5601     0ABF  3000               	movlw	0
  5602     0AC0  120A  158A  21C1  120A  158A  	fcall	_i2c_read
  5603     0AC5  00F5               	movwf	read_ds1307@data
  5604                           
  5605                           ;/home/santhoshtk/Desktop/EMERTXE/MC/25014_Car_Black__Box.X/25014_Car_Black_Box.X/ds1307
      +                          .c: 27:     i2c_stop();
  5606     0AC6  120A  158A  20A1  120A  158A  	fcall	_i2c_stop
  5607     0ACB                     l3208:
  5608                           
  5609                           ;/home/santhoshtk/Desktop/EMERTXE/MC/25014_Car_Black__Box.X/25014_Car_Black_Box.X/ds1307
      +                          .c: 29:     return data;
  5610     0ACB  0875               	movf	read_ds1307@data,w
  5611     0ACC                     l322:
  5612     0ACC  0008               	return
  5613     0ACD                     __end_of_read_ds1307:
  5614                           
  5615                           	psect	text29
  5616     08BF                     __ptext29:	
  5617 ;; *************** function _i2c_write *****************
  5618 ;; Defined at:
  5619 ;;		line 65 in file "/home/santhoshtk/Desktop/EMERTXE/MC/25014_Car_Black__Box.X/25014_Car_Black_Box.X/i2c.c"
  5620 ;; Parameters:    Size  Location     Type
  5621 ;;  data            1    wreg     unsigned char 
  5622 ;; Auto vars:     Size  Location     Type
  5623 ;;  data            1    2[COMMON] unsigned char 
  5624 ;; Return value:  Size  Location     Type
  5625 ;;                  2  306[None  ] int 
  5626 ;; Registers used:
  5627 ;;		wreg, status,2, status,0, pclath, cstack
  5628 ;; Tracked objects:
  5629 ;;		On entry : 0/0
  5630 ;;		On exit  : 0/0
  5631 ;;		Unchanged: 0/0
  5632 ;; Data sizes:     COMMON   BANK0   BANK1   BANK3   BANK2
  5633 ;;      Params:         0       0       0       0       0
  5634 ;;      Locals:         1       0       0       0       0
  5635 ;;      Temps:          0       0       0       0       0
  5636 ;;      Totals:         1       0       0       0       0
  5637 ;;Total ram usage:        1 bytes
  5638 ;; Hardware stack levels used: 1
  5639 ;; Hardware stack levels required when called: 1
  5640 ;; This function calls:
  5641 ;;		_i2c_wait_for_idle
  5642 ;; This function is called by:
  5643 ;;		_read_ds1307
  5644 ;;		_write_ds1307
  5645 ;;		_write_external_eeprom
  5646 ;;		_read_external_eeprom
  5647 ;; This function uses a non-reentrant model
  5648 ;;
  5649                           
  5650     08BF                     _i2c_write:	
  5651                           ;psect for function _i2c_write
  5652                           
  5653                           
  5654                           ;incstack = 0
  5655                           ; Regs used in _i2c_write: [wreg+status,2+status,0+pclath+cstack]
  5656                           ;i2c_write@data stored from wreg
  5657     08BF  00F2               	movwf	i2c_write@data
  5658     08C0                     l3008:
  5659                           
  5660                           ;/home/santhoshtk/Desktop/EMERTXE/MC/25014_Car_Black__Box.X/25014_Car_Black_Box.X/i2c.c:
      +                           65: int i2c_write(unsigned char data);/home/santhoshtk/Desktop/EMERTXE/MC/25014_Car_Bla
      +                          ck__Box.X/25014_Car_Black_Box.X/i2c.c: 66: {;/home/santhoshtk/Desktop/EMERTXE/MC/25014_C
      +                          ar_Black__Box.X/25014_Car_Black_Box.X/i2c.c: 67:     i2c_wait_for_idle();
  5661     08C0  120A  158A  20E0  120A  158A  	fcall	_i2c_wait_for_idle
  5662     08C5                     l3010:
  5663                           
  5664                           ;/home/santhoshtk/Desktop/EMERTXE/MC/25014_Car_Black__Box.X/25014_Car_Black_Box.X/i2c.c:
      +                           68:     SSPBUF = data;
  5665     08C5  0872               	movf	i2c_write@data,w
  5666     08C6  1283               	bcf	3,5	;RP0=0, select bank0
  5667     08C7  1303               	bcf	3,6	;RP1=0, select bank0
  5668     08C8  0093               	movwf	19	;volatile
  5669     08C9                     l3012:
  5670     08C9                     l402:	
  5671                           ;/home/santhoshtk/Desktop/EMERTXE/MC/25014_Car_Black__Box.X/25014_Car_Black_Box.X/i2c.c:
      +                           70:     return !ACKSTAT;;	Return value of _i2c_write is never used
  5672                           
  5673     08C9  0008               	return
  5674     08CA                     __end_of_i2c_write:
  5675                           
  5676                           	psect	text30
  5677     08B4                     __ptext30:	
  5678 ;; *************** function _i2c_rep_start *****************
  5679 ;; Defined at:
  5680 ;;		line 28 in file "/home/santhoshtk/Desktop/EMERTXE/MC/25014_Car_Black__Box.X/25014_Car_Black_Box.X/i2c.c"
  5681 ;; Parameters:    Size  Location     Type
  5682 ;;		None
  5683 ;; Auto vars:     Size  Location     Type
  5684 ;;		None
  5685 ;; Return value:  Size  Location     Type
  5686 ;;                  1    wreg      void 
  5687 ;; Registers used:
  5688 ;;		wreg, status,2, status,0, pclath, cstack
  5689 ;; Tracked objects:
  5690 ;;		On entry : 0/0
  5691 ;;		On exit  : 0/0
  5692 ;;		Unchanged: 0/0
  5693 ;; Data sizes:     COMMON   BANK0   BANK1   BANK3   BANK2
  5694 ;;      Params:         0       0       0       0       0
  5695 ;;      Locals:         0       0       0       0       0
  5696 ;;      Temps:          0       0       0       0       0
  5697 ;;      Totals:         0       0       0       0       0
  5698 ;;Total ram usage:        0 bytes
  5699 ;; Hardware stack levels used: 1
  5700 ;; Hardware stack levels required when called: 1
  5701 ;; This function calls:
  5702 ;;		_i2c_start
  5703 ;;		_i2c_stop
  5704 ;; This function is called by:
  5705 ;;		_read_ds1307
  5706 ;;		_read_external_eeprom
  5707 ;; This function uses a non-reentrant model
  5708 ;;
  5709                           
  5710     08B4                     _i2c_rep_start:	
  5711                           ;psect for function _i2c_rep_start
  5712                           
  5713     08B4                     l3016:	
  5714                           ;incstack = 0
  5715                           ; Regs used in _i2c_rep_start: [wreg+status,2+status,0+pclath+cstack]
  5716                           
  5717                           
  5718                           ;/home/santhoshtk/Desktop/EMERTXE/MC/25014_Car_Black__Box.X/25014_Car_Black_Box.X/i2c.c:
      +                           30:     i2c_stop();
  5719     08B4  120A  158A  20A1  120A  158A  	fcall	_i2c_stop
  5720                           
  5721                           ;/home/santhoshtk/Desktop/EMERTXE/MC/25014_Car_Black__Box.X/25014_Car_Black_Box.X/i2c.c:
      +                           31:     i2c_start();
  5722     08B9  120A  158A  2098  120A  158A  	fcall	_i2c_start
  5723     08BE                     l391:
  5724     08BE  0008               	return
  5725     08BF                     __end_of_i2c_rep_start:
  5726                           
  5727                           	psect	text31
  5728     08A1                     __ptext31:	
  5729 ;; *************** function _i2c_stop *****************
  5730 ;; Defined at:
  5731 ;;		line 35 in file "/home/santhoshtk/Desktop/EMERTXE/MC/25014_Car_Black__Box.X/25014_Car_Black_Box.X/i2c.c"
  5732 ;; Parameters:    Size  Location     Type
  5733 ;;		None
  5734 ;; Auto vars:     Size  Location     Type
  5735 ;;		None
  5736 ;; Return value:  Size  Location     Type
  5737 ;;                  1    wreg      void 
  5738 ;; Registers used:
  5739 ;;		wreg, status,2, status,0, pclath, cstack
  5740 ;; Tracked objects:
  5741 ;;		On entry : 0/0
  5742 ;;		On exit  : 0/0
  5743 ;;		Unchanged: 0/0
  5744 ;; Data sizes:     COMMON   BANK0   BANK1   BANK3   BANK2
  5745 ;;      Params:         0       0       0       0       0
  5746 ;;      Locals:         0       0       0       0       0
  5747 ;;      Temps:          0       0       0       0       0
  5748 ;;      Totals:         0       0       0       0       0
  5749 ;;Total ram usage:        0 bytes
  5750 ;; Hardware stack levels used: 1
  5751 ;; Hardware stack levels required when called: 1
  5752 ;; This function calls:
  5753 ;;		_i2c_wait_for_idle
  5754 ;; This function is called by:
  5755 ;;		_read_ds1307
  5756 ;;		_write_ds1307
  5757 ;;		_write_external_eeprom
  5758 ;;		_read_external_eeprom
  5759 ;;		_i2c_rep_start
  5760 ;; This function uses a non-reentrant model
  5761 ;;
  5762                           
  5763     08A1                     _i2c_stop:	
  5764                           ;psect for function _i2c_stop
  5765                           
  5766     08A1                     l3004:	
  5767                           ;incstack = 0
  5768                           ; Regs used in _i2c_stop: [wreg+status,2+status,0+pclath+cstack]
  5769                           
  5770                           
  5771                           ;/home/santhoshtk/Desktop/EMERTXE/MC/25014_Car_Black__Box.X/25014_Car_Black_Box.X/i2c.c:
      +                           37:     i2c_wait_for_idle();
  5772     08A1  120A  158A  20E0  120A  158A  	fcall	_i2c_wait_for_idle
  5773     08A6                     l3006:
  5774                           
  5775                           ;/home/santhoshtk/Desktop/EMERTXE/MC/25014_Car_Black__Box.X/25014_Car_Black_Box.X/i2c.c:
      +                           38:     PEN = 1;
  5776     08A6  1683               	bsf	3,5	;RP0=1, select bank1
  5777     08A7  1303               	bcf	3,6	;RP1=0, select bank1
  5778     08A8  1511               	bsf	17,2	;volatile
  5779     08A9                     l394:
  5780     08A9  0008               	return
  5781     08AA                     __end_of_i2c_stop:
  5782                           
  5783                           	psect	text32
  5784     0898                     __ptext32:	
  5785 ;; *************** function _i2c_start *****************
  5786 ;; Defined at:
  5787 ;;		line 22 in file "/home/santhoshtk/Desktop/EMERTXE/MC/25014_Car_Black__Box.X/25014_Car_Black_Box.X/i2c.c"
  5788 ;; Parameters:    Size  Location     Type
  5789 ;;		None
  5790 ;; Auto vars:     Size  Location     Type
  5791 ;;		None
  5792 ;; Return value:  Size  Location     Type
  5793 ;;                  1    wreg      void 
  5794 ;; Registers used:
  5795 ;;		wreg, status,2, status,0, pclath, cstack
  5796 ;; Tracked objects:
  5797 ;;		On entry : 0/0
  5798 ;;		On exit  : 0/0
  5799 ;;		Unchanged: 0/0
  5800 ;; Data sizes:     COMMON   BANK0   BANK1   BANK3   BANK2
  5801 ;;      Params:         0       0       0       0       0
  5802 ;;      Locals:         0       0       0       0       0
  5803 ;;      Temps:          0       0       0       0       0
  5804 ;;      Totals:         0       0       0       0       0
  5805 ;;Total ram usage:        0 bytes
  5806 ;; Hardware stack levels used: 1
  5807 ;; Hardware stack levels required when called: 1
  5808 ;; This function calls:
  5809 ;;		_i2c_wait_for_idle
  5810 ;; This function is called by:
  5811 ;;		_read_ds1307
  5812 ;;		_write_ds1307
  5813 ;;		_write_external_eeprom
  5814 ;;		_read_external_eeprom
  5815 ;;		_i2c_rep_start
  5816 ;; This function uses a non-reentrant model
  5817 ;;
  5818                           
  5819     0898                     _i2c_start:	
  5820                           ;psect for function _i2c_start
  5821                           
  5822     0898                     l3000:	
  5823                           ;incstack = 0
  5824                           ; Regs used in _i2c_start: [wreg+status,2+status,0+pclath+cstack]
  5825                           
  5826                           
  5827                           ;/home/santhoshtk/Desktop/EMERTXE/MC/25014_Car_Black__Box.X/25014_Car_Black_Box.X/i2c.c:
      +                           24:     i2c_wait_for_idle();
  5828     0898  120A  158A  20E0  120A  158A  	fcall	_i2c_wait_for_idle
  5829     089D                     l3002:
  5830                           
  5831                           ;/home/santhoshtk/Desktop/EMERTXE/MC/25014_Car_Black__Box.X/25014_Car_Black_Box.X/i2c.c:
      +                           25:     SEN = 1;
  5832     089D  1683               	bsf	3,5	;RP0=1, select bank1
  5833     089E  1303               	bcf	3,6	;RP1=0, select bank1
  5834     089F  1411               	bsf	17,0	;volatile
  5835     08A0                     l388:
  5836     08A0  0008               	return
  5837     08A1                     __end_of_i2c_start:
  5838                           
  5839                           	psect	text33
  5840     09C1                     __ptext33:	
  5841 ;; *************** function _i2c_read *****************
  5842 ;; Defined at:
  5843 ;;		line 41 in file "/home/santhoshtk/Desktop/EMERTXE/MC/25014_Car_Black__Box.X/25014_Car_Black_Box.X/i2c.c"
  5844 ;; Parameters:    Size  Location     Type
  5845 ;;  ack             1    wreg     unsigned char 
  5846 ;; Auto vars:     Size  Location     Type
  5847 ;;  ack             1    2[COMMON] unsigned char 
  5848 ;;  data            1    3[COMMON] unsigned char 
  5849 ;; Return value:  Size  Location     Type
  5850 ;;                  1    wreg      unsigned char 
  5851 ;; Registers used:
  5852 ;;		wreg, status,2, status,0, pclath, cstack
  5853 ;; Tracked objects:
  5854 ;;		On entry : 0/0
  5855 ;;		On exit  : 0/0
  5856 ;;		Unchanged: 0/0
  5857 ;; Data sizes:     COMMON   BANK0   BANK1   BANK3   BANK2
  5858 ;;      Params:         0       0       0       0       0
  5859 ;;      Locals:         2       0       0       0       0
  5860 ;;      Temps:          0       0       0       0       0
  5861 ;;      Totals:         2       0       0       0       0
  5862 ;;Total ram usage:        2 bytes
  5863 ;; Hardware stack levels used: 1
  5864 ;; Hardware stack levels required when called: 1
  5865 ;; This function calls:
  5866 ;;		_i2c_wait_for_idle
  5867 ;; This function is called by:
  5868 ;;		_read_ds1307
  5869 ;;		_read_external_eeprom
  5870 ;; This function uses a non-reentrant model
  5871 ;;
  5872                           
  5873     09C1                     _i2c_read:	
  5874                           ;psect for function _i2c_read
  5875                           
  5876                           
  5877                           ;incstack = 0
  5878                           ; Regs used in _i2c_read: [wreg+status,2+status,0+pclath+cstack]
  5879                           ;i2c_read@ack stored from wreg
  5880     09C1  00F2               	movwf	i2c_read@ack
  5881     09C2                     l3018:
  5882                           
  5883                           ;/home/santhoshtk/Desktop/EMERTXE/MC/25014_Car_Black__Box.X/25014_Car_Black_Box.X/i2c.c:
      +                           41: unsigned char i2c_read(unsigned char ack);/home/santhoshtk/Desktop/EMERTXE/MC/25014
      +                          _Car_Black__Box.X/25014_Car_Black_Box.X/i2c.c: 42: {;/home/santhoshtk/Desktop/EMERTXE/MC
      +                          /25014_Car_Black__Box.X/25014_Car_Black_Box.X/i2c.c: 43:     unsigned char data;;/home/s
      +                          anthoshtk/Desktop/EMERTXE/MC/25014_Car_Black__Box.X/25014_Car_Black_Box.X/i2c.c: 45:    
      +                           i2c_wait_for_idle();
  5884     09C2  120A  158A  20E0  120A  158A  	fcall	_i2c_wait_for_idle
  5885     09C7                     l3020:
  5886                           
  5887                           ;/home/santhoshtk/Desktop/EMERTXE/MC/25014_Car_Black__Box.X/25014_Car_Black_Box.X/i2c.c:
      +                           46:     RCEN = 1;
  5888     09C7  1683               	bsf	3,5	;RP0=1, select bank1
  5889     09C8  1303               	bcf	3,6	;RP1=0, select bank1
  5890     09C9  1591               	bsf	17,3	;volatile
  5891                           
  5892                           ;/home/santhoshtk/Desktop/EMERTXE/MC/25014_Car_Black__Box.X/25014_Car_Black_Box.X/i2c.c:
      +                           48:     i2c_wait_for_idle();
  5893     09CA  120A  158A  20E0  120A  158A  	fcall	_i2c_wait_for_idle
  5894     09CF                     l3022:
  5895                           
  5896                           ;/home/santhoshtk/Desktop/EMERTXE/MC/25014_Car_Black__Box.X/25014_Car_Black_Box.X/i2c.c:
      +                           49:     data = SSPBUF;
  5897     09CF  1283               	bcf	3,5	;RP0=0, select bank0
  5898     09D0  1303               	bcf	3,6	;RP1=0, select bank0
  5899     09D1  0813               	movf	19,w	;volatile
  5900     09D2  00F3               	movwf	i2c_read@data
  5901     09D3                     l3024:
  5902                           
  5903                           ;/home/santhoshtk/Desktop/EMERTXE/MC/25014_Car_Black__Box.X/25014_Car_Black_Box.X/i2c.c:
      +                           51:     if (ack == 1)
  5904     09D3  0372               	decf	i2c_read@ack,w
  5905     09D4  1D03               	btfss	3,2
  5906     09D5  29D7               	goto	u3281
  5907     09D6  29D8               	goto	u3280
  5908     09D7                     u3281:
  5909     09D7  29DC               	goto	l397
  5910     09D8                     u3280:
  5911     09D8                     l3026:
  5912                           
  5913                           ;/home/santhoshtk/Desktop/EMERTXE/MC/25014_Car_Black__Box.X/25014_Car_Black_Box.X/i2c.c:
      +                           52:     {;/home/santhoshtk/Desktop/EMERTXE/MC/25014_Car_Black__Box.X/25014_Car_Black_Bo
      +                          x.X/i2c.c: 53:         ACKDT = 1;
  5914     09D8  1683               	bsf	3,5	;RP0=1, select bank1
  5915     09D9  1303               	bcf	3,6	;RP1=0, select bank1
  5916     09DA  1691               	bsf	17,5	;volatile
  5917                           
  5918                           ;/home/santhoshtk/Desktop/EMERTXE/MC/25014_Car_Black__Box.X/25014_Car_Black_Box.X/i2c.c:
      +                           54:     }
  5919     09DB  29DF               	goto	l398
  5920     09DC                     l397:	
  5921                           ;/home/santhoshtk/Desktop/EMERTXE/MC/25014_Car_Black__Box.X/25014_Car_Black_Box.X/i2c.c:
      +                           55:     else
  5922                           
  5923                           
  5924                           ;/home/santhoshtk/Desktop/EMERTXE/MC/25014_Car_Black__Box.X/25014_Car_Black_Box.X/i2c.c:
      +                           56:     {;/home/santhoshtk/Desktop/EMERTXE/MC/25014_Car_Black__Box.X/25014_Car_Black_Bo
      +                          x.X/i2c.c: 57:         ACKDT = 0;
  5925     09DC  1683               	bsf	3,5	;RP0=1, select bank1
  5926     09DD  1303               	bcf	3,6	;RP1=0, select bank1
  5927     09DE  1291               	bcf	17,5	;volatile
  5928     09DF                     l398:	
  5929                           ;/home/santhoshtk/Desktop/EMERTXE/MC/25014_Car_Black__Box.X/25014_Car_Black_Box.X/i2c.c:
      +                           58:     }
  5930                           
  5931                           
  5932                           ;/home/santhoshtk/Desktop/EMERTXE/MC/25014_Car_Black__Box.X/25014_Car_Black_Box.X/i2c.c:
      +                           60:     ACKEN = 1;
  5933     09DF  1611               	bsf	17,4	;volatile
  5934     09E0                     l3028:
  5935                           
  5936                           ;/home/santhoshtk/Desktop/EMERTXE/MC/25014_Car_Black__Box.X/25014_Car_Black_Box.X/i2c.c:
      +                           62:     return data;
  5937     09E0  0873               	movf	i2c_read@data,w
  5938     09E1                     l399:
  5939     09E1  0008               	return
  5940     09E2                     __end_of_i2c_read:
  5941                           
  5942                           	psect	text34
  5943     08E0                     __ptext34:	
  5944 ;; *************** function _i2c_wait_for_idle *****************
  5945 ;; Defined at:
  5946 ;;		line 16 in file "/home/santhoshtk/Desktop/EMERTXE/MC/25014_Car_Black__Box.X/25014_Car_Black_Box.X/i2c.c"
  5947 ;; Parameters:    Size  Location     Type
  5948 ;;		None
  5949 ;; Auto vars:     Size  Location     Type
  5950 ;;		None
  5951 ;; Return value:  Size  Location     Type
  5952 ;;                  1    wreg      void 
  5953 ;; Registers used:
  5954 ;;		wreg, status,2
  5955 ;; Tracked objects:
  5956 ;;		On entry : 0/0
  5957 ;;		On exit  : 0/0
  5958 ;;		Unchanged: 0/0
  5959 ;; Data sizes:     COMMON   BANK0   BANK1   BANK3   BANK2
  5960 ;;      Params:         0       0       0       0       0
  5961 ;;      Locals:         0       0       0       0       0
  5962 ;;      Temps:          0       0       0       0       0
  5963 ;;      Totals:         0       0       0       0       0
  5964 ;;Total ram usage:        0 bytes
  5965 ;; Hardware stack levels used: 1
  5966 ;; Hardware stack levels required when called: 1
  5967 ;; This function calls:
  5968 ;;		Nothing
  5969 ;; This function is called by:
  5970 ;;		_i2c_start
  5971 ;;		_i2c_stop
  5972 ;;		_i2c_read
  5973 ;;		_i2c_write
  5974 ;; This function uses a non-reentrant model
  5975 ;;
  5976                           
  5977     08E0                     _i2c_wait_for_idle:	
  5978                           ;psect for function _i2c_wait_for_idle
  5979                           
  5980     08E0                     l2996:	
  5981                           ;incstack = 0
  5982 ;; hardware stack exceeded
  5983                           ; Regs used in _i2c_wait_for_idle: [wreg+status,2]
  5984                           
  5985     08E0                     l382:	
  5986                           ;/home/santhoshtk/Desktop/EMERTXE/MC/25014_Car_Black__Box.X/25014_Car_Black_Box.X/i2c.c:
      +                           19:     while (R_nW || (SSPCON2 & 0x1F));
  5987                           
  5988     08E0  1683               	bsf	3,5	;RP0=1, select bank1
  5989     08E1  1303               	bcf	3,6	;RP1=0, select bank1
  5990     08E2  1914               	btfsc	20,2	;volatile
  5991     08E3  28E5               	goto	u3261
  5992     08E4  28E6               	goto	u3260
  5993     08E5                     u3261:
  5994     08E5  28E0               	goto	l382
  5995     08E6                     u3260:
  5996     08E6                     l2998:
  5997     08E6  0811               	movf	17,w	;volatile
  5998     08E7  391F               	andlw	31
  5999     08E8  1D03               	btfss	3,2
  6000     08E9  28EB               	goto	u3271
  6001     08EA  28EC               	goto	u3270
  6002     08EB                     u3271:
  6003     08EB  28E0               	goto	l382
  6004     08EC                     u3270:
  6005     08EC                     l385:
  6006     08EC  0008               	return
  6007     08ED                     __end_of_i2c_wait_for_idle:
  6008                           
  6009                           	psect	text35
  6010     0C9F                     __ptext35:	
  6011 ;; *************** function _display_time *****************
  6012 ;; Defined at:
  6013 ;;		line 47 in file "/home/santhoshtk/Desktop/EMERTXE/MC/25014_Car_Black__Box.X/25014_Car_Black_Box.X/ds1307.c"
  6014 ;; Parameters:    Size  Location     Type
  6015 ;;  clock_reg       1    9[COMMON] PTR unsigned char 
  6016 ;;		 -> clock_reg(3), 
  6017 ;; Auto vars:     Size  Location     Type
  6018 ;;		None
  6019 ;; Return value:  Size  Location     Type
  6020 ;;                  1    wreg      void 
  6021 ;; Registers used:
  6022 ;;		wreg, fsr0l, fsr0h, status,2, status,0, pclath, btemp1, cstack
  6023 ;; Tracked objects:
  6024 ;;		On entry : 0/0
  6025 ;;		On exit  : 0/0
  6026 ;;		Unchanged: 0/0
  6027 ;; Data sizes:     COMMON   BANK0   BANK1   BANK3   BANK2
  6028 ;;      Params:         1       0       0       0       0
  6029 ;;      Locals:         0       0       0       0       0
  6030 ;;      Temps:          0       1       0       0       0
  6031 ;;      Totals:         1       1       0       0       0
  6032 ;;Total ram usage:        2 bytes
  6033 ;; Hardware stack levels used: 1
  6034 ;; Hardware stack levels required when called: 2
  6035 ;; This function calls:
  6036 ;;		_clcd_print
  6037 ;; This function is called by:
  6038 ;;		_dashboard
  6039 ;; This function uses a non-reentrant model
  6040 ;;
  6041                           
  6042     0C9F                     _display_time:	
  6043                           ;psect for function _display_time
  6044                           
  6045     0C9F                     l3358:	
  6046                           ;incstack = 0
  6047                           ; Regs used in _display_time: [wreg-fsr0h+status,2+status,0+pclath+btemp1+cstack]
  6048                           
  6049                           
  6050                           ;/home/santhoshtk/Desktop/EMERTXE/MC/25014_Car_Black__Box.X/25014_Car_Black_Box.X/ds1307
      +                          .c: 47: void display_time(unsigned char *clock_reg);/home/santhoshtk/Desktop/EMERTXE/MC/
      +                          25014_Car_Black__Box.X/25014_Car_Black_Box.X/ds1307.c: 48: {;/home/santhoshtk/Desktop/EM
      +                          ERTXE/MC/25014_Car_Black__Box.X/25014_Car_Black_Box.X/ds1307.c: 55:     time[0] = ((cloc
      +                          k_reg[0] >> 4) & 0x03) + '0';
  6051     0C9F  0879               	movf	display_time@clock_reg,w
  6052     0CA0  0084               	movwf	4
  6053     0CA1  1383               	bcf	3,7	;select IRP bank0
  6054     0CA2  0800               	movf	0,w
  6055     0CA3  1283               	bcf	3,5	;RP0=0, select bank0
  6056     0CA4  1303               	bcf	3,6	;RP1=0, select bank0
  6057     0CA5  00A0               	movwf	??_display_time
  6058     0CA6  3004               	movlw	4
  6059     0CA7                     u3795:
  6060     0CA7  1003               	clrc
  6061     0CA8  0CA0               	rrf	??_display_time,f
  6062     0CA9  3EFF               	addlw	-1
  6063     0CAA  1D03               	skipz
  6064     0CAB  2CA7               	goto	u3795
  6065     0CAC  0820               	movf	??_display_time,w
  6066     0CAD  3903               	andlw	3
  6067     0CAE  3E30               	addlw	48
  6068     0CAF  00DE               	movwf	_time
  6069                           
  6070                           ;/home/santhoshtk/Desktop/EMERTXE/MC/25014_Car_Black__Box.X/25014_Car_Black_Box.X/ds1307
      +                          .c: 56:     time[1] = (clock_reg[0] & 0x0F) + '0';
  6071     0CB0  0879               	movf	display_time@clock_reg,w
  6072     0CB1  0084               	movwf	4
  6073     0CB2  0800               	movf	0,w
  6074     0CB3  390F               	andlw	15
  6075     0CB4  3E30               	addlw	48
  6076     0CB5  00DF               	movwf	_time+1
  6077     0CB6                     l3360:
  6078                           
  6079                           ;/home/santhoshtk/Desktop/EMERTXE/MC/25014_Car_Black__Box.X/25014_Car_Black_Box.X/ds1307
      +                          .c: 58:     time[2] = ':';
  6080     0CB6  303A               	movlw	58
  6081     0CB7  00E0               	movwf	_time+2
  6082                           
  6083                           ;/home/santhoshtk/Desktop/EMERTXE/MC/25014_Car_Black__Box.X/25014_Car_Black_Box.X/ds1307
      +                          .c: 60:     time[3] = ((clock_reg[1] >> 4) & 0x07) + '0';
  6084     0CB8  0A79               	incf	display_time@clock_reg,w
  6085     0CB9  0084               	movwf	4
  6086     0CBA  0800               	movf	0,w
  6087     0CBB  00A0               	movwf	??_display_time
  6088     0CBC  3004               	movlw	4
  6089     0CBD                     u3805:
  6090     0CBD  1003               	clrc
  6091     0CBE  0CA0               	rrf	??_display_time,f
  6092     0CBF  3EFF               	addlw	-1
  6093     0CC0  1D03               	skipz
  6094     0CC1  2CBD               	goto	u3805
  6095     0CC2  0820               	movf	??_display_time,w
  6096     0CC3  3907               	andlw	7
  6097     0CC4  3E30               	addlw	48
  6098     0CC5  00E1               	movwf	_time+3
  6099                           
  6100                           ;/home/santhoshtk/Desktop/EMERTXE/MC/25014_Car_Black__Box.X/25014_Car_Black_Box.X/ds1307
      +                          .c: 61:     time[4] = (clock_reg[1] & 0x0F) + '0';
  6101     0CC6  0A79               	incf	display_time@clock_reg,w
  6102     0CC7  0084               	movwf	4
  6103     0CC8  0800               	movf	0,w
  6104     0CC9  390F               	andlw	15
  6105     0CCA  3E30               	addlw	48
  6106     0CCB  00E2               	movwf	_time+4
  6107     0CCC                     l3362:
  6108                           
  6109                           ;/home/santhoshtk/Desktop/EMERTXE/MC/25014_Car_Black__Box.X/25014_Car_Black_Box.X/ds1307
      +                          .c: 63:     time[5] = ':';
  6110     0CCC  303A               	movlw	58
  6111     0CCD  00E3               	movwf	_time+5
  6112                           
  6113                           ;/home/santhoshtk/Desktop/EMERTXE/MC/25014_Car_Black__Box.X/25014_Car_Black_Box.X/ds1307
      +                          .c: 65:     time[6] = ((clock_reg[2] >> 4) & 0x07) + '0';
  6114     0CCE  0879               	movf	display_time@clock_reg,w
  6115     0CCF  3E02               	addlw	2
  6116     0CD0  0084               	movwf	4
  6117     0CD1  0800               	movf	0,w
  6118     0CD2  00A0               	movwf	??_display_time
  6119     0CD3  3004               	movlw	4
  6120     0CD4                     u3815:
  6121     0CD4  1003               	clrc
  6122     0CD5  0CA0               	rrf	??_display_time,f
  6123     0CD6  3EFF               	addlw	-1
  6124     0CD7  1D03               	skipz
  6125     0CD8  2CD4               	goto	u3815
  6126     0CD9  0820               	movf	??_display_time,w
  6127     0CDA  3907               	andlw	7
  6128     0CDB  3E30               	addlw	48
  6129     0CDC  00E4               	movwf	_time+6
  6130                           
  6131                           ;/home/santhoshtk/Desktop/EMERTXE/MC/25014_Car_Black__Box.X/25014_Car_Black_Box.X/ds1307
      +                          .c: 66:     time[7] = (clock_reg[2] & 0x0F) + '0';
  6132     0CDD  0879               	movf	display_time@clock_reg,w
  6133     0CDE  3E02               	addlw	2
  6134     0CDF  0084               	movwf	4
  6135     0CE0  0800               	movf	0,w
  6136     0CE1  390F               	andlw	15
  6137     0CE2  3E30               	addlw	48
  6138     0CE3  00E5               	movwf	_time+7
  6139     0CE4                     l3364:
  6140                           
  6141                           ;/home/santhoshtk/Desktop/EMERTXE/MC/25014_Car_Black__Box.X/25014_Car_Black_Box.X/ds1307
      +                          .c: 67:     time[8] = '\0';
  6142     0CE4  01E6               	clrf	_time+8
  6143     0CE5                     l3366:
  6144                           
  6145                           ;/home/santhoshtk/Desktop/EMERTXE/MC/25014_Car_Black__Box.X/25014_Car_Black_Box.X/ds1307
      +                          .c: 69:     clcd_print(time, (0xC0 + 0));
  6146     0CE5  305E               	movlw	(low (_time| 0))& (0+255)
  6147     0CE6  00F6               	movwf	clcd_print@str
  6148     0CE7  3000               	movlw	0
  6149     0CE8  00F7               	movwf	clcd_print@str+1
  6150     0CE9  30C0               	movlw	192
  6151     0CEA  00F8               	movwf	clcd_print@addr
  6152     0CEB  120A  158A  22F8  120A  158A  	fcall	_clcd_print
  6153     0CF0                     l331:
  6154     0CF0  0008               	return
  6155     0CF1                     __end_of_display_time:
  6156                           
  6157                           	psect	text36
  6158     020A                     __ptext36:	
  6159 ;; *************** function ___xxtofl *****************
  6160 ;; Defined at:
  6161 ;;		line 10 in file "/opt/microchip/xc8/v3.10/pic/sources/c99/common/xxtofl.c"
  6162 ;; Parameters:    Size  Location     Type
  6163 ;;  sign            1    wreg     unsigned char 
  6164 ;;  val             4    2[COMMON] long 
  6165 ;; Auto vars:     Size  Location     Type
  6166 ;;  sign            1    0[BANK0 ] unsigned char 
  6167 ;;  arg             4    2[BANK0 ] unsigned long 
  6168 ;;  exp             1    1[BANK0 ] unsigned char 
  6169 ;; Return value:  Size  Location     Type
  6170 ;;                  4    2[COMMON] unsigned char 
  6171 ;; Registers used:
  6172 ;;		wreg, status,2, status,0
  6173 ;; Tracked objects:
  6174 ;;		On entry : 0/0
  6175 ;;		On exit  : 0/0
  6176 ;;		Unchanged: 0/0
  6177 ;; Data sizes:     COMMON   BANK0   BANK1   BANK3   BANK2
  6178 ;;      Params:         4       0       0       0       0
  6179 ;;      Locals:         0       6       0       0       0
  6180 ;;      Temps:          4       0       0       0       0
  6181 ;;      Totals:         8       6       0       0       0
  6182 ;;Total ram usage:       14 bytes
  6183 ;; Hardware stack levels used: 1
  6184 ;; Hardware stack levels required when called: 1
  6185 ;; This function calls:
  6186 ;;		Nothing
  6187 ;; This function is called by:
  6188 ;;		_dashboard
  6189 ;; This function uses a non-reentrant model
  6190 ;;
  6191                           
  6192     020A                     ___xxtofl:	
  6193                           ;psect for function ___xxtofl
  6194                           
  6195                           
  6196                           ;incstack = 0
  6197                           ; Regs used in ___xxtofl: [wreg+status,2+status,0]
  6198                           ;___xxtofl@sign stored from wreg
  6199     020A  1283               	bcf	3,5	;RP0=0, select bank0
  6200     020B  1303               	bcf	3,6	;RP1=0, select bank0
  6201     020C  00A0               	movwf	___xxtofl@sign
  6202     020D                     l3626:
  6203     020D  0820               	movf	___xxtofl@sign,w
  6204     020E  1903               	btfsc	3,2
  6205     020F  2A11               	goto	u4311
  6206     0210  2A12               	goto	u4310
  6207     0211                     u4311:
  6208     0211  2A26               	goto	l3632
  6209     0212                     u4310:
  6210     0212                     l3628:
  6211     0212  1FF5               	btfss	___xxtofl@val+3,7
  6212     0213  2A15               	goto	u4321
  6213     0214  2A16               	goto	u4320
  6214     0215                     u4321:
  6215     0215  2A26               	goto	l3632
  6216     0216                     u4320:
  6217     0216                     l3630:
  6218     0216  0972               	comf	___xxtofl@val,w
  6219     0217  00A2               	movwf	___xxtofl@arg
  6220     0218  0973               	comf	___xxtofl@val+1,w
  6221     0219  00A3               	movwf	___xxtofl@arg+1
  6222     021A  0974               	comf	___xxtofl@val+2,w
  6223     021B  00A4               	movwf	___xxtofl@arg+2
  6224     021C  0975               	comf	___xxtofl@val+3,w
  6225     021D  00A5               	movwf	___xxtofl@arg+3
  6226     021E  0AA2               	incf	___xxtofl@arg,f
  6227     021F  1903               	skipnz
  6228     0220  0AA3               	incf	___xxtofl@arg+1,f
  6229     0221  1903               	skipnz
  6230     0222  0AA4               	incf	___xxtofl@arg+2,f
  6231     0223  1903               	skipnz
  6232     0224  0AA5               	incf	___xxtofl@arg+3,f
  6233     0225  2A2E               	goto	l1033
  6234     0226                     l3632:
  6235     0226  0875               	movf	___xxtofl@val+3,w
  6236     0227  00A5               	movwf	___xxtofl@arg+3
  6237     0228  0874               	movf	___xxtofl@val+2,w
  6238     0229  00A4               	movwf	___xxtofl@arg+2
  6239     022A  0873               	movf	___xxtofl@val+1,w
  6240     022B  00A3               	movwf	___xxtofl@arg+1
  6241     022C  0872               	movf	___xxtofl@val,w
  6242     022D  00A2               	movwf	___xxtofl@arg
  6243     022E                     l1033:
  6244     022E  0875               	movf	___xxtofl@val+3,w
  6245     022F  0474               	iorwf	___xxtofl@val+2,w
  6246     0230  0473               	iorwf	___xxtofl@val+1,w
  6247     0231  0472               	iorwf	___xxtofl@val,w
  6248     0232  1D03               	skipz
  6249     0233  2A35               	goto	u4331
  6250     0234  2A36               	goto	u4330
  6251     0235                     u4331:
  6252     0235  2A3F               	goto	l1034
  6253     0236                     u4330:
  6254     0236                     l3634:
  6255     0236  3000               	movlw	0
  6256     0237  00F5               	movwf	?___xxtofl+3
  6257     0238  3000               	movlw	0
  6258     0239  00F4               	movwf	?___xxtofl+2
  6259     023A  3000               	movlw	0
  6260     023B  00F3               	movwf	?___xxtofl+1
  6261     023C  3000               	movlw	0
  6262     023D  00F2               	movwf	?___xxtofl
  6263     023E  2ABF               	goto	l1035
  6264     023F                     l1034:
  6265     023F  3096               	movlw	150
  6266     0240  00A1               	movwf	___xxtofl@exp
  6267     0241  2A4D               	goto	l3640
  6268     0242                     l3638:
  6269     0242  3001               	movlw	1
  6270     0243  07A1               	addwf	___xxtofl@exp,f
  6271     0244  3001               	movlw	1
  6272     0245                     u4345:
  6273     0245  1003               	clrc
  6274     0246  0CA5               	rrf	___xxtofl@arg+3,f
  6275     0247  0CA4               	rrf	___xxtofl@arg+2,f
  6276     0248  0CA3               	rrf	___xxtofl@arg+1,f
  6277     0249  0CA2               	rrf	___xxtofl@arg,f
  6278     024A  3EFF               	addlw	-1
  6279     024B  1D03               	skipz
  6280     024C  2A45               	goto	u4345
  6281     024D                     l3640:
  6282     024D  30FE               	movlw	254
  6283     024E  0525               	andwf	___xxtofl@arg+3,w
  6284     024F  1D03               	btfss	3,2
  6285     0250  2A52               	goto	u4351
  6286     0251  2A53               	goto	u4350
  6287     0252                     u4351:
  6288     0252  2A42               	goto	l3638
  6289     0253                     u4350:
  6290     0253  2A6D               	goto	l1039
  6291     0254                     l3642:
  6292     0254  3001               	movlw	1
  6293     0255  07A1               	addwf	___xxtofl@exp,f
  6294     0256                     l3644:
  6295     0256  3001               	movlw	1
  6296     0257  07A2               	addwf	___xxtofl@arg,f
  6297     0258  3000               	movlw	0
  6298     0259  1803               	skipnc
  6299     025A  3001               	movlw	1
  6300     025B  07A3               	addwf	___xxtofl@arg+1,f
  6301     025C  3000               	movlw	0
  6302     025D  1803               	skipnc
  6303     025E  3001               	movlw	1
  6304     025F  07A4               	addwf	___xxtofl@arg+2,f
  6305     0260  3000               	movlw	0
  6306     0261  1803               	skipnc
  6307     0262  3001               	movlw	1
  6308     0263  07A5               	addwf	___xxtofl@arg+3,f
  6309     0264                     l3646:
  6310     0264  3001               	movlw	1
  6311     0265                     u4365:
  6312     0265  1003               	clrc
  6313     0266  0CA5               	rrf	___xxtofl@arg+3,f
  6314     0267  0CA4               	rrf	___xxtofl@arg+2,f
  6315     0268  0CA3               	rrf	___xxtofl@arg+1,f
  6316     0269  0CA2               	rrf	___xxtofl@arg,f
  6317     026A  3EFF               	addlw	-1
  6318     026B  1D03               	skipz
  6319     026C  2A65               	goto	u4365
  6320     026D                     l1039:
  6321     026D  30FF               	movlw	255
  6322     026E  0525               	andwf	___xxtofl@arg+3,w
  6323     026F  1D03               	btfss	3,2
  6324     0270  2A72               	goto	u4371
  6325     0271  2A73               	goto	u4370
  6326     0272                     u4371:
  6327     0272  2A54               	goto	l3642
  6328     0273                     u4370:
  6329     0273  2A7F               	goto	l3650
  6330     0274                     l3648:
  6331     0274  3001               	movlw	1
  6332     0275  02A1               	subwf	___xxtofl@exp,f
  6333     0276  3001               	movlw	1
  6334     0277  00F6               	movwf	??___xxtofl
  6335     0278                     u4385:
  6336     0278  1003               	clrc
  6337     0279  0DA2               	rlf	___xxtofl@arg,f
  6338     027A  0DA3               	rlf	___xxtofl@arg+1,f
  6339     027B  0DA4               	rlf	___xxtofl@arg+2,f
  6340     027C  0DA5               	rlf	___xxtofl@arg+3,f
  6341     027D  0BF6               	decfsz	??___xxtofl,f
  6342     027E  2A78               	goto	u4385
  6343     027F                     l3650:
  6344     027F  1BA4               	btfsc	___xxtofl@arg+2,7
  6345     0280  2A82               	goto	u4391
  6346     0281  2A83               	goto	u4390
  6347     0282                     u4391:
  6348     0282  2A89               	goto	l1046
  6349     0283                     u4390:
  6350     0283                     l3652:
  6351     0283  3002               	movlw	2
  6352     0284  0221               	subwf	___xxtofl@exp,w
  6353     0285  1803               	skipnc
  6354     0286  2A88               	goto	u4401
  6355     0287  2A89               	goto	u4400
  6356     0288                     u4401:
  6357     0288  2A74               	goto	l3648
  6358     0289                     u4400:
  6359     0289                     l1046:
  6360     0289  1821               	btfsc	___xxtofl@exp,0
  6361     028A  2A8C               	goto	u4411
  6362     028B  2A8D               	goto	u4410
  6363     028C                     u4411:
  6364     028C  2A95               	goto	l1047
  6365     028D                     u4410:
  6366     028D                     l3654:
  6367     028D  30FF               	movlw	255
  6368     028E  05A2               	andwf	___xxtofl@arg,f
  6369     028F  30FF               	movlw	255
  6370     0290  05A3               	andwf	___xxtofl@arg+1,f
  6371     0291  307F               	movlw	127
  6372     0292  05A4               	andwf	___xxtofl@arg+2,f
  6373     0293  30FF               	movlw	255
  6374     0294  05A5               	andwf	___xxtofl@arg+3,f
  6375     0295                     l1047:
  6376     0295  1003               	clrc
  6377     0296  0CA1               	rrf	___xxtofl@exp,f
  6378     0297                     l3656:
  6379     0297  0821               	movf	___xxtofl@exp,w
  6380     0298  00F6               	movwf	??___xxtofl
  6381     0299  01F7               	clrf	??___xxtofl+1
  6382     029A  01F8               	clrf	??___xxtofl+2
  6383     029B  01F9               	clrf	??___xxtofl+3
  6384     029C  3018               	movlw	24
  6385     029D                     u4425:
  6386     029D  1003               	clrc
  6387     029E  0DF6               	rlf	??___xxtofl,f
  6388     029F  0DF7               	rlf	??___xxtofl+1,f
  6389     02A0  0DF8               	rlf	??___xxtofl+2,f
  6390     02A1  0DF9               	rlf	??___xxtofl+3,f
  6391     02A2                     u4420:
  6392     02A2  3EFF               	addlw	-1
  6393     02A3  1D03               	skipz
  6394     02A4  2A9D               	goto	u4425
  6395     02A5  0876               	movf	??___xxtofl,w
  6396     02A6  04A2               	iorwf	___xxtofl@arg,f
  6397     02A7  0877               	movf	??___xxtofl+1,w
  6398     02A8  04A3               	iorwf	___xxtofl@arg+1,f
  6399     02A9  0878               	movf	??___xxtofl+2,w
  6400     02AA  04A4               	iorwf	___xxtofl@arg+2,f
  6401     02AB  0879               	movf	??___xxtofl+3,w
  6402     02AC  04A5               	iorwf	___xxtofl@arg+3,f
  6403     02AD                     l3658:
  6404     02AD  0820               	movf	___xxtofl@sign,w
  6405     02AE  1903               	btfsc	3,2
  6406     02AF  2AB1               	goto	u4431
  6407     02B0  2AB2               	goto	u4430
  6408     02B1                     u4431:
  6409     02B1  2AB7               	goto	l3664
  6410     02B2                     u4430:
  6411     02B2                     l3660:
  6412     02B2  1FF5               	btfss	___xxtofl@val+3,7
  6413     02B3  2AB5               	goto	u4441
  6414     02B4  2AB6               	goto	u4440
  6415     02B5                     u4441:
  6416     02B5  2AB7               	goto	l3664
  6417     02B6                     u4440:
  6418     02B6                     l3662:
  6419     02B6  17A5               	bsf	___xxtofl@arg+3,7
  6420     02B7                     l3664:
  6421     02B7  0825               	movf	___xxtofl@arg+3,w
  6422     02B8  00F5               	movwf	?___xxtofl+3
  6423     02B9  0824               	movf	___xxtofl@arg+2,w
  6424     02BA  00F4               	movwf	?___xxtofl+2
  6425     02BB  0823               	movf	___xxtofl@arg+1,w
  6426     02BC  00F3               	movwf	?___xxtofl+1
  6427     02BD  0822               	movf	___xxtofl@arg,w
  6428     02BE  00F2               	movwf	?___xxtofl
  6429     02BF                     l1035:
  6430     02BF  0008               	return
  6431     02C0                     __end_of___xxtofl:
  6432                           
  6433                           	psect	text37
  6434     0E6E                     __ptext37:	
  6435 ;; *************** function ___fltol *****************
  6436 ;; Defined at:
  6437 ;;		line 43 in file "/opt/microchip/xc8/v3.10/pic/sources/c99/common/fltol.c"
  6438 ;; Parameters:    Size  Location     Type
  6439 ;;  f1              4   32[BANK0 ] unsigned char 
  6440 ;; Auto vars:     Size  Location     Type
  6441 ;;  exp1            1   41[BANK0 ] unsigned char 
  6442 ;;  sign1           1   40[BANK0 ] unsigned char 
  6443 ;; Return value:  Size  Location     Type
  6444 ;;                  4   32[BANK0 ] long 
  6445 ;; Registers used:
  6446 ;;		wreg, status,2, status,0
  6447 ;; Tracked objects:
  6448 ;;		On entry : 0/0
  6449 ;;		On exit  : 0/0
  6450 ;;		Unchanged: 0/0
  6451 ;; Data sizes:     COMMON   BANK0   BANK1   BANK3   BANK2
  6452 ;;      Params:         0       4       0       0       0
  6453 ;;      Locals:         0       2       0       0       0
  6454 ;;      Temps:          0       4       0       0       0
  6455 ;;      Totals:         0      10       0       0       0
  6456 ;;Total ram usage:       10 bytes
  6457 ;; Hardware stack levels used: 1
  6458 ;; Hardware stack levels required when called: 1
  6459 ;; This function calls:
  6460 ;;		Nothing
  6461 ;; This function is called by:
  6462 ;;		_dashboard
  6463 ;; This function uses a non-reentrant model
  6464 ;;
  6465                           
  6466     0E6E                     ___fltol:	
  6467                           ;psect for function ___fltol
  6468                           
  6469     0E6E                     l3446:	
  6470                           ;incstack = 0
  6471                           ; Regs used in ___fltol: [wreg+status,2+status,0]
  6472                           
  6473     0E6E  1003               	clrc
  6474     0E6F  1283               	bcf	3,5	;RP0=0, select bank0
  6475     0E70  1303               	bcf	3,6	;RP1=0, select bank0
  6476     0E71  0D42               	rlf	___fltol@f1+2,w
  6477     0E72  0D43               	rlf	___fltol@f1+3,w
  6478     0E73  00C9               	movwf	___fltol@exp1
  6479     0E74  0849               	movf	___fltol@exp1,w
  6480     0E75  1D03               	btfss	3,2
  6481     0E76  2E78               	goto	u3921
  6482     0E77  2E79               	goto	u3920
  6483     0E78                     u3921:
  6484     0E78  2E82               	goto	l3452
  6485     0E79                     u3920:
  6486     0E79                     l3448:
  6487     0E79  3000               	movlw	0
  6488     0E7A  00C3               	movwf	?___fltol+3
  6489     0E7B  3000               	movlw	0
  6490     0E7C  00C2               	movwf	?___fltol+2
  6491     0E7D  3000               	movlw	0
  6492     0E7E  00C1               	movwf	?___fltol+1
  6493     0E7F  3000               	movlw	0
  6494     0E80  00C0               	movwf	?___fltol
  6495     0E81  2EE3               	goto	l786
  6496     0E82                     l3452:
  6497     0E82  0840               	movf	___fltol@f1,w
  6498     0E83  00C4               	movwf	??___fltol
  6499     0E84  0841               	movf	___fltol@f1+1,w
  6500     0E85  00C5               	movwf	??___fltol+1
  6501     0E86  0842               	movf	___fltol@f1+2,w
  6502     0E87  00C6               	movwf	??___fltol+2
  6503     0E88  0843               	movf	___fltol@f1+3,w
  6504     0E89  00C7               	movwf	??___fltol+3
  6505     0E8A  301F               	movlw	31
  6506     0E8B                     u3935:
  6507     0E8B  1003               	clrc
  6508     0E8C  0CC7               	rrf	??___fltol+3,f
  6509     0E8D  0CC6               	rrf	??___fltol+2,f
  6510     0E8E  0CC5               	rrf	??___fltol+1,f
  6511     0E8F  0CC4               	rrf	??___fltol,f
  6512     0E90                     u3930:
  6513     0E90  3EFF               	addlw	-1
  6514     0E91  1D03               	skipz
  6515     0E92  2E8B               	goto	u3935
  6516     0E93  0844               	movf	??___fltol,w
  6517     0E94  00C8               	movwf	___fltol@sign1
  6518     0E95                     l3454:
  6519     0E95  17C2               	bsf	___fltol@f1+2,7
  6520     0E96                     l3456:
  6521     0E96  30FF               	movlw	255
  6522     0E97  05C0               	andwf	___fltol@f1,f
  6523     0E98  30FF               	movlw	255
  6524     0E99  05C1               	andwf	___fltol@f1+1,f
  6525     0E9A  30FF               	movlw	255
  6526     0E9B  05C2               	andwf	___fltol@f1+2,f
  6527     0E9C  3000               	movlw	0
  6528     0E9D  05C3               	andwf	___fltol@f1+3,f
  6529     0E9E                     l3458:
  6530     0E9E  3096               	movlw	150
  6531     0E9F  02C9               	subwf	___fltol@exp1,f
  6532     0EA0                     l3460:
  6533     0EA0  1FC9               	btfss	___fltol@exp1,7
  6534     0EA1  2EA3               	goto	u3941
  6535     0EA2  2EA4               	goto	u3940
  6536     0EA3                     u3941:
  6537     0EA3  2EBC               	goto	l3470
  6538     0EA4                     u3940:
  6539     0EA4                     l3462:
  6540     0EA4  0849               	movf	___fltol@exp1,w
  6541     0EA5  3A80               	xorlw	128
  6542     0EA6  3E97               	addlw	151
  6543     0EA7  1803               	skipnc
  6544     0EA8  2EAA               	goto	u3951
  6545     0EA9  2EAB               	goto	u3950
  6546     0EAA                     u3951:
  6547     0EAA  2EAC               	goto	l3468
  6548     0EAB                     u3950:
  6549     0EAB  2E79               	goto	l3448
  6550     0EAC                     l3468:
  6551     0EAC  3001               	movlw	1
  6552     0EAD                     u3965:
  6553     0EAD  1003               	clrc
  6554     0EAE  0CC3               	rrf	___fltol@f1+3,f
  6555     0EAF  0CC2               	rrf	___fltol@f1+2,f
  6556     0EB0  0CC1               	rrf	___fltol@f1+1,f
  6557     0EB1  0CC0               	rrf	___fltol@f1,f
  6558     0EB2  3EFF               	addlw	-1
  6559     0EB3  1D03               	skipz
  6560     0EB4  2EAD               	goto	u3965
  6561     0EB5  3001               	movlw	1
  6562     0EB6  07C9               	addwf	___fltol@exp1,f
  6563     0EB7  1D03               	btfss	3,2
  6564     0EB8  2EBA               	goto	u3971
  6565     0EB9  2EBB               	goto	u3970
  6566     0EBA                     u3971:
  6567     0EBA  2EAC               	goto	l3468
  6568     0EBB                     u3970:
  6569     0EBB  2ED3               	goto	l3478
  6570     0EBC                     l3470:
  6571     0EBC  3020               	movlw	32
  6572     0EBD  0249               	subwf	___fltol@exp1,w
  6573     0EBE  1C03               	skipc
  6574     0EBF  2EC1               	goto	u3981
  6575     0EC0  2EC2               	goto	u3980
  6576     0EC1                     u3981:
  6577     0EC1  2ECE               	goto	l793
  6578     0EC2                     u3980:
  6579     0EC2  2E79               	goto	l3448
  6580     0EC3                     l3476:
  6581     0EC3  3001               	movlw	1
  6582     0EC4  00C4               	movwf	??___fltol
  6583     0EC5                     u3995:
  6584     0EC5  1003               	clrc
  6585     0EC6  0DC0               	rlf	___fltol@f1,f
  6586     0EC7  0DC1               	rlf	___fltol@f1+1,f
  6587     0EC8  0DC2               	rlf	___fltol@f1+2,f
  6588     0EC9  0DC3               	rlf	___fltol@f1+3,f
  6589     0ECA  0BC4               	decfsz	??___fltol,f
  6590     0ECB  2EC5               	goto	u3995
  6591     0ECC  3001               	movlw	1
  6592     0ECD  02C9               	subwf	___fltol@exp1,f
  6593     0ECE                     l793:
  6594     0ECE  0849               	movf	___fltol@exp1,w
  6595     0ECF  1D03               	btfss	3,2
  6596     0ED0  2ED2               	goto	u4001
  6597     0ED1  2ED3               	goto	u4000
  6598     0ED2                     u4001:
  6599     0ED2  2EC3               	goto	l3476
  6600     0ED3                     u4000:
  6601     0ED3                     l3478:
  6602     0ED3  0848               	movf	___fltol@sign1,w
  6603     0ED4  1903               	btfsc	3,2
  6604     0ED5  2ED7               	goto	u4011
  6605     0ED6  2ED8               	goto	u4010
  6606     0ED7                     u4011:
  6607     0ED7  2EE3               	goto	l796
  6608     0ED8                     u4010:
  6609     0ED8                     l3480:
  6610     0ED8  09C0               	comf	___fltol@f1,f
  6611     0ED9  09C1               	comf	___fltol@f1+1,f
  6612     0EDA  09C2               	comf	___fltol@f1+2,f
  6613     0EDB  09C3               	comf	___fltol@f1+3,f
  6614     0EDC  0AC0               	incf	___fltol@f1,f
  6615     0EDD  1903               	skipnz
  6616     0EDE  0AC1               	incf	___fltol@f1+1,f
  6617     0EDF  1903               	skipnz
  6618     0EE0  0AC2               	incf	___fltol@f1+2,f
  6619     0EE1  1903               	skipnz
  6620     0EE2  0AC3               	incf	___fltol@f1+3,f
  6621     0EE3                     l796:
  6622     0EE3                     l786:
  6623     0EE3  0008               	return
  6624     0EE4                     __end_of___fltol:
  6625                           
  6626                           	psect	text38
  6627     0040                     __ptext38:	
  6628 ;; *************** function ___fldiv *****************
  6629 ;; Defined at:
  6630 ;;		line 8 in file "/opt/microchip/xc8/v3.10/pic/sources/c99/common/sprcdiv.c"
  6631 ;; Parameters:    Size  Location     Type
  6632 ;;  a               4    6[BANK0 ] long 
  6633 ;;  b               4   10[BANK0 ] long 
  6634 ;; Auto vars:     Size  Location     Type
  6635 ;;  grs             4   26[BANK0 ] unsigned long 
  6636 ;;  rem             4   19[BANK0 ] unsigned long 
  6637 ;;  new_exp         2   24[BANK0 ] short 
  6638 ;;  aexp            1   31[BANK0 ] unsigned char 
  6639 ;;  bexp            1   30[BANK0 ] unsigned char 
  6640 ;;  sign            1   23[BANK0 ] unsigned char 
  6641 ;; Return value:  Size  Location     Type
  6642 ;;                  4    6[BANK0 ] unsigned char 
  6643 ;; Registers used:
  6644 ;;		wreg, status,2, status,0, btemp1
  6645 ;; Tracked objects:
  6646 ;;		On entry : 0/0
  6647 ;;		On exit  : 0/0
  6648 ;;		Unchanged: 0/0
  6649 ;; Data sizes:     COMMON   BANK0   BANK1   BANK3   BANK2
  6650 ;;      Params:         0       8       0       0       0
  6651 ;;      Locals:         0      13       0       0       0
  6652 ;;      Temps:          0       5       0       0       0
  6653 ;;      Totals:         0      26       0       0       0
  6654 ;;Total ram usage:       26 bytes
  6655 ;; Hardware stack levels used: 1
  6656 ;; Hardware stack levels required when called: 1
  6657 ;; This function calls:
  6658 ;;		Nothing
  6659 ;; This function is called by:
  6660 ;;		_dashboard
  6661 ;; This function uses a non-reentrant model
  6662 ;;
  6663                           
  6664     0040                     ___fldiv:	
  6665                           ;psect for function ___fldiv
  6666                           
  6667     0040                     l3482:	
  6668                           ;incstack = 0
  6669                           ; Regs used in ___fldiv: [wreg+status,2+status,0+btemp1]
  6670                           
  6671     0040  1283               	bcf	3,5	;RP0=0, select bank0
  6672     0041  1303               	bcf	3,6	;RP1=0, select bank0
  6673     0042  082D               	movf	___fldiv@b+3,w
  6674     0043  00B7               	movwf	___fldiv@sign
  6675     0044                     l3484:
  6676     0044  3080               	movlw	128
  6677     0045  05B7               	andwf	___fldiv@sign,f
  6678     0046                     l3486:
  6679     0046  082D               	movf	___fldiv@b+3,w
  6680     0047  00AE               	movwf	??___fldiv
  6681     0048  072E               	addwf	??___fldiv,w
  6682     0049  00BE               	movwf	___fldiv@bexp
  6683     004A                     l3488:
  6684     004A  1FAC               	btfss	___fldiv@b+2,7
  6685     004B  284D               	goto	u4021
  6686     004C  284E               	goto	u4020
  6687     004D                     u4021:
  6688     004D  284F               	goto	l3492
  6689     004E                     u4020:
  6690     004E                     l3490:
  6691     004E  143E               	bsf	___fldiv@bexp,0
  6692     004F                     l3492:
  6693     004F  083E               	movf	___fldiv@bexp,w
  6694     0050  1903               	btfsc	3,2
  6695     0051  2853               	goto	u4031
  6696     0052  2854               	goto	u4030
  6697     0053                     u4031:
  6698     0053  2864               	goto	l3502
  6699     0054                     u4030:
  6700     0054                     l3494:
  6701     0054  0A3E               	incf	___fldiv@bexp,w
  6702     0055  1D03               	btfss	3,2
  6703     0056  2858               	goto	u4041
  6704     0057  2859               	goto	u4040
  6705     0058                     u4041:
  6706     0058  2861               	goto	l3498
  6707     0059                     u4040:
  6708     0059                     l3496:
  6709     0059  3000               	movlw	0
  6710     005A  00AD               	movwf	___fldiv@b+3
  6711     005B  3000               	movlw	0
  6712     005C  00AC               	movwf	___fldiv@b+2
  6713     005D  3000               	movlw	0
  6714     005E  00AB               	movwf	___fldiv@b+1
  6715     005F  3000               	movlw	0
  6716     0060  00AA               	movwf	___fldiv@b
  6717     0061                     l3498:
  6718     0061  17AC               	bsf	___fldiv@b+2,7
  6719     0062                     l3500:
  6720     0062  01AD               	clrf	___fldiv@b+3
  6721     0063  286C               	goto	l3504
  6722     0064                     l3502:
  6723     0064  3000               	movlw	0
  6724     0065  00AD               	movwf	___fldiv@b+3
  6725     0066  3000               	movlw	0
  6726     0067  00AC               	movwf	___fldiv@b+2
  6727     0068  3000               	movlw	0
  6728     0069  00AB               	movwf	___fldiv@b+1
  6729     006A  3000               	movlw	0
  6730     006B  00AA               	movwf	___fldiv@b
  6731     006C                     l3504:
  6732     006C  0829               	movf	___fldiv@a+3,w
  6733     006D  3980               	andlw	128
  6734     006E  06B7               	xorwf	___fldiv@sign,f
  6735     006F                     l3506:
  6736     006F  0829               	movf	___fldiv@a+3,w
  6737     0070  00AE               	movwf	??___fldiv
  6738     0071  072E               	addwf	??___fldiv,w
  6739     0072  00BF               	movwf	___fldiv@aexp
  6740     0073                     l3508:
  6741     0073  1FA8               	btfss	___fldiv@a+2,7
  6742     0074  2876               	goto	u4051
  6743     0075  2877               	goto	u4050
  6744     0076                     u4051:
  6745     0076  2878               	goto	l3512
  6746     0077                     u4050:
  6747     0077                     l3510:
  6748     0077  143F               	bsf	___fldiv@aexp,0
  6749     0078                     l3512:
  6750     0078  083F               	movf	___fldiv@aexp,w
  6751     0079  1903               	btfsc	3,2
  6752     007A  287C               	goto	u4061
  6753     007B  287D               	goto	u4060
  6754     007C                     u4061:
  6755     007C  288D               	goto	l3522
  6756     007D                     u4060:
  6757     007D                     l3514:
  6758     007D  0A3F               	incf	___fldiv@aexp,w
  6759     007E  1D03               	btfss	3,2
  6760     007F  2881               	goto	u4071
  6761     0080  2882               	goto	u4070
  6762     0081                     u4071:
  6763     0081  288A               	goto	l3518
  6764     0082                     u4070:
  6765     0082                     l3516:
  6766     0082  3000               	movlw	0
  6767     0083  00A9               	movwf	___fldiv@a+3
  6768     0084  3000               	movlw	0
  6769     0085  00A8               	movwf	___fldiv@a+2
  6770     0086  3000               	movlw	0
  6771     0087  00A7               	movwf	___fldiv@a+1
  6772     0088  3000               	movlw	0
  6773     0089  00A6               	movwf	___fldiv@a
  6774     008A                     l3518:
  6775     008A  17A8               	bsf	___fldiv@a+2,7
  6776     008B                     l3520:
  6777     008B  01A9               	clrf	___fldiv@a+3
  6778     008C  2895               	goto	l949
  6779     008D                     l3522:
  6780     008D  3000               	movlw	0
  6781     008E  00A9               	movwf	___fldiv@a+3
  6782     008F  3000               	movlw	0
  6783     0090  00A8               	movwf	___fldiv@a+2
  6784     0091  3000               	movlw	0
  6785     0092  00A7               	movwf	___fldiv@a+1
  6786     0093  3000               	movlw	0
  6787     0094  00A6               	movwf	___fldiv@a
  6788     0095                     l949:
  6789     0095  0829               	movf	___fldiv@a+3,w
  6790     0096  0428               	iorwf	___fldiv@a+2,w
  6791     0097  0427               	iorwf	___fldiv@a+1,w
  6792     0098  0426               	iorwf	___fldiv@a,w
  6793     0099  1D03               	skipz
  6794     009A  289C               	goto	u4081
  6795     009B  289D               	goto	u4080
  6796     009C                     u4081:
  6797     009C  28B4               	goto	l3532
  6798     009D                     u4080:
  6799     009D                     l3524:
  6800     009D  3000               	movlw	0
  6801     009E  00AD               	movwf	___fldiv@b+3
  6802     009F  3000               	movlw	0
  6803     00A0  00AC               	movwf	___fldiv@b+2
  6804     00A1  3000               	movlw	0
  6805     00A2  00AB               	movwf	___fldiv@b+1
  6806     00A3  3000               	movlw	0
  6807     00A4  00AA               	movwf	___fldiv@b
  6808     00A5  3080               	movlw	128
  6809     00A6  04AC               	iorwf	___fldiv@b+2,f
  6810     00A7  307F               	movlw	127
  6811     00A8  04AD               	iorwf	___fldiv@b+3,f
  6812     00A9                     l3526:
  6813     00A9  0837               	movf	___fldiv@sign,w
  6814     00AA  04AD               	iorwf	___fldiv@b+3,f
  6815     00AB                     l3528:
  6816     00AB  082D               	movf	___fldiv@b+3,w
  6817     00AC  00A9               	movwf	?___fldiv+3
  6818     00AD  082C               	movf	___fldiv@b+2,w
  6819     00AE  00A8               	movwf	?___fldiv+2
  6820     00AF  082B               	movf	___fldiv@b+1,w
  6821     00B0  00A7               	movwf	?___fldiv+1
  6822     00B1  082A               	movf	___fldiv@b,w
  6823     00B2  00A6               	movwf	?___fldiv
  6824     00B3  2A09               	goto	l951
  6825     00B4                     l3532:
  6826     00B4  083E               	movf	___fldiv@bexp,w
  6827     00B5  1D03               	btfss	3,2
  6828     00B6  28B8               	goto	u4091
  6829     00B7  28B9               	goto	u4090
  6830     00B8                     u4091:
  6831     00B8  28C2               	goto	l3538
  6832     00B9                     u4090:
  6833     00B9                     l3534:
  6834     00B9  3000               	movlw	0
  6835     00BA  00A9               	movwf	?___fldiv+3
  6836     00BB  3000               	movlw	0
  6837     00BC  00A8               	movwf	?___fldiv+2
  6838     00BD  3000               	movlw	0
  6839     00BE  00A7               	movwf	?___fldiv+1
  6840     00BF  3000               	movlw	0
  6841     00C0  00A6               	movwf	?___fldiv
  6842     00C1  2A09               	goto	l951
  6843     00C2                     l3538:
  6844     00C2  083E               	movf	___fldiv@bexp,w
  6845     00C3  00AE               	movwf	??___fldiv
  6846     00C4  01AF               	clrf	??___fldiv+1
  6847     00C5  082F               	movf	??___fldiv+1,w
  6848     00C6  00B1               	movwf	??___fldiv+3
  6849     00C7  083F               	movf	___fldiv@aexp,w
  6850     00C8  022E               	subwf	??___fldiv,w
  6851     00C9  00B0               	movwf	??___fldiv+2
  6852     00CA  1C03               	skipc
  6853     00CB  03B1               	decf	??___fldiv+3,f
  6854     00CC  0830               	movf	??___fldiv+2,w
  6855     00CD  3E7F               	addlw	127
  6856     00CE  00B8               	movwf	___fldiv@new_exp
  6857     00CF  0831               	movf	??___fldiv+3,w
  6858     00D0  1803               	skipnc
  6859     00D1  3E01               	addlw	1
  6860     00D2  3E00               	addlw	0
  6861     00D3  00B9               	movwf	___fldiv@new_exp+1
  6862     00D4                     l3540:
  6863     00D4  082D               	movf	___fldiv@b+3,w
  6864     00D5  00B6               	movwf	___fldiv@rem+3
  6865     00D6  082C               	movf	___fldiv@b+2,w
  6866     00D7  00B5               	movwf	___fldiv@rem+2
  6867     00D8  082B               	movf	___fldiv@b+1,w
  6868     00D9  00B4               	movwf	___fldiv@rem+1
  6869     00DA  082A               	movf	___fldiv@b,w
  6870     00DB  00B3               	movwf	___fldiv@rem
  6871     00DC                     l3542:
  6872     00DC  3000               	movlw	0
  6873     00DD  00AD               	movwf	___fldiv@b+3
  6874     00DE  3000               	movlw	0
  6875     00DF  00AC               	movwf	___fldiv@b+2
  6876     00E0  3000               	movlw	0
  6877     00E1  00AB               	movwf	___fldiv@b+1
  6878     00E2  3000               	movlw	0
  6879     00E3  00AA               	movwf	___fldiv@b
  6880     00E4                     l3544:
  6881     00E4  3000               	movlw	0
  6882     00E5  00BD               	movwf	___fldiv@grs+3
  6883     00E6  3000               	movlw	0
  6884     00E7  00BC               	movwf	___fldiv@grs+2
  6885     00E8  3000               	movlw	0
  6886     00E9  00BB               	movwf	___fldiv@grs+1
  6887     00EA  3000               	movlw	0
  6888     00EB  00BA               	movwf	___fldiv@grs
  6889     00EC                     l3546:
  6890     00EC  01BF               	clrf	___fldiv@aexp
  6891     00ED  2936               	goto	l3566
  6892     00EE                     l3548:
  6893     00EE  083F               	movf	___fldiv@aexp,w
  6894     00EF  1903               	btfsc	3,2
  6895     00F0  28F2               	goto	u4101
  6896     00F1  28F3               	goto	u4100
  6897     00F2                     u4101:
  6898     00F2  2913               	goto	l3558
  6899     00F3                     u4100:
  6900     00F3                     l3550:
  6901     00F3  3001               	movlw	1
  6902     00F4  00AE               	movwf	??___fldiv
  6903     00F5                     u4115:
  6904     00F5  1003               	clrc
  6905     00F6  0DB3               	rlf	___fldiv@rem,f
  6906     00F7  0DB4               	rlf	___fldiv@rem+1,f
  6907     00F8  0DB5               	rlf	___fldiv@rem+2,f
  6908     00F9  0DB6               	rlf	___fldiv@rem+3,f
  6909     00FA  0BAE               	decfsz	??___fldiv,f
  6910     00FB  28F5               	goto	u4115
  6911     00FC  3001               	movlw	1
  6912     00FD  00AE               	movwf	??___fldiv
  6913     00FE                     u4125:
  6914     00FE  1003               	clrc
  6915     00FF  0DAA               	rlf	___fldiv@b,f
  6916     0100  0DAB               	rlf	___fldiv@b+1,f
  6917     0101  0DAC               	rlf	___fldiv@b+2,f
  6918     0102  0DAD               	rlf	___fldiv@b+3,f
  6919     0103  0BAE               	decfsz	??___fldiv,f
  6920     0104  28FE               	goto	u4125
  6921     0105                     l3552:
  6922     0105  1FBD               	btfss	___fldiv@grs+3,7
  6923     0106  2908               	goto	u4131
  6924     0107  2909               	goto	u4130
  6925     0108                     u4131:
  6926     0108  290A               	goto	l3556
  6927     0109                     u4130:
  6928     0109                     l3554:
  6929     0109  142A               	bsf	___fldiv@b,0
  6930     010A                     l3556:
  6931     010A  3001               	movlw	1
  6932     010B  00AE               	movwf	??___fldiv
  6933     010C                     u4145:
  6934     010C  1003               	clrc
  6935     010D  0DBA               	rlf	___fldiv@grs,f
  6936     010E  0DBB               	rlf	___fldiv@grs+1,f
  6937     010F  0DBC               	rlf	___fldiv@grs+2,f
  6938     0110  0DBD               	rlf	___fldiv@grs+3,f
  6939     0111  0BAE               	decfsz	??___fldiv,f
  6940     0112  290C               	goto	u4145
  6941     0113                     l3558:
  6942     0113  0829               	movf	___fldiv@a+3,w
  6943     0114  0236               	subwf	___fldiv@rem+3,w
  6944     0115  1D03               	skipz
  6945     0116  2921               	goto	u4155
  6946     0117  0828               	movf	___fldiv@a+2,w
  6947     0118  0235               	subwf	___fldiv@rem+2,w
  6948     0119  1D03               	skipz
  6949     011A  2921               	goto	u4155
  6950     011B  0827               	movf	___fldiv@a+1,w
  6951     011C  0234               	subwf	___fldiv@rem+1,w
  6952     011D  1D03               	skipz
  6953     011E  2921               	goto	u4155
  6954     011F  0826               	movf	___fldiv@a,w
  6955     0120  0233               	subwf	___fldiv@rem,w
  6956     0121                     u4155:
  6957     0121  1C03               	skipc
  6958     0122  2924               	goto	u4151
  6959     0123  2925               	goto	u4150
  6960     0124                     u4151:
  6961     0124  2934               	goto	l3564
  6962     0125                     u4150:
  6963     0125                     l3560:
  6964     0125  173D               	bsf	___fldiv@grs+3,6
  6965     0126                     l3562:
  6966     0126  0826               	movf	___fldiv@a,w
  6967     0127  02B3               	subwf	___fldiv@rem,f
  6968     0128  0827               	movf	___fldiv@a+1,w
  6969     0129  1C03               	skipc
  6970     012A  0F27               	incfsz	___fldiv@a+1,w
  6971     012B  02B4               	subwf	___fldiv@rem+1,f
  6972     012C  0828               	movf	___fldiv@a+2,w
  6973     012D  1C03               	skipc
  6974     012E  0F28               	incfsz	___fldiv@a+2,w
  6975     012F  02B5               	subwf	___fldiv@rem+2,f
  6976     0130  0829               	movf	___fldiv@a+3,w
  6977     0131  1C03               	skipc
  6978     0132  0F29               	incfsz	___fldiv@a+3,w
  6979     0133  02B6               	subwf	___fldiv@rem+3,f
  6980     0134                     l3564:
  6981     0134  3001               	movlw	1
  6982     0135  07BF               	addwf	___fldiv@aexp,f
  6983     0136                     l3566:
  6984     0136  301A               	movlw	26
  6985     0137  023F               	subwf	___fldiv@aexp,w
  6986     0138  1C03               	skipc
  6987     0139  293B               	goto	u4161
  6988     013A  293C               	goto	u4160
  6989     013B                     u4161:
  6990     013B  28EE               	goto	l3548
  6991     013C                     u4160:
  6992     013C                     l3568:
  6993     013C  0836               	movf	___fldiv@rem+3,w
  6994     013D  0435               	iorwf	___fldiv@rem+2,w
  6995     013E  0434               	iorwf	___fldiv@rem+1,w
  6996     013F  0433               	iorwf	___fldiv@rem,w
  6997     0140  1903               	skipnz
  6998     0141  2943               	goto	u4171
  6999     0142  2944               	goto	u4170
  7000     0143                     u4171:
  7001     0143  2963               	goto	l3582
  7002     0144                     u4170:
  7003     0144                     l3570:
  7004     0144  143A               	bsf	___fldiv@grs,0
  7005     0145  2963               	goto	l3582
  7006     0146                     l3572:
  7007     0146  3001               	movlw	1
  7008     0147  00AE               	movwf	??___fldiv
  7009     0148                     u4185:
  7010     0148  1003               	clrc
  7011     0149  0DAA               	rlf	___fldiv@b,f
  7012     014A  0DAB               	rlf	___fldiv@b+1,f
  7013     014B  0DAC               	rlf	___fldiv@b+2,f
  7014     014C  0DAD               	rlf	___fldiv@b+3,f
  7015     014D  0BAE               	decfsz	??___fldiv,f
  7016     014E  2948               	goto	u4185
  7017     014F                     l3574:
  7018     014F  1FBD               	btfss	___fldiv@grs+3,7
  7019     0150  2952               	goto	u4191
  7020     0151  2953               	goto	u4190
  7021     0152                     u4191:
  7022     0152  2954               	goto	l3578
  7023     0153                     u4190:
  7024     0153                     l3576:
  7025     0153  142A               	bsf	___fldiv@b,0
  7026     0154                     l3578:
  7027     0154  3001               	movlw	1
  7028     0155  00AE               	movwf	??___fldiv
  7029     0156                     u4205:
  7030     0156  1003               	clrc
  7031     0157  0DBA               	rlf	___fldiv@grs,f
  7032     0158  0DBB               	rlf	___fldiv@grs+1,f
  7033     0159  0DBC               	rlf	___fldiv@grs+2,f
  7034     015A  0DBD               	rlf	___fldiv@grs+3,f
  7035     015B  0BAE               	decfsz	??___fldiv,f
  7036     015C  2956               	goto	u4205
  7037     015D                     l3580:
  7038     015D  30FF               	movlw	255
  7039     015E  07B8               	addwf	___fldiv@new_exp,f
  7040     015F  1803               	skipnc
  7041     0160  0AB9               	incf	___fldiv@new_exp+1,f
  7042     0161  30FF               	movlw	255
  7043     0162  07B9               	addwf	___fldiv@new_exp+1,f
  7044     0163                     l3582:
  7045     0163  1FAC               	btfss	___fldiv@b+2,7
  7046     0164  2966               	goto	u4211
  7047     0165  2967               	goto	u4210
  7048     0166                     u4211:
  7049     0166  2946               	goto	l3572
  7050     0167                     u4210:
  7051     0167                     l3584:
  7052     0167  01BF               	clrf	___fldiv@aexp
  7053     0168                     l3586:
  7054     0168  1FBD               	btfss	___fldiv@grs+3,7
  7055     0169  296B               	goto	u4221
  7056     016A  296C               	goto	u4220
  7057     016B                     u4221:
  7058     016B  2988               	goto	l3594
  7059     016C                     u4220:
  7060     016C                     l3588:
  7061     016C  30FF               	movlw	255
  7062     016D  053A               	andwf	___fldiv@grs,w
  7063     016E  00AE               	movwf	??___fldiv
  7064     016F  30FF               	movlw	255
  7065     0170  053B               	andwf	___fldiv@grs+1,w
  7066     0171  00AF               	movwf	??___fldiv+1
  7067     0172  30FF               	movlw	255
  7068     0173  053C               	andwf	___fldiv@grs+2,w
  7069     0174  00B0               	movwf	??___fldiv+2
  7070     0175  307F               	movlw	127
  7071     0176  053D               	andwf	___fldiv@grs+3,w
  7072     0177  00B1               	movwf	??___fldiv+3
  7073     0178  0831               	movf	??___fldiv+3,w
  7074     0179  0430               	iorwf	??___fldiv+2,w
  7075     017A  042F               	iorwf	??___fldiv+1,w
  7076     017B  042E               	iorwf	??___fldiv,w
  7077     017C  1903               	skipnz
  7078     017D  297F               	goto	u4231
  7079     017E  2980               	goto	u4230
  7080     017F                     u4231:
  7081     017F  2983               	goto	l965
  7082     0180                     u4230:
  7083     0180                     l3590:
  7084     0180  3001               	movlw	1
  7085     0181  00BF               	movwf	___fldiv@aexp
  7086     0182  2988               	goto	l3594
  7087     0183                     l965:
  7088     0183  1C2A               	btfss	___fldiv@b,0
  7089     0184  2986               	goto	u4241
  7090     0185  2987               	goto	u4240
  7091     0186                     u4241:
  7092     0186  2988               	goto	l3594
  7093     0187                     u4240:
  7094     0187  2980               	goto	l3590
  7095     0188                     l3594:
  7096     0188  083F               	movf	___fldiv@aexp,w
  7097     0189  1903               	btfsc	3,2
  7098     018A  298C               	goto	u4251
  7099     018B  298D               	goto	u4250
  7100     018C                     u4251:
  7101     018C  29BE               	goto	l3604
  7102     018D                     u4250:
  7103     018D                     l3596:
  7104     018D  3001               	movlw	1
  7105     018E  07AA               	addwf	___fldiv@b,f
  7106     018F  3000               	movlw	0
  7107     0190  1803               	skipnc
  7108     0191  3001               	movlw	1
  7109     0192  07AB               	addwf	___fldiv@b+1,f
  7110     0193  3000               	movlw	0
  7111     0194  1803               	skipnc
  7112     0195  3001               	movlw	1
  7113     0196  07AC               	addwf	___fldiv@b+2,f
  7114     0197  3000               	movlw	0
  7115     0198  1803               	skipnc
  7116     0199  3001               	movlw	1
  7117     019A  07AD               	addwf	___fldiv@b+3,f
  7118     019B                     l3598:
  7119     019B  1C2D               	btfss	___fldiv@b+3,0
  7120     019C  299E               	goto	u4261
  7121     019D  299F               	goto	u4260
  7122     019E                     u4261:
  7123     019E  29BE               	goto	l3604
  7124     019F                     u4260:
  7125     019F                     l3600:
  7126     019F  082A               	movf	___fldiv@b,w
  7127     01A0  00AE               	movwf	??___fldiv
  7128     01A1  082B               	movf	___fldiv@b+1,w
  7129     01A2  00AF               	movwf	??___fldiv+1
  7130     01A3  082C               	movf	___fldiv@b+2,w
  7131     01A4  00B0               	movwf	??___fldiv+2
  7132     01A5  082D               	movf	___fldiv@b+3,w
  7133     01A6  00B1               	movwf	??___fldiv+3
  7134     01A7  3001               	movlw	1
  7135     01A8  00B2               	movwf	??___fldiv+4
  7136     01A9                     u4275:
  7137     01A9  0D31               	rlf	??___fldiv+3,w
  7138     01AA  0CB1               	rrf	??___fldiv+3,f
  7139     01AB  0CB0               	rrf	??___fldiv+2,f
  7140     01AC  0CAF               	rrf	??___fldiv+1,f
  7141     01AD  0CAE               	rrf	??___fldiv,f
  7142     01AE                     u4270:
  7143     01AE  0BB2               	decfsz	??___fldiv+4,f
  7144     01AF  29A9               	goto	u4275
  7145     01B0  0831               	movf	??___fldiv+3,w
  7146     01B1  00AD               	movwf	___fldiv@b+3
  7147     01B2  0830               	movf	??___fldiv+2,w
  7148     01B3  00AC               	movwf	___fldiv@b+2
  7149     01B4  082F               	movf	??___fldiv+1,w
  7150     01B5  00AB               	movwf	___fldiv@b+1
  7151     01B6  082E               	movf	??___fldiv,w
  7152     01B7  00AA               	movwf	___fldiv@b
  7153     01B8                     l3602:
  7154     01B8  3001               	movlw	1
  7155     01B9  07B8               	addwf	___fldiv@new_exp,f
  7156     01BA  1803               	skipnc
  7157     01BB  0AB9               	incf	___fldiv@new_exp+1,f
  7158     01BC  3000               	movlw	0
  7159     01BD  07B9               	addwf	___fldiv@new_exp+1,f
  7160     01BE                     l3604:
  7161     01BE  0839               	movf	___fldiv@new_exp+1,w
  7162     01BF  3A80               	xorlw	128
  7163     01C0  00FF               	movwf	btemp1
  7164     01C1  3080               	movlw	128
  7165     01C2  027F               	subwf	btemp1,w
  7166     01C3  1D03               	skipz
  7167     01C4  29C7               	goto	u4285
  7168     01C5  30FF               	movlw	255
  7169     01C6  0238               	subwf	___fldiv@new_exp,w
  7170     01C7                     u4285:
  7171     01C7  1C03               	skipc
  7172     01C8  29CA               	goto	u4281
  7173     01C9  29CB               	goto	u4280
  7174     01CA                     u4281:
  7175     01CA  29D9               	goto	l3608
  7176     01CB                     u4280:
  7177     01CB                     l3606:
  7178     01CB  30FF               	movlw	255
  7179     01CC  1283               	bcf	3,5	;RP0=0, select bank0
  7180     01CD  1303               	bcf	3,6	;RP1=0, select bank0
  7181     01CE  00B8               	movwf	___fldiv@new_exp
  7182     01CF  3000               	movlw	0
  7183     01D0  00B9               	movwf	___fldiv@new_exp+1
  7184     01D1  3000               	movlw	0
  7185     01D2  00AD               	movwf	___fldiv@b+3
  7186     01D3  3000               	movlw	0
  7187     01D4  00AC               	movwf	___fldiv@b+2
  7188     01D5  3000               	movlw	0
  7189     01D6  00AB               	movwf	___fldiv@b+1
  7190     01D7  3000               	movlw	0
  7191     01D8  00AA               	movwf	___fldiv@b
  7192     01D9                     l3608:
  7193     01D9  1283               	bcf	3,5	;RP0=0, select bank0
  7194     01DA  1303               	bcf	3,6	;RP1=0, select bank0
  7195     01DB  0839               	movf	___fldiv@new_exp+1,w
  7196     01DC  3A80               	xorlw	128
  7197     01DD  00FF               	movwf	btemp1
  7198     01DE  3080               	movlw	128
  7199     01DF  027F               	subwf	btemp1,w
  7200     01E0  1D03               	skipz
  7201     01E1  29E4               	goto	u4295
  7202     01E2  3001               	movlw	1
  7203     01E3  0238               	subwf	___fldiv@new_exp,w
  7204     01E4                     u4295:
  7205     01E4  1803               	skipnc
  7206     01E5  29E7               	goto	u4291
  7207     01E6  29E8               	goto	u4290
  7208     01E7                     u4291:
  7209     01E7  29F5               	goto	l971
  7210     01E8                     u4290:
  7211     01E8                     l3610:
  7212     01E8  1283               	bcf	3,5	;RP0=0, select bank0
  7213     01E9  1303               	bcf	3,6	;RP1=0, select bank0
  7214     01EA  01B8               	clrf	___fldiv@new_exp
  7215     01EB  01B9               	clrf	___fldiv@new_exp+1
  7216     01EC                     l3612:
  7217     01EC  3000               	movlw	0
  7218     01ED  00AD               	movwf	___fldiv@b+3
  7219     01EE  3000               	movlw	0
  7220     01EF  00AC               	movwf	___fldiv@b+2
  7221     01F0  3000               	movlw	0
  7222     01F1  00AB               	movwf	___fldiv@b+1
  7223     01F2  3000               	movlw	0
  7224     01F3  00AA               	movwf	___fldiv@b
  7225     01F4                     l3614:
  7226     01F4  01B7               	clrf	___fldiv@sign
  7227     01F5                     l971:
  7228     01F5  1283               	bcf	3,5	;RP0=0, select bank0
  7229     01F6  1303               	bcf	3,6	;RP1=0, select bank0
  7230     01F7  0838               	movf	___fldiv@new_exp,w
  7231     01F8  00BE               	movwf	___fldiv@bexp
  7232     01F9                     l3616:
  7233     01F9  1C3E               	btfss	___fldiv@bexp,0
  7234     01FA  29FC               	goto	u4301
  7235     01FB  29FD               	goto	u4300
  7236     01FC                     u4301:
  7237     01FC  29FF               	goto	l3620
  7238     01FD                     u4300:
  7239     01FD                     l3618:
  7240     01FD  17AC               	bsf	___fldiv@b+2,7
  7241     01FE  2A01               	goto	l973
  7242     01FF                     l3620:
  7243     01FF  307F               	movlw	127
  7244     0200  05AC               	andwf	___fldiv@b+2,f
  7245     0201                     l973:
  7246     0201  083E               	movf	___fldiv@bexp,w
  7247     0202  00AE               	movwf	??___fldiv
  7248     0203  1003               	clrc
  7249     0204  0C2E               	rrf	??___fldiv,w
  7250     0205  00AD               	movwf	___fldiv@b+3
  7251     0206  0837               	movf	___fldiv@sign,w
  7252     0207  04AD               	iorwf	___fldiv@b+3,f
  7253     0208  28AB               	goto	l3528
  7254     0209                     l951:
  7255     0209  0008               	return
  7256     020A                     __end_of___fldiv:
  7257                           
  7258                           	psect	text39
  7259     06F6                     __ptext39:	
  7260 ;; *************** function _auth_user *****************
  7261 ;; Defined at:
  7262 ;;		line 26 in file "/home/santhoshtk/Desktop/EMERTXE/MC/25014_Car_Black__Box.X/25014_Car_Black_Box.X/auth.c"
  7263 ;; Parameters:    Size  Location     Type
  7264 ;;		None
  7265 ;; Auto vars:     Size  Location     Type
  7266 ;;  i               2    5[BANK0 ] unsigned int 
  7267 ;;  key             1    4[BANK0 ] unsigned char 
  7268 ;; Return value:  Size  Location     Type
  7269 ;;                  1    wreg      void 
  7270 ;; Registers used:
  7271 ;;		wreg, fsr0l, fsr0h, status,2, status,0, pclath, btemp1, cstack
  7272 ;; Tracked objects:
  7273 ;;		On entry : 0/0
  7274 ;;		On exit  : 0/0
  7275 ;;		Unchanged: 0/0
  7276 ;; Data sizes:     COMMON   BANK0   BANK1   BANK3   BANK2
  7277 ;;      Params:         0       0       0       0       0
  7278 ;;      Locals:         0       3       0       0       0
  7279 ;;      Temps:          0       3       0       0       0
  7280 ;;      Totals:         0       6       0       0       0
  7281 ;;Total ram usage:        6 bytes
  7282 ;; Hardware stack levels used: 1
  7283 ;; Hardware stack levels required when called: 3
  7284 ;; This function calls:
  7285 ;;		_clcd_print
  7286 ;;		_clcd_putch
  7287 ;;		_read_digital_keypad
  7288 ;;		_run_delay
  7289 ;; This function is called by:
  7290 ;;		_main
  7291 ;; This function uses a non-reentrant model
  7292 ;;
  7293                           
  7294     06F6                     _auth_user:	
  7295                           ;psect for function _auth_user
  7296                           
  7297     06F6                     l3668:	
  7298                           ;incstack = 0
  7299                           ; Regs used in _auth_user: [wreg-fsr0h+status,2+status,0+pclath+btemp1+cstack]
  7300                           
  7301                           
  7302                           ;/home/santhoshtk/Desktop/EMERTXE/MC/25014_Car_Black__Box.X/25014_Car_Black_Box.X/auth.c
      +                          : 28:     clcd_print(" ENTER PASSWORD ", (0x80 + 0));
  7303     06F6  3078               	movlw	low (STR_1| (0+32768))
  7304     06F7  00F6               	movwf	clcd_print@str
  7305     06F8  3083               	movlw	high (STR_1| (0+32768))
  7306     06F9  00F7               	movwf	clcd_print@str+1
  7307     06FA  3080               	movlw	128
  7308     06FB  00F8               	movwf	clcd_print@addr
  7309     06FC  120A  158A  22F8  120A  118A  	fcall	_clcd_print
  7310     0701                     l3670:
  7311                           
  7312                           ;/home/santhoshtk/Desktop/EMERTXE/MC/25014_Car_Black__Box.X/25014_Car_Black_Box.X/auth.c
      +                          : 29:     if(index == 0) clcd_print("                ", (0xC0 + 0));
  7313     0701  1283               	bcf	3,5	;RP0=0, select bank0
  7314     0702  1303               	bcf	3,6	;RP1=0, select bank0
  7315     0703  085B               	movf	_index,w
  7316     0704  045C               	iorwf	_index+1,w
  7317     0705  1D03               	btfss	3,2
  7318     0706  2F08               	goto	u4451
  7319     0707  2F09               	goto	u4450
  7320     0708                     u4451:
  7321     0708  2F14               	goto	l3674
  7322     0709                     u4450:
  7323     0709                     l3672:
  7324     0709  3056               	movlw	low (STR_2| (0+32768))
  7325     070A  00F6               	movwf	clcd_print@str
  7326     070B  3083               	movlw	high (STR_2| (0+32768))
  7327     070C  00F7               	movwf	clcd_print@str+1
  7328     070D  30C0               	movlw	192
  7329     070E  00F8               	movwf	clcd_print@addr
  7330     070F  120A  158A  22F8  120A  118A  	fcall	_clcd_print
  7331     0714                     l3674:
  7332                           
  7333                           ;/home/santhoshtk/Desktop/EMERTXE/MC/25014_Car_Black__Box.X/25014_Car_Black_Box.X/auth.c
      +                          : 31:     char key = read_digital_keypad(1);
  7334     0714  3001               	movlw	1
  7335     0715  120A  158A  2278  120A  118A  	fcall	_read_digital_keypad
  7336     071A  1283               	bcf	3,5	;RP0=0, select bank0
  7337     071B  1303               	bcf	3,6	;RP1=0, select bank0
  7338     071C  00A4               	movwf	auth_user@key
  7339     071D                     l3676:
  7340                           
  7341                           ;/home/santhoshtk/Desktop/EMERTXE/MC/25014_Car_Black__Box.X/25014_Car_Black_Box.X/auth.c
      +                          : 33:     if(key == 0x3E){
  7342     071D  303E               	movlw	62
  7343     071E  0624               	xorwf	auth_user@key,w
  7344     071F  1D03               	btfss	3,2
  7345     0720  2F22               	goto	u4461
  7346     0721  2F23               	goto	u4460
  7347     0722                     u4461:
  7348     0722  2F39               	goto	l3684
  7349     0723                     u4460:
  7350     0723                     l3678:
  7351                           
  7352                           ;/home/santhoshtk/Desktop/EMERTXE/MC/25014_Car_Black__Box.X/25014_Car_Black_Box.X/auth.c
      +                          : 34:         user_entered_password[index++] = '0';
  7353     0723  085B               	movf	_index,w
  7354     0724  3E4D               	addlw	(low (_user_entered_password| 0))& (0+255)
  7355     0725  0084               	movwf	4
  7356     0726  3030               	movlw	48
  7357     0727  1383               	bcf	3,7	;select IRP bank0
  7358     0728  0080               	movwf	0
  7359     0729                     l3680:
  7360     0729  3001               	movlw	1
  7361     072A  07DB               	addwf	_index,f
  7362     072B  1803               	skipnc
  7363     072C  0ADC               	incf	_index+1,f
  7364     072D  3000               	movlw	0
  7365     072E  07DC               	addwf	_index+1,f
  7366     072F                     l3682:
  7367                           
  7368                           ;/home/santhoshtk/Desktop/EMERTXE/MC/25014_Car_Black__Box.X/25014_Car_Black_Box.X/auth.c
      +                          : 35:         clcd_putch('*', (0xC0 + index));
  7369     072F  085B               	movf	_index,w
  7370     0730  3EC0               	addlw	192
  7371     0731  00F9               	movwf	clcd_putch@addr
  7372     0732  302A               	movlw	42
  7373     0733  120A  158A  2112  120A  118A  	fcall	_clcd_putch
  7374                           
  7375                           ;/home/santhoshtk/Desktop/EMERTXE/MC/25014_Car_Black__Box.X/25014_Car_Black_Box.X/auth.c
      +                          : 36:     }
  7376     0738  2F54               	goto	l3692
  7377     0739                     l3684:
  7378     0739  303D               	movlw	61
  7379     073A  0624               	xorwf	auth_user@key,w
  7380     073B  1D03               	btfss	3,2
  7381     073C  2F3E               	goto	u4471
  7382     073D  2F3F               	goto	u4470
  7383     073E                     u4471:
  7384     073E  2F54               	goto	l3692
  7385     073F                     u4470:
  7386     073F                     l3686:
  7387                           
  7388                           ;/home/santhoshtk/Desktop/EMERTXE/MC/25014_Car_Black__Box.X/25014_Car_Black_Box.X/auth.c
      +                          : 39:         user_entered_password[index++] = '1';
  7389     073F  085B               	movf	_index,w
  7390     0740  3E4D               	addlw	(low (_user_entered_password| 0))& (0+255)
  7391     0741  0084               	movwf	4
  7392     0742  3031               	movlw	49
  7393     0743  1383               	bcf	3,7	;select IRP bank0
  7394     0744  0080               	movwf	0
  7395     0745                     l3688:
  7396     0745  3001               	movlw	1
  7397     0746  07DB               	addwf	_index,f
  7398     0747  1803               	skipnc
  7399     0748  0ADC               	incf	_index+1,f
  7400     0749  3000               	movlw	0
  7401     074A  07DC               	addwf	_index+1,f
  7402     074B                     l3690:
  7403                           
  7404                           ;/home/santhoshtk/Desktop/EMERTXE/MC/25014_Car_Black__Box.X/25014_Car_Black_Box.X/auth.c
      +                          : 40:         clcd_putch('*', (0xC0 + index));
  7405     074B  085B               	movf	_index,w
  7406     074C  3EC0               	addlw	192
  7407     074D  00F9               	movwf	clcd_putch@addr
  7408     074E  302A               	movlw	42
  7409     074F  120A  158A  2112  120A  118A  	fcall	_clcd_putch
  7410     0754                     l3692:
  7411                           
  7412                           ;/home/santhoshtk/Desktop/EMERTXE/MC/25014_Car_Black__Box.X/25014_Car_Black_Box.X/auth.c
      +                          : 45:     if(index == 4){
  7413     0754  3004               	movlw	4
  7414     0755  1283               	bcf	3,5	;RP0=0, select bank0
  7415     0756  1303               	bcf	3,6	;RP1=0, select bank0
  7416     0757  065B               	xorwf	_index,w
  7417     0758  045C               	iorwf	_index+1,w
  7418     0759  1D03               	btfss	3,2
  7419     075A  2F5C               	goto	u4481
  7420     075B  2F5D               	goto	u4480
  7421     075C                     u4481:
  7422     075C  2FBB               	goto	l59
  7423     075D                     u4480:
  7424     075D                     l3694:
  7425                           
  7426                           ;/home/santhoshtk/Desktop/EMERTXE/MC/25014_Car_Black__Box.X/25014_Car_Black_Box.X/auth.c
      +                          : 47:         unsigned int i = 0;
  7427     075D  01A5               	clrf	auth_user@i
  7428     075E  01A6               	clrf	auth_user@i+1
  7429     075F                     l3700:
  7430                           
  7431                           ;/home/santhoshtk/Desktop/EMERTXE/MC/25014_Car_Black__Box.X/25014_Car_Black_Box.X/auth.c
      +                          : 49:             if(user_entered_password[i] != original_password[i]){
  7432     075F  0825               	movf	auth_user@i,w
  7433     0760  3EBA               	addlw	(low (_original_password| 0))& (0+255)
  7434     0761  0084               	movwf	4
  7435     0762  1383               	bcf	3,7	;select IRP bank1
  7436     0763  0800               	movf	0,w
  7437     0764  00A1               	movwf	??_auth_user
  7438     0765  0825               	movf	auth_user@i,w
  7439     0766  3E4D               	addlw	(low (_user_entered_password| 0))& (0+255)
  7440     0767  0084               	movwf	4
  7441     0768  0800               	movf	0,w
  7442     0769  0621               	xorwf	??_auth_user,w
  7443     076A  1903               	skipnz
  7444     076B  2F6D               	goto	u4491
  7445     076C  2F6E               	goto	u4490
  7446     076D                     u4491:
  7447     076D  2F6F               	goto	l3704
  7448     076E                     u4490:
  7449     076E  2F7E               	goto	l3706
  7450     076F                     l3704:
  7451                           
  7452                           ;/home/santhoshtk/Desktop/EMERTXE/MC/25014_Car_Black__Box.X/25014_Car_Black_Box.X/auth.c
      +                          : 52:         }
  7453     076F  3001               	movlw	1
  7454     0770  07A5               	addwf	auth_user@i,f
  7455     0771  1803               	skipnc
  7456     0772  0AA6               	incf	auth_user@i+1,f
  7457     0773  3000               	movlw	0
  7458     0774  07A6               	addwf	auth_user@i+1,f
  7459     0775  3000               	movlw	0
  7460     0776  0226               	subwf	auth_user@i+1,w
  7461     0777  3004               	movlw	4
  7462     0778  1903               	skipnz
  7463     0779  0225               	subwf	auth_user@i,w
  7464     077A  1C03               	skipc
  7465     077B  2F7D               	goto	u4501
  7466     077C  2F7E               	goto	u4500
  7467     077D                     u4501:
  7468     077D  2F5F               	goto	l3700
  7469     077E                     u4500:
  7470     077E                     l3706:
  7471                           
  7472                           ;/home/santhoshtk/Desktop/EMERTXE/MC/25014_Car_Black__Box.X/25014_Car_Black_Box.X/auth.c
      +                          : 55:         if(i == 4){
  7473     077E  3004               	movlw	4
  7474     077F  0625               	xorwf	auth_user@i,w
  7475     0780  0426               	iorwf	auth_user@i+1,w
  7476     0781  1D03               	btfss	3,2
  7477     0782  2F84               	goto	u4511
  7478     0783  2F85               	goto	u4510
  7479     0784                     u4511:
  7480     0784  2FA2               	goto	l3718
  7481     0785                     u4510:
  7482     0785                     l3708:
  7483                           
  7484                           ;/home/santhoshtk/Desktop/EMERTXE/MC/25014_Car_Black__Box.X/25014_Car_Black_Box.X/auth.c
      +                          : 56:             access = 1;
  7485     0785  3001               	movlw	1
  7486     0786  00DD               	movwf	_access
  7487     0787                     l3710:
  7488                           
  7489                           ;/home/santhoshtk/Desktop/EMERTXE/MC/25014_Car_Black__Box.X/25014_Car_Black_Box.X/auth.c
      +                          : 57:             clcd_print("Access Granted.", (0xC0 + 0));
  7490     0787  3099               	movlw	low (STR_3| (0+32768))
  7491     0788  00F6               	movwf	clcd_print@str
  7492     0789  3083               	movlw	high (STR_3| (0+32768))
  7493     078A  00F7               	movwf	clcd_print@str+1
  7494     078B  30C0               	movlw	192
  7495     078C  00F8               	movwf	clcd_print@addr
  7496     078D  120A  158A  22F8  120A  118A  	fcall	_clcd_print
  7497     0792                     l3712:
  7498                           
  7499                           ;/home/santhoshtk/Desktop/EMERTXE/MC/25014_Car_Black__Box.X/25014_Car_Black_Box.X/auth.c
      +                          : 58:             _delay((unsigned long)((500)*(20000000/4000.0)));
  7500     0792  300D               	movlw	13
  7501     0793  1283               	bcf	3,5	;RP0=0, select bank0
  7502     0794  1303               	bcf	3,6	;RP1=0, select bank0
  7503     0795  00A3               	movwf	??_auth_user+2
  7504     0796  30AF               	movlw	175
  7505     0797  00A2               	movwf	??_auth_user+1
  7506     0798  30B5               	movlw	181
  7507     0799  00A1               	movwf	??_auth_user
  7508     079A                     u4957:
  7509     079A  0BA1               	decfsz	??_auth_user,f
  7510     079B  2F9A               	goto	u4957
  7511     079C  0BA2               	decfsz	??_auth_user+1,f
  7512     079D  2F9A               	goto	u4957
  7513     079E  0BA3               	decfsz	??_auth_user+2,f
  7514     079F  2F9A               	goto	u4957
  7515     07A0  2FA1               	nop2
  7516     07A1  2FBB               	goto	l59
  7517     07A2                     l3718:
  7518                           
  7519                           ;/home/santhoshtk/Desktop/EMERTXE/MC/25014_Car_Black__Box.X/25014_Car_Black_Box.X/auth.c
      +                          : 62:             access = 0;
  7520     07A2  01DD               	clrf	_access
  7521     07A3                     l3720:
  7522                           
  7523                           ;/home/santhoshtk/Desktop/EMERTXE/MC/25014_Car_Black__Box.X/25014_Car_Black_Box.X/auth.c
      +                          : 63:             attempt_no++;
  7524     07A3  3001               	movlw	1
  7525     07A4  07D9               	addwf	_attempt_no,f
  7526     07A5  1803               	skipnc
  7527     07A6  0ADA               	incf	_attempt_no+1,f
  7528     07A7  3000               	movlw	0
  7529     07A8  07DA               	addwf	_attempt_no+1,f
  7530     07A9                     l3722:
  7531                           
  7532                           ;/home/santhoshtk/Desktop/EMERTXE/MC/25014_Car_Black__Box.X/25014_Car_Black_Box.X/auth.c
      +                          : 64:             index = 0;
  7533     07A9  01DB               	clrf	_index
  7534     07AA  01DC               	clrf	_index+1
  7535     07AB                     l3724:
  7536                           
  7537                           ;/home/santhoshtk/Desktop/EMERTXE/MC/25014_Car_Black__Box.X/25014_Car_Black_Box.X/auth.c
      +                          : 66:             if(attempt_no == 3){
  7538     07AB  3003               	movlw	3
  7539     07AC  0659               	xorwf	_attempt_no,w
  7540     07AD  045A               	iorwf	_attempt_no+1,w
  7541     07AE  1D03               	btfss	3,2
  7542     07AF  2FB1               	goto	u4521
  7543     07B0  2FB2               	goto	u4520
  7544     07B1                     u4521:
  7545     07B1  2FBB               	goto	l59
  7546     07B2                     u4520:
  7547     07B2                     l3726:
  7548                           
  7549                           ;/home/santhoshtk/Desktop/EMERTXE/MC/25014_Car_Black__Box.X/25014_Car_Black_Box.X/auth.c
      +                          : 67:                 run_delay();
  7550     07B2  120A  158A  24F1  120A  118A  	fcall	_run_delay
  7551     07B7                     l3728:
  7552                           
  7553                           ;/home/santhoshtk/Desktop/EMERTXE/MC/25014_Car_Black__Box.X/25014_Car_Black_Box.X/auth.c
      +                          : 68:                 attempt_no = 0;
  7554     07B7  1283               	bcf	3,5	;RP0=0, select bank0
  7555     07B8  1303               	bcf	3,6	;RP1=0, select bank0
  7556     07B9  01D9               	clrf	_attempt_no
  7557     07BA  01DA               	clrf	_attempt_no+1
  7558     07BB                     l59:
  7559     07BB  0008               	return
  7560     07BC                     __end_of_auth_user:
  7561                           
  7562                           	psect	text40
  7563     0CF1                     __ptext40:	
  7564 ;; *************** function _run_delay *****************
  7565 ;; Defined at:
  7566 ;;		line 77 in file "/home/santhoshtk/Desktop/EMERTXE/MC/25014_Car_Black__Box.X/25014_Car_Black_Box.X/auth.c"
  7567 ;; Parameters:    Size  Location     Type
  7568 ;;		None
  7569 ;; Auto vars:     Size  Location     Type
  7570 ;;		None
  7571 ;; Return value:  Size  Location     Type
  7572 ;;                  1    wreg      void 
  7573 ;; Registers used:
  7574 ;;		wreg, fsr0l, fsr0h, status,2, status,0, pclath, btemp1, cstack
  7575 ;; Tracked objects:
  7576 ;;		On entry : 0/0
  7577 ;;		On exit  : 0/0
  7578 ;;		Unchanged: 0/0
  7579 ;; Data sizes:     COMMON   BANK0   BANK1   BANK3   BANK2
  7580 ;;      Params:         0       0       0       0       0
  7581 ;;      Locals:         0       0       0       0       0
  7582 ;;      Temps:          0       0       0       0       0
  7583 ;;      Totals:         0       0       0       0       0
  7584 ;;Total ram usage:        0 bytes
  7585 ;; Hardware stack levels used: 1
  7586 ;; Hardware stack levels required when called: 2
  7587 ;; This function calls:
  7588 ;;		___lwdiv
  7589 ;;		___lwmod
  7590 ;;		_clcd_print
  7591 ;;		_clcd_putch
  7592 ;;		_init_timer0
  7593 ;; This function is called by:
  7594 ;;		_auth_user
  7595 ;; This function uses a non-reentrant model
  7596 ;;
  7597                           
  7598     0CF1                     _run_delay:	
  7599                           ;psect for function _run_delay
  7600                           
  7601     0CF1                     l3296:	
  7602                           ;incstack = 0
  7603                           ; Regs used in _run_delay: [wreg-fsr0h+status,2+status,0+pclath+btemp1+cstack]
  7604                           
  7605                           
  7606                           ;/home/santhoshtk/Desktop/EMERTXE/MC/25014_Car_Black__Box.X/25014_Car_Black_Box.X/auth.c
      +                          : 79:     init_timer0();
  7607     0CF1  120A  158A  20AA  120A  158A  	fcall	_init_timer0
  7608                           
  7609                           ;/home/santhoshtk/Desktop/EMERTXE/MC/25014_Car_Black__Box.X/25014_Car_Black_Box.X/auth.c
      +                          : 81:     while(delay){
  7610     0CF6  2D3D               	goto	l3304
  7611     0CF7                     l3298:
  7612                           
  7613                           ;/home/santhoshtk/Desktop/EMERTXE/MC/25014_Car_Black__Box.X/25014_Car_Black_Box.X/auth.c
      +                          : 82:         clcd_print(" ENTERING WAIT  ", (0x80 + 0));
  7614     0CF7  3067               	movlw	low (STR_4| (0+32768))
  7615     0CF8  00F6               	movwf	clcd_print@str
  7616     0CF9  3083               	movlw	high (STR_4| (0+32768))
  7617     0CFA  00F7               	movwf	clcd_print@str+1
  7618     0CFB  3080               	movlw	128
  7619     0CFC  00F8               	movwf	clcd_print@addr
  7620     0CFD  120A  158A  22F8  120A  158A  	fcall	_clcd_print
  7621                           
  7622                           ;/home/santhoshtk/Desktop/EMERTXE/MC/25014_Car_Black__Box.X/25014_Car_Black_Box.X/auth.c
      +                          : 83:         clcd_print("Seconds left: ", (0xC0 + 0));
  7623     0D02  3003               	movlw	low (STR_5| (0+32768))
  7624     0D03  00F6               	movwf	clcd_print@str
  7625     0D04  3084               	movlw	high (STR_5| (0+32768))
  7626     0D05  00F7               	movwf	clcd_print@str+1
  7627     0D06  30C0               	movlw	192
  7628     0D07  00F8               	movwf	clcd_print@addr
  7629     0D08  120A  158A  22F8  120A  158A  	fcall	_clcd_print
  7630     0D0D                     l3300:
  7631                           
  7632                           ;/home/santhoshtk/Desktop/EMERTXE/MC/25014_Car_Black__Box.X/25014_Car_Black_Box.X/auth.c
      +                          : 86:         clcd_putch((delay / 10) + '0', (0xC0 + 14));
  7633     0D0D  30CE               	movlw	206
  7634     0D0E  00F9               	movwf	clcd_putch@addr
  7635     0D0F  300A               	movlw	10
  7636     0D10  00F2               	movwf	___lwdiv@divisor
  7637     0D11  3000               	movlw	0
  7638     0D12  00F3               	movwf	___lwdiv@divisor+1
  7639     0D13  1283               	bcf	3,5	;RP0=0, select bank0
  7640     0D14  1303               	bcf	3,6	;RP1=0, select bank0
  7641     0D15  086E               	movf	_delay+1,w
  7642     0D16  00F5               	movwf	___lwdiv@dividend+1
  7643     0D17  086D               	movf	_delay,w
  7644     0D18  00F4               	movwf	___lwdiv@dividend
  7645     0D19  120A  118A  27BC  120A  158A  	fcall	___lwdiv
  7646     0D1E  0872               	movf	?___lwdiv,w
  7647     0D1F  3E30               	addlw	48
  7648     0D20  120A  158A  2112  120A  158A  	fcall	_clcd_putch
  7649     0D25                     l3302:
  7650                           
  7651                           ;/home/santhoshtk/Desktop/EMERTXE/MC/25014_Car_Black__Box.X/25014_Car_Black_Box.X/auth.c
      +                          : 87:         clcd_putch((delay % 10) + '0', (0xC0 + 15));
  7652     0D25  30CF               	movlw	207
  7653     0D26  00F9               	movwf	clcd_putch@addr
  7654     0D27  300A               	movlw	10
  7655     0D28  00F2               	movwf	___lwmod@divisor
  7656     0D29  3000               	movlw	0
  7657     0D2A  00F3               	movwf	___lwmod@divisor+1
  7658     0D2B  1283               	bcf	3,5	;RP0=0, select bank0
  7659     0D2C  1303               	bcf	3,6	;RP1=0, select bank0
  7660     0D2D  086E               	movf	_delay+1,w
  7661     0D2E  00F5               	movwf	___lwmod@dividend+1
  7662     0D2F  086D               	movf	_delay,w
  7663     0D30  00F4               	movwf	___lwmod@dividend
  7664     0D31  120A  118A  22C0  120A  158A  	fcall	___lwmod
  7665     0D36  0872               	movf	?___lwmod,w
  7666     0D37  3E30               	addlw	48
  7667     0D38  120A  158A  2112  120A  158A  	fcall	_clcd_putch
  7668     0D3D                     l3304:
  7669                           
  7670                           ;/home/santhoshtk/Desktop/EMERTXE/MC/25014_Car_Black__Box.X/25014_Car_Black_Box.X/auth.c
      +                          : 81:     while(delay){
  7671     0D3D  1283               	bcf	3,5	;RP0=0, select bank0
  7672     0D3E  1303               	bcf	3,6	;RP1=0, select bank0
  7673     0D3F  086D               	movf	_delay,w
  7674     0D40  046E               	iorwf	_delay+1,w
  7675     0D41  1D03               	btfss	3,2
  7676     0D42  2D44               	goto	u3741
  7677     0D43  2D45               	goto	u3740
  7678     0D44                     u3741:
  7679     0D44  2CF7               	goto	l3298
  7680     0D45                     u3740:
  7681     0D45                     l3306:
  7682                           
  7683                           ;/home/santhoshtk/Desktop/EMERTXE/MC/25014_Car_Black__Box.X/25014_Car_Black_Box.X/auth.c
      +                          : 90:     delay = 30;
  7684     0D45  301E               	movlw	30
  7685     0D46  00ED               	movwf	_delay
  7686     0D47  3000               	movlw	0
  7687     0D48  00EE               	movwf	_delay+1
  7688     0D49                     l67:
  7689     0D49  0008               	return
  7690     0D4A                     __end_of_run_delay:
  7691                           
  7692                           	psect	text41
  7693     08AA                     __ptext41:	
  7694 ;; *************** function _init_timer0 *****************
  7695 ;; Defined at:
  7696 ;;		line 3 in file "/home/santhoshtk/Desktop/EMERTXE/MC/25014_Car_Black__Box.X/25014_Car_Black_Box.X/timers.c"
  7697 ;; Parameters:    Size  Location     Type
  7698 ;;		None
  7699 ;; Auto vars:     Size  Location     Type
  7700 ;;		None
  7701 ;; Return value:  Size  Location     Type
  7702 ;;                  1    wreg      void 
  7703 ;; Registers used:
  7704 ;;		None
  7705 ;; Tracked objects:
  7706 ;;		On entry : 0/0
  7707 ;;		On exit  : 0/0
  7708 ;;		Unchanged: 0/0
  7709 ;; Data sizes:     COMMON   BANK0   BANK1   BANK3   BANK2
  7710 ;;      Params:         0       0       0       0       0
  7711 ;;      Locals:         0       0       0       0       0
  7712 ;;      Temps:          0       0       0       0       0
  7713 ;;      Totals:         0       0       0       0       0
  7714 ;;Total ram usage:        0 bytes
  7715 ;; Hardware stack levels used: 1
  7716 ;; Hardware stack levels required when called: 1
  7717 ;; This function calls:
  7718 ;;		Nothing
  7719 ;; This function is called by:
  7720 ;;		_run_delay
  7721 ;; This function uses a non-reentrant model
  7722 ;;
  7723                           
  7724     08AA                     _init_timer0:	
  7725                           ;psect for function _init_timer0
  7726                           
  7727     08AA                     l3128:	
  7728                           ;incstack = 0
  7729                           ; Regs used in _init_timer0: []
  7730                           
  7731                           
  7732                           ;/home/santhoshtk/Desktop/EMERTXE/MC/25014_Car_Black__Box.X/25014_Car_Black_Box.X/timers
      +                          .c: 6:     T0CS = 0;
  7733     08AA  1683               	bsf	3,5	;RP0=1, select bank1
  7734     08AB  1303               	bcf	3,6	;RP1=0, select bank1
  7735     08AC  1281               	bcf	1,5	;volatile
  7736                           
  7737                           ;/home/santhoshtk/Desktop/EMERTXE/MC/25014_Car_Black__Box.X/25014_Car_Black_Box.X/timers
      +                          .c: 9:     PSA = 1;
  7738     08AD  1581               	bsf	1,3	;volatile
  7739                           
  7740                           ;/home/santhoshtk/Desktop/EMERTXE/MC/25014_Car_Black__Box.X/25014_Car_Black_Box.X/timers
      +                          .c: 11:     TMR0 = 6;
  7741     08AE  3006               	movlw	6
  7742     08AF  1283               	bcf	3,5	;RP0=0, select bank0
  7743     08B0  1303               	bcf	3,6	;RP1=0, select bank0
  7744     08B1  0081               	movwf	1	;volatile
  7745                           
  7746                           ;/home/santhoshtk/Desktop/EMERTXE/MC/25014_Car_Black__Box.X/25014_Car_Black_Box.X/timers
      +                          .c: 14:     TMR0IE = 1;
  7747     08B2  168B               	bsf	11,5	;volatile
  7748     08B3                     l471:
  7749     08B3  0008               	return
  7750     08B4                     __end_of_init_timer0:
  7751                           
  7752                           	psect	text42
  7753     0912                     __ptext42:	
  7754 ;; *************** function _clcd_putch *****************
  7755 ;; Defined at:
  7756 ;;		line 57 in file "/home/santhoshtk/Desktop/EMERTXE/MC/25014_Car_Black__Box.X/25014_Car_Black_Box.X/clcd.c"
  7757 ;; Parameters:    Size  Location     Type
  7758 ;;  data            1    wreg     const unsigned char 
  7759 ;;  addr            1    9[COMMON] unsigned char 
  7760 ;; Auto vars:     Size  Location     Type
  7761 ;;  data            1    0[BANK0 ] const unsigned char 
  7762 ;; Return value:  Size  Location     Type
  7763 ;;                  1    wreg      void 
  7764 ;; Registers used:
  7765 ;;		wreg, status,2, status,0, pclath, cstack
  7766 ;; Tracked objects:
  7767 ;;		On entry : 0/0
  7768 ;;		On exit  : 0/0
  7769 ;;		Unchanged: 0/0
  7770 ;; Data sizes:     COMMON   BANK0   BANK1   BANK3   BANK2
  7771 ;;      Params:         1       0       0       0       0
  7772 ;;      Locals:         0       1       0       0       0
  7773 ;;      Temps:          0       0       0       0       0
  7774 ;;      Totals:         1       1       0       0       0
  7775 ;;Total ram usage:        2 bytes
  7776 ;; Hardware stack levels used: 1
  7777 ;; Hardware stack levels required when called: 1
  7778 ;; This function calls:
  7779 ;;		_clcd_write
  7780 ;; This function is called by:
  7781 ;;		_auth_user
  7782 ;;		_run_delay
  7783 ;;		_set_time
  7784 ;; This function uses a non-reentrant model
  7785 ;;
  7786                           
  7787     0912                     _clcd_putch:	
  7788                           ;psect for function _clcd_putch
  7789                           
  7790                           
  7791                           ;incstack = 0
  7792                           ; Regs used in _clcd_putch: [wreg+status,2+status,0+pclath+cstack]
  7793                           ;clcd_putch@data stored from wreg
  7794     0912  1283               	bcf	3,5	;RP0=0, select bank0
  7795     0913  1303               	bcf	3,6	;RP1=0, select bank0
  7796     0914  00A0               	movwf	clcd_putch@data
  7797     0915                     l3126:
  7798                           
  7799                           ;/home/santhoshtk/Desktop/EMERTXE/MC/25014_Car_Black__Box.X/25014_Car_Black_Box.X/clcd.c
      +                          : 57: void clcd_putch(const char data, unsigned char addr);/home/santhoshtk/Desktop/EMER
      +                          TXE/MC/25014_Car_Black__Box.X/25014_Car_Black_Box.X/clcd.c: 58: {;/home/santhoshtk/Deskt
      +                          op/EMERTXE/MC/25014_Car_Black__Box.X/25014_Car_Black_Box.X/clcd.c: 59:     clcd_write(ad
      +                          dr, 0);
  7800     0915  01F2               	clrf	clcd_write@mode
  7801     0916  0879               	movf	clcd_putch@addr,w
  7802     0917  120A  158A  23ED  120A  158A  	fcall	_clcd_write
  7803                           
  7804                           ;/home/santhoshtk/Desktop/EMERTXE/MC/25014_Car_Black__Box.X/25014_Car_Black_Box.X/clcd.c
      +                          : 60:     clcd_write(data, 1);
  7805     091C  01F2               	clrf	clcd_write@mode
  7806     091D  0AF2               	incf	clcd_write@mode,f
  7807     091E  1283               	bcf	3,5	;RP0=0, select bank0
  7808     091F  1303               	bcf	3,6	;RP1=0, select bank0
  7809     0920  0820               	movf	clcd_putch@data,w
  7810     0921  120A  158A  23ED  120A  158A  	fcall	_clcd_write
  7811     0926                     l93:
  7812     0926  0008               	return
  7813     0927                     __end_of_clcd_putch:
  7814                           
  7815                           	psect	text43
  7816     0AF8                     __ptext43:	
  7817 ;; *************** function _clcd_print *****************
  7818 ;; Defined at:
  7819 ;;		line 63 in file "/home/santhoshtk/Desktop/EMERTXE/MC/25014_Car_Black__Box.X/25014_Car_Black_Box.X/clcd.c"
  7820 ;; Parameters:    Size  Location     Type
  7821 ;;  str             2    6[COMMON] PTR const unsigned char 
  7822 ;;		 -> STR_35(17), STR_34(3), STR_33(3), STR_32(3), 
  7823 ;;		 -> STR_30(15), STR_29(9), STR_28(17), STR_27(17), 
  7824 ;;		 -> STR_26(10), STR_25(8), logs(17), STR_24(3), 
  7825 ;;		 -> STR_23(3), STR_22(3), STR_21(3), STR_20(16), 
  7826 ;;		 -> STR_19(17), speed(3), time(9), STR_18(15), 
  7827 ;;		 -> STR_17(15), STR_16(15), STR_15(15), STR_14(15), 
  7828 ;;		 -> STR_13(3), STR_12(3), STR_11(3), STR_10(3), 
  7829 ;;		 -> STR_9(3), STR_8(3), STR_7(3), STR_6(3), 
  7830 ;;		 -> STR_5(15), STR_4(17), STR_3(16), STR_2(17), 
  7831 ;;		 -> STR_1(17), 
  7832 ;;  addr            1    8[COMMON] unsigned char 
  7833 ;; Auto vars:     Size  Location     Type
  7834 ;;		None
  7835 ;; Return value:  Size  Location     Type
  7836 ;;                  1    wreg      void 
  7837 ;; Registers used:
  7838 ;;		wreg, fsr0l, fsr0h, status,2, status,0, pclath, btemp1, cstack
  7839 ;; Tracked objects:
  7840 ;;		On entry : 0/0
  7841 ;;		On exit  : 0/0
  7842 ;;		Unchanged: 0/0
  7843 ;; Data sizes:     COMMON   BANK0   BANK1   BANK3   BANK2
  7844 ;;      Params:         3       0       0       0       0
  7845 ;;      Locals:         0       0       0       0       0
  7846 ;;      Temps:          0       0       0       0       0
  7847 ;;      Totals:         3       0       0       0       0
  7848 ;;Total ram usage:        3 bytes
  7849 ;; Hardware stack levels used: 1
  7850 ;; Hardware stack levels required when called: 1
  7851 ;; This function calls:
  7852 ;;		_clcd_write
  7853 ;; This function is called by:
  7854 ;;		_auth_user
  7855 ;;		_run_delay
  7856 ;;		_dashboard
  7857 ;;		_print_star
  7858 ;;		_main_menu
  7859 ;;		_view_log
  7860 ;;		_clear_log
  7861 ;;		_download_log
  7862 ;;		_display_time
  7863 ;;		_display_indicator
  7864 ;;		_set_time
  7865 ;; This function uses a non-reentrant model
  7866 ;;
  7867                           
  7868     0AF8                     _clcd_print:	
  7869                           ;psect for function _clcd_print
  7870                           
  7871     0AF8                     l3090:	
  7872                           ;incstack = 0
  7873                           ; Regs used in _clcd_print: [wreg-fsr0h+status,2+status,0+pclath+btemp1+cstack]
  7874                           
  7875                           
  7876                           ;/home/santhoshtk/Desktop/EMERTXE/MC/25014_Car_Black__Box.X/25014_Car_Black_Box.X/clcd.c
      +                          : 63: void clcd_print(const char *str, unsigned char addr);/home/santhoshtk/Desktop/EMER
      +                          TXE/MC/25014_Car_Black__Box.X/25014_Car_Black_Box.X/clcd.c: 64: {;/home/santhoshtk/Deskt
      +                          op/EMERTXE/MC/25014_Car_Black__Box.X/25014_Car_Black_Box.X/clcd.c: 65:     clcd_write(ad
      +                          dr, 0);
  7877     0AF8  01F2               	clrf	clcd_write@mode
  7878     0AF9  0878               	movf	clcd_print@addr,w
  7879     0AFA  120A  158A  23ED  120A  158A  	fcall	_clcd_write
  7880                           
  7881                           ;/home/santhoshtk/Desktop/EMERTXE/MC/25014_Car_Black__Box.X/25014_Car_Black_Box.X/clcd.c
      +                          : 67:     while (*str != '\0')
  7882     0AFF  2B16               	goto	l3096
  7883     0B00                     l3092:
  7884                           
  7885                           ;/home/santhoshtk/Desktop/EMERTXE/MC/25014_Car_Black__Box.X/25014_Car_Black_Box.X/clcd.c
      +                          : 68:     {;/home/santhoshtk/Desktop/EMERTXE/MC/25014_Car_Black__Box.X/25014_Car_Black_B
      +                          ox.X/clcd.c: 69:         clcd_write(*str, 1);
  7886     0B00  01F2               	clrf	clcd_write@mode
  7887     0B01  0AF2               	incf	clcd_write@mode,f
  7888     0B02  0877               	movf	clcd_print@str+1,w
  7889     0B03  00FF               	movwf	btemp1
  7890     0B04  0876               	movf	clcd_print@str,w
  7891     0B05  0084               	movwf	4
  7892     0B06  120A  158A  2000  120A  158A  	fcall	stringtab
  7893     0B0B  120A  158A  23ED  120A  158A  	fcall	_clcd_write
  7894     0B10                     l3094:
  7895                           
  7896                           ;/home/santhoshtk/Desktop/EMERTXE/MC/25014_Car_Black__Box.X/25014_Car_Black_Box.X/clcd.c
      +                          : 70:         str++;
  7897     0B10  3001               	movlw	1
  7898     0B11  07F6               	addwf	clcd_print@str,f
  7899     0B12  1803               	skipnc
  7900     0B13  0AF7               	incf	clcd_print@str+1,f
  7901     0B14  3000               	movlw	0
  7902     0B15  07F7               	addwf	clcd_print@str+1,f
  7903     0B16                     l3096:
  7904                           
  7905                           ;/home/santhoshtk/Desktop/EMERTXE/MC/25014_Car_Black__Box.X/25014_Car_Black_Box.X/clcd.c
      +                          : 67:     while (*str != '\0')
  7906     0B16  0877               	movf	clcd_print@str+1,w
  7907     0B17  1283               	bcf	3,5	;RP0=0, select bank0
  7908     0B18  1303               	bcf	3,6	;RP1=0, select bank0
  7909     0B19  00FF               	movwf	btemp1
  7910     0B1A  0876               	movf	clcd_print@str,w
  7911     0B1B  0084               	movwf	4
  7912     0B1C  120A  158A  2000  120A  158A  	fcall	stringtab
  7913     0B21  3A00               	xorlw	0
  7914     0B22  1D03               	skipz
  7915     0B23  2B25               	goto	u3381
  7916     0B24  2B26               	goto	u3380
  7917     0B25                     u3381:
  7918     0B25  2B00               	goto	l3092
  7919     0B26                     u3380:
  7920     0B26                     l99:
  7921     0B26  0008               	return
  7922     0B27                     __end_of_clcd_print:
  7923                           
  7924                           	psect	text44
  7925     0BED                     __ptext44:	
  7926 ;; *************** function _clcd_write *****************
  7927 ;; Defined at:
  7928 ;;		line 5 in file "/home/santhoshtk/Desktop/EMERTXE/MC/25014_Car_Black__Box.X/25014_Car_Black_Box.X/clcd.c"
  7929 ;; Parameters:    Size  Location     Type
  7930 ;;  byte            1    wreg     unsigned char 
  7931 ;;  mode            1    2[COMMON] unsigned char 
  7932 ;; Auto vars:     Size  Location     Type
  7933 ;;  byte            1    5[COMMON] unsigned char 
  7934 ;; Return value:  Size  Location     Type
  7935 ;;                  1    wreg      void 
  7936 ;; Registers used:
  7937 ;;		wreg, status,2, status,0
  7938 ;; Tracked objects:
  7939 ;;		On entry : 0/0
  7940 ;;		On exit  : 0/0
  7941 ;;		Unchanged: 0/0
  7942 ;; Data sizes:     COMMON   BANK0   BANK1   BANK3   BANK2
  7943 ;;      Params:         1       0       0       0       0
  7944 ;;      Locals:         1       0       0       0       0
  7945 ;;      Temps:          2       0       0       0       0
  7946 ;;      Totals:         4       0       0       0       0
  7947 ;;Total ram usage:        4 bytes
  7948 ;; Hardware stack levels used: 1
  7949 ;; Hardware stack levels required when called: 1
  7950 ;; This function calls:
  7951 ;;		Nothing
  7952 ;; This function is called by:
  7953 ;;		_init_display_controller
  7954 ;;		_clcd_putch
  7955 ;;		_clcd_print
  7956 ;;		_clear_screen
  7957 ;; This function uses a non-reentrant model
  7958 ;;
  7959                           
  7960     0BED                     _clcd_write:	
  7961                           ;psect for function _clcd_write
  7962                           
  7963                           
  7964                           ;incstack = 0
  7965                           ; Regs used in _clcd_write: [wreg+status,2+status,0]
  7966                           ;clcd_write@byte stored from wreg
  7967     0BED  00F5               	movwf	clcd_write@byte
  7968     0BEE                     l3038:
  7969                           
  7970                           ;/home/santhoshtk/Desktop/EMERTXE/MC/25014_Car_Black__Box.X/25014_Car_Black_Box.X/clcd.c
      +                          : 5: static void clcd_write(unsigned char byte, unsigned char mode);/home/santhoshtk/Des
      +                          ktop/EMERTXE/MC/25014_Car_Black__Box.X/25014_Car_Black_Box.X/clcd.c: 6: {;/home/santhosh
      +                          tk/Desktop/EMERTXE/MC/25014_Car_Black__Box.X/25014_Car_Black_Box.X/clcd.c: 7:     RE2 = 
      +                          mode;
  7971     0BEE  1872               	btfsc	clcd_write@mode,0
  7972     0BEF  2BF1               	goto	u3291
  7973     0BF0  2BF5               	goto	u3290
  7974     0BF1                     u3291:
  7975     0BF1  1283               	bcf	3,5	;RP0=0, select bank0
  7976     0BF2  1303               	bcf	3,6	;RP1=0, select bank0
  7977     0BF3  1509               	bsf	9,2	;volatile
  7978     0BF4  2BF8               	goto	u3304
  7979     0BF5                     u3290:
  7980     0BF5  1283               	bcf	3,5	;RP0=0, select bank0
  7981     0BF6  1303               	bcf	3,6	;RP1=0, select bank0
  7982     0BF7  1109               	bcf	9,2	;volatile
  7983     0BF8                     u3304:
  7984     0BF8                     l3040:
  7985                           
  7986                           ;/home/santhoshtk/Desktop/EMERTXE/MC/25014_Car_Black__Box.X/25014_Car_Black_Box.X/clcd.c
      +                          : 9:     PORTD = byte & 0xF0;
  7987     0BF8  0875               	movf	clcd_write@byte,w
  7988     0BF9  39F0               	andlw	240
  7989     0BFA  0088               	movwf	8	;volatile
  7990     0BFB                     l3042:
  7991                           
  7992                           ;/home/santhoshtk/Desktop/EMERTXE/MC/25014_Car_Black__Box.X/25014_Car_Black_Box.X/clcd.c
      +                          : 10:     RE1 = 1;
  7993     0BFB  1489               	bsf	9,1	;volatile
  7994     0BFC                     l3044:
  7995                           
  7996                           ;/home/santhoshtk/Desktop/EMERTXE/MC/25014_Car_Black__Box.X/25014_Car_Black_Box.X/clcd.c
      +                          : 11:     _delay((unsigned long)((100)*(20000000/4000000.0)));
  7997     0BFC  30A6               	movlw	166
  7998     0BFD  00F3               	movwf	??_clcd_write
  7999     0BFE                     u4967:
  8000     0BFE  0BF3               	decfsz	??_clcd_write,f
  8001     0BFF  2BFE               	goto	u4967
  8002     0C00  0000               	nop
  8003     0C01                     l3046:
  8004                           
  8005                           ;/home/santhoshtk/Desktop/EMERTXE/MC/25014_Car_Black__Box.X/25014_Car_Black_Box.X/clcd.c
      +                          : 12:     RE1 = 0;
  8006     0C01  1283               	bcf	3,5	;RP0=0, select bank0
  8007     0C02  1303               	bcf	3,6	;RP1=0, select bank0
  8008     0C03  1089               	bcf	9,1	;volatile
  8009     0C04                     l3048:
  8010                           
  8011                           ;/home/santhoshtk/Desktop/EMERTXE/MC/25014_Car_Black__Box.X/25014_Car_Black_Box.X/clcd.c
      +                          : 14:     PORTD = (byte & 0x0F) << 4;
  8012     0C04  0875               	movf	clcd_write@byte,w
  8013     0C05  390F               	andlw	15
  8014     0C06  00F3               	movwf	??_clcd_write
  8015     0C07  3003               	movlw	3
  8016     0C08                     u3315:
  8017     0C08  1003               	clrc
  8018     0C09  0DF3               	rlf	??_clcd_write,f
  8019     0C0A  3EFF               	addlw	-1
  8020     0C0B  1D03               	skipz
  8021     0C0C  2C08               	goto	u3315
  8022     0C0D  1003               	clrc
  8023     0C0E  0D73               	rlf	??_clcd_write,w
  8024     0C0F  0088               	movwf	8	;volatile
  8025     0C10                     l3050:
  8026                           
  8027                           ;/home/santhoshtk/Desktop/EMERTXE/MC/25014_Car_Black__Box.X/25014_Car_Black_Box.X/clcd.c
      +                          : 15:     RE1 = 1;
  8028     0C10  1489               	bsf	9,1	;volatile
  8029     0C11                     l3052:
  8030                           
  8031                           ;/home/santhoshtk/Desktop/EMERTXE/MC/25014_Car_Black__Box.X/25014_Car_Black_Box.X/clcd.c
      +                          : 16:     _delay((unsigned long)((100)*(20000000/4000000.0)));
  8032     0C11  30A6               	movlw	166
  8033     0C12  00F3               	movwf	??_clcd_write
  8034     0C13                     u4977:
  8035     0C13  0BF3               	decfsz	??_clcd_write,f
  8036     0C14  2C13               	goto	u4977
  8037     0C15  0000               	nop
  8038     0C16                     l3054:
  8039                           
  8040                           ;/home/santhoshtk/Desktop/EMERTXE/MC/25014_Car_Black__Box.X/25014_Car_Black_Box.X/clcd.c
      +                          : 17:     RE1 = 0;
  8041     0C16  1283               	bcf	3,5	;RP0=0, select bank0
  8042     0C17  1303               	bcf	3,6	;RP1=0, select bank0
  8043     0C18  1089               	bcf	9,1	;volatile
  8044     0C19                     l3056:
  8045                           
  8046                           ;/home/santhoshtk/Desktop/EMERTXE/MC/25014_Car_Black__Box.X/25014_Car_Black_Box.X/clcd.c
      +                          : 19:     _delay((unsigned long)((4100)*(20000000/4000000.0)));
  8047     0C19  301B               	movlw	27
  8048     0C1A  00F4               	movwf	??_clcd_write+1
  8049     0C1B  309E               	movlw	158
  8050     0C1C  00F3               	movwf	??_clcd_write
  8051     0C1D                     u4987:
  8052     0C1D  0BF3               	decfsz	??_clcd_write,f
  8053     0C1E  2C1D               	goto	u4987
  8054     0C1F  0BF4               	decfsz	??_clcd_write+1,f
  8055     0C20  2C1D               	goto	u4987
  8056     0C21  0000               	nop
  8057     0C22                     l84:
  8058     0C22  0008               	return
  8059     0C23                     __end_of_clcd_write:
  8060                           
  8061                           	psect	text45
  8062     02C0                     __ptext45:	
  8063 ;; *************** function ___lwmod *****************
  8064 ;; Defined at:
  8065 ;;		line 5 in file "/opt/microchip/xc8/v3.10/pic/sources/c99/common/lwmod.c"
  8066 ;; Parameters:    Size  Location     Type
  8067 ;;  divisor         2    2[COMMON] unsigned int 
  8068 ;;  dividend        2    4[COMMON] unsigned int 
  8069 ;; Auto vars:     Size  Location     Type
  8070 ;;  counter         1    6[COMMON] unsigned char 
  8071 ;; Return value:  Size  Location     Type
  8072 ;;                  2    2[COMMON] unsigned int 
  8073 ;; Registers used:
  8074 ;;		wreg, status,2, status,0
  8075 ;; Tracked objects:
  8076 ;;		On entry : 0/0
  8077 ;;		On exit  : 0/0
  8078 ;;		Unchanged: 0/0
  8079 ;; Data sizes:     COMMON   BANK0   BANK1   BANK3   BANK2
  8080 ;;      Params:         4       0       0       0       0
  8081 ;;      Locals:         1       0       0       0       0
  8082 ;;      Temps:          0       0       0       0       0
  8083 ;;      Totals:         5       0       0       0       0
  8084 ;;Total ram usage:        5 bytes
  8085 ;; Hardware stack levels used: 1
  8086 ;; Hardware stack levels required when called: 1
  8087 ;; This function calls:
  8088 ;;		Nothing
  8089 ;; This function is called by:
  8090 ;;		_run_delay
  8091 ;;		_write_event
  8092 ;;		_dashboard
  8093 ;;		_set_time
  8094 ;; This function uses a non-reentrant model
  8095 ;;
  8096                           
  8097     02C0                     ___lwmod:	
  8098                           ;psect for function ___lwmod
  8099                           
  8100     02C0                     l3264:	
  8101                           ;incstack = 0
  8102                           ; Regs used in ___lwmod: [wreg+status,2+status,0]
  8103                           
  8104     02C0  0872               	movf	___lwmod@divisor,w
  8105     02C1  0473               	iorwf	___lwmod@divisor+1,w
  8106     02C2  1903               	btfsc	3,2
  8107     02C3  2AC5               	goto	u3661
  8108     02C4  2AC6               	goto	u3660
  8109     02C5                     u3661:
  8110     02C5  2AF3               	goto	l3282
  8111     02C6                     u3660:
  8112     02C6                     l3266:
  8113     02C6  3001               	movlw	1
  8114     02C7  00F6               	movwf	___lwmod@counter
  8115     02C8  2AD2               	goto	l3272
  8116     02C9                     l3268:
  8117     02C9  3001               	movlw	1
  8118     02CA                     u3675:
  8119     02CA  1003               	clrc
  8120     02CB  0DF2               	rlf	___lwmod@divisor,f
  8121     02CC  0DF3               	rlf	___lwmod@divisor+1,f
  8122     02CD  3EFF               	addlw	-1
  8123     02CE  1D03               	skipz
  8124     02CF  2ACA               	goto	u3675
  8125     02D0                     l3270:
  8126     02D0  3001               	movlw	1
  8127     02D1  07F6               	addwf	___lwmod@counter,f
  8128     02D2                     l3272:
  8129     02D2  1FF3               	btfss	___lwmod@divisor+1,7
  8130     02D3  2AD5               	goto	u3681
  8131     02D4  2AD6               	goto	u3680
  8132     02D5                     u3681:
  8133     02D5  2AC9               	goto	l3268
  8134     02D6                     u3680:
  8135     02D6                     l3274:
  8136     02D6  0873               	movf	___lwmod@divisor+1,w
  8137     02D7  0275               	subwf	___lwmod@dividend+1,w
  8138     02D8  1D03               	skipz
  8139     02D9  2ADC               	goto	u3695
  8140     02DA  0872               	movf	___lwmod@divisor,w
  8141     02DB  0274               	subwf	___lwmod@dividend,w
  8142     02DC                     u3695:
  8143     02DC  1C03               	skipc
  8144     02DD  2ADF               	goto	u3691
  8145     02DE  2AE0               	goto	u3690
  8146     02DF                     u3691:
  8147     02DF  2AE6               	goto	l3278
  8148     02E0                     u3690:
  8149     02E0                     l3276:
  8150     02E0  0872               	movf	___lwmod@divisor,w
  8151     02E1  02F4               	subwf	___lwmod@dividend,f
  8152     02E2  0873               	movf	___lwmod@divisor+1,w
  8153     02E3  1C03               	skipc
  8154     02E4  03F5               	decf	___lwmod@dividend+1,f
  8155     02E5  02F5               	subwf	___lwmod@dividend+1,f
  8156     02E6                     l3278:
  8157     02E6  3001               	movlw	1
  8158     02E7                     u3705:
  8159     02E7  1003               	clrc
  8160     02E8  0CF3               	rrf	___lwmod@divisor+1,f
  8161     02E9  0CF2               	rrf	___lwmod@divisor,f
  8162     02EA  3EFF               	addlw	-1
  8163     02EB  1D03               	skipz
  8164     02EC  2AE7               	goto	u3705
  8165     02ED                     l3280:
  8166     02ED  3001               	movlw	1
  8167     02EE  02F6               	subwf	___lwmod@counter,f
  8168     02EF  1D03               	btfss	3,2
  8169     02F0  2AF2               	goto	u3711
  8170     02F1  2AF3               	goto	u3710
  8171     02F2                     u3711:
  8172     02F2  2AD6               	goto	l3274
  8173     02F3                     u3710:
  8174     02F3                     l3282:
  8175     02F3  0875               	movf	___lwmod@dividend+1,w
  8176     02F4  00F3               	movwf	?___lwmod+1
  8177     02F5  0874               	movf	___lwmod@dividend,w
  8178     02F6  00F2               	movwf	?___lwmod
  8179     02F7                     l882:
  8180     02F7  0008               	return
  8181     02F8                     __end_of___lwmod:
  8182                           
  8183                           	psect	text46
  8184     07BC                     __ptext46:	
  8185 ;; *************** function ___lwdiv *****************
  8186 ;; Defined at:
  8187 ;;		line 5 in file "/opt/microchip/xc8/v3.10/pic/sources/c99/common/lwdiv.c"
  8188 ;; Parameters:    Size  Location     Type
  8189 ;;  divisor         2    2[COMMON] unsigned int 
  8190 ;;  dividend        2    4[COMMON] unsigned int 
  8191 ;; Auto vars:     Size  Location     Type
  8192 ;;  quotient        2    7[COMMON] unsigned int 
  8193 ;;  counter         1    6[COMMON] unsigned char 
  8194 ;; Return value:  Size  Location     Type
  8195 ;;                  2    2[COMMON] unsigned int 
  8196 ;; Registers used:
  8197 ;;		wreg, status,2, status,0
  8198 ;; Tracked objects:
  8199 ;;		On entry : 0/0
  8200 ;;		On exit  : 0/0
  8201 ;;		Unchanged: 0/0
  8202 ;; Data sizes:     COMMON   BANK0   BANK1   BANK3   BANK2
  8203 ;;      Params:         4       0       0       0       0
  8204 ;;      Locals:         3       0       0       0       0
  8205 ;;      Temps:          0       0       0       0       0
  8206 ;;      Totals:         7       0       0       0       0
  8207 ;;Total ram usage:        7 bytes
  8208 ;; Hardware stack levels used: 1
  8209 ;; Hardware stack levels required when called: 1
  8210 ;; This function calls:
  8211 ;;		Nothing
  8212 ;; This function is called by:
  8213 ;;		_run_delay
  8214 ;;		_dashboard
  8215 ;;		_set_time
  8216 ;; This function uses a non-reentrant model
  8217 ;;
  8218                           
  8219     07BC                     ___lwdiv:	
  8220                           ;psect for function ___lwdiv
  8221                           
  8222     07BC                     l3238:	
  8223                           ;incstack = 0
  8224                           ; Regs used in ___lwdiv: [wreg+status,2+status,0]
  8225                           
  8226     07BC  01F7               	clrf	___lwdiv@quotient
  8227     07BD  01F8               	clrf	___lwdiv@quotient+1
  8228     07BE                     l3240:
  8229     07BE  0872               	movf	___lwdiv@divisor,w
  8230     07BF  0473               	iorwf	___lwdiv@divisor+1,w
  8231     07C0  1903               	btfsc	3,2
  8232     07C1  2FC3               	goto	u3591
  8233     07C2  2FC4               	goto	u3590
  8234     07C3                     u3591:
  8235     07C3  2FF9               	goto	l3260
  8236     07C4                     u3590:
  8237     07C4                     l3242:
  8238     07C4  3001               	movlw	1
  8239     07C5  00F6               	movwf	___lwdiv@counter
  8240     07C6  2FD0               	goto	l3248
  8241     07C7                     l3244:
  8242     07C7  3001               	movlw	1
  8243     07C8                     u3605:
  8244     07C8  1003               	clrc
  8245     07C9  0DF2               	rlf	___lwdiv@divisor,f
  8246     07CA  0DF3               	rlf	___lwdiv@divisor+1,f
  8247     07CB  3EFF               	addlw	-1
  8248     07CC  1D03               	skipz
  8249     07CD  2FC8               	goto	u3605
  8250     07CE                     l3246:
  8251     07CE  3001               	movlw	1
  8252     07CF  07F6               	addwf	___lwdiv@counter,f
  8253     07D0                     l3248:
  8254     07D0  1FF3               	btfss	___lwdiv@divisor+1,7
  8255     07D1  2FD3               	goto	u3611
  8256     07D2  2FD4               	goto	u3610
  8257     07D3                     u3611:
  8258     07D3  2FC7               	goto	l3244
  8259     07D4                     u3610:
  8260     07D4                     l3250:
  8261     07D4  3001               	movlw	1
  8262     07D5                     u3625:
  8263     07D5  1003               	clrc
  8264     07D6  0DF7               	rlf	___lwdiv@quotient,f
  8265     07D7  0DF8               	rlf	___lwdiv@quotient+1,f
  8266     07D8  3EFF               	addlw	-1
  8267     07D9  1D03               	skipz
  8268     07DA  2FD5               	goto	u3625
  8269     07DB  0873               	movf	___lwdiv@divisor+1,w
  8270     07DC  0275               	subwf	___lwdiv@dividend+1,w
  8271     07DD  1D03               	skipz
  8272     07DE  2FE1               	goto	u3635
  8273     07DF  0872               	movf	___lwdiv@divisor,w
  8274     07E0  0274               	subwf	___lwdiv@dividend,w
  8275     07E1                     u3635:
  8276     07E1  1C03               	skipc
  8277     07E2  2FE4               	goto	u3631
  8278     07E3  2FE5               	goto	u3630
  8279     07E4                     u3631:
  8280     07E4  2FEC               	goto	l3256
  8281     07E5                     u3630:
  8282     07E5                     l3252:
  8283     07E5  0872               	movf	___lwdiv@divisor,w
  8284     07E6  02F4               	subwf	___lwdiv@dividend,f
  8285     07E7  0873               	movf	___lwdiv@divisor+1,w
  8286     07E8  1C03               	skipc
  8287     07E9  03F5               	decf	___lwdiv@dividend+1,f
  8288     07EA  02F5               	subwf	___lwdiv@dividend+1,f
  8289     07EB                     l3254:
  8290     07EB  1477               	bsf	___lwdiv@quotient,0
  8291     07EC                     l3256:
  8292     07EC  3001               	movlw	1
  8293     07ED                     u3645:
  8294     07ED  1003               	clrc
  8295     07EE  0CF3               	rrf	___lwdiv@divisor+1,f
  8296     07EF  0CF2               	rrf	___lwdiv@divisor,f
  8297     07F0  3EFF               	addlw	-1
  8298     07F1  1D03               	skipz
  8299     07F2  2FED               	goto	u3645
  8300     07F3                     l3258:
  8301     07F3  3001               	movlw	1
  8302     07F4  02F6               	subwf	___lwdiv@counter,f
  8303     07F5  1D03               	btfss	3,2
  8304     07F6  2FF8               	goto	u3651
  8305     07F7  2FF9               	goto	u3650
  8306     07F8                     u3651:
  8307     07F8  2FD4               	goto	l3250
  8308     07F9                     u3650:
  8309     07F9                     l3260:
  8310     07F9  0878               	movf	___lwdiv@quotient+1,w
  8311     07FA  00F3               	movwf	?___lwdiv+1
  8312     07FB  0877               	movf	___lwdiv@quotient,w
  8313     07FC  00F2               	movwf	?___lwdiv
  8314     07FD                     l872:
  8315     07FD  0008               	return
  8316     07FE                     __end_of___lwdiv:
  8317                           
  8318                           	psect	text47
  8319     0A78                     __ptext47:	
  8320 ;; *************** function _read_digital_keypad *****************
  8321 ;; Defined at:
  8322 ;;		line 10 in file "/home/santhoshtk/Desktop/EMERTXE/MC/25014_Car_Black__Box.X/25014_Car_Black_Box.X/digital_keypad.c"
  8323 ;; Parameters:    Size  Location     Type
  8324 ;;  mode            1    wreg     unsigned char 
  8325 ;; Auto vars:     Size  Location     Type
  8326 ;;  mode            1    3[COMMON] unsigned char 
  8327 ;; Return value:  Size  Location     Type
  8328 ;;                  1    wreg      unsigned char 
  8329 ;; Registers used:
  8330 ;;		wreg, status,2, status,0
  8331 ;; Tracked objects:
  8332 ;;		On entry : 0/0
  8333 ;;		On exit  : 0/0
  8334 ;;		Unchanged: 0/0
  8335 ;; Data sizes:     COMMON   BANK0   BANK1   BANK3   BANK2
  8336 ;;      Params:         0       0       0       0       0
  8337 ;;      Locals:         1       0       0       0       0
  8338 ;;      Temps:          1       0       0       0       0
  8339 ;;      Totals:         2       0       0       0       0
  8340 ;;Total ram usage:        2 bytes
  8341 ;; Hardware stack levels used: 1
  8342 ;; Hardware stack levels required when called: 1
  8343 ;; This function calls:
  8344 ;;		Nothing
  8345 ;; This function is called by:
  8346 ;;		_auth_user
  8347 ;;		_main_menu
  8348 ;;		_view_log
  8349 ;;		_main
  8350 ;;		_set_time
  8351 ;; This function uses a non-reentrant model
  8352 ;;
  8353                           
  8354     0A78                     _read_digital_keypad:	
  8355                           ;psect for function _read_digital_keypad
  8356                           
  8357                           
  8358                           ;incstack = 0
  8359                           ; Regs used in _read_digital_keypad: [wreg+status,2+status,0]
  8360                           ;read_digital_keypad@mode stored from wreg
  8361     0A78  00F3               	movwf	read_digital_keypad@mode
  8362     0A79                     l3098:
  8363                           
  8364                           ;/home/santhoshtk/Desktop/EMERTXE/MC/25014_Car_Black__Box.X/25014_Car_Black_Box.X/digita
      +                          l_keypad.c: 10: unsigned char read_digital_keypad(unsigned char mode);/home/santhoshtk/D
      +                          esktop/EMERTXE/MC/25014_Car_Black__Box.X/25014_Car_Black_Box.X/digital_keypad.c: 11: {;/
      +                          home/santhoshtk/Desktop/EMERTXE/MC/25014_Car_Black__Box.X/25014_Car_Black_Box.X/digital_
      +                          keypad.c: 12:     static unsigned char once = 1;;/home/santhoshtk/Desktop/EMERTXE/MC/250
      +                          14_Car_Black__Box.X/25014_Car_Black_Box.X/digital_keypad.c: 14:     if (mode == 0)
  8365     0A79  0873               	movf	read_digital_keypad@mode,w
  8366     0A7A  1D03               	btfss	3,2
  8367     0A7B  2A7D               	goto	u3391
  8368     0A7C  2A7E               	goto	u3390
  8369     0A7D                     u3391:
  8370     0A7D  2A83               	goto	l3106
  8371     0A7E                     u3390:
  8372     0A7E                     l3100:
  8373                           
  8374                           ;/home/santhoshtk/Desktop/EMERTXE/MC/25014_Car_Black__Box.X/25014_Car_Black_Box.X/digita
      +                          l_keypad.c: 15:     {;/home/santhoshtk/Desktop/EMERTXE/MC/25014_Car_Black__Box.X/25014_C
      +                          ar_Black_Box.X/digital_keypad.c: 16:         return PORTB & 0x3F;
  8375     0A7E  1283               	bcf	3,5	;RP0=0, select bank0
  8376     0A7F  1303               	bcf	3,6	;RP1=0, select bank0
  8377     0A80  0806               	movf	6,w	;volatile
  8378     0A81  393F               	andlw	63
  8379     0A82  2AA1               	goto	l294
  8380     0A83                     l3106:
  8381                           
  8382                           ;/home/santhoshtk/Desktop/EMERTXE/MC/25014_Car_Black__Box.X/25014_Car_Black_Box.X/digita
      +                          l_keypad.c: 19:     {;/home/santhoshtk/Desktop/EMERTXE/MC/25014_Car_Black__Box.X/25014_C
      +                          ar_Black_Box.X/digital_keypad.c: 20:         if (((PORTB & 0x3F) != 0x3F) && once)
  8383     0A83  303F               	movlw	63
  8384     0A84  1283               	bcf	3,5	;RP0=0, select bank0
  8385     0A85  1303               	bcf	3,6	;RP1=0, select bank0
  8386     0A86  0506               	andwf	6,w	;volatile
  8387     0A87  00F2               	movwf	??_read_digital_keypad
  8388     0A88  303F               	movlw	63
  8389     0A89  0672               	xorwf	??_read_digital_keypad,w
  8390     0A8A  1903               	btfsc	3,2
  8391     0A8B  2A8D               	goto	u3401
  8392     0A8C  2A8E               	goto	u3400
  8393     0A8D                     u3401:
  8394     0A8D  2A95               	goto	l3118
  8395     0A8E                     u3400:
  8396     0A8E                     l3108:
  8397     0A8E  086F               	movf	read_digital_keypad@once,w
  8398     0A8F  1903               	btfsc	3,2
  8399     0A90  2A92               	goto	u3411
  8400     0A91  2A93               	goto	u3410
  8401     0A92                     u3411:
  8402     0A92  2A95               	goto	l3118
  8403     0A93                     u3410:
  8404     0A93                     l3110:
  8405                           
  8406                           ;/home/santhoshtk/Desktop/EMERTXE/MC/25014_Car_Black__Box.X/25014_Car_Black_Box.X/digita
      +                          l_keypad.c: 21:         {;/home/santhoshtk/Desktop/EMERTXE/MC/25014_Car_Black__Box.X/250
      +                          14_Car_Black_Box.X/digital_keypad.c: 22:             once = 0;
  8407     0A93  01EF               	clrf	read_digital_keypad@once
  8408     0A94  2A7E               	goto	l3100
  8409     0A95                     l3118:
  8410     0A95  303F               	movlw	63
  8411     0A96  0506               	andwf	6,w	;volatile
  8412     0A97  00F2               	movwf	??_read_digital_keypad
  8413     0A98  303F               	movlw	63
  8414     0A99  0672               	xorwf	??_read_digital_keypad,w
  8415     0A9A  1D03               	btfss	3,2
  8416     0A9B  2A9D               	goto	u3421
  8417     0A9C  2A9E               	goto	u3420
  8418     0A9D                     u3421:
  8419     0A9D  2AA0               	goto	l3122
  8420     0A9E                     u3420:
  8421     0A9E                     l3120:
  8422                           
  8423                           ;/home/santhoshtk/Desktop/EMERTXE/MC/25014_Car_Black__Box.X/25014_Car_Black_Box.X/digita
      +                          l_keypad.c: 27:         {;/home/santhoshtk/Desktop/EMERTXE/MC/25014_Car_Black__Box.X/250
      +                          14_Car_Black_Box.X/digital_keypad.c: 28:             once = 1;
  8424     0A9E  3001               	movlw	1
  8425     0A9F  00EF               	movwf	read_digital_keypad@once
  8426     0AA0                     l3122:
  8427                           
  8428                           ;/home/santhoshtk/Desktop/EMERTXE/MC/25014_Car_Black__Box.X/25014_Car_Black_Box.X/digita
      +                          l_keypad.c: 32:     return 0x3F;
  8429     0AA0  303F               	movlw	63
  8430     0AA1                     l294:
  8431     0AA1  0008               	return
  8432     0AA2                     __end_of_read_digital_keypad:
  8433                           
  8434                           	psect	text48
  8435     0A50                     __ptext48:	
  8436 ;; *************** function _isr *****************
  8437 ;; Defined at:
  8438 ;;		line 7 in file "/home/santhoshtk/Desktop/EMERTXE/MC/25014_Car_Black__Box.X/25014_Car_Black_Box.X/isr.c"
  8439 ;; Parameters:    Size  Location     Type
  8440 ;;		None
  8441 ;; Auto vars:     Size  Location     Type
  8442 ;;		None
  8443 ;; Return value:  Size  Location     Type
  8444 ;;                  1    wreg      void 
  8445 ;; Registers used:
  8446 ;;		wreg, status,2, status,0
  8447 ;; Tracked objects:
  8448 ;;		On entry : 0/0
  8449 ;;		On exit  : 0/0
  8450 ;;		Unchanged: 0/0
  8451 ;; Data sizes:     COMMON   BANK0   BANK1   BANK3   BANK2
  8452 ;;      Params:         0       0       0       0       0
  8453 ;;      Locals:         0       0       0       0       0
  8454 ;;      Temps:          2       0       0       0       0
  8455 ;;      Totals:         2       0       0       0       0
  8456 ;;Total ram usage:        2 bytes
  8457 ;; Hardware stack levels used: 1
  8458 ;; This function calls:
  8459 ;;		Nothing
  8460 ;; This function is called by:
  8461 ;;		Interrupt level 1
  8462 ;; This function uses a non-reentrant model
  8463 ;;
  8464                           
  8465     0A50                     _isr:	
  8466                           ;psect for function _isr
  8467                           
  8468     0A50                     i1l2958:
  8469                           
  8470                           ;/home/santhoshtk/Desktop/EMERTXE/MC/25014_Car_Black__Box.X/25014_Car_Black_Box.X/isr.c:
      +                           9:     static unsigned int count = 0;;/home/santhoshtk/Desktop/EMERTXE/MC/25014_Car_Bla
      +                          ck__Box.X/25014_Car_Black_Box.X/isr.c: 11:     if (TMR0IF == 1)
  8471     0A50  1D0B               	btfss	11,2	;volatile
  8472     0A51  2A53               	goto	u320_21
  8473     0A52  2A54               	goto	u320_20
  8474     0A53                     u320_21:
  8475     0A53  2A71               	goto	i1l417
  8476     0A54                     u320_20:
  8477     0A54                     i1l2960:
  8478                           
  8479                           ;/home/santhoshtk/Desktop/EMERTXE/MC/25014_Car_Black__Box.X/25014_Car_Black_Box.X/isr.c:
      +                           12:     {;/home/santhoshtk/Desktop/EMERTXE/MC/25014_Car_Black__Box.X/25014_Car_Black_Bo
      +                          x.X/isr.c: 14:         TMR0 = TMR0 + 6 + 2;
  8480     0A54  1283               	bcf	3,5	;RP0=0, select bank0
  8481     0A55  1303               	bcf	3,6	;RP1=0, select bank0
  8482     0A56  0801               	movf	1,w	;volatile
  8483     0A57  3E08               	addlw	8
  8484     0A58  0081               	movwf	1	;volatile
  8485                           
  8486                           ;/home/santhoshtk/Desktop/EMERTXE/MC/25014_Car_Black__Box.X/25014_Car_Black_Box.X/isr.c:
      +                           16:         if (++count == 20000)
  8487     0A59  3001               	movlw	1
  8488     0A5A  07D1               	addwf	isr@count,f
  8489     0A5B  1803               	skipnc
  8490     0A5C  0AD2               	incf	isr@count+1,f
  8491     0A5D  3000               	movlw	0
  8492     0A5E  07D2               	addwf	isr@count+1,f
  8493     0A5F  3020               	movlw	32
  8494     0A60  0651               	xorwf	isr@count,w
  8495     0A61  304E               	movlw	78
  8496     0A62  1903               	skipnz
  8497     0A63  0652               	xorwf	isr@count+1,w
  8498     0A64  1D03               	btfss	3,2
  8499     0A65  2A67               	goto	u321_21
  8500     0A66  2A68               	goto	u321_20
  8501     0A67                     u321_21:
  8502     0A67  2A70               	goto	i1l2966
  8503     0A68                     u321_20:
  8504     0A68                     i1l2962:
  8505                           
  8506                           ;/home/santhoshtk/Desktop/EMERTXE/MC/25014_Car_Black__Box.X/25014_Car_Black_Box.X/isr.c:
      +                           17:         {;/home/santhoshtk/Desktop/EMERTXE/MC/25014_Car_Black__Box.X/25014_Car_Blac
      +                          k_Box.X/isr.c: 18:             count = 0;
  8507     0A68  01D1               	clrf	isr@count
  8508     0A69  01D2               	clrf	isr@count+1
  8509     0A6A                     i1l2964:
  8510                           
  8511                           ;/home/santhoshtk/Desktop/EMERTXE/MC/25014_Car_Black__Box.X/25014_Car_Black_Box.X/isr.c:
      +                           20:             delay--;
  8512     0A6A  3001               	movlw	1
  8513     0A6B  02ED               	subwf	_delay,f
  8514     0A6C  3000               	movlw	0
  8515     0A6D  1C03               	skipc
  8516     0A6E  03EE               	decf	_delay+1,f
  8517     0A6F  02EE               	subwf	_delay+1,f
  8518     0A70                     i1l2966:
  8519                           
  8520                           ;/home/santhoshtk/Desktop/EMERTXE/MC/25014_Car_Black__Box.X/25014_Car_Black_Box.X/isr.c:
      +                           23:         TMR0IF = 0;
  8521     0A70  110B               	bcf	11,2	;volatile
  8522     0A71                     i1l417:
  8523     0A71  0871               	movf	??_isr+1,w
  8524     0A72  008A               	movwf	10
  8525     0A73  0E70               	swapf	??_isr,w
  8526     0A74  0083               	movwf	3
  8527     0A75  0EFE               	swapf	btemp,f
  8528     0A76  0E7E               	swapf	btemp,w
  8529     0A77  0009               	retfie
  8530     0A78                     __end_of_isr:
  8531     0002                     ___latbits      equ	2
  8532     007E                     btemp           set	126	;btemp
  8533     007E                     btemp0          set	126
  8534     007F                     btemp1          set	127
  8535     007E                     wtemp0          set	126
  8536     007F                     wtemp0a         set	127
  8537     007F                     ttemp0a         set	127
  8538     0080                     ltemp0a         set	128
  8539                           
  8540                           	psect	intentry
  8541     0004                     __pintentry:	
  8542                           ;incstack = 0
  8543 ;; hardware stack exceeded
  8544                           ; Regs used in _isr: [wreg+status,2+status,0]
  8545                           
  8546     0004                     interrupt_function:
  8547     007E                     saved_w         set	btemp
  8548     0004  00FE               	movwf	btemp
  8549     0005  0E03               	swapf	3,w
  8550     0006  00F0               	movwf	??_isr
  8551     0007  080A               	movf	10,w
  8552     0008  00F1               	movwf	??_isr+1
  8553     0009  120A  158A  2A50   	ljmp	_isr
  8554                           
  8555                           	psect	idloc
  8556                           
  8557                           ;Config register IDLOC0 @ 0x2000
  8558                           ;	unspecified, using default values
  8559     2000                     	org	8192
  8560     2000  3FFF               	dw	16383
  8561                           
  8562                           ;Config register IDLOC1 @ 0x2001
  8563                           ;	unspecified, using default values
  8564     2001                     	org	8193
  8565     2001  3FFF               	dw	16383
  8566                           
  8567                           ;Config register IDLOC2 @ 0x2002
  8568                           ;	unspecified, using default values
  8569     2002                     	org	8194
  8570     2002  3FFF               	dw	16383
  8571                           
  8572                           ;Config register IDLOC3 @ 0x2003
  8573                           ;	unspecified, using default values
  8574     2003                     	org	8195
  8575     2003  3FFF               	dw	16383
  8576                           
  8577                           	psect	config
  8578                           
  8579                           ;Config register CONFIG @ 0x2007
  8580                           ;	Oscillator Selection bits
  8581                           ;	FOSC = 0x3, unprogrammed default
  8582                           ;	Watchdog Timer Enable bit
  8583                           ;	WDTE = OFF, WDT disabled
  8584                           ;	Power-up Timer Enable bit
  8585                           ;	PWRTE = 0x1, unprogrammed default
  8586                           ;	Brown-out Reset Enable bit
  8587                           ;	BOREN = 0x1, unprogrammed default
  8588                           ;	Low-Voltage (Single-Supply) In-Circuit Serial Programming Enable bit
  8589                           ;	LVP = 0x1, unprogrammed default
  8590                           ;	Data EEPROM Memory Code Protection bit
  8591                           ;	CPD = 0x1, unprogrammed default
  8592                           ;	Flash Program Memory Write Enable bits
  8593                           ;	WRT = 0x3, unprogrammed default
  8594                           ;	In-Circuit Debugger Mode bit
  8595                           ;	DEBUG = 0x1, unprogrammed default
  8596                           ;	Flash Program Memory Code Protection bit
  8597                           ;	CP = 0x1, unprogrammed default
  8598     2007                     	org	8199
  8599     2007  3FFB               	dw	16379

Data Sizes:
    Strings     328
    Constant    0
    Data        33
    BSS         62
    Persistent  0
    Stack       0

Auto Spaces:
    Space          Size  Autos    Used
    COMMON           14     10      12
    BANK0            80     45      80
    BANK1            80      2      60
    BANK3            96      0       0
    BANK2            96      0       0

Pointer List with Targets:

    clcd_print@str	PTR const unsigned char  size(2) Largest target is 17
		 -> logs(BANK1[17]), speed(BANK0[3]), STR_1(CODE[17]), STR_10(CODE[3]), 
		 -> STR_11(CODE[3]), STR_12(CODE[3]), STR_13(CODE[3]), STR_14(CODE[15]), 
		 -> STR_15(CODE[15]), STR_16(CODE[15]), STR_17(CODE[15]), STR_18(CODE[15]), 
		 -> STR_19(CODE[17]), STR_2(CODE[17]), STR_20(CODE[16]), STR_21(CODE[3]), 
		 -> STR_22(CODE[3]), STR_23(CODE[3]), STR_24(CODE[3]), STR_25(CODE[8]), 
		 -> STR_26(CODE[10]), STR_27(CODE[17]), STR_28(CODE[17]), STR_29(CODE[9]), 
		 -> STR_3(CODE[16]), STR_30(CODE[15]), STR_32(CODE[3]), STR_33(CODE[3]), 
		 -> STR_34(CODE[3]), STR_35(CODE[17]), STR_4(CODE[17]), STR_5(CODE[15]), 
		 -> STR_6(CODE[3]), STR_7(CODE[3]), STR_8(CODE[3]), STR_9(CODE[3]), 
		 -> time(BANK0[9]), 

    display_time@clock_reg	PTR unsigned char  size(1) Largest target is 3
		 -> clock_reg(BANK0[3]), 

    event	PTR const unsigned char [8] size(2) Largest target is 3
		 -> STR_10(CODE[3]), STR_11(CODE[3]), STR_12(CODE[3]), STR_13(CODE[3]), 
		 -> STR_6(CODE[3]), STR_7(CODE[3]), STR_8(CODE[3]), STR_9(CODE[3]), 

    get_time@clock_reg	PTR unsigned char  size(1) Largest target is 3
		 -> clock_reg(BANK0[3]), 

    menu_options	PTR const unsigned char [5] size(2) Largest target is 15
		 -> STR_14(CODE[15]), STR_15(CODE[15]), STR_16(CODE[15]), STR_17(CODE[15]), 
		 -> STR_18(CODE[15]), 

    put_s@s	PTR const unsigned char  size(2) Largest target is 18
		 -> logs(BANK1[17]), STR_31(CODE[18]), 

    read_and_format_log@log	PTR unsigned char  size(1) Largest target is 11
		 -> read_event@event(BANK1[11]), 

    sp__read_event	PTR unsigned char  size(1) Largest target is 11
		 -> read_event@event(BANK1[11]), 


Critical Paths under _main in COMMON

    _print_star->_clcd_print
    _read_and_format_log->_read_event
    _read_event->___wmul
    _read_external_eeprom->_i2c_read
    _put_s->_put_char
    _clear_screen->_clcd_write
    _clear_log->_clcd_print
    _init_uart->___lldiv
    _init_i2c->___lldiv
    _init_ds1307->_read_ds1307
    _write_ds1307->_i2c_write
    _init_clcd->_init_display_controller
    _init_display_controller->_clcd_write
    _dashboard->___xxtofl
    _dashboard->_display_time
    _write_event->___lwmod
    _write_event->_write_external_eeprom
    _write_external_eeprom->_i2c_write
    _get_time->_read_ds1307
    _read_ds1307->_i2c_read
    _display_time->_clcd_print
    ___fltol->___xxtofl
    ___fldiv->___xxtofl
    _auth_user->_clcd_putch
    _run_delay->_clcd_putch
    _clcd_putch->___lwdiv
    _clcd_print->_clcd_write

Critical Paths under _isr in COMMON

    None.

Critical Paths under _main in BANK0

    _main->_dashboard
    _main_menu->_view_log
    _view_log->_read_and_format_log
    _download_log->_read_and_format_log
    _read_and_format_log->_read_event
    _init_config->_init_i2c
    _init_config->_init_uart
    _init_uart->___lldiv
    _init_i2c->___lldiv
    _dashboard->___fltol
    ___fltol->___fldiv
    ___fldiv->___xxtofl
    _auth_user->_clcd_putch
    _run_delay->_clcd_putch

Critical Paths under _isr in BANK0

    None.

Critical Paths under _main in BANK1

    None.

Critical Paths under _isr in BANK1

    None.

Critical Paths under _main in BANK3

    None.

Critical Paths under _isr in BANK3

    None.

Critical Paths under _main in BANK2

    None.

Critical Paths under _isr in BANK2

    None.

Call Graph Tables:

 ---------------------------------------------------------------------------------
 (Depth) Function   	        Calls       Base Space   Used Autos Params    Refs
 ---------------------------------------------------------------------------------
 (0) _main                                                 2     2      0   14437
                                              0 BANK1      2     2      0
                          _auth_user
                          _dashboard
                        _init_config
                          _main_menu
                _read_digital_keypad
 ---------------------------------------------------------------------------------
 (1) _main_menu                                            8     8      0    5603
                                             16 BANK0      8     8      0
                         _clcd_print
                          _clear_log
                       _clear_screen
                       _download_log
                         _print_star
                _read_digital_keypad
                           _view_log
 ---------------------------------------------------------------------------------
 (2) _view_log                                             8     8      0    1798
                                             10 BANK0      6     6      0
                         _clcd_print
                _read_and_format_log
                _read_digital_keypad
 ---------------------------------------------------------------------------------
 (2) _print_star                                           2     0      2     453
                                              0 BANK0      2     0      2
                         _clcd_print
 ---------------------------------------------------------------------------------
 (2) _download_log                                         5     5      0    1724
                                             10 BANK0      5     5      0
                         _clcd_print
                           _put_char
                              _put_s
                _read_and_format_log
 ---------------------------------------------------------------------------------
 (3) _read_and_format_log                                  8     8      0    1072
                                              2 BANK0      8     8      0
                             ___wmul
                         _read_event
 ---------------------------------------------------------------------------------
 (4) _read_event                                           4     2      2     373
                                              8 COMMON     2     0      2
                                              0 BANK0      2     2      0
                             ___wmul (ARG)
               _read_external_eeprom
 ---------------------------------------------------------------------------------
 (5) _read_external_eeprom                                 2     2      0     209
                                              4 COMMON     2     2      0
                           _i2c_read
                      _i2c_rep_start
                          _i2c_start
                           _i2c_stop
                          _i2c_write
 ---------------------------------------------------------------------------------
 (4) ___wmul                                               6     2      4     156
                                              2 COMMON     6     2      4
 ---------------------------------------------------------------------------------
 (3) _put_s                                                2     0      2     118
                                              3 COMMON     2     0      2
                           _put_char
 ---------------------------------------------------------------------------------
 (4) _put_char                                             1     1      0      47
                                              2 COMMON     1     1      0
 ---------------------------------------------------------------------------------
 (2) _clear_screen                                         0     0      0     161
                         _clcd_write
 ---------------------------------------------------------------------------------
 (2) _clear_log                                            3     3      0     419
                                              0 BANK0      3     3      0
                         _clcd_print
 ---------------------------------------------------------------------------------
 (1) _init_config                                          0     0      0    1109
                           _init_adc
                          _init_clcd
                _init_digital_keypad
                        _init_ds1307
                           _init_i2c
                          _init_uart
 ---------------------------------------------------------------------------------
 (2) _init_uart                                            8     4      4     287
                                              6 BANK0      8     4      4
                            ___lldiv
 ---------------------------------------------------------------------------------
 (2) _init_i2c                                             8     4      4     287
                                              6 BANK0      8     4      4
                            ___lldiv
 ---------------------------------------------------------------------------------
 (3) ___lldiv                                             14     6      8     253
                                              2 COMMON     8     0      8
                                              0 BANK0      6     6      0
 ---------------------------------------------------------------------------------
 (2) _init_ds1307                                          1     1      0     374
                                              6 COMMON     1     1      0
                        _read_ds1307
                       _write_ds1307
 ---------------------------------------------------------------------------------
 (3) _write_ds1307                                         2     1      1     128
                                              3 COMMON     2     1      1
                          _i2c_start
                           _i2c_stop
                          _i2c_write
 ---------------------------------------------------------------------------------
 (2) _init_digital_keypad                                  0     0      0       0
 ---------------------------------------------------------------------------------
 (2) _init_clcd                                            0     0      0     161
            _init_display_controller
 ---------------------------------------------------------------------------------
 (3) _init_display_controller                              2     2      0     161
                                              6 COMMON     2     2      0
                         _clcd_write
 ---------------------------------------------------------------------------------
 (2) _init_adc                                             0     0      0       0
 ---------------------------------------------------------------------------------
 (1) _dashboard                                            3     3      0    5287
                                             42 BANK0      3     3      0
                            ___fldiv
                            ___fltol
                            ___lwdiv
                            ___lwmod
                           ___xxtofl
                         _clcd_print
                       _display_time
                           _get_time
                           _read_adc
                        _write_event
 ---------------------------------------------------------------------------------
 (2) _write_event                                          9     9      0     627
                                              7 COMMON     2     2      0
                                              0 BANK0      7     7      0
                            ___lwmod
              _write_external_eeprom
 ---------------------------------------------------------------------------------
 (3) _write_external_eeprom                                4     3      1     174
                                              3 COMMON     4     3      1
                          _i2c_start
                           _i2c_stop
                          _i2c_write
 ---------------------------------------------------------------------------------
 (2) _read_adc                                             6     4      2      81
                                              2 COMMON     6     4      2
 ---------------------------------------------------------------------------------
 (2) _get_time                                             1     0      1     305
                                              6 COMMON     1     0      1
                        _read_ds1307
 ---------------------------------------------------------------------------------
 (3) _read_ds1307                                          2     2      0     209
                                              4 COMMON     2     2      0
                           _i2c_read
                      _i2c_rep_start
                          _i2c_start
                           _i2c_stop
                          _i2c_write
 ---------------------------------------------------------------------------------
 (6) _i2c_write                                            1     1      0      47
                                              2 COMMON     1     1      0
                  _i2c_wait_for_idle
 ---------------------------------------------------------------------------------
 (6) _i2c_rep_start                                        0     0      0       0
                          _i2c_start
                           _i2c_stop
 ---------------------------------------------------------------------------------
 (7) _i2c_stop                                             0     0      0       0
                  _i2c_wait_for_idle
 ---------------------------------------------------------------------------------
 (7) _i2c_start                                            0     0      0       0
                  _i2c_wait_for_idle
 ---------------------------------------------------------------------------------
 (6) _i2c_read                                             2     2      0      81
                                              2 COMMON     2     2      0
                  _i2c_wait_for_idle
 ---------------------------------------------------------------------------------
 (8) _i2c_wait_for_idle                                    0     0      0       0
 ---------------------------------------------------------------------------------
 (2) _display_time                                         2     1      1     608
                                              9 COMMON     1     0      1
                                              0 BANK0      1     1      0
                         _clcd_print
 ---------------------------------------------------------------------------------
 (2) ___xxtofl                                            14    10      4     511
                                              2 COMMON     8     4      4
                                              0 BANK0      6     6      0
 ---------------------------------------------------------------------------------
 (2) ___fltol                                             10     6      4     340
                                             32 BANK0     10     6      4
                            ___fldiv (ARG)
                           ___xxtofl (ARG)
 ---------------------------------------------------------------------------------
 (2) ___fldiv                                             26    18      8    1692
                                              6 BANK0     26    18      8
                           ___xxtofl (ARG)
 ---------------------------------------------------------------------------------
 (1) _auth_user                                            6     6      0    2224
                                              1 BANK0      6     6      0
                         _clcd_print
                         _clcd_putch
                _read_digital_keypad
                          _run_delay
 ---------------------------------------------------------------------------------
 (2) _run_delay                                            0     0      0    1257
                            ___lwdiv
                            ___lwmod
                         _clcd_print
                         _clcd_putch
                        _init_timer0
 ---------------------------------------------------------------------------------
 (3) _init_timer0                                          0     0      0       0
 ---------------------------------------------------------------------------------
 (3) _clcd_putch                                           2     1      1     275
                                              9 COMMON     1     0      1
                                              0 BANK0      1     1      0
                            ___lwdiv (ARG)
                            ___lwmod (ARG)
                         _clcd_write
 ---------------------------------------------------------------------------------
 (3) _clcd_print                                           3     0      3     419
                                              6 COMMON     3     0      3
                         _clcd_write
 ---------------------------------------------------------------------------------
 (4) _clcd_write                                           4     3      1     161
                                              2 COMMON     4     3      1
 ---------------------------------------------------------------------------------
 (3) ___lwmod                                              5     1      4     292
                                              2 COMMON     5     1      4
 ---------------------------------------------------------------------------------
 (3) ___lwdiv                                              7     3      4     271
                                              2 COMMON     7     3      4
 ---------------------------------------------------------------------------------
 (3) _read_digital_keypad                                  2     2      0      47
                                              2 COMMON     2     2      0
 ---------------------------------------------------------------------------------
 Estimated maximum stack depth 8
 ---------------------------------------------------------------------------------
 (Depth) Function   	        Calls       Base Space   Used Autos Params    Refs
 ---------------------------------------------------------------------------------
 (9) _isr                                                  2     2      0       0
                                              0 COMMON     2     2      0
 ---------------------------------------------------------------------------------
 Estimated maximum stack depth 9
 ---------------------------------------------------------------------------------

 Call Graph Graphs:

 _main (ROOT)
   _auth_user
     _clcd_print
       _clcd_write
     _clcd_putch
       ___lwdiv (ARG)
       ___lwmod (ARG)
       _clcd_write (ARG)
     _read_digital_keypad
     _run_delay
       ___lwdiv
       ___lwmod
       _clcd_print
       _clcd_putch
       _init_timer0
   _dashboard
     ___fldiv
       ___xxtofl (ARG)
     ___fltol
       ___fldiv (ARG)
       ___xxtofl (ARG)
     ___lwdiv
     ___lwmod
     ___xxtofl
     _clcd_print
     _display_time
       _clcd_print
     _get_time
       _read_ds1307
         _i2c_read
           _i2c_wait_for_idle
         _i2c_rep_start
           _i2c_start
             _i2c_wait_for_idle
           _i2c_stop
             _i2c_wait_for_idle
         _i2c_start
         _i2c_stop
         _i2c_write
           _i2c_wait_for_idle
     _read_adc
     _write_event
       ___lwmod
       _write_external_eeprom
         _i2c_start
         _i2c_stop
         _i2c_write
   _init_config
     _init_adc
     _init_clcd
       _init_display_controller
         _clcd_write
     _init_digital_keypad
     _init_ds1307
       _read_ds1307
       _write_ds1307
         _i2c_start
         _i2c_stop
         _i2c_write
     _init_i2c
       ___lldiv
     _init_uart
       ___lldiv
   _main_menu
     _clcd_print
     _clear_log
       _clcd_print
     _clear_screen
       _clcd_write
     _download_log
       _clcd_print
       _put_char
       _put_s
         _put_char
       _read_and_format_log
         ___wmul
         _read_event
           ___wmul (ARG)
           _read_external_eeprom (ARG)
             _i2c_read
             _i2c_rep_start
             _i2c_start
             _i2c_stop
             _i2c_write
     _print_star
       _clcd_print
     _read_digital_keypad
     _view_log
       _clcd_print
       _read_and_format_log
       _read_digital_keypad
   _read_digital_keypad

 _isr (ROOT)

Address spaces:
Name               Size   Autos  Total    Usage
BANK3               96      0       0      0.0%
BITBANK3            96      0       0      0.0%
BANK2               96      0       0      0.0%
BITBANK2            96      0       0      0.0%
BANK1               80      2      60     75.0%
BITBANK1            80      0       0      0.0%
BANK0               80     45      80    100.0%
BITBANK0            80      0       0      0.0%
COMMON              14     10      12     85.7%
BITCOMMON           14      0       0      0.0%
DATA                 0      0     152      0.0%
STACK                0      0       0      0.0%


Microchip Technology PIC Macro Assembler V3.10 build 20250813170317 
Symbol Table                                                                                   Thu Jul  2 00:29:33 2026

                   ___fldiv@aexp 003F                     ___fldiv@bexp 003E                                pc 0002  
                   ___fldiv@sign 0037            _write_external_eeprom 0B27                   clcd_print@addr 0078  
                             l20 0973                               l23 0981                               l17 088F  
                             l90 08D4                               l67 0D49                               l59 07BB  
                             l84 0C22                               l93 0926                               l87 0E07  
                             _GO 00FA                               l99 0B26                               fsr 0004  
            ___wmul@multiplicand 0074                              l102 0897                              l216 06F5  
                            l233 0F6A                              l402 08C9                              l322 0ACC  
                            l170 062D                              l162 056B                              l331 0CF0  
                            l251 09A0                              l500 08DF                              l325 0944  
                            l157 0A04                              l350 0AF7                              l190 0C58  
                            l246 0FFF                              l319 08FE                              l328 09C0  
                            l185 055F                              l257 0DA4                              l506 0A4F  
                            l347 0B56                              l444 0BEC                              l294 0AA1  
                            l382 08E0                              l471 08B3                              l391 08BE  
                            l288 0888                              l385 08EC                              l394 08A9  
                            l379 0BB8                              l388 08A0                              l628 0E6D  
                            l397 09DC                              l398 09DF                              l399 09E1  
                            l488 0B86                              l592 0A11                              l498 08DA  
                            l594 0A29                              l499 08DE                              l951 0209  
                            l872 07FD                              l793 0ECE                              l882 02F7  
                            l786 0EE3                              l971 01F5                              l796 0EE3  
                            l973 0201                              l965 0183                              l949 0095  
                            _GIE 005F                              _RE1 0049                              _RE2 004A  
                            _PEN 048A                              _SEN 0488                              _PSA 040B  
                  ?_display_time 0079                              _isr 0A50                   clcd_putch@addr 0079  
                            _pos 007A                              fsr0 0004                   clcd_putch@data 0020  
                            indf 0000               print_star@position 0020                     ___fltol@exp1 0049  
                           l1033 022E                             l1034 023F                             l1035 02BF  
                           l1046 0289                             l1047 0295                             l1039 026D  
                           l3000 0898                             l3002 089D                             l3010 08C5  
                           l3100 0A7E                             l3020 09C7                             l3004 08A1  
                           l3012 08C9                             l3110 0A93                             l3022 09CF  
                           l3006 08A6                             l3120 0A9E                             l3040 0BF8  
                           l3024 09D3                             l3016 08B4                             l3008 08C0  
                           l3200 0A2B                             l3032 0ACE            ??_read_digital_keypad 0072  
                           l3122 0AA0                             l3106 0A83                             l3050 0C10  
                           l3042 0BFB                             l3026 09D8                             l3018 09C2  
                           l3130 0DA5                             l3202 0A39                             l3034 0AF6  
                           l3108 0A8E                             l3052 0C11                             l3044 0BFC  
                           l3300 0D0D                             l3028 09E0                             l3140 0DD0  
                           l3132 0DAD                             l3212 0928                             l3220 0E28  
                           l3204 0A3F                             l3118 0A95                             l3054 0C16  
                           l3046 0C01                             l3038 0BEE                             l3126 0915  
                           l3302 0D25                             l3206 0AA3                             l3150 0DFB  
                           l3142 0DD3                             l3134 0DB4                             l3310 08CA  
                           l3230 0E56                             l3222 0E2C                             l3214 0E08  
                           l3070 0A03                             l3240 07BE                             l3056 0C19  
                           l3048 0C04                             l3128 08AA                             l3304 0D3D  
                           l3208 0ACB                             l3320 0560                             l3152 0E02  
                           l3144 0DDA                             l3136 0DC4                             l3312 08CD  
                           l3232 0E5F                             l3224 0E35                             l3216 0E1A  
                           l3080 0A0B                             l3064 09E6                             l3160 0EE7  
                           l3400 0FF1                             l3250 07D4                             l3242 07C4  
                           l3090 0AF8                             l3306 0D45                             l3154 0B28  
                           l3330 0574                             l3322 0569                             l3146 0DE6  
                           l3138 0DC9                             l3314 08CE                             l3226 0E47  
                           l3218 0E1D                             l3234 0E65                             l3410 0991  
                           l3074 08D6                             l3082 0A18                             l3066 09F2  
                           l3058 09E2                             l3170 0F07                             l3162 0F03  
                           l3402 0FF8                             l3252 07E5                             l3244 07C7  
                           l3260 07F9                             l3092 0B00                             l3500 0062  
                           l3156 0B44                             l3340 0598                             l3148 0DEB  
                           l3316 08CF                             l3228 0E55                             l3084 0A1F  
                           l3076 0A05                             l3068 09FA                             l3180 0F2A  
                           l3172 0F0D                             l3164 0F05                             l3420 0D7D  
                           l3254 07EB                             l3246 07CE                             l3238 07BC  
                           l3270 02D0                             l3094 0B10                             l3510 0077  
                           l3502 0064                             l3158 0B48                             l3350 05FE  
                           l3342 05A1                             l3334 057C                             l3430 08ED  
                           l3406 0982                             l3318 0890                             l3086 0A25  
                           l3078 0A07                             l3190 0F52                             l3182 0F30  
                           l3174 0F15                             l3422 0D83                             l3414 0D4A  
                           l3256 07EC                             l3248 07D0                             l3280 02ED  
                           l3272 02D2                             l3264 02C0                             l3096 0B16  
                           l3600 019F                             l3520 008B                             l3512 0078  
                           l3504 006C                             l3360 0CB6                             l3352 060E  
                           l3344 05BE                             l3336 058A                             l3328 056D  
                           l3432 08F4                             l3440 0BB5                             l3408 0986  
                           l3184 0F37                             l3176 0F1C                             l3192 0F58  
                           l3424 0D92                             l3416 0D69                             l3098 0A79  
                           l3258 07F3                             l3274 02D6                             l3266 02C6  
                           l3282 02F3                             l3610 01E8                             l3602 01B8  
                           l3514 007D                             l3522 008D                             l3506 006F  
                           l3362 0CCC                             l3290 0972                             l3354 0616  
                           l3346 05C6                             l3338 0592                             l3434 08F6  
                           l3442 0B57                             l3194 0F5E                             l3186 0F3E  
                           l3178 0F23                             l3418 0D6E                             l3426 0D9A  
                           l3370 0C2B                             l3276 02E0                             l3268 02C9  
                           l3700 075F                             l3620 01FF                             l3612 01EC  
                           l3604 01BE                             l3540 00D4                             l3524 009D  
                           l3532 00B4                             l3516 0082                             l3508 0073  
                           l3460 0EA0                             l3452 0E82                             l3364 0CE4  
                           l3356 09A1                             l3292 0977                             l3348 05F6  
                           l3428 0883                             l3436 0B87                             l3444 0B5B  
                           l3196 0F67                             l3188 0F45                             l3372 0C42  
                           l3380 0F7D                             l3278 02E6                             l3710 0787  
                           l3614 01F4                             l3606 01CB                             l3550 00F3  
                           l3542 00DC                             l3534 00B9                             l3526 00A9  
                           l3518 008A                             l3462 0EA4                             l3470 0EBC  
                           l3454 0E95                             l3446 0E6E                             l3630 0216  
                           l3366 0CE5                             l3358 0C9F                             l3286 0889  
                           l3438 0B8A                             l3198 0A2A                             l3390 0FC5  
                           l3382 0F94                             l3374 0F6B                             l3296 0CF1  
                           l3720 07A3                             l3712 0792                             l3704 076F  
                           l3616 01F9                             l3608 01D9                             l3560 0125  
                           l3552 0105                             l3544 00E4                             l3528 00AB  
                           l3480 0ED8                             l3456 0E96                             l3448 0E79  
                           l3640 024D                             l3632 0226                             l3288 0964  
                           l3368 0C23                             l3392 0FCB                             l3384 0FAA  
                           l3376 0F6F                             l3800 0684                             l3298 0CF7  
                           l3722 07A9                             l3706 077E                             l3618 01FD  
                           l3570 0144                             l3562 0126                             l3554 0109  
                           l3546 00EC                             l3538 00C2                             l3490 004E  
                           l3482 0040                             l3458 0E9E                             l3650 027F  
                           l3642 0254                             l3634 0236                             l3626 020D  
                           l3730 044B                             l3394 0FD2                             l3386 0FB8  
                           l3378 0F75                             l3810 069E                             l3802 0686  
                           l3724 07AB                             l3708 0785                             l3580 015D  
                           l3572 0146                             l3564 0134                             l3556 010A  
                           l3548 00EE                             l3492 004F                             l3484 0044  
                           l3476 0EC3                             l3468 0EAC                             l3660 02B2  
                           l3652 0283                             l3644 0256                             l3628 0212  
                           l3740 047E                             l3732 0461                             l3396 0FD9  
                           l3388 0FBF                             l3820 06BE                             l3812 06A1  
                           l3804 068C                             l3726 07B2                             l3718 07A2  
                           l3670 0701                             l3590 0180                             l3574 014F  
                           l3582 0163                             l3558 0113                             l3566 0136  
                           l3494 0054                             l3486 0046                             l3478 0ED3  
                           l3662 02B6                             l3654 028D                             l3646 0264  
                           l3638 0242                             l3750 04A2                             l3742 0483  
                           l3734 0468                             l3398 0FEB                             l3830 06DD  
                           l3822 06C3                             l3814 06AA                             l3806 0693  
                           l3728 07B7                             l3680 0729                             l3672 0709  
                           l3584 0167                             l3576 0153                             l3568 013C  
                           l3496 0059                             l3488 004A                             l3664 02B7  
                           l3656 0297                             l3648 0274                             l3760 04BE  
                           l3744 0490                             l3736 046F                             l3832 06E4  
                           l3824 06CB                             l3840 06EA                             l3808 0699  
                           l3816 06B1                             l3690 074B                             l3682 072F  
                           l3674 0714                             l3594 0188                             l3586 0168  
                           l3578 0154                             l3498 0061                             l3658 02AD  
                           l3770 04EA                             l3762 04C4                             l3754 04AA  
                           l3746 0496                             l3738 0477                             l3850 0BC3  
                           l3842 06F0                             l3826 06D1                             l3818 06B7  
                           l3930 0C6A                             l3692 0754                             l3684 0739  
                           l3676 071D                             l3668 06F6                             l3596 018D  
                           l3588 016C                             l3780 0553                             l3772 0522  
                           l3756 04B7                             l3748 049C                             l3852 0BC8  
                           l3828 06D7                             l3940 0C83                             l3932 0C70  
                           l3924 0C59                             l3694 075D                             l3686 073F  
                           l3678 0723                             l3598 019B                             l3782 0554  
                           l3774 0529                             l3766 04C9                             l3854 0BD7  
                           l3846 0BB9                             l3790 0646                             l3942 0C8A  
                           l3934 0C72                             l3926 0C5E                             l3688 0745  
                           l3776 052F                             l3768 04DE                             l3856 0BDC  
                           l3848 0BBE                             l3792 065B                             l3784 062E  
                           l3944 0C8F                             l3936 0C77                             l3928 0C61  
                           l3778 0541                             l3858 0BEB                             l3794 0670  
                           l3786 0633                             l3946 0C92                             l3938 0C7E  
                           l2996 08E0                             l3796 0679                             l3788 0638  
                           l3948 0C96                             l2998 08E6                             l3798 067F  
                           _ADFM 04FF                             ?_isr 0070                             _ADON 00F8  
                           STR_1 0378                             STR_2 0356                             STR_3 0399  
                           STR_4 0367                             STR_5 0403                             STR_6 0442  
                           STR_7 043F                             STR_8 0433                             STR_9 0436  
                           _CREN 00C4                             _T0CS 040D                             u4000 0ED3  
                           u4001 0ED2                             u4010 0ED8                             u4011 0ED7  
                           u4100 00F3                             u4020 004E                             u4101 00F2  
                           u4021 004D                             u4030 0054                             u4031 0053  
                           u3400 0A8E                             u3304 0BF8                             u4040 0059  
                           u3320 0A03                             u3401 0A8D                             u4041 0058  
                           u3321 0A02                             u3410 0A93                             u4210 0167  
                           u4130 0109                             u4050 0077                             u3330 08DE  
                           u3411 0A92                             u3315 0C08                             u4211 0166  
                           u4131 0108                             u4115 00F5                             u4051 0076  
                           u3331 08DD                             u3420 0A9E                             u4300 01FD  
                           u4220 016C                             u4060 007D                             u3260 08E6  
                           u3340 0A0B                             u3500 0F67                             u3421 0A9D  
                           u4301 01FC                             u4221 016B                             u4205 0156  
                           u4125 00FE                             u4061 007C                             u3261 08E5  
                           u3341 0A0A                             u3501 0F66                             u4230 0180  
                           u4150 0125                             u4070 0082                             u4310 0212  
                           u3270 08EC                             u3430 0B56                             u3510 0A4F  
                           u4231 017F                             u4151 0124                             u4071 0081  
                           u4311 0211                             u3271 08EB                             u3431 0B55  
                           u3511 0A4E                             u4240 0187                             u4160 013C  
                           u4080 009D                             u4400 0289                             u4320 0216  
                           u3280 09D8                             u3520 0E1A                             u3440 0F0D  
                           u4241 0186                             u4161 013B                             u4145 010C  
                           u4081 009C                             u4401 0288                             u4321 0215  
                           u3281 09D7                             u3521 0E19                             u3441 0F0C  
                           u3610 07D4                             u3290 0BF5                             u4250 018D  
                           u4170 0144                             u4090 00B9                             u4410 028D  
                           u4330 0236                             u3370 0A25                             u3450 0F1C  
          ?_read_external_eeprom 0070                             u3611 07D3                             u3291 0BF1  
                           u4251 018C                             u4171 0143                             u4155 0121  
                           u4091 00B8                             u4411 028C                             u4331 0235  
                           u3371 0A24                             u3355 0A12                             u3451 0F1B  
                           u3380 0B26                             u4500 077E                             u4260 019F  
                           u4420 02A2                             u3540 0E2C                             u3460 0F23  
                           u3605 07C8                             u3381 0B25                             u4501 077D  
                           u4261 019E                             u3541 0E2B                             u3365 0A19  
                           u3461 0F22                             u3390 0A7E                             u3630 07E5  
                           u3710 02F3                             u4510 0785                             u4270 01AE  
                           u4190 0153                             u4430 02B2                             u4350 0253  
                           u3470 0F30                             u3391 0A7D                             u3631 07E4  
                           u3711 02F2                             u4511 0784                             u4191 0152  
                           u4431 02B1                             u4351 0252                             u3535 0E1F  
                           u3471 0F2F                             u4520 07B2                             u4280 01CB  
                           u4440 02B6                             u4600 0529                             u3560 0E47  
                           u3480 0F37                             u3625 07D5                             u3705 02E7  
                           u4521 07B1                             u4281 01CA                             u4185 0148  
                           u4441 02B5                             u4425 029D                             u4345 0245  
                           u4601 0528                             u3561 0E46                             u3481 0F36  
                           u3650 07F9                             u4450 0709                             u4290 01E8  
                           u4370 0273                             u3730 0977                             u4530 0477  
                           u3490 0F3E                             u4610 067F                             u3651 07F8  
                           u3635 07E1                             u4451 0708                             u4291 01E7  
                           u4275 01A9                             u4371 0272                             u3731 0976  
                           u4531 0476                             u3555 0E2E                             u3491 0F3D  
                           u4611 067E                             u3660 02C6                             u3740 0D45  
                           u4460 0723                             u4540 047E                             u3580 0E65  
                           u3900 0B98                             u3820 0C2B                             u4700 06E4  
                           u4620 0684                             u3645 07ED                             u3661 02C5  
                           u3741 0D44                             u4461 0722                             u4285 01C7  
                           u4365 0265                             u3805 0CBD                             u3725 0967  
                           u4541 047D                             u3581 0E64                             u3565 0E43  
                           u3821 0C2A                             u4701 06E3                             u4621 0683  
                           u3590 07C4                             u4470 073F                             u4390 0283  
                           u3750 0569                             u4550 0490                             u3910 0B69  
                           u3830 0F7D                             u4710 06F0                             u4630 068C  
                           u3591 07C3                             u4471 073E                             u4295 01E4  
                           u4391 0282                             u3815 0CD4                             u3751 0568  
                           u4551 048F                             u3575 0E57                             u3831 0F7C  
                           u4711 06EF                             u4631 068B                             u3680 02D6  
                           u4480 075D                             u3920 0E79                             u3760 0574  
                           u4560 04A2                             u3840 0FBF                             u4640 0699  
                           u3681 02D5                             u4481 075C                             u3921 0E78  
                           u4385 0278                             u3761 0573                             u4561 04A1  
                           u3905 0B93                             u3841 0FBE                             u4641 0698  
                           u3690 02E0                             u4490 076E                             u3930 0E90  
                           u3770 057B                             u4570 04A9                             u3850 0FC5  
                           u4650 069E                             u3691 02DF                             u3675 02CA  
                           u4491 076D                             u3771 057A                             u4571 04A8  
                           u4555 048C                             u3915 0B64                             u3851 0FC4  
                           u4651 069D                             u3940 0EA4                             u3780 05A1  
                           u4580 04B7                             u3860 0FD9                             u4660 06AA  
                           u4820 0C70                             _RCEN 048B                             _RCIF 0065  
                           u3941 0EA3                             u3781 05A0                             u4581 04B6  
                           u3861 0FD8                             u4661 06A9                             u4821 0C6F  
                           u3950 0EAB                             u4590 04C4                             u3870 0FEB  
                           u4670 06B7                             u4830 0C77                             u3695 02DC  
                           u3951 0EAA                             u3935 0E8B                             u4591 04C3  
                           u3871 0FEA                             u4671 06B6                             u4831 0C76  
                           u3880 0FFF                             u4680 06CB                             u4840 0C83  
                           u4585 04B3                             u3881 0FFE                             u4681 06CA  
                           u4841 0C82                             u3970 0EBB                             u3890 0DA4  
                           u4690 06D7                             u4850 0C8A                             u3971 0EBA  
                           u3795 0CA7                             u4907 0DC6                             u3891 0DA3  
                           u3875 0FE7                             u4691 06D6                             u4851 0C89  
                           u3980 0EC2                             u3981 0EC1                             u3965 0EAD  
                           u4917 0DDC                             u4927 0DE8                             u3895 0DA0  
                           u4937 0DF6                             u3995 0EC5                             u4947 0E04  
                           u4867 0D8B                             u4957 079A                             u4877 0999  
                           u4967 0BFE                             u4887 0DA9                             u4977 0C13  
                           u4897 0DB8                             u4987 0C1D                             _TMR0 0001  
                           _SPEN 00C7                             _TXIF 0064                             _R_nW 04A2  
                           _main 0C59                             _logs 00BE                             _time 005E  
                           btemp 007E                             start 000C                  ___fldiv@new_exp 0038  
                 clcd_write@byte 0075                   clcd_write@mode 0072                    _i2c_rep_start 08B4  
                          ??_isr 0070                     ?_init_ds1307 0070                    ___fltol@sign1 0048  
                          ?_main 0070                     ?_read_ds1307 0070                            _ACKEN 048C  
                          _ACKDT 048D                   ??_display_time 0020                  __end_of___fldiv 020A  
                          STR_10 0439                            STR_11 043C                            STR_20 0389  
                          STR_12 0445                            STR_21 042D                            STR_13 0430  
                          STR_22 0364                            STR_30 03F4                            STR_14 03B8  
                          STR_23 042D                            STR_31 0300                            STR_15 03C7  
                          STR_24 0364                            STR_16 03E5                            STR_25 0425  
                          STR_17 03A9                            STR_26 0412                            STR_18 03D6  
                          STR_27 0345                            STR_19 0334                            STR_35 0312  
                          STR_28 0323                            STR_29 041C                  __end_of___fltol 0EE4  
                __end_of___lldiv 0E6E                      i2c_read@ack 0072                  __end_of___lwdiv 07FE  
                          i1l417 0A71                  __end_of___lwmod 02F8                     ?_init_config 0070  
                          _RCREG 001A                            _SPBRG 0099                            _PORTB 0006  
                          _PORTD 0008                            _SSPM3 00A3                            _TRISB 0086  
                          _TRISD 0088                            _SSPEN 00A5                            _TXREG 0019  
                   ?_init_timer0 0070                      _write_event 0560                            _nDONE 00FA  
      write_external_eeprom@data 0073             __end_of_clear_screen 0898        write_external_eeprom@wait 0075  
                          _delay 006D                            _index 005B                            _event 00A0  
                          _speed 0067                            btemp0 007E                            btemp1 007F  
                          _put_s 0A2A                            pclath 000A                            status 0003  
          _user_entered_password 004D                            wtemp0 007E                 init_ds1307@dummy 0076  
                __initialization 000F                   ?_i2c_rep_start 0070           ?_write_external_eeprom 0073  
                   __end_of_main 0C9F                 __end_of_i2c_read 09E2                 __end_of_i2c_stop 08AA  
                  ?_download_log 0070                           ??_main 007A                     put_char@data 0072  
                         _ADCON0 001F           ??_read_external_eeprom 0074                           _ADRESH 001E  
                         _ADRESL 009E                           ?_put_s 0073                     i2c_read@data 0073  
                         i1l2960 0A54                           i1l2962 0A68                           i1l2964 0A6A  
                         i1l2966 0A70                           i1l2958 0A50                           u320_20 0A54  
                         u320_21 0A53                           u321_20 0A68                           u321_21 0A67  
                   _write_ds1307 0927                           _TMR0IE 005D                           _TMR0IF 005A  
                         _SSPADD 0093                           _TRISE1 0449                           _TRISE2 044A  
                         _SSPBUF 0013                 __end_of___xxtofl 02C0      __end_of_init_digital_keypad 0889  
               __end_of_get_time 09C1          _init_display_controller 0DA5                           _access 005D  
                         ___wmul 0A05                        ??___fldiv 002E                        ??___fltol 0044  
                      ??___lldiv 0020                        ??___lwdiv 0076                        ??___lwmod 0076  
               __end_of_init_i2c 0BB9                 __end_of_init_adc 0890                 __end_of_read_adc 0982  
                 ??_download_log 002A                    main@operation 00DB                     main_menu@key 0032  
                         ltemp0a 0080                           saved_w 007E                 __end_of_view_log 1000  
               __end_of_put_char 08E0                           put_s@s 0073                           ttemp0a 007F  
                    read_event@i 0020                           wtemp0a 007F                     ___xxtofl@arg 0022  
                   ___xxtofl@exp 0021                     ___xxtofl@val 0072                     auth_user@key 0024  
        __end_of__initialization 003C             __end_of_display_time 0CF1                       ___fltol@f1 0040  
                ??_i2c_rep_start 0072                   __pcstackCOMMON 0070                     __pidataBANK0 0880  
                   __pidataBANK1 0945                    __end_of_put_s 0A50                __end_of_i2c_start 08A1  
              __end_of_i2c_write 08CA                _i2c_wait_for_idle 08E0                          ??_put_s 0075  
             ?_i2c_wait_for_idle 0070                       __pbssBANK0 004D                       __pbssBANK1 00BE  
                      ?_i2c_read 0070                        ?_i2c_stop 0070        ??_init_display_controller 0076  
                     _clcd_print 0AF8              ??_i2c_wait_for_idle 0072                       _clcd_putch 0912  
                     _clcd_write 0BED     write_external_eeprom@address 0074                       __pmaintext 0C59  
                read_ds1307@addr 0074                  read_ds1307@data 0075                     _clear_screen 0890  
                        ?___wmul 0072                       __pintentry 0004                          _ACKSTAT 048E  
    __end_of_read_digital_keypad 0AA2                        ?___xxtofl 0072        __end_of_i2c_wait_for_idle 08ED  
                   ?_write_event 0070                     init_i2c@baud 0026                          _SSPCON2 0091  
                      ?_get_time 0076                       __stringtab 0800                       ??_i2c_read 0072  
              __end_of_dashboard 0560                       ??_i2c_stop 0072                        ?_init_i2c 0026  
           __end_of_download_log 0DA5                        ?_init_adc 0070                        ?_read_adc 0072  
              __end_of_clear_log 09A1                       _attempt_no 0059          ??_write_external_eeprom 0074  
                        ___fldiv 0040                        ?_view_log 0070                          ___fltol 0E6E  
                        ___lldiv 0E08                        ?_put_char 0070                          _adc_val 0057  
                        ___lwdiv 07BC                          ___lwmod 02C0                __end_of_main_menu 06F6  
              __end_of_auth_user 07BC                       _read_event 09E2                          __ptext1 062E  
                        __ptext2 0F6B                          __ptext3 0C23                          __ptext4 0D4A  
                        __ptext5 0EE4                          __ptext6 09E2                          __ptext7 0ACD  
                        __ptext8 0A05                          __ptext9 0A2A  __end_of_init_display_controller 0E08  
              __end_of_init_clcd 08D5                       ??___xxtofl 0076                __end_of_init_uart 0B87  
         read_and_format_log@col 0025           read_and_format_log@log 0024                          main@key 00DA  
                        clrloop0 02F9                       ??_get_time 0077             end_of_initialization 003C  
                  main_menu@star 0033                       ??_init_i2c 002A                       ??_init_adc 0072  
                     ??_read_adc 0074                      ?_clcd_print 0076                      ?_clcd_putch 0079  
                ___lldiv@divisor 0072                      ?_clcd_write 0072                  ___lldiv@counter 0025  
                     ??_view_log 002A                __end_of_run_delay 0D4A                       ??_put_char 0072  
                   __pstringtext 0300                _original_password 00BA                  read_adc@channel 0075  
                   _display_time 0C9F                       _print_star 0C23                    i2c_write@data 0072  
                  ___xxtofl@sign 0020                      ___fldiv@grs 003A                      ___fldiv@rem 0033  
                  clcd_print@str 0076         read_external_eeprom@data 0075                     write_event@i 0077  
                 __end_of___wmul 0A2A                      ?_read_event 0078                      view_log@key 002C  
                     auth_user@i 0025              start_initialization 000F                        _i2c_start 0898  
                    __end_of_isr 0A78                        _i2c_write 08BF              _read_and_format_log 0EE4  
          __end_of_i2c_rep_start 08BF             ?_read_and_format_log 0070                         ??___wmul 0076  
                     init_fetch0 08FF                    ??_init_ds1307 0076                      __pdataBANK0 006D  
                    __pdataBANK1 00A0                    ??_read_ds1307 0074                     _download_log 0D4A  
                  ??_init_config 007A                        ___fldiv@a 0026                        ___fldiv@b 002A  
                    ?_print_star 0020                    ??_init_timer0 0072                      __pbssCOMMON 007A  
                      ___latbits 0002                    __pcstackBANK0 0020                    __pcstackBANK1 00DA  
                     ?_i2c_start 0070                       ?_i2c_write 0070                        _dashboard 0448  
               ___lwdiv@dividend 0074    __end_of_write_external_eeprom 0B57                        _clear_log 0982  
          ??_read_and_format_log 0022                         ?___fldiv 0026                         ?___fltol 0040  
                       ?___lldiv 0072                         ?___lwdiv 0072                        _clock_reg 006A  
                       ?___lwmod 0072              main_menu@menu_index 0036                        __pstrings 0800  
                      _main_menu 062E              __end_of_init_ds1307 08FF                        _auth_user 06F6  
                   _menu_options 00B0              read_adc@adc_reg_val 0076              __end_of_read_ds1307 0ACD  
               ___lwdiv@quotient 0077                        _init_clcd 08CA              __end_of_init_config 0BED  
                      _init_uart 0B57           main_menu@selected_menu 0034                    ?_write_ds1307 0073  
            __end_of_init_timer0 08B4         ?_init_display_controller 0070                interrupt_function 0004  
                 ___wmul@product 0076         read_and_format_log@index 0027      read_external_eeprom@address 0074  
                      clear_ram0 02F8                     ??_clcd_print 0079                     ??_clcd_putch 007A  
                   ??_clcd_write 0073                       ?_dashboard 0070                       ?_clear_log 0070  
                   dashboard@key 004C                 view_log@curr_log 002E                    download_log@i 002D  
                    __stringbase 0812                ___wmul@multiplier 0072                        _run_delay 0CF1  
                     ?_main_menu 0070                       ?_auth_user 0070                      ??_i2c_start 0072  
             __end_of_clcd_print 0B27                      ??_i2c_write 0072               __end_of_clcd_putch 0927  
             __end_of_clcd_write 0C23                       ?_init_clcd 0070                       ?_init_uart 0026  
                 ??_write_ds1307 0074              _init_digital_keypad 0883                         _i2c_read 09C1  
                       _i2c_stop 08A1                get_time@clock_reg 0076               write_event@address 0053  
   __end_of_read_external_eeprom 0AF8                  read_event@event 00CF             ?_init_digital_keypad 0070  
                    _init_ds1307 08ED                      _event_count 0055                     ??_read_event 007A  
             __end_of__stringtab 0812                      _read_ds1307 0AA2                       ?_run_delay 0070  
                    _init_config 0BB9                         ___xxtofl 020A                      _init_timer0 08AA  
                ___lwdiv@divisor 0072                  ___lwdiv@counter 0076                         __ptext10 08D5  
                       __ptext11 0890                         __ptext20 08CA                         __ptext12 0982  
                       __ptext21 0DA5                         __ptext13 0BB9                         __ptext30 08B4  
                       __ptext22 0889                         __ptext14 0B57                         __ptext31 08A1  
                       __ptext23 0448                         __ptext15 0B87                         __ptext40 0CF1  
                       __ptext32 0898                         __ptext24 0560                         __ptext16 0E08  
                       __ptext41 08AA                         __ptext33 09C1                         __ptext25 0B27  
                       __ptext17 08ED                         __ptext42 0912                         __ptext34 08E0  
                       __ptext26 0963                         __ptext18 0927                         __ptext43 0AF8  
                       __ptext35 0C9F                         __ptext27 09A1                         __ptext19 0883  
                       __ptext44 0BED                         __ptext36 020A                         __ptext28 0AA2  
                       __ptext45 02C0                         __ptext37 0E6E                         __ptext29 08BF  
                       __ptext46 07BC                         __ptext38 0040                         __ptext47 0A78  
                       __ptext39 06F6                         __ptext48 0A50                         _get_time 09A1  
                       _init_i2c 0B87                         _init_adc 0889                         _read_adc 0963  
        read_digital_keypad@mode 0073          read_digital_keypad@once 006F             read_and_format_log@i 0028  
             __end_of_read_event 0A05                      ??_dashboard 004A            display_time@clock_reg 0079  
                    ??_clear_log 0020                    ?_clear_screen 0070                         _view_log 0F6B  
          ??_init_digital_keypad 0072                         _put_char 08D5                     ??_print_star 0079  
                    ??_main_menu 0030                      ??_auth_user 0021                    ??_write_event 0020  
                       isr@count 0051                         init_ram0 0903                   read_event@addr 0078  
                    ??_init_clcd 0078                      ??_init_uart 002A                         intlevel1 0000  
                  init_uart@baud 0026                 ___lwmod@dividend 0074                 ___lldiv@dividend 0076  
                      stringcode 080A                   ??_clear_screen 0076               __end_of_print_star 0C59  
           __end_of_write_ds1307 0945              _read_digital_keypad 0A78                      ??_run_delay 007A  
               ___lldiv@quotient 0021                  ___lwmod@divisor 0072                  ___lwmod@counter 0076  
                       stringtab 0800             ?_read_digital_keypad 0070                 write_ds1307@addr 0074  
               write_ds1307@data 0073              __end_of_write_event 062E             _read_external_eeprom 0ACD  
    __end_of_read_and_format_log 0F6B  
