

Microchip MPLAB XC8 Assembler V3.10 build 20250813170317 
                                                                                               Thu Jul  2 13:47:29 2026

Microchip MPLAB XC8 C Compiler v3.10 (Free license) build 20250813170317 Og1 
     1                           	processor	16F877A
     2                           	pagewidth 120
     3                           	opt	flic
     4                           	psect	idataBANK0,global,class=CODE,space=0,delta=2,noexec
     5                           	psect	idataBANK1,global,class=CODE,space=0,delta=2,noexec
     6                           	psect	strings,global,class=STRING,space=0,delta=2,noexec
     7                           	psect	stringtext,global,reloc=256,class=STRCODE,space=0,delta=2,noexec
     8                           	psect	cinit,global,class=CODE,space=0,merge=1,delta=2
     9                           	psect	bssCOMMON,global,class=COMMON,space=1,delta=1,noexec
    10                           	psect	bssBANK0,global,class=BANK0,space=1,delta=1,noexec
    11                           	psect	dataBANK0,global,class=BANK0,space=1,delta=1,noexec
    12                           	psect	bssBANK1,global,class=BANK1,space=1,delta=1,noexec
    13                           	psect	dataBANK1,global,class=BANK1,space=1,delta=1,noexec
    14                           	psect	inittext,global,class=CODE,space=0,delta=2
    15                           	psect	clrtext,global,class=CODE,space=0,delta=2
    16                           	psect	cstackCOMMON,global,class=COMMON,space=1,delta=1,noexec
    17                           	psect	cstackBANK0,global,class=BANK0,space=1,delta=1,noexec
    18                           	psect	maintext,global,class=CODE,space=0,split=1,delta=2
    19                           	psect	text1,local,class=CODE,space=0,merge=1,delta=2
    20                           	psect	text2,local,class=CODE,space=0,merge=1,delta=2
    21                           	psect	text3,local,class=CODE,space=0,merge=1,delta=2
    22                           	psect	text4,local,class=CODE,space=0,merge=1,delta=2
    23                           	psect	text5,local,class=CODE,space=0,merge=1,delta=2
    24                           	psect	text6,local,class=CODE,space=0,merge=1,delta=2
    25                           	psect	text7,local,class=CODE,space=0,merge=1,delta=2
    26                           	psect	text8,local,class=CODE,space=0,merge=1,delta=2
    27                           	psect	text9,local,class=CODE,space=0,merge=1,delta=2
    28                           	psect	text10,local,class=CODE,space=0,merge=1,delta=2,group=1
    29                           	psect	text11,local,class=CODE,space=0,merge=1,delta=2
    30                           	psect	text12,local,class=CODE,space=0,merge=1,delta=2
    31                           	psect	text13,local,class=CODE,space=0,merge=1,delta=2
    32                           	psect	text14,local,class=CODE,space=0,merge=1,delta=2
    33                           	psect	text15,local,class=CODE,space=0,merge=1,delta=2
    34                           	psect	text16,local,class=CODE,space=0,merge=1,delta=2
    35                           	psect	text17,local,class=CODE,space=0,merge=1,delta=2
    36                           	psect	text18,local,class=CODE,space=0,merge=1,delta=2,group=1
    37                           	psect	text19,local,class=CODE,space=0,merge=1,delta=2
    38                           	psect	text20,local,class=CODE,space=0,merge=1,delta=2
    39                           	psect	text21,local,class=CODE,space=0,merge=1,delta=2
    40                           	psect	text22,local,class=CODE,space=0,merge=1,delta=2
    41                           	psect	text23,local,class=CODE,space=0,merge=1,delta=2
    42                           	psect	text24,local,class=CODE,space=0,merge=1,delta=2
    43                           	psect	text25,local,class=CODE,space=0,merge=1,delta=2
    44                           	psect	text26,local,class=CODE,space=0,merge=1,delta=2
    45                           	psect	text27,local,class=CODE,space=0,merge=1,delta=2
    46                           	psect	text28,local,class=CODE,space=0,merge=1,delta=2
    47                           	psect	text29,local,class=CODE,space=0,merge=1,delta=2
    48                           	psect	text30,local,class=CODE,space=0,merge=1,delta=2
    49                           	psect	text31,local,class=CODE,space=0,merge=1,delta=2
    50                           	psect	text32,local,class=CODE,space=0,merge=1,delta=2
    51                           	psect	text33,local,class=CODE,space=0,merge=1,delta=2
    52                           	psect	text34,local,class=CODE,space=0,merge=1,delta=2
    53                           	psect	text35,local,class=CODE,space=0,merge=1,delta=2
    54                           	psect	text36,local,class=CODE,space=0,merge=1,delta=2
    55                           	psect	text37,local,class=CODE,space=0,merge=1,delta=2
    56                           	psect	text38,local,class=CODE,space=0,merge=1,delta=2,group=1
    57                           	psect	text39,local,class=CODE,space=0,merge=1,delta=2,group=1
    58                           	psect	text40,local,class=CODE,space=0,merge=1,delta=2,group=1
    59                           	psect	text41,local,class=CODE,space=0,merge=1,delta=2
    60                           	psect	text42,local,class=CODE,space=0,merge=1,delta=2
    61                           	psect	text43,local,class=CODE,space=0,merge=1,delta=2
    62                           	psect	text44,local,class=CODE,space=0,merge=1,delta=2
    63                           	psect	text45,local,class=CODE,space=0,merge=1,delta=2
    64                           	psect	text46,local,class=CODE,space=0,merge=1,delta=2
    65                           	psect	text47,local,class=CODE,space=0,merge=1,delta=2,group=1
    66                           	psect	text48,local,class=CODE,space=0,merge=1,delta=2,group=1
    67                           	psect	text49,local,class=CODE,space=0,merge=1,delta=2
    68                           	psect	text50,local,class=CODE,space=0,merge=1,delta=2
    69                           	psect	intentry,global,class=CODE,space=0,delta=2
    70                           	psect	idloc,global,abs,ovrld,class=IDLOC,space=5,delta=2,noexec
    71                           	psect	config,global,abs,ovrld,class=CONFIG,space=4,delta=2,noexec
    72                           	dabs	1,0x7E,2
    73     0000                     
    74                           ; Version 2.20
    75                           ; Generated 12/02/2020 GMT
    76                           ; 
    77                           ; Copyright © 2020, Microchip Technology Inc. and its subsidiaries ("Microchip")
    78                           ; All rights reserved.
    79                           ; 
    80                           ; This software is developed by Microchip Technology Inc. and its subsidiaries ("Microch
      +                          ip").
    81                           ; 
    82                           ; Redistribution and use in source and binary forms, with or without modification, are
    83                           ; permitted provided that the following conditions are met:
    84                           ; 
    85                           ;     1. Redistributions of source code must retain the above copyright notice, this lis
      +                          t of
    86                           ;        conditions and the following disclaimer.
    87                           ; 
    88                           ;     2. Redistributions in binary form must reproduce the above copyright notice, this 
      +                          list
    89                           ;        of conditions and the following disclaimer in the documentation and/or other
    90                           ;        materials provided with the distribution.
    91                           ; 
    92                           ;     3. Microchip's name may not be used to endorse or promote products derived from th
      +                          is
    93                           ;        software without specific prior written permission.
    94                           ; 
    95                           ; THIS SOFTWARE IS PROVIDED BY MICROCHIP "AS IS" AND ANY EXPRESS OR IMPLIED WARRANTIES,
    96                           ; INCLUDING, BUT NOT LIMITED TO, THE IMPLIED WARRANTIES OF MERCHANTABILITY AND FITNESS F
      +                          OR
    97                           ; PURPOSE ARE DISCLAIMED.  IN NO EVENT SHALL MICROCHIP BE LIABLE FOR ANY DIRECT, INDIREC
      +                          T,
    98                           ; INCIDENTAL, SPECIAL, EXEMPLARY, OR CONSEQUENTIAL DAMAGES (INCLUDING BUT NOT LIMITED TO
    99                           ; PROCUREMENT OF SUBSTITUTE GOODS OR SERVICES; LOSS OF USE, DATA OR PROFITS; OR BUSINESS
   100                           ; INTERRUPTION) HOWSOEVER CAUSED AND ON ANY THEORY OF LIABILITY, WHETHER IN CONTRACT, ST
      +                          RICT
   101                           ; LIABILITY, OR TORT (INCLUDING NEGLIGENCE OR OTHERWISE) ARISING IN ANY WAY OUT OF THE U
      +                          SE OF
   102                           ; THIS SOFTWARE, EVEN IF ADVISED OF THE POSSIBILITY OF SUCH DAMAGE.
   103                           ; 
   104                           ; 
   105                           ; Code-generator required, PIC16F877A Definitions
   106                           ; 
   107                           ; SFR Addresses
   108     0004                     fsr             equ	4
   109     0004                     fsr0            equ	4
   110     0000                     indf            equ	0
   111     0000                     indf0           equ	0
   112     0002                     pc              equ	2
   113     0002                     pcl             equ	2
   114     000A                     pclath          equ	10
   115     0003                     status          equ	3
   116     0000                     INDF            equ	0	;# 
   117     0001                     TMR0            equ	1	;# 
   118     0002                     PCL             equ	2	;# 
   119     0003                     STATUS          equ	3	;# 
   120     0004                     FSR             equ	4	;# 
   121     0005                     PORTA           equ	5	;# 
   122     0006                     PORTB           equ	6	;# 
   123     0007                     PORTC           equ	7	;# 
   124     0008                     PORTD           equ	8	;# 
   125     0009                     PORTE           equ	9	;# 
   126     000A                     PCLATH          equ	10	;# 
   127     000B                     INTCON          equ	11	;# 
   128     000C                     PIR1            equ	12	;# 
   129     000D                     PIR2            equ	13	;# 
   130     000E                     TMR1            equ	14	;# 
   131     000E                     TMR1L           equ	14	;# 
   132     000F                     TMR1H           equ	15	;# 
   133     0010                     T1CON           equ	16	;# 
   134     0011                     TMR2            equ	17	;# 
   135     0012                     T2CON           equ	18	;# 
   136     0013                     SSPBUF          equ	19	;# 
   137     0014                     SSPCON          equ	20	;# 
   138     0015                     CCPR1           equ	21	;# 
   139     0015                     CCPR1L          equ	21	;# 
   140     0016                     CCPR1H          equ	22	;# 
   141     0017                     CCP1CON         equ	23	;# 
   142     0018                     RCSTA           equ	24	;# 
   143     0019                     TXREG           equ	25	;# 
   144     001A                     RCREG           equ	26	;# 
   145     001B                     CCPR2           equ	27	;# 
   146     001B                     CCPR2L          equ	27	;# 
   147     001C                     CCPR2H          equ	28	;# 
   148     001D                     CCP2CON         equ	29	;# 
   149     001E                     ADRESH          equ	30	;# 
   150     001F                     ADCON0          equ	31	;# 
   151     0081                     OPTION_REG      equ	129	;# 
   152     0085                     TRISA           equ	133	;# 
   153     0086                     TRISB           equ	134	;# 
   154     0087                     TRISC           equ	135	;# 
   155     0088                     TRISD           equ	136	;# 
   156     0089                     TRISE           equ	137	;# 
   157     008C                     PIE1            equ	140	;# 
   158     008D                     PIE2            equ	141	;# 
   159     008E                     PCON            equ	142	;# 
   160     0091                     SSPCON2         equ	145	;# 
   161     0092                     PR2             equ	146	;# 
   162     0093                     SSPADD          equ	147	;# 
   163     0094                     SSPSTAT         equ	148	;# 
   164     0098                     TXSTA           equ	152	;# 
   165     0099                     SPBRG           equ	153	;# 
   166     009C                     CMCON           equ	156	;# 
   167     009D                     CVRCON          equ	157	;# 
   168     009E                     ADRESL          equ	158	;# 
   169     009F                     ADCON1          equ	159	;# 
   170     010C                     EEDATA          equ	268	;# 
   171     010D                     EEADR           equ	269	;# 
   172     010E                     EEDATH          equ	270	;# 
   173     010F                     EEADRH          equ	271	;# 
   174     018C                     EECON1          equ	396	;# 
   175     018D                     EECON2          equ	397	;# 
   176     0000                     INDF            equ	0	;# 
   177     0001                     TMR0            equ	1	;# 
   178     0002                     PCL             equ	2	;# 
   179     0003                     STATUS          equ	3	;# 
   180     0004                     FSR             equ	4	;# 
   181     0005                     PORTA           equ	5	;# 
   182     0006                     PORTB           equ	6	;# 
   183     0007                     PORTC           equ	7	;# 
   184     0008                     PORTD           equ	8	;# 
   185     0009                     PORTE           equ	9	;# 
   186     000A                     PCLATH          equ	10	;# 
   187     000B                     INTCON          equ	11	;# 
   188     000C                     PIR1            equ	12	;# 
   189     000D                     PIR2            equ	13	;# 
   190     000E                     TMR1            equ	14	;# 
   191     000E                     TMR1L           equ	14	;# 
   192     000F                     TMR1H           equ	15	;# 
   193     0010                     T1CON           equ	16	;# 
   194     0011                     TMR2            equ	17	;# 
   195     0012                     T2CON           equ	18	;# 
   196     0013                     SSPBUF          equ	19	;# 
   197     0014                     SSPCON          equ	20	;# 
   198     0015                     CCPR1           equ	21	;# 
   199     0015                     CCPR1L          equ	21	;# 
   200     0016                     CCPR1H          equ	22	;# 
   201     0017                     CCP1CON         equ	23	;# 
   202     0018                     RCSTA           equ	24	;# 
   203     0019                     TXREG           equ	25	;# 
   204     001A                     RCREG           equ	26	;# 
   205     001B                     CCPR2           equ	27	;# 
   206     001B                     CCPR2L          equ	27	;# 
   207     001C                     CCPR2H          equ	28	;# 
   208     001D                     CCP2CON         equ	29	;# 
   209     001E                     ADRESH          equ	30	;# 
   210     001F                     ADCON0          equ	31	;# 
   211     0081                     OPTION_REG      equ	129	;# 
   212     0085                     TRISA           equ	133	;# 
   213     0086                     TRISB           equ	134	;# 
   214     0087                     TRISC           equ	135	;# 
   215     0088                     TRISD           equ	136	;# 
   216     0089                     TRISE           equ	137	;# 
   217     008C                     PIE1            equ	140	;# 
   218     008D                     PIE2            equ	141	;# 
   219     008E                     PCON            equ	142	;# 
   220     0091                     SSPCON2         equ	145	;# 
   221     0092                     PR2             equ	146	;# 
   222     0093                     SSPADD          equ	147	;# 
   223     0094                     SSPSTAT         equ	148	;# 
   224     0098                     TXSTA           equ	152	;# 
   225     0099                     SPBRG           equ	153	;# 
   226     009C                     CMCON           equ	156	;# 
   227     009D                     CVRCON          equ	157	;# 
   228     009E                     ADRESL          equ	158	;# 
   229     009F                     ADCON1          equ	159	;# 
   230     010C                     EEDATA          equ	268	;# 
   231     010D                     EEADR           equ	269	;# 
   232     010E                     EEDATH          equ	270	;# 
   233     010F                     EEADRH          equ	271	;# 
   234     018C                     EECON1          equ	396	;# 
   235     018D                     EECON2          equ	397	;# 
   236     0000                     INDF            equ	0	;# 
   237     0001                     TMR0            equ	1	;# 
   238     0002                     PCL             equ	2	;# 
   239     0003                     STATUS          equ	3	;# 
   240     0004                     FSR             equ	4	;# 
   241     0005                     PORTA           equ	5	;# 
   242     0006                     PORTB           equ	6	;# 
   243     0007                     PORTC           equ	7	;# 
   244     0008                     PORTD           equ	8	;# 
   245     0009                     PORTE           equ	9	;# 
   246     000A                     PCLATH          equ	10	;# 
   247     000B                     INTCON          equ	11	;# 
   248     000C                     PIR1            equ	12	;# 
   249     000D                     PIR2            equ	13	;# 
   250     000E                     TMR1            equ	14	;# 
   251     000E                     TMR1L           equ	14	;# 
   252     000F                     TMR1H           equ	15	;# 
   253     0010                     T1CON           equ	16	;# 
   254     0011                     TMR2            equ	17	;# 
   255     0012                     T2CON           equ	18	;# 
   256     0013                     SSPBUF          equ	19	;# 
   257     0014                     SSPCON          equ	20	;# 
   258     0015                     CCPR1           equ	21	;# 
   259     0015                     CCPR1L          equ	21	;# 
   260     0016                     CCPR1H          equ	22	;# 
   261     0017                     CCP1CON         equ	23	;# 
   262     0018                     RCSTA           equ	24	;# 
   263     0019                     TXREG           equ	25	;# 
   264     001A                     RCREG           equ	26	;# 
   265     001B                     CCPR2           equ	27	;# 
   266     001B                     CCPR2L          equ	27	;# 
   267     001C                     CCPR2H          equ	28	;# 
   268     001D                     CCP2CON         equ	29	;# 
   269     001E                     ADRESH          equ	30	;# 
   270     001F                     ADCON0          equ	31	;# 
   271     0081                     OPTION_REG      equ	129	;# 
   272     0085                     TRISA           equ	133	;# 
   273     0086                     TRISB           equ	134	;# 
   274     0087                     TRISC           equ	135	;# 
   275     0088                     TRISD           equ	136	;# 
   276     0089                     TRISE           equ	137	;# 
   277     008C                     PIE1            equ	140	;# 
   278     008D                     PIE2            equ	141	;# 
   279     008E                     PCON            equ	142	;# 
   280     0091                     SSPCON2         equ	145	;# 
   281     0092                     PR2             equ	146	;# 
   282     0093                     SSPADD          equ	147	;# 
   283     0094                     SSPSTAT         equ	148	;# 
   284     0098                     TXSTA           equ	152	;# 
   285     0099                     SPBRG           equ	153	;# 
   286     009C                     CMCON           equ	156	;# 
   287     009D                     CVRCON          equ	157	;# 
   288     009E                     ADRESL          equ	158	;# 
   289     009F                     ADCON1          equ	159	;# 
   290     010C                     EEDATA          equ	268	;# 
   291     010D                     EEADR           equ	269	;# 
   292     010E                     EEDATH          equ	270	;# 
   293     010F                     EEADRH          equ	271	;# 
   294     018C                     EECON1          equ	396	;# 
   295     018D                     EECON2          equ	397	;# 
   296     0000                     INDF            equ	0	;# 
   297     0001                     TMR0            equ	1	;# 
   298     0002                     PCL             equ	2	;# 
   299     0003                     STATUS          equ	3	;# 
   300     0004                     FSR             equ	4	;# 
   301     0005                     PORTA           equ	5	;# 
   302     0006                     PORTB           equ	6	;# 
   303     0007                     PORTC           equ	7	;# 
   304     0008                     PORTD           equ	8	;# 
   305     0009                     PORTE           equ	9	;# 
   306     000A                     PCLATH          equ	10	;# 
   307     000B                     INTCON          equ	11	;# 
   308     000C                     PIR1            equ	12	;# 
   309     000D                     PIR2            equ	13	;# 
   310     000E                     TMR1            equ	14	;# 
   311     000E                     TMR1L           equ	14	;# 
   312     000F                     TMR1H           equ	15	;# 
   313     0010                     T1CON           equ	16	;# 
   314     0011                     TMR2            equ	17	;# 
   315     0012                     T2CON           equ	18	;# 
   316     0013                     SSPBUF          equ	19	;# 
   317     0014                     SSPCON          equ	20	;# 
   318     0015                     CCPR1           equ	21	;# 
   319     0015                     CCPR1L          equ	21	;# 
   320     0016                     CCPR1H          equ	22	;# 
   321     0017                     CCP1CON         equ	23	;# 
   322     0018                     RCSTA           equ	24	;# 
   323     0019                     TXREG           equ	25	;# 
   324     001A                     RCREG           equ	26	;# 
   325     001B                     CCPR2           equ	27	;# 
   326     001B                     CCPR2L          equ	27	;# 
   327     001C                     CCPR2H          equ	28	;# 
   328     001D                     CCP2CON         equ	29	;# 
   329     001E                     ADRESH          equ	30	;# 
   330     001F                     ADCON0          equ	31	;# 
   331     0081                     OPTION_REG      equ	129	;# 
   332     0085                     TRISA           equ	133	;# 
   333     0086                     TRISB           equ	134	;# 
   334     0087                     TRISC           equ	135	;# 
   335     0088                     TRISD           equ	136	;# 
   336     0089                     TRISE           equ	137	;# 
   337     008C                     PIE1            equ	140	;# 
   338     008D                     PIE2            equ	141	;# 
   339     008E                     PCON            equ	142	;# 
   340     0091                     SSPCON2         equ	145	;# 
   341     0092                     PR2             equ	146	;# 
   342     0093                     SSPADD          equ	147	;# 
   343     0094                     SSPSTAT         equ	148	;# 
   344     0098                     TXSTA           equ	152	;# 
   345     0099                     SPBRG           equ	153	;# 
   346     009C                     CMCON           equ	156	;# 
   347     009D                     CVRCON          equ	157	;# 
   348     009E                     ADRESL          equ	158	;# 
   349     009F                     ADCON1          equ	159	;# 
   350     010C                     EEDATA          equ	268	;# 
   351     010D                     EEADR           equ	269	;# 
   352     010E                     EEDATH          equ	270	;# 
   353     010F                     EEADRH          equ	271	;# 
   354     018C                     EECON1          equ	396	;# 
   355     018D                     EECON2          equ	397	;# 
   356     0000                     INDF            equ	0	;# 
   357     0001                     TMR0            equ	1	;# 
   358     0002                     PCL             equ	2	;# 
   359     0003                     STATUS          equ	3	;# 
   360     0004                     FSR             equ	4	;# 
   361     0005                     PORTA           equ	5	;# 
   362     0006                     PORTB           equ	6	;# 
   363     0007                     PORTC           equ	7	;# 
   364     0008                     PORTD           equ	8	;# 
   365     0009                     PORTE           equ	9	;# 
   366     000A                     PCLATH          equ	10	;# 
   367     000B                     INTCON          equ	11	;# 
   368     000C                     PIR1            equ	12	;# 
   369     000D                     PIR2            equ	13	;# 
   370     000E                     TMR1            equ	14	;# 
   371     000E                     TMR1L           equ	14	;# 
   372     000F                     TMR1H           equ	15	;# 
   373     0010                     T1CON           equ	16	;# 
   374     0011                     TMR2            equ	17	;# 
   375     0012                     T2CON           equ	18	;# 
   376     0013                     SSPBUF          equ	19	;# 
   377     0014                     SSPCON          equ	20	;# 
   378     0015                     CCPR1           equ	21	;# 
   379     0015                     CCPR1L          equ	21	;# 
   380     0016                     CCPR1H          equ	22	;# 
   381     0017                     CCP1CON         equ	23	;# 
   382     0018                     RCSTA           equ	24	;# 
   383     0019                     TXREG           equ	25	;# 
   384     001A                     RCREG           equ	26	;# 
   385     001B                     CCPR2           equ	27	;# 
   386     001B                     CCPR2L          equ	27	;# 
   387     001C                     CCPR2H          equ	28	;# 
   388     001D                     CCP2CON         equ	29	;# 
   389     001E                     ADRESH          equ	30	;# 
   390     001F                     ADCON0          equ	31	;# 
   391     0081                     OPTION_REG      equ	129	;# 
   392     0085                     TRISA           equ	133	;# 
   393     0086                     TRISB           equ	134	;# 
   394     0087                     TRISC           equ	135	;# 
   395     0088                     TRISD           equ	136	;# 
   396     0089                     TRISE           equ	137	;# 
   397     008C                     PIE1            equ	140	;# 
   398     008D                     PIE2            equ	141	;# 
   399     008E                     PCON            equ	142	;# 
   400     0091                     SSPCON2         equ	145	;# 
   401     0092                     PR2             equ	146	;# 
   402     0093                     SSPADD          equ	147	;# 
   403     0094                     SSPSTAT         equ	148	;# 
   404     0098                     TXSTA           equ	152	;# 
   405     0099                     SPBRG           equ	153	;# 
   406     009C                     CMCON           equ	156	;# 
   407     009D                     CVRCON          equ	157	;# 
   408     009E                     ADRESL          equ	158	;# 
   409     009F                     ADCON1          equ	159	;# 
   410     010C                     EEDATA          equ	268	;# 
   411     010D                     EEADR           equ	269	;# 
   412     010E                     EEDATH          equ	270	;# 
   413     010F                     EEADRH          equ	271	;# 
   414     018C                     EECON1          equ	396	;# 
   415     018D                     EECON2          equ	397	;# 
   416     0000                     INDF            equ	0	;# 
   417     0001                     TMR0            equ	1	;# 
   418     0002                     PCL             equ	2	;# 
   419     0003                     STATUS          equ	3	;# 
   420     0004                     FSR             equ	4	;# 
   421     0005                     PORTA           equ	5	;# 
   422     0006                     PORTB           equ	6	;# 
   423     0007                     PORTC           equ	7	;# 
   424     0008                     PORTD           equ	8	;# 
   425     0009                     PORTE           equ	9	;# 
   426     000A                     PCLATH          equ	10	;# 
   427     000B                     INTCON          equ	11	;# 
   428     000C                     PIR1            equ	12	;# 
   429     000D                     PIR2            equ	13	;# 
   430     000E                     TMR1            equ	14	;# 
   431     000E                     TMR1L           equ	14	;# 
   432     000F                     TMR1H           equ	15	;# 
   433     0010                     T1CON           equ	16	;# 
   434     0011                     TMR2            equ	17	;# 
   435     0012                     T2CON           equ	18	;# 
   436     0013                     SSPBUF          equ	19	;# 
   437     0014                     SSPCON          equ	20	;# 
   438     0015                     CCPR1           equ	21	;# 
   439     0015                     CCPR1L          equ	21	;# 
   440     0016                     CCPR1H          equ	22	;# 
   441     0017                     CCP1CON         equ	23	;# 
   442     0018                     RCSTA           equ	24	;# 
   443     0019                     TXREG           equ	25	;# 
   444     001A                     RCREG           equ	26	;# 
   445     001B                     CCPR2           equ	27	;# 
   446     001B                     CCPR2L          equ	27	;# 
   447     001C                     CCPR2H          equ	28	;# 
   448     001D                     CCP2CON         equ	29	;# 
   449     001E                     ADRESH          equ	30	;# 
   450     001F                     ADCON0          equ	31	;# 
   451     0081                     OPTION_REG      equ	129	;# 
   452     0085                     TRISA           equ	133	;# 
   453     0086                     TRISB           equ	134	;# 
   454     0087                     TRISC           equ	135	;# 
   455     0088                     TRISD           equ	136	;# 
   456     0089                     TRISE           equ	137	;# 
   457     008C                     PIE1            equ	140	;# 
   458     008D                     PIE2            equ	141	;# 
   459     008E                     PCON            equ	142	;# 
   460     0091                     SSPCON2         equ	145	;# 
   461     0092                     PR2             equ	146	;# 
   462     0093                     SSPADD          equ	147	;# 
   463     0094                     SSPSTAT         equ	148	;# 
   464     0098                     TXSTA           equ	152	;# 
   465     0099                     SPBRG           equ	153	;# 
   466     009C                     CMCON           equ	156	;# 
   467     009D                     CVRCON          equ	157	;# 
   468     009E                     ADRESL          equ	158	;# 
   469     009F                     ADCON1          equ	159	;# 
   470     010C                     EEDATA          equ	268	;# 
   471     010D                     EEADR           equ	269	;# 
   472     010E                     EEDATH          equ	270	;# 
   473     010F                     EEADRH          equ	271	;# 
   474     018C                     EECON1          equ	396	;# 
   475     018D                     EECON2          equ	397	;# 
   476     0000                     INDF            equ	0	;# 
   477     0001                     TMR0            equ	1	;# 
   478     0002                     PCL             equ	2	;# 
   479     0003                     STATUS          equ	3	;# 
   480     0004                     FSR             equ	4	;# 
   481     0005                     PORTA           equ	5	;# 
   482     0006                     PORTB           equ	6	;# 
   483     0007                     PORTC           equ	7	;# 
   484     0008                     PORTD           equ	8	;# 
   485     0009                     PORTE           equ	9	;# 
   486     000A                     PCLATH          equ	10	;# 
   487     000B                     INTCON          equ	11	;# 
   488     000C                     PIR1            equ	12	;# 
   489     000D                     PIR2            equ	13	;# 
   490     000E                     TMR1            equ	14	;# 
   491     000E                     TMR1L           equ	14	;# 
   492     000F                     TMR1H           equ	15	;# 
   493     0010                     T1CON           equ	16	;# 
   494     0011                     TMR2            equ	17	;# 
   495     0012                     T2CON           equ	18	;# 
   496     0013                     SSPBUF          equ	19	;# 
   497     0014                     SSPCON          equ	20	;# 
   498     0015                     CCPR1           equ	21	;# 
   499     0015                     CCPR1L          equ	21	;# 
   500     0016                     CCPR1H          equ	22	;# 
   501     0017                     CCP1CON         equ	23	;# 
   502     0018                     RCSTA           equ	24	;# 
   503     0019                     TXREG           equ	25	;# 
   504     001A                     RCREG           equ	26	;# 
   505     001B                     CCPR2           equ	27	;# 
   506     001B                     CCPR2L          equ	27	;# 
   507     001C                     CCPR2H          equ	28	;# 
   508     001D                     CCP2CON         equ	29	;# 
   509     001E                     ADRESH          equ	30	;# 
   510     001F                     ADCON0          equ	31	;# 
   511     0081                     OPTION_REG      equ	129	;# 
   512     0085                     TRISA           equ	133	;# 
   513     0086                     TRISB           equ	134	;# 
   514     0087                     TRISC           equ	135	;# 
   515     0088                     TRISD           equ	136	;# 
   516     0089                     TRISE           equ	137	;# 
   517     008C                     PIE1            equ	140	;# 
   518     008D                     PIE2            equ	141	;# 
   519     008E                     PCON            equ	142	;# 
   520     0091                     SSPCON2         equ	145	;# 
   521     0092                     PR2             equ	146	;# 
   522     0093                     SSPADD          equ	147	;# 
   523     0094                     SSPSTAT         equ	148	;# 
   524     0098                     TXSTA           equ	152	;# 
   525     0099                     SPBRG           equ	153	;# 
   526     009C                     CMCON           equ	156	;# 
   527     009D                     CVRCON          equ	157	;# 
   528     009E                     ADRESL          equ	158	;# 
   529     009F                     ADCON1          equ	159	;# 
   530     010C                     EEDATA          equ	268	;# 
   531     010D                     EEADR           equ	269	;# 
   532     010E                     EEDATH          equ	270	;# 
   533     010F                     EEADRH          equ	271	;# 
   534     018C                     EECON1          equ	396	;# 
   535     018D                     EECON2          equ	397	;# 
   536     0000                     INDF            equ	0	;# 
   537     0001                     TMR0            equ	1	;# 
   538     0002                     PCL             equ	2	;# 
   539     0003                     STATUS          equ	3	;# 
   540     0004                     FSR             equ	4	;# 
   541     0005                     PORTA           equ	5	;# 
   542     0006                     PORTB           equ	6	;# 
   543     0007                     PORTC           equ	7	;# 
   544     0008                     PORTD           equ	8	;# 
   545     0009                     PORTE           equ	9	;# 
   546     000A                     PCLATH          equ	10	;# 
   547     000B                     INTCON          equ	11	;# 
   548     000C                     PIR1            equ	12	;# 
   549     000D                     PIR2            equ	13	;# 
   550     000E                     TMR1            equ	14	;# 
   551     000E                     TMR1L           equ	14	;# 
   552     000F                     TMR1H           equ	15	;# 
   553     0010                     T1CON           equ	16	;# 
   554     0011                     TMR2            equ	17	;# 
   555     0012                     T2CON           equ	18	;# 
   556     0013                     SSPBUF          equ	19	;# 
   557     0014                     SSPCON          equ	20	;# 
   558     0015                     CCPR1           equ	21	;# 
   559     0015                     CCPR1L          equ	21	;# 
   560     0016                     CCPR1H          equ	22	;# 
   561     0017                     CCP1CON         equ	23	;# 
   562     0018                     RCSTA           equ	24	;# 
   563     0019                     TXREG           equ	25	;# 
   564     001A                     RCREG           equ	26	;# 
   565     001B                     CCPR2           equ	27	;# 
   566     001B                     CCPR2L          equ	27	;# 
   567     001C                     CCPR2H          equ	28	;# 
   568     001D                     CCP2CON         equ	29	;# 
   569     001E                     ADRESH          equ	30	;# 
   570     001F                     ADCON0          equ	31	;# 
   571     0081                     OPTION_REG      equ	129	;# 
   572     0085                     TRISA           equ	133	;# 
   573     0086                     TRISB           equ	134	;# 
   574     0087                     TRISC           equ	135	;# 
   575     0088                     TRISD           equ	136	;# 
   576     0089                     TRISE           equ	137	;# 
   577     008C                     PIE1            equ	140	;# 
   578     008D                     PIE2            equ	141	;# 
   579     008E                     PCON            equ	142	;# 
   580     0091                     SSPCON2         equ	145	;# 
   581     0092                     PR2             equ	146	;# 
   582     0093                     SSPADD          equ	147	;# 
   583     0094                     SSPSTAT         equ	148	;# 
   584     0098                     TXSTA           equ	152	;# 
   585     0099                     SPBRG           equ	153	;# 
   586     009C                     CMCON           equ	156	;# 
   587     009D                     CVRCON          equ	157	;# 
   588     009E                     ADRESL          equ	158	;# 
   589     009F                     ADCON1          equ	159	;# 
   590     010C                     EEDATA          equ	268	;# 
   591     010D                     EEADR           equ	269	;# 
   592     010E                     EEDATH          equ	270	;# 
   593     010F                     EEADRH          equ	271	;# 
   594     018C                     EECON1          equ	396	;# 
   595     018D                     EECON2          equ	397	;# 
   596     0000                     INDF            equ	0	;# 
   597     0001                     TMR0            equ	1	;# 
   598     0002                     PCL             equ	2	;# 
   599     0003                     STATUS          equ	3	;# 
   600     0004                     FSR             equ	4	;# 
   601     0005                     PORTA           equ	5	;# 
   602     0006                     PORTB           equ	6	;# 
   603     0007                     PORTC           equ	7	;# 
   604     0008                     PORTD           equ	8	;# 
   605     0009                     PORTE           equ	9	;# 
   606     000A                     PCLATH          equ	10	;# 
   607     000B                     INTCON          equ	11	;# 
   608     000C                     PIR1            equ	12	;# 
   609     000D                     PIR2            equ	13	;# 
   610     000E                     TMR1            equ	14	;# 
   611     000E                     TMR1L           equ	14	;# 
   612     000F                     TMR1H           equ	15	;# 
   613     0010                     T1CON           equ	16	;# 
   614     0011                     TMR2            equ	17	;# 
   615     0012                     T2CON           equ	18	;# 
   616     0013                     SSPBUF          equ	19	;# 
   617     0014                     SSPCON          equ	20	;# 
   618     0015                     CCPR1           equ	21	;# 
   619     0015                     CCPR1L          equ	21	;# 
   620     0016                     CCPR1H          equ	22	;# 
   621     0017                     CCP1CON         equ	23	;# 
   622     0018                     RCSTA           equ	24	;# 
   623     0019                     TXREG           equ	25	;# 
   624     001A                     RCREG           equ	26	;# 
   625     001B                     CCPR2           equ	27	;# 
   626     001B                     CCPR2L          equ	27	;# 
   627     001C                     CCPR2H          equ	28	;# 
   628     001D                     CCP2CON         equ	29	;# 
   629     001E                     ADRESH          equ	30	;# 
   630     001F                     ADCON0          equ	31	;# 
   631     0081                     OPTION_REG      equ	129	;# 
   632     0085                     TRISA           equ	133	;# 
   633     0086                     TRISB           equ	134	;# 
   634     0087                     TRISC           equ	135	;# 
   635     0088                     TRISD           equ	136	;# 
   636     0089                     TRISE           equ	137	;# 
   637     008C                     PIE1            equ	140	;# 
   638     008D                     PIE2            equ	141	;# 
   639     008E                     PCON            equ	142	;# 
   640     0091                     SSPCON2         equ	145	;# 
   641     0092                     PR2             equ	146	;# 
   642     0093                     SSPADD          equ	147	;# 
   643     0094                     SSPSTAT         equ	148	;# 
   644     0098                     TXSTA           equ	152	;# 
   645     0099                     SPBRG           equ	153	;# 
   646     009C                     CMCON           equ	156	;# 
   647     009D                     CVRCON          equ	157	;# 
   648     009E                     ADRESL          equ	158	;# 
   649     009F                     ADCON1          equ	159	;# 
   650     010C                     EEDATA          equ	268	;# 
   651     010D                     EEADR           equ	269	;# 
   652     010E                     EEDATH          equ	270	;# 
   653     010F                     EEADRH          equ	271	;# 
   654     018C                     EECON1          equ	396	;# 
   655     018D                     EECON2          equ	397	;# 
   656     0000                     INDF            equ	0	;# 
   657     0001                     TMR0            equ	1	;# 
   658     0002                     PCL             equ	2	;# 
   659     0003                     STATUS          equ	3	;# 
   660     0004                     FSR             equ	4	;# 
   661     0005                     PORTA           equ	5	;# 
   662     0006                     PORTB           equ	6	;# 
   663     0007                     PORTC           equ	7	;# 
   664     0008                     PORTD           equ	8	;# 
   665     0009                     PORTE           equ	9	;# 
   666     000A                     PCLATH          equ	10	;# 
   667     000B                     INTCON          equ	11	;# 
   668     000C                     PIR1            equ	12	;# 
   669     000D                     PIR2            equ	13	;# 
   670     000E                     TMR1            equ	14	;# 
   671     000E                     TMR1L           equ	14	;# 
   672     000F                     TMR1H           equ	15	;# 
   673     0010                     T1CON           equ	16	;# 
   674     0011                     TMR2            equ	17	;# 
   675     0012                     T2CON           equ	18	;# 
   676     0013                     SSPBUF          equ	19	;# 
   677     0014                     SSPCON          equ	20	;# 
   678     0015                     CCPR1           equ	21	;# 
   679     0015                     CCPR1L          equ	21	;# 
   680     0016                     CCPR1H          equ	22	;# 
   681     0017                     CCP1CON         equ	23	;# 
   682     0018                     RCSTA           equ	24	;# 
   683     0019                     TXREG           equ	25	;# 
   684     001A                     RCREG           equ	26	;# 
   685     001B                     CCPR2           equ	27	;# 
   686     001B                     CCPR2L          equ	27	;# 
   687     001C                     CCPR2H          equ	28	;# 
   688     001D                     CCP2CON         equ	29	;# 
   689     001E                     ADRESH          equ	30	;# 
   690     001F                     ADCON0          equ	31	;# 
   691     0081                     OPTION_REG      equ	129	;# 
   692     0085                     TRISA           equ	133	;# 
   693     0086                     TRISB           equ	134	;# 
   694     0087                     TRISC           equ	135	;# 
   695     0088                     TRISD           equ	136	;# 
   696     0089                     TRISE           equ	137	;# 
   697     008C                     PIE1            equ	140	;# 
   698     008D                     PIE2            equ	141	;# 
   699     008E                     PCON            equ	142	;# 
   700     0091                     SSPCON2         equ	145	;# 
   701     0092                     PR2             equ	146	;# 
   702     0093                     SSPADD          equ	147	;# 
   703     0094                     SSPSTAT         equ	148	;# 
   704     0098                     TXSTA           equ	152	;# 
   705     0099                     SPBRG           equ	153	;# 
   706     009C                     CMCON           equ	156	;# 
   707     009D                     CVRCON          equ	157	;# 
   708     009E                     ADRESL          equ	158	;# 
   709     009F                     ADCON1          equ	159	;# 
   710     010C                     EEDATA          equ	268	;# 
   711     010D                     EEADR           equ	269	;# 
   712     010E                     EEDATH          equ	270	;# 
   713     010F                     EEADRH          equ	271	;# 
   714     018C                     EECON1          equ	396	;# 
   715     018D                     EECON2          equ	397	;# 
   716     0000                     INDF            equ	0	;# 
   717     0001                     TMR0            equ	1	;# 
   718     0002                     PCL             equ	2	;# 
   719     0003                     STATUS          equ	3	;# 
   720     0004                     FSR             equ	4	;# 
   721     0005                     PORTA           equ	5	;# 
   722     0006                     PORTB           equ	6	;# 
   723     0007                     PORTC           equ	7	;# 
   724     0008                     PORTD           equ	8	;# 
   725     0009                     PORTE           equ	9	;# 
   726     000A                     PCLATH          equ	10	;# 
   727     000B                     INTCON          equ	11	;# 
   728     000C                     PIR1            equ	12	;# 
   729     000D                     PIR2            equ	13	;# 
   730     000E                     TMR1            equ	14	;# 
   731     000E                     TMR1L           equ	14	;# 
   732     000F                     TMR1H           equ	15	;# 
   733     0010                     T1CON           equ	16	;# 
   734     0011                     TMR2            equ	17	;# 
   735     0012                     T2CON           equ	18	;# 
   736     0013                     SSPBUF          equ	19	;# 
   737     0014                     SSPCON          equ	20	;# 
   738     0015                     CCPR1           equ	21	;# 
   739     0015                     CCPR1L          equ	21	;# 
   740     0016                     CCPR1H          equ	22	;# 
   741     0017                     CCP1CON         equ	23	;# 
   742     0018                     RCSTA           equ	24	;# 
   743     0019                     TXREG           equ	25	;# 
   744     001A                     RCREG           equ	26	;# 
   745     001B                     CCPR2           equ	27	;# 
   746     001B                     CCPR2L          equ	27	;# 
   747     001C                     CCPR2H          equ	28	;# 
   748     001D                     CCP2CON         equ	29	;# 
   749     001E                     ADRESH          equ	30	;# 
   750     001F                     ADCON0          equ	31	;# 
   751     0081                     OPTION_REG      equ	129	;# 
   752     0085                     TRISA           equ	133	;# 
   753     0086                     TRISB           equ	134	;# 
   754     0087                     TRISC           equ	135	;# 
   755     0088                     TRISD           equ	136	;# 
   756     0089                     TRISE           equ	137	;# 
   757     008C                     PIE1            equ	140	;# 
   758     008D                     PIE2            equ	141	;# 
   759     008E                     PCON            equ	142	;# 
   760     0091                     SSPCON2         equ	145	;# 
   761     0092                     PR2             equ	146	;# 
   762     0093                     SSPADD          equ	147	;# 
   763     0094                     SSPSTAT         equ	148	;# 
   764     0098                     TXSTA           equ	152	;# 
   765     0099                     SPBRG           equ	153	;# 
   766     009C                     CMCON           equ	156	;# 
   767     009D                     CVRCON          equ	157	;# 
   768     009E                     ADRESL          equ	158	;# 
   769     009F                     ADCON1          equ	159	;# 
   770     010C                     EEDATA          equ	268	;# 
   771     010D                     EEADR           equ	269	;# 
   772     010E                     EEDATH          equ	270	;# 
   773     010F                     EEADRH          equ	271	;# 
   774     018C                     EECON1          equ	396	;# 
   775     018D                     EECON2          equ	397	;# 
   776     0000                     INDF            equ	0	;# 
   777     0001                     TMR0            equ	1	;# 
   778     0002                     PCL             equ	2	;# 
   779     0003                     STATUS          equ	3	;# 
   780     0004                     FSR             equ	4	;# 
   781     0005                     PORTA           equ	5	;# 
   782     0006                     PORTB           equ	6	;# 
   783     0007                     PORTC           equ	7	;# 
   784     0008                     PORTD           equ	8	;# 
   785     0009                     PORTE           equ	9	;# 
   786     000A                     PCLATH          equ	10	;# 
   787     000B                     INTCON          equ	11	;# 
   788     000C                     PIR1            equ	12	;# 
   789     000D                     PIR2            equ	13	;# 
   790     000E                     TMR1            equ	14	;# 
   791     000E                     TMR1L           equ	14	;# 
   792     000F                     TMR1H           equ	15	;# 
   793     0010                     T1CON           equ	16	;# 
   794     0011                     TMR2            equ	17	;# 
   795     0012                     T2CON           equ	18	;# 
   796     0013                     SSPBUF          equ	19	;# 
   797     0014                     SSPCON          equ	20	;# 
   798     0015                     CCPR1           equ	21	;# 
   799     0015                     CCPR1L          equ	21	;# 
   800     0016                     CCPR1H          equ	22	;# 
   801     0017                     CCP1CON         equ	23	;# 
   802     0018                     RCSTA           equ	24	;# 
   803     0019                     TXREG           equ	25	;# 
   804     001A                     RCREG           equ	26	;# 
   805     001B                     CCPR2           equ	27	;# 
   806     001B                     CCPR2L          equ	27	;# 
   807     001C                     CCPR2H          equ	28	;# 
   808     001D                     CCP2CON         equ	29	;# 
   809     001E                     ADRESH          equ	30	;# 
   810     001F                     ADCON0          equ	31	;# 
   811     0081                     OPTION_REG      equ	129	;# 
   812     0085                     TRISA           equ	133	;# 
   813     0086                     TRISB           equ	134	;# 
   814     0087                     TRISC           equ	135	;# 
   815     0088                     TRISD           equ	136	;# 
   816     0089                     TRISE           equ	137	;# 
   817     008C                     PIE1            equ	140	;# 
   818     008D                     PIE2            equ	141	;# 
   819     008E                     PCON            equ	142	;# 
   820     0091                     SSPCON2         equ	145	;# 
   821     0092                     PR2             equ	146	;# 
   822     0093                     SSPADD          equ	147	;# 
   823     0094                     SSPSTAT         equ	148	;# 
   824     0098                     TXSTA           equ	152	;# 
   825     0099                     SPBRG           equ	153	;# 
   826     009C                     CMCON           equ	156	;# 
   827     009D                     CVRCON          equ	157	;# 
   828     009E                     ADRESL          equ	158	;# 
   829     009F                     ADCON1          equ	159	;# 
   830     010C                     EEDATA          equ	268	;# 
   831     010D                     EEADR           equ	269	;# 
   832     010E                     EEDATH          equ	270	;# 
   833     010F                     EEADRH          equ	271	;# 
   834     018C                     EECON1          equ	396	;# 
   835     018D                     EECON2          equ	397	;# 
   836     0000                     INDF            equ	0	;# 
   837     0001                     TMR0            equ	1	;# 
   838     0002                     PCL             equ	2	;# 
   839     0003                     STATUS          equ	3	;# 
   840     0004                     FSR             equ	4	;# 
   841     0005                     PORTA           equ	5	;# 
   842     0006                     PORTB           equ	6	;# 
   843     0007                     PORTC           equ	7	;# 
   844     0008                     PORTD           equ	8	;# 
   845     0009                     PORTE           equ	9	;# 
   846     000A                     PCLATH          equ	10	;# 
   847     000B                     INTCON          equ	11	;# 
   848     000C                     PIR1            equ	12	;# 
   849     000D                     PIR2            equ	13	;# 
   850     000E                     TMR1            equ	14	;# 
   851     000E                     TMR1L           equ	14	;# 
   852     000F                     TMR1H           equ	15	;# 
   853     0010                     T1CON           equ	16	;# 
   854     0011                     TMR2            equ	17	;# 
   855     0012                     T2CON           equ	18	;# 
   856     0013                     SSPBUF          equ	19	;# 
   857     0014                     SSPCON          equ	20	;# 
   858     0015                     CCPR1           equ	21	;# 
   859     0015                     CCPR1L          equ	21	;# 
   860     0016                     CCPR1H          equ	22	;# 
   861     0017                     CCP1CON         equ	23	;# 
   862     0018                     RCSTA           equ	24	;# 
   863     0019                     TXREG           equ	25	;# 
   864     001A                     RCREG           equ	26	;# 
   865     001B                     CCPR2           equ	27	;# 
   866     001B                     CCPR2L          equ	27	;# 
   867     001C                     CCPR2H          equ	28	;# 
   868     001D                     CCP2CON         equ	29	;# 
   869     001E                     ADRESH          equ	30	;# 
   870     001F                     ADCON0          equ	31	;# 
   871     0081                     OPTION_REG      equ	129	;# 
   872     0085                     TRISA           equ	133	;# 
   873     0086                     TRISB           equ	134	;# 
   874     0087                     TRISC           equ	135	;# 
   875     0088                     TRISD           equ	136	;# 
   876     0089                     TRISE           equ	137	;# 
   877     008C                     PIE1            equ	140	;# 
   878     008D                     PIE2            equ	141	;# 
   879     008E                     PCON            equ	142	;# 
   880     0091                     SSPCON2         equ	145	;# 
   881     0092                     PR2             equ	146	;# 
   882     0093                     SSPADD          equ	147	;# 
   883     0094                     SSPSTAT         equ	148	;# 
   884     0098                     TXSTA           equ	152	;# 
   885     0099                     SPBRG           equ	153	;# 
   886     009C                     CMCON           equ	156	;# 
   887     009D                     CVRCON          equ	157	;# 
   888     009E                     ADRESL          equ	158	;# 
   889     009F                     ADCON1          equ	159	;# 
   890     010C                     EEDATA          equ	268	;# 
   891     010D                     EEADR           equ	269	;# 
   892     010E                     EEDATH          equ	270	;# 
   893     010F                     EEADRH          equ	271	;# 
   894     018C                     EECON1          equ	396	;# 
   895     018D                     EECON2          equ	397	;# 
   896                           
   897                           	psect	idataBANK0
   898     07FD                     __pidataBANK0:
   899                           
   900                           ;initializer for _delay
   901     07FD  341E               	retlw	30
   902     07FE  3400               	retlw	0
   903                           
   904                           ;initializer for read_digital_keypad@once
   905     07FF  3401               	retlw	1
   906                           
   907                           	psect	idataBANK1
   908     1740                     __pidataBANK1:
   909                           
   910                           ;initializer for _event
   911     1740  3432               	retlw	low (STR_1| (0+32768))
   912     1741  3485               	retlw	high (STR_1| (0+32768))
   913     1742  342F               	retlw	low (STR_2| (0+32768))
   914     1743  3485               	retlw	high (STR_2| (0+32768))
   915     1744  3423               	retlw	low (STR_3| (0+32768))
   916     1745  3485               	retlw	high (STR_3| (0+32768))
   917     1746  3426               	retlw	low (STR_4| (0+32768))
   918     1747  3485               	retlw	high (STR_4| (0+32768))
   919     1748  3429               	retlw	low (STR_5| (0+32768))
   920     1749  3485               	retlw	high (STR_5| (0+32768))
   921     174A  342C               	retlw	low (STR_6| (0+32768))
   922     174B  3485               	retlw	high (STR_6| (0+32768))
   923     174C  3435               	retlw	low (STR_7| (0+32768))
   924     174D  3485               	retlw	high (STR_7| (0+32768))
   925     174E  3420               	retlw	low (STR_8| (0+32768))
   926     174F  3485               	retlw	high (STR_8| (0+32768))
   927                           
   928                           ;initializer for _menu_options
   929     1750  34B7               	retlw	low (STR_9| (0+32768))
   930     1751  3484               	retlw	high (STR_9| (0+32768))
   931     1752  34C6               	retlw	low (STR_10| (0+32768))
   932     1753  3484               	retlw	high (STR_10| (0+32768))
   933     1754  34E4               	retlw	low (STR_11| (0+32768))
   934     1755  3484               	retlw	high (STR_11| (0+32768))
   935     1756  34A8               	retlw	low (STR_12| (0+32768))
   936     1757  3484               	retlw	high (STR_12| (0+32768))
   937     1758  34D5               	retlw	low (STR_13| (0+32768))
   938     1759  3484               	retlw	high (STR_13| (0+32768))
   939                           
   940                           ;initializer for _original_password
   941     175A  3430               	retlw	48
   942     175B  3431               	retlw	49
   943     175C  3430               	retlw	48
   944     175D  3431               	retlw	49
   945     0001                     _TMR0           set	1
   946     0019                     _TXREG          set	25
   947     001A                     _RCREG          set	26
   948     001E                     _ADRESH         set	30
   949     001F                     _ADCON0         set	31
   950     0013                     _SSPBUF         set	19
   951     0008                     _PORTD          set	8
   952     0006                     _PORTB          set	6
   953     005A                     _TMR0IF         set	90
   954     005D                     _TMR0IE         set	93
   955     0064                     _TXIF           set	100
   956     0065                     _RCIF           set	101
   957     00C4                     _CREN           set	196
   958     00C7                     _SPEN           set	199
   959     00FA                     _nDONE          set	250
   960     00FA                     _GO             set	250
   961     00F8                     _ADON           set	248
   962     00A5                     _SSPEN          set	165
   963     00A3                     _SSPM3          set	163
   964     0049                     _RE1            set	73
   965     004A                     _RE2            set	74
   966     005F                     _GIE            set	95
   967     0099                     _SPBRG          set	153
   968     009E                     _ADRESL         set	158
   969     0091                     _SSPCON2        set	145
   970     0093                     _SSPADD         set	147
   971     0088                     _TRISD          set	136
   972     0086                     _TRISB          set	134
   973     040B                     _PSA            set	1035
   974     040D                     _T0CS           set	1037
   975     04FF                     _ADFM           set	1279
   976     048E                     _ACKSTAT        set	1166
   977     048C                     _ACKEN          set	1164
   978     048D                     _ACKDT          set	1165
   979     048B                     _RCEN           set	1163
   980     048A                     _PEN            set	1162
   981     0488                     _SEN            set	1160
   982     04A2                     _R_nW           set	1186
   983     0449                     _TRISE1         set	1097
   984     044A                     _TRISE2         set	1098
   985                           
   986                           	psect	strings
   987     1000                     __pstrings:
   988     1000                     stringtab:
   989     1000                     __stringtab:
   990                           
   991                           ;	String table - string pointers are 2 bytes each
   992     1000  1BFF               	btfsc	btemp+1,7
   993     1001  280A               	ljmp	stringcode
   994     1002  1383               	bcf	3,7
   995     1003  187F               	btfsc	btemp+1,0
   996     1004  1783               	bsf	3,7
   997     1005  0800               	movf	0,w
   998     1006  0A84               	incf	4,f
   999     1007  1903               	skipnz
  1000     1008  0AFF               	incf	btemp+1,f
  1001     1009  0008               	return
  1002     100A                     stringcode:
  1003     100A  087F               	movf	btemp+1,w
  1004     100B  397F               	andlw	127
  1005     100C  008A               	movwf	10
  1006     100D  0804               	movf	4,w
  1007     100E  0A84               	incf	4,f
  1008     100F  1903               	skipnz
  1009     1010  0AFF               	incf	btemp+1,f
  1010     1011  0082               	movwf	2
  1011     1012                     __stringbase:
  1012     1012                     __end_of__stringtab:
  1013                           
  1014                           	psect	stringtext
  1015     0400                     __pstringtext:
  1016     0400                     STR_25:
  1017     0400  3423               	retlw	35	;'#'
  1018     0401  3420               	retlw	32	;' '
  1019     0402  3454               	retlw	84	;'T'
  1020     0403  3449               	retlw	73	;'I'
  1021     0404  344D               	retlw	77	;'M'
  1022     0405  3445               	retlw	69	;'E'
  1023     0406  3420               	retlw	32	;' '
  1024     0407  3420               	retlw	32	;' '
  1025     0408  3420               	retlw	32	;' '
  1026     0409  3420               	retlw	32	;' '
  1027     040A  3420               	retlw	32	;' '
  1028     040B  3445               	retlw	69	;'E'
  1029     040C  3456               	retlw	86	;'V'
  1030     040D  3420               	retlw	32	;' '
  1031     040E  3453               	retlw	83	;'S'
  1032     040F  3450               	retlw	80	;'P'
  1033     0410  340A               	retlw	10
  1034     0411  3400               	retlw	0
  1035     0412                     STR_31:
  1036     0412  3420               	retlw	32	;' '
  1037     0413  3420               	retlw	32	;' '
  1038     0414  3420               	retlw	32	;' '
  1039     0415  3420               	retlw	32	;' '
  1040     0416  3420               	retlw	32	;' '
  1041     0417  3420               	retlw	32	;' '
  1042     0418  3420               	retlw	32	;' '
  1043     0419  3420               	retlw	32	;' '
  1044     041A  3420               	retlw	32	;' '
  1045     041B  3420               	retlw	32	;' '
  1046     041C  3420               	retlw	32	;' '
  1047     041D  3420               	retlw	32	;' '
  1048     041E  3420               	retlw	32	;' '
  1049     041F  3420               	retlw	32	;' '
  1050     0420  3420               	retlw	32	;' '
  1051     0421  3420               	retlw	32	;' '
  1052     0422  3400               	retlw	0
  1053     0423                     STR_33:
  1054     0423  3420               	retlw	32	;' '
  1055     0424  3445               	retlw	69	;'E'
  1056     0425  344E               	retlw	78	;'N'
  1057     0426  3454               	retlw	84	;'T'
  1058     0427  3445               	retlw	69	;'E'
  1059     0428  3452               	retlw	82	;'R'
  1060     0429  3449               	retlw	73	;'I'
  1061     042A  344E               	retlw	78	;'N'
  1062     042B  3447               	retlw	71	;'G'
  1063     042C  3420               	retlw	32	;' '
  1064     042D  3457               	retlw	87	;'W'
  1065     042E  3441               	retlw	65	;'A'
  1066     042F  3449               	retlw	73	;'I'
  1067     0430  3454               	retlw	84	;'T'
  1068     0431  3420               	retlw	32	;' '
  1069     0432  3420               	retlw	32	;' '
  1070     0433  3400               	retlw	0
  1071     0434                     STR_30:
  1072     0434  3420               	retlw	32	;' '
  1073     0435  3445               	retlw	69	;'E'
  1074     0436  344E               	retlw	78	;'N'
  1075     0437  3454               	retlw	84	;'T'
  1076     0438  3445               	retlw	69	;'E'
  1077     0439  3452               	retlw	82	;'R'
  1078     043A  3420               	retlw	32	;' '
  1079     043B  3450               	retlw	80	;'P'
  1080     043C  3441               	retlw	65	;'A'
  1081     043D  3453               	retlw	83	;'S'
  1082     043E  3453               	retlw	83	;'S'
  1083     043F  3457               	retlw	87	;'W'
  1084     0440  344F               	retlw	79	;'O'
  1085     0441  3452               	retlw	82	;'R'
  1086     0442  3444               	retlw	68	;'D'
  1087     0443  3420               	retlw	32	;' '
  1088     0444  3400               	retlw	0
  1089     0445                     STR_29:
  1090     0445  3420               	retlw	32	;' '
  1091     0446  3420               	retlw	32	;' '
  1092     0447  3420               	retlw	32	;' '
  1093     0448  3420               	retlw	32	;' '
  1094     0449  3448               	retlw	72	;'H'
  1095     044A  3448               	retlw	72	;'H'
  1096     044B  343A               	retlw	58	;':'
  1097     044C  344D               	retlw	77	;'M'
  1098     044D  344D               	retlw	77	;'M'
  1099     044E  343A               	retlw	58	;':'
  1100     044F  3453               	retlw	83	;'S'
  1101     0450  3453               	retlw	83	;'S'
  1102     0451  3420               	retlw	32	;' '
  1103     0452  3420               	retlw	32	;' '
  1104     0453  3420               	retlw	32	;' '
  1105     0454  3420               	retlw	32	;' '
  1106     0455  3400               	retlw	0
  1107     0456                     STR_22:
  1108     0456  3443               	retlw	67	;'C'
  1109     0457  346C               	retlw	108	;'l'
  1110     0458  3465               	retlw	101	;'e'
  1111     0459  3461               	retlw	97	;'a'
  1112     045A  3472               	retlw	114	;'r'
  1113     045B  3469               	retlw	105	;'i'
  1114     045C  346E               	retlw	110	;'n'
  1115     045D  3467               	retlw	103	;'g'
  1116     045E  3420               	retlw	32	;' '
  1117     045F  344C               	retlw	76	;'L'
  1118     0460  346F               	retlw	111	;'o'
  1119     0461  3467               	retlw	103	;'g'
  1120     0462  3473               	retlw	115	;'s'
  1121     0463  342E               	retlw	46	;'.'
  1122     0464  342E               	retlw	46	;'.'
  1123     0465  342E               	retlw	46	;'.'
  1124     0466  3400               	retlw	0
  1125     0467                     STR_14:
  1126     0467  3420               	retlw	32	;' '
  1127     0468  3454               	retlw	84	;'T'
  1128     0469  3449               	retlw	73	;'I'
  1129     046A  344D               	retlw	77	;'M'
  1130     046B  3445               	retlw	69	;'E'
  1131     046C  3420               	retlw	32	;' '
  1132     046D  3420               	retlw	32	;' '
  1133     046E  3420               	retlw	32	;' '
  1134     046F  3420               	retlw	32	;' '
  1135     0470  3420               	retlw	32	;' '
  1136     0471  3445               	retlw	69	;'E'
  1137     0472  3456               	retlw	86	;'V'
  1138     0473  3420               	retlw	32	;' '
  1139     0474  3420               	retlw	32	;' '
  1140     0475  3453               	retlw	83	;'S'
  1141     0476  3450               	retlw	80	;'P'
  1142     0477  3400               	retlw	0
  1143     0478                     STR_21:
  1144     0478  3423               	retlw	35	;'#'
  1145     0479  3420               	retlw	32	;' '
  1146     047A  3454               	retlw	84	;'T'
  1147     047B  3449               	retlw	73	;'I'
  1148     047C  344D               	retlw	77	;'M'
  1149     047D  3445               	retlw	69	;'E'
  1150     047E  3420               	retlw	32	;' '
  1151     047F  3420               	retlw	32	;' '
  1152     0480  3420               	retlw	32	;' '
  1153     0481  3420               	retlw	32	;' '
  1154     0482  3420               	retlw	32	;' '
  1155     0483  3445               	retlw	69	;'E'
  1156     0484  3456               	retlw	86	;'V'
  1157     0485  3420               	retlw	32	;' '
  1158     0486  3453               	retlw	83	;'S'
  1159     0487  3450               	retlw	80	;'P'
  1160     0488  3400               	retlw	0
  1161     0489                     STR_32:
  1162     0489  3441               	retlw	65	;'A'
  1163     048A  3463               	retlw	99	;'c'
  1164     048B  3463               	retlw	99	;'c'
  1165     048C  3465               	retlw	101	;'e'
  1166     048D  3473               	retlw	115	;'s'
  1167     048E  3473               	retlw	115	;'s'
  1168     048F  3420               	retlw	32	;' '
  1169     0490  3447               	retlw	71	;'G'
  1170     0491  3472               	retlw	114	;'r'
  1171     0492  3461               	retlw	97	;'a'
  1172     0493  346E               	retlw	110	;'n'
  1173     0494  3474               	retlw	116	;'t'
  1174     0495  3465               	retlw	101	;'e'
  1175     0496  3464               	retlw	100	;'d'
  1176     0497  342E               	retlw	46	;'.'
  1177     0498  3400               	retlw	0
  1178     0499                     STR_34:
  1179     0499  3453               	retlw	83	;'S'
  1180     049A  3465               	retlw	101	;'e'
  1181     049B  3463               	retlw	99	;'c'
  1182     049C  346F               	retlw	111	;'o'
  1183     049D  346E               	retlw	110	;'n'
  1184     049E  3464               	retlw	100	;'d'
  1185     049F  3473               	retlw	115	;'s'
  1186     04A0  3420               	retlw	32	;' '
  1187     04A1  346C               	retlw	108	;'l'
  1188     04A2  3465               	retlw	101	;'e'
  1189     04A3  3466               	retlw	102	;'f'
  1190     04A4  3474               	retlw	116	;'t'
  1191     04A5  343A               	retlw	58	;':'
  1192     04A6  3420               	retlw	32	;' '
  1193     04A7  3400               	retlw	0
  1194     04A8                     STR_12:
  1195     04A8  3453               	retlw	83	;'S'
  1196     04A9  3465               	retlw	101	;'e'
  1197     04AA  3474               	retlw	116	;'t'
  1198     04AB  3420               	retlw	32	;' '
  1199     04AC  3454               	retlw	84	;'T'
  1200     04AD  3469               	retlw	105	;'i'
  1201     04AE  346D               	retlw	109	;'m'
  1202     04AF  3465               	retlw	101	;'e'
  1203     04B0  3420               	retlw	32	;' '
  1204     04B1  3420               	retlw	32	;' '
  1205     04B2  3420               	retlw	32	;' '
  1206     04B3  3420               	retlw	32	;' '
  1207     04B4  3420               	retlw	32	;' '
  1208     04B5  3420               	retlw	32	;' '
  1209     04B6  3400               	retlw	0
  1210     04B7                     STR_9:
  1211     04B7  3456               	retlw	86	;'V'
  1212     04B8  3469               	retlw	105	;'i'
  1213     04B9  3465               	retlw	101	;'e'
  1214     04BA  3477               	retlw	119	;'w'
  1215     04BB  3420               	retlw	32	;' '
  1216     04BC  344C               	retlw	76	;'L'
  1217     04BD  346F               	retlw	111	;'o'
  1218     04BE  3467               	retlw	103	;'g'
  1219     04BF  3420               	retlw	32	;' '
  1220     04C0  3420               	retlw	32	;' '
  1221     04C1  3420               	retlw	32	;' '
  1222     04C2  3420               	retlw	32	;' '
  1223     04C3  3420               	retlw	32	;' '
  1224     04C4  3420               	retlw	32	;' '
  1225     04C5  3400               	retlw	0
  1226     04C6                     STR_10:
  1227     04C6  3443               	retlw	67	;'C'
  1228     04C7  346C               	retlw	108	;'l'
  1229     04C8  3465               	retlw	101	;'e'
  1230     04C9  3461               	retlw	97	;'a'
  1231     04CA  3472               	retlw	114	;'r'
  1232     04CB  3420               	retlw	32	;' '
  1233     04CC  344C               	retlw	76	;'L'
  1234     04CD  346F               	retlw	111	;'o'
  1235     04CE  3467               	retlw	103	;'g'
  1236     04CF  3420               	retlw	32	;' '
  1237     04D0  3420               	retlw	32	;' '
  1238     04D1  3420               	retlw	32	;' '
  1239     04D2  3420               	retlw	32	;' '
  1240     04D3  3420               	retlw	32	;' '
  1241     04D4  3400               	retlw	0
  1242     04D5                     STR_13:
  1243     04D5  3443               	retlw	67	;'C'
  1244     04D6  3468               	retlw	104	;'h'
  1245     04D7  3461               	retlw	97	;'a'
  1246     04D8  346E               	retlw	110	;'n'
  1247     04D9  3467               	retlw	103	;'g'
  1248     04DA  3465               	retlw	101	;'e'
  1249     04DB  3420               	retlw	32	;' '
  1250     04DC  3450               	retlw	80	;'P'
  1251     04DD  3461               	retlw	97	;'a'
  1252     04DE  3473               	retlw	115	;'s'
  1253     04DF  3473               	retlw	115	;'s'
  1254     04E0  3420               	retlw	32	;' '
  1255     04E1  3420               	retlw	32	;' '
  1256     04E2  3420               	retlw	32	;' '
  1257     04E3  3400               	retlw	0
  1258     04E4                     STR_11:
  1259     04E4  3444               	retlw	68	;'D'
  1260     04E5  346F               	retlw	111	;'o'
  1261     04E6  3477               	retlw	119	;'w'
  1262     04E7  346E               	retlw	110	;'n'
  1263     04E8  346C               	retlw	108	;'l'
  1264     04E9  346F               	retlw	111	;'o'
  1265     04EA  3461               	retlw	97	;'a'
  1266     04EB  3464               	retlw	100	;'d'
  1267     04EC  3420               	retlw	32	;' '
  1268     04ED  344C               	retlw	76	;'L'
  1269     04EE  346F               	retlw	111	;'o'
  1270     04EF  3467               	retlw	103	;'g'
  1271     04F0  3420               	retlw	32	;' '
  1272     04F1  3420               	retlw	32	;' '
  1273     04F2  3400               	retlw	0
  1274     04F3                     STR_24:
  1275     04F3  3444               	retlw	68	;'D'
  1276     04F4  346F               	retlw	111	;'o'
  1277     04F5  3477               	retlw	119	;'w'
  1278     04F6  346E               	retlw	110	;'n'
  1279     04F7  346C               	retlw	108	;'l'
  1280     04F8  346F               	retlw	111	;'o'
  1281     04F9  3461               	retlw	97	;'a'
  1282     04FA  3464               	retlw	100	;'d'
  1283     04FB  3469               	retlw	105	;'i'
  1284     04FC  346E               	retlw	110	;'n'
  1285     04FD  3467               	retlw	103	;'g'
  1286     04FE  342E               	retlw	46	;'.'
  1287     04FF  342E               	retlw	46	;'.'
  1288     0500  342E               	retlw	46	;'.'
  1289     0501  3400               	retlw	0
  1290     0502                     STR_20:
  1291     0502  3441               	retlw	65	;'A'
  1292     0503  3476               	retlw	118	;'v'
  1293     0504  3461               	retlw	97	;'a'
  1294     0505  3469               	retlw	105	;'i'
  1295     0506  346C               	retlw	108	;'l'
  1296     0507  3461               	retlw	97	;'a'
  1297     0508  3462               	retlw	98	;'b'
  1298     0509  346C               	retlw	108	;'l'
  1299     050A  3465               	retlw	101	;'e'
  1300     050B  3400               	retlw	0
  1301     050C                     STR_23:
  1302     050C  344C               	retlw	76	;'L'
  1303     050D  346F               	retlw	111	;'o'
  1304     050E  3467               	retlw	103	;'g'
  1305     050F  3473               	retlw	115	;'s'
  1306     0510  3420               	retlw	32	;' '
  1307     0511  3461               	retlw	97	;'a'
  1308     0512  3472               	retlw	114	;'r'
  1309     0513  3465               	retlw	101	;'e'
  1310     0514  3400               	retlw	0
  1311     0515                     STR_19:
  1312     0515  344E               	retlw	78	;'N'
  1313     0516  346F               	retlw	111	;'o'
  1314     0517  3420               	retlw	32	;' '
  1315     0518  344C               	retlw	76	;'L'
  1316     0519  346F               	retlw	111	;'o'
  1317     051A  3467               	retlw	103	;'g'
  1318     051B  3473               	retlw	115	;'s'
  1319     051C  3400               	retlw	0
  1320     051D                     STR_15:
  1321     051D  342A               	retlw	42	;'*'
  1322     051E  3420               	retlw	32	;' '
  1323     051F  3400               	retlw	0
  1324     0520                     STR_8:
  1325     0520  3443               	retlw	67	;'C'
  1326     0521  3420               	retlw	32	;' '
  1327     0522  3400               	retlw	0
  1328     0523                     STR_3:
  1329     0523  3447               	retlw	71	;'G'
  1330     0524  3431               	retlw	49	;'1'
  1331     0525  3400               	retlw	0
  1332     0526                     STR_4:
  1333     0526  3447               	retlw	71	;'G'
  1334     0527  3432               	retlw	50	;'2'
  1335     0528  3400               	retlw	0
  1336     0529                     STR_5:
  1337     0529  3447               	retlw	71	;'G'
  1338     052A  3433               	retlw	51	;'3'
  1339     052B  3400               	retlw	0
  1340     052C                     STR_6:
  1341     052C  3447               	retlw	71	;'G'
  1342     052D  3434               	retlw	52	;'4'
  1343     052E  3400               	retlw	0
  1344     052F                     STR_2:
  1345     052F  3447               	retlw	71	;'G'
  1346     0530  344E               	retlw	78	;'N'
  1347     0531  3400               	retlw	0
  1348     0532                     STR_1:
  1349     0532  344F               	retlw	79	;'O'
  1350     0533  344E               	retlw	78	;'N'
  1351     0534  3400               	retlw	0
  1352     0535                     STR_7:
  1353     0535  3447               	retlw	71	;'G'
  1354     0536  3452               	retlw	82	;'R'
  1355     0537  3400               	retlw	0
  1356     051D                     STR_17          equ	STR_15
  1357     0420                     STR_16          equ	STR_31+14
  1358     0420                     STR_18          equ	STR_31+14
  1359     0420                     STR_26          equ	STR_31+14
  1360     0420                     STR_27          equ	STR_31+14
  1361     0420                     STR_28          equ	STR_31+14
  1362                           
  1363                           	psect	cinit
  1364     000F                     start_initialization:	
  1365                           ; #config settings
  1366                           
  1367     000F                     __initialization:
  1368                           
  1369                           ; Initialize objects allocated to BANK1
  1370     000F  1383               	bcf	3,7	;select IRP bank0
  1371     0010  30DE               	movlw	low (__pdataBANK1+30)
  1372     0011  00FD               	movwf	btemp+-1
  1373     0012  3017               	movlw	high __pidataBANK1
  1374     0013  00FE               	movwf	btemp
  1375     0014  3040               	movlw	low __pidataBANK1
  1376     0015  00FF               	movwf	btemp+1
  1377     0016  30C0               	movlw	low __pdataBANK1
  1378     0017  0084               	movwf	4
  1379     0018  120A  158A  200D  120A  118A  	fcall	init_ram0
  1380                           
  1381                           ; Initialize objects allocated to BANK0
  1382     001D  306E               	movlw	low (__pdataBANK0+3)
  1383     001E  00FD               	movwf	btemp+-1
  1384     001F  3007               	movlw	high __pidataBANK0
  1385     0020  00FE               	movwf	btemp
  1386     0021  30FD               	movlw	low __pidataBANK0
  1387     0022  00FF               	movwf	btemp+1
  1388     0023  306B               	movlw	low __pdataBANK0
  1389     0024  0084               	movwf	4
  1390     0025  120A  158A  200D  120A  118A  	fcall	init_ram0
  1391                           
  1392                           ; Clear objects allocated to BANK1
  1393     002A  30A0               	movlw	low __pbssBANK1
  1394     002B  0084               	movwf	4
  1395     002C  30C0               	movlw	low (__pbssBANK1+32)
  1396     002D  160A  118A  26BC  120A  118A  	fcall	clear_ram0
  1397                           
  1398                           ; Clear objects allocated to BANK0
  1399     0032  304F               	movlw	low __pbssBANK0
  1400     0033  0084               	movwf	4
  1401     0034  306B               	movlw	low (__pbssBANK0+28)
  1402     0035  160A  118A  26BC  120A  118A  	fcall	clear_ram0
  1403                           
  1404                           ; Clear objects allocated to COMMON
  1405     003A  01FA               	clrf	__pbssCOMMON& (0+127)
  1406     003B  01FB               	clrf	(__pbssCOMMON+1)& (0+127)
  1407     003C                     end_of_initialization:	
  1408                           ;End of C runtime variable initialization code
  1409                           
  1410     003C                     __end_of__initialization:
  1411     003C  0183               	clrf	3
  1412     003D  120A  118A  2BBE   	ljmp	_main	;jump to C main() function
  1413                           
  1414                           	psect	bssCOMMON
  1415     007A                     __pbssCOMMON:
  1416     007A                     _pos:
  1417     007A                     	ds	2
  1418                           
  1419                           	psect	bssBANK0
  1420     004F                     __pbssBANK0:
  1421     004F                     isr@count:
  1422     004F                     	ds	2
  1423     0051                     _attempt_no:
  1424     0051                     	ds	2
  1425     0053                     _index:
  1426     0053                     	ds	2
  1427     0055                     write_event@address:
  1428     0055                     	ds	2
  1429     0057                     _event_count:
  1430     0057                     	ds	2
  1431     0059                     _adc_val:
  1432     0059                     	ds	2
  1433     005B                     _access:
  1434     005B                     	ds	1
  1435     005C                     _time:
  1436     005C                     	ds	9
  1437     0065                     _speed:
  1438     0065                     	ds	3
  1439     0068                     _clock_reg:
  1440     0068                     	ds	3
  1441                           
  1442                           	psect	dataBANK0
  1443     006B                     __pdataBANK0:
  1444     006B                     _delay:
  1445     006B                     	ds	2
  1446     006D                     read_digital_keypad@once:
  1447     006D                     	ds	1
  1448                           
  1449                           	psect	bssBANK1
  1450     00A0                     __pbssBANK1:
  1451     00A0                     _user_entered_password:
  1452     00A0                     	ds	4
  1453     00A4                     _logs:
  1454     00A4                     	ds	17
  1455     00B5                     read_event@event:
  1456     00B5                     	ds	11
  1457                           
  1458                           	psect	dataBANK1
  1459     00C0                     __pdataBANK1:
  1460     00C0                     _event:
  1461     00C0                     	ds	16
  1462     00D0                     _menu_options:
  1463     00D0                     	ds	10
  1464     00DA                     _original_password:
  1465     00DA                     	ds	4
  1466                           
  1467                           	psect	inittext
  1468     0809                     init_fetch0:	
  1469                           ;	Called with low address in FSR and high address in W
  1470                           
  1471     0809  087E               	movf	btemp,w
  1472     080A  008A               	movwf	10
  1473     080B  087F               	movf	btemp+1,w
  1474     080C  0082               	movwf	2
  1475     080D                     init_ram0:	
  1476                           ;Called with:
  1477                           ;	high address of idata address in btemp 
  1478                           ;	low address of idata address in btemp+1 
  1479                           ;	low address of data in FSR
  1480                           ;	high address + 1 of data in btemp-1
  1481                           
  1482     080D  120A  158A  2009  120A  158A  	fcall	init_fetch0
  1483     0812  0080               	movwf	0
  1484     0813  0A84               	incf	4,f
  1485     0814  0804               	movf	4,w
  1486     0815  067D               	xorwf	btemp+-1,w
  1487     0816  1903               	btfsc	3,2
  1488     0817  3400               	retlw	0
  1489     0818  0AFF               	incf	btemp+1,f
  1490     0819  1903               	btfsc	3,2
  1491     081A  0AFE               	incf	btemp,f
  1492     081B  280D               	goto	init_ram0
  1493                           
  1494                           	psect	clrtext
  1495     16BC                     clear_ram0:	
  1496                           ;	Called with FSR containing the base address, and
  1497                           ;	W with the last address+1
  1498                           
  1499     16BC  0064               	clrwdt	;clear the watchdog before getting into this loop
  1500     16BD                     clrloop0:
  1501     16BD  0180               	clrf	0	;clear RAM location pointed to by FSR
  1502     16BE  0A84               	incf	4,f	;increment pointer
  1503     16BF  0604               	xorwf	4,w	;XOR with final address
  1504     16C0  1903               	btfsc	3,2	;have we reached the end yet?
  1505     16C1  3400               	retlw	0	;all done for this memory range, return
  1506     16C2  0604               	xorwf	4,w	;XOR again to restore value
  1507     16C3  2EBD               	goto	clrloop0	;do the next byte
  1508                           
  1509                           	psect	cstackCOMMON
  1510     0070                     __pcstackCOMMON:
  1511     0070                     ?_init_adc:
  1512     0070                     ?_init_clcd:	
  1513                           ; 1 bytes @ 0x0
  1514                           
  1515     0070                     ?_init_digital_keypad:	
  1516                           ; 1 bytes @ 0x0
  1517                           
  1518     0070                     ?_init_ds1307:	
  1519                           ; 1 bytes @ 0x0
  1520                           
  1521     0070                     ?_read_digital_keypad:	
  1522                           ; 1 bytes @ 0x0
  1523                           
  1524     0070                     ?_dashboard:	
  1525                           ; 1 bytes @ 0x0
  1526                           
  1527     0070                     ?_main_menu:	
  1528                           ; 1 bytes @ 0x0
  1529                           
  1530     0070                     ?_auth_user:	
  1531                           ; 1 bytes @ 0x0
  1532                           
  1533     0070                     ?_i2c_stop:	
  1534                           ; 1 bytes @ 0x0
  1535                           
  1536     0070                     ?_read_ds1307:	
  1537                           ; 1 bytes @ 0x0
  1538                           
  1539     0070                     ?_read_external_eeprom:	
  1540                           ; 1 bytes @ 0x0
  1541                           
  1542     0070                     ?_view_log:	
  1543                           ; 1 bytes @ 0x0
  1544                           
  1545     0070                     ?_clear_log:	
  1546                           ; 1 bytes @ 0x0
  1547                           
  1548     0070                     ?_download_log:	
  1549                           ; 1 bytes @ 0x0
  1550                           
  1551     0070                     ?_set_time:	
  1552                           ; 1 bytes @ 0x0
  1553                           
  1554     0070                     ?_put_char:	
  1555                           ; 1 bytes @ 0x0
  1556                           
  1557     0070                     ?_run_delay:	
  1558                           ; 1 bytes @ 0x0
  1559                           
  1560     0070                     ?_init_timer0:	
  1561                           ; 1 bytes @ 0x0
  1562                           
  1563     0070                     ?_init_config:	
  1564                           ; 1 bytes @ 0x0
  1565                           
  1566     0070                     ?_main:	
  1567                           ; 1 bytes @ 0x0
  1568                           
  1569     0070                     ?_init_display_controller:	
  1570                           ; 1 bytes @ 0x0
  1571                           
  1572     0070                     ?_clear_screen:	
  1573                           ; 1 bytes @ 0x0
  1574                           
  1575     0070                     ?_i2c_wait_for_idle:	
  1576                           ; 1 bytes @ 0x0
  1577                           
  1578     0070                     ?_i2c_start:	
  1579                           ; 1 bytes @ 0x0
  1580                           
  1581     0070                     ?_i2c_rep_start:	
  1582                           ; 1 bytes @ 0x0
  1583                           
  1584     0070                     ?_i2c_read:	
  1585                           ; 1 bytes @ 0x0
  1586                           
  1587     0070                     ?_write_event:	
  1588                           ; 1 bytes @ 0x0
  1589                           
  1590     0070                     ?_read_and_format_log:	
  1591                           ; 1 bytes @ 0x0
  1592                           
  1593     0070                     ?_isr:	
  1594                           ; 1 bytes @ 0x0
  1595                           
  1596     0070                     ?_i2c_write:	
  1597                           ; 1 bytes @ 0x0
  1598                           
  1599     0070                     ??_isr:	
  1600                           ; 2 bytes @ 0x0
  1601                           
  1602                           
  1603                           ; 1 bytes @ 0x0
  1604     0070                     	ds	2
  1605     0072                     ?_clcd_write:
  1606     0072                     ?_read_adc:	
  1607                           ; 1 bytes @ 0x2
  1608                           
  1609     0072                     ?___wmul:	
  1610                           ; 2 bytes @ 0x2
  1611                           
  1612     0072                     ?___lwdiv:	
  1613                           ; 2 bytes @ 0x2
  1614                           
  1615     0072                     ?___lwmod:	
  1616                           ; 2 bytes @ 0x2
  1617                           
  1618     0072                     ?___lldiv:	
  1619                           ; 2 bytes @ 0x2
  1620                           
  1621     0072                     ?___xxtofl:	
  1622                           ; 4 bytes @ 0x2
  1623                           
  1624     0072                     clcd_write@mode:	
  1625                           ; 4 bytes @ 0x2
  1626                           
  1627     0072                     i2c_read@ack:	
  1628                           ; 1 bytes @ 0x2
  1629                           
  1630     0072                     i2c_write@data:	
  1631                           ; 1 bytes @ 0x2
  1632                           
  1633     0072                     put_char@data:	
  1634                           ; 1 bytes @ 0x2
  1635                           
  1636     0072                     ___wmul@multiplier:	
  1637                           ; 1 bytes @ 0x2
  1638                           
  1639     0072                     ___lwdiv@divisor:	
  1640                           ; 2 bytes @ 0x2
  1641                           
  1642     0072                     ___lwmod@divisor:	
  1643                           ; 2 bytes @ 0x2
  1644                           
  1645     0072                     ___lldiv@divisor:	
  1646                           ; 2 bytes @ 0x2
  1647                           
  1648     0072                     ___xxtofl@val:	
  1649                           ; 4 bytes @ 0x2
  1650                           
  1651     0072                     ??_init_adc:	
  1652                           ; 4 bytes @ 0x2
  1653                           
  1654     0072                     ??_init_digital_keypad:	
  1655                           ; 1 bytes @ 0x2
  1656                           
  1657     0072                     ??_read_digital_keypad:	
  1658                           ; 1 bytes @ 0x2
  1659                           
  1660     0072                     ??_i2c_stop:	
  1661                           ; 1 bytes @ 0x2
  1662                           
  1663     0072                     ??_put_char:	
  1664                           ; 1 bytes @ 0x2
  1665                           
  1666     0072                     ??_init_timer0:	
  1667                           ; 1 bytes @ 0x2
  1668                           
  1669     0072                     ??_i2c_wait_for_idle:	
  1670                           ; 1 bytes @ 0x2
  1671                           
  1672     0072                     ??_i2c_start:	
  1673                           ; 1 bytes @ 0x2
  1674                           
  1675     0072                     ??_i2c_rep_start:	
  1676                           ; 1 bytes @ 0x2
  1677                           
  1678     0072                     ??_i2c_read:	
  1679                           ; 1 bytes @ 0x2
  1680                           
  1681     0072                     ??_i2c_write:	
  1682                           ; 1 bytes @ 0x2
  1683                           
  1684                           
  1685                           ; 1 bytes @ 0x2
  1686     0072                     	ds	1
  1687     0073                     ?_write_ds1307:
  1688     0073                     ?_write_external_eeprom:	
  1689                           ; 1 bytes @ 0x3
  1690                           
  1691     0073                     ?_put_s:	
  1692                           ; 1 bytes @ 0x3
  1693                           
  1694     0073                     read_digital_keypad@mode:	
  1695                           ; 1 bytes @ 0x3
  1696                           
  1697     0073                     i2c_read@data:	
  1698                           ; 1 bytes @ 0x3
  1699                           
  1700     0073                     write_ds1307@data:	
  1701                           ; 1 bytes @ 0x3
  1702                           
  1703     0073                     write_external_eeprom@data:	
  1704                           ; 1 bytes @ 0x3
  1705                           
  1706     0073                     put_s@s:	
  1707                           ; 1 bytes @ 0x3
  1708                           
  1709     0073                     ??_clcd_write:	
  1710                           ; 2 bytes @ 0x3
  1711                           
  1712                           
  1713                           ; 1 bytes @ 0x3
  1714     0073                     	ds	1
  1715     0074                     read_ds1307@addr:
  1716     0074                     write_ds1307@addr:	
  1717                           ; 1 bytes @ 0x4
  1718                           
  1719     0074                     write_external_eeprom@address:	
  1720                           ; 1 bytes @ 0x4
  1721                           
  1722     0074                     read_external_eeprom@address:	
  1723                           ; 1 bytes @ 0x4
  1724                           
  1725     0074                     ___wmul@multiplicand:	
  1726                           ; 1 bytes @ 0x4
  1727                           
  1728     0074                     ___lwdiv@dividend:	
  1729                           ; 2 bytes @ 0x4
  1730                           
  1731     0074                     ___lwmod@dividend:	
  1732                           ; 2 bytes @ 0x4
  1733                           
  1734     0074                     ??_read_ds1307:	
  1735                           ; 2 bytes @ 0x4
  1736                           
  1737     0074                     ??_write_ds1307:	
  1738                           ; 1 bytes @ 0x4
  1739                           
  1740     0074                     ??_read_external_eeprom:	
  1741                           ; 1 bytes @ 0x4
  1742                           
  1743     0074                     ??_write_external_eeprom:	
  1744                           ; 1 bytes @ 0x4
  1745                           
  1746     0074                     ??_read_adc:	
  1747                           ; 1 bytes @ 0x4
  1748                           
  1749                           
  1750                           ; 1 bytes @ 0x4
  1751     0074                     	ds	1
  1752     0075                     clcd_write@byte:
  1753     0075                     read_ds1307@data:	
  1754                           ; 1 bytes @ 0x5
  1755                           
  1756     0075                     read_external_eeprom@data:	
  1757                           ; 1 bytes @ 0x5
  1758                           
  1759     0075                     read_adc@adc_reg_val:	
  1760                           ; 1 bytes @ 0x5
  1761                           
  1762     0075                     write_external_eeprom@wait:	
  1763                           ; 2 bytes @ 0x5
  1764                           
  1765     0075                     ??_put_s:	
  1766                           ; 2 bytes @ 0x5
  1767                           
  1768                           
  1769                           ; 1 bytes @ 0x5
  1770     0075                     	ds	1
  1771     0076                     ?_clcd_print:
  1772     0076                     ?_get_time:	
  1773                           ; 1 bytes @ 0x6
  1774                           
  1775     0076                     init_ds1307@dummy:	
  1776                           ; 1 bytes @ 0x6
  1777                           
  1778     0076                     get_time@clock_reg:	
  1779                           ; 1 bytes @ 0x6
  1780                           
  1781     0076                     ___lwmod@counter:	
  1782                           ; 1 bytes @ 0x6
  1783                           
  1784     0076                     clcd_print@str:	
  1785                           ; 1 bytes @ 0x6
  1786                           
  1787     0076                     ___wmul@product:	
  1788                           ; 2 bytes @ 0x6
  1789                           
  1790     0076                     ___lwdiv@quotient:	
  1791                           ; 2 bytes @ 0x6
  1792                           
  1793     0076                     ___lldiv@dividend:	
  1794                           ; 2 bytes @ 0x6
  1795                           
  1796     0076                     ??_init_ds1307:	
  1797                           ; 4 bytes @ 0x6
  1798                           
  1799     0076                     ??_init_display_controller:	
  1800                           ; 1 bytes @ 0x6
  1801                           
  1802     0076                     ??_clear_screen:	
  1803                           ; 1 bytes @ 0x6
  1804                           
  1805     0076                     ??___wmul:	
  1806                           ; 1 bytes @ 0x6
  1807                           
  1808     0076                     ??___lwdiv:	
  1809                           ; 1 bytes @ 0x6
  1810                           
  1811     0076                     ??___lwmod:	
  1812                           ; 1 bytes @ 0x6
  1813                           
  1814     0076                     ??___xxtofl:	
  1815                           ; 1 bytes @ 0x6
  1816                           
  1817                           
  1818                           ; 1 bytes @ 0x6
  1819     0076                     	ds	1
  1820     0077                     read_adc@channel:
  1821     0077                     write_event@i:	
  1822                           ; 1 bytes @ 0x7
  1823                           
  1824     0077                     ??_get_time:	
  1825                           ; 2 bytes @ 0x7
  1826                           
  1827                           
  1828                           ; 1 bytes @ 0x7
  1829     0077                     	ds	1
  1830     0078                     ?_read_event:
  1831     0078                     clcd_print@addr:	
  1832                           ; 1 bytes @ 0x8
  1833                           
  1834     0078                     ___lwdiv@counter:	
  1835                           ; 1 bytes @ 0x8
  1836                           
  1837     0078                     read_event@addr:	
  1838                           ; 1 bytes @ 0x8
  1839                           
  1840     0078                     ??_init_clcd:	
  1841                           ; 2 bytes @ 0x8
  1842                           
  1843                           
  1844                           ; 1 bytes @ 0x8
  1845     0078                     	ds	1
  1846     0079                     ?_clcd_putch:
  1847     0079                     ?_display_time:	
  1848                           ; 1 bytes @ 0x9
  1849                           
  1850     0079                     clcd_putch@addr:	
  1851                           ; 1 bytes @ 0x9
  1852                           
  1853     0079                     display_time@clock_reg:	
  1854                           ; 1 bytes @ 0x9
  1855                           
  1856     0079                     ??_clcd_print:	
  1857                           ; 1 bytes @ 0x9
  1858                           
  1859     0079                     ??_print_star:	
  1860                           ; 1 bytes @ 0x9
  1861                           
  1862     0079                     ??_display_indicator:	
  1863                           ; 1 bytes @ 0x9
  1864                           
  1865                           
  1866                           ; 1 bytes @ 0x9
  1867     0079                     	ds	1
  1868     007A                     ??_read_event:
  1869     007A                     ??_run_delay:	
  1870                           ; 1 bytes @ 0xA
  1871                           
  1872     007A                     ??_init_config:	
  1873                           ; 1 bytes @ 0xA
  1874                           
  1875     007A                     ??_main:	
  1876                           ; 1 bytes @ 0xA
  1877                           
  1878     007A                     ??_clcd_putch:	
  1879                           ; 1 bytes @ 0xA
  1880                           
  1881                           
  1882                           	psect	cstackBANK0
  1883     0020                     __pcstackBANK0:	
  1884                           ; 1 bytes @ 0xA
  1885                           
  1886     0020                     ?_print_star:
  1887     0020                     ?_display_indicator:	
  1888                           ; 1 bytes @ 0x0
  1889                           
  1890     0020                     clcd_putch@data:	
  1891                           ; 1 bytes @ 0x0
  1892                           
  1893     0020                     ___xxtofl@sign:	
  1894                           ; 1 bytes @ 0x0
  1895                           
  1896     0020                     read_event@i:	
  1897                           ; 1 bytes @ 0x0
  1898                           
  1899     0020                     print_star@position:	
  1900                           ; 2 bytes @ 0x0
  1901                           
  1902     0020                     display_indicator@pos:	
  1903                           ; 2 bytes @ 0x0
  1904                           
  1905     0020                     ??_clear_log:	
  1906                           ; 2 bytes @ 0x0
  1907                           
  1908     0020                     ??_display_time:	
  1909                           ; 1 bytes @ 0x0
  1910                           
  1911     0020                     ??_write_event:	
  1912                           ; 1 bytes @ 0x0
  1913                           
  1914     0020                     ??___lldiv:	
  1915                           ; 1 bytes @ 0x0
  1916                           
  1917                           
  1918                           ; 1 bytes @ 0x0
  1919     0020                     	ds	1
  1920     0021                     ___xxtofl@exp:
  1921     0021                     ___lldiv@quotient:	
  1922                           ; 1 bytes @ 0x1
  1923                           
  1924     0021                     ??_auth_user:	
  1925                           ; 4 bytes @ 0x1
  1926                           
  1927                           
  1928                           ; 1 bytes @ 0x1
  1929     0021                     	ds	1
  1930     0022                     ___xxtofl@arg:
  1931     0022                     ??_set_time:	
  1932                           ; 4 bytes @ 0x2
  1933                           
  1934     0022                     ??_read_and_format_log:	
  1935                           ; 1 bytes @ 0x2
  1936                           
  1937                           
  1938                           ; 1 bytes @ 0x2
  1939     0022                     	ds	2
  1940     0024                     read_and_format_log@log:
  1941     0024                     auth_user@key:	
  1942                           ; 1 bytes @ 0x4
  1943                           
  1944                           
  1945                           ; 1 bytes @ 0x4
  1946     0024                     	ds	1
  1947     0025                     ___lldiv@counter:
  1948     0025                     read_and_format_log@col:	
  1949                           ; 1 bytes @ 0x5
  1950                           
  1951     0025                     auth_user@i:	
  1952                           ; 2 bytes @ 0x5
  1953                           
  1954                           
  1955                           ; 2 bytes @ 0x5
  1956     0025                     	ds	1
  1957     0026                     ?_init_i2c:
  1958     0026                     ?_init_uart:	
  1959                           ; 1 bytes @ 0x6
  1960                           
  1961     0026                     ?___fldiv:	
  1962                           ; 1 bytes @ 0x6
  1963                           
  1964     0026                     set_time@hour:	
  1965                           ; 4 bytes @ 0x6
  1966                           
  1967     0026                     init_i2c@baud:	
  1968                           ; 2 bytes @ 0x6
  1969                           
  1970     0026                     init_uart@baud:	
  1971                           ; 4 bytes @ 0x6
  1972                           
  1973     0026                     ___fldiv@a:	
  1974                           ; 4 bytes @ 0x6
  1975                           
  1976                           
  1977                           ; 4 bytes @ 0x6
  1978     0026                     	ds	1
  1979     0027                     read_and_format_log@index:
  1980                           
  1981                           ; 1 bytes @ 0x7
  1982     0027                     	ds	1
  1983     0028                     read_and_format_log@i:
  1984     0028                     set_time@min:	
  1985                           ; 2 bytes @ 0x8
  1986                           
  1987                           
  1988                           ; 2 bytes @ 0x8
  1989     0028                     	ds	2
  1990     002A                     set_time@sec:
  1991     002A                     ___fldiv@b:	
  1992                           ; 2 bytes @ 0xA
  1993                           
  1994     002A                     ??_init_i2c:	
  1995                           ; 4 bytes @ 0xA
  1996                           
  1997     002A                     ??_init_uart:	
  1998                           ; 1 bytes @ 0xA
  1999                           
  2000     002A                     ??_view_log:	
  2001                           ; 1 bytes @ 0xA
  2002                           
  2003     002A                     ??_download_log:	
  2004                           ; 1 bytes @ 0xA
  2005                           
  2006                           
  2007                           ; 1 bytes @ 0xA
  2008     002A                     	ds	2
  2009     002C                     set_time@key:
  2010     002C                     view_log@key:	
  2011                           ; 1 bytes @ 0xC
  2012                           
  2013                           
  2014                           ; 2 bytes @ 0xC
  2015     002C                     	ds	1
  2016     002D                     download_log@i:
  2017     002D                     set_time@indicator:	
  2018                           ; 2 bytes @ 0xD
  2019                           
  2020                           
  2021                           ; 2 bytes @ 0xD
  2022     002D                     	ds	1
  2023     002E                     view_log@curr_log:
  2024     002E                     ??___fldiv:	
  2025                           ; 2 bytes @ 0xE
  2026                           
  2027                           
  2028                           ; 1 bytes @ 0xE
  2029     002E                     	ds	2
  2030     0030                     ??_main_menu:
  2031                           
  2032                           ; 1 bytes @ 0x10
  2033     0030                     	ds	2
  2034     0032                     main_menu@key:
  2035                           
  2036                           ; 1 bytes @ 0x12
  2037     0032                     	ds	1
  2038     0033                     main_menu@star:
  2039     0033                     ___fldiv@rem:	
  2040                           ; 1 bytes @ 0x13
  2041                           
  2042                           
  2043                           ; 4 bytes @ 0x13
  2044     0033                     	ds	1
  2045     0034                     main_menu@selected_menu:
  2046                           
  2047                           ; 2 bytes @ 0x14
  2048     0034                     	ds	2
  2049     0036                     main_menu@menu_index:
  2050                           
  2051                           ; 2 bytes @ 0x16
  2052     0036                     	ds	1
  2053     0037                     ___fldiv@sign:
  2054                           
  2055                           ; 1 bytes @ 0x17
  2056     0037                     	ds	1
  2057     0038                     ___fldiv@new_exp:
  2058                           
  2059                           ; 2 bytes @ 0x18
  2060     0038                     	ds	2
  2061     003A                     ___fldiv@grs:
  2062                           
  2063                           ; 4 bytes @ 0x1A
  2064     003A                     	ds	4
  2065     003E                     ___fldiv@bexp:
  2066                           
  2067                           ; 1 bytes @ 0x1E
  2068     003E                     	ds	1
  2069     003F                     ___fldiv@aexp:
  2070                           
  2071                           ; 1 bytes @ 0x1F
  2072     003F                     	ds	1
  2073     0040                     ?___fltol:
  2074     0040                     ___fltol@f1:	
  2075                           ; 4 bytes @ 0x20
  2076                           
  2077                           
  2078                           ; 4 bytes @ 0x20
  2079     0040                     	ds	4
  2080     0044                     ??___fltol:
  2081                           
  2082                           ; 1 bytes @ 0x24
  2083     0044                     	ds	4
  2084     0048                     ___fltol@sign1:
  2085                           
  2086                           ; 1 bytes @ 0x28
  2087     0048                     	ds	1
  2088     0049                     ___fltol@exp1:
  2089                           
  2090                           ; 1 bytes @ 0x29
  2091     0049                     	ds	1
  2092     004A                     ??_dashboard:
  2093                           
  2094                           ; 1 bytes @ 0x2A
  2095     004A                     	ds	2
  2096     004C                     dashboard@key:
  2097                           
  2098                           ; 1 bytes @ 0x2C
  2099     004C                     	ds	1
  2100     004D                     main@key:
  2101                           
  2102                           ; 1 bytes @ 0x2D
  2103     004D                     	ds	1
  2104     004E                     main@operation:
  2105                           
  2106                           ; 1 bytes @ 0x2E
  2107     004E                     	ds	1
  2108                           
  2109                           	psect	maintext
  2110     03BE                     __pmaintext:	
  2111 ;;
  2112 ;;Main: autosize = 0, tempsize = 0, incstack = 0, save=0
  2113 ;;
  2114 ;; *************** function _main *****************
  2115 ;; Defined at:
  2116 ;;		line 31 in file "main.c"
  2117 ;; Parameters:    Size  Location     Type
  2118 ;;		None
  2119 ;; Auto vars:     Size  Location     Type
  2120 ;;  operation       1   46[BANK0 ] unsigned char 
  2121 ;;  key             1   45[BANK0 ] unsigned char 
  2122 ;; Return value:  Size  Location     Type
  2123 ;;                  1    wreg      void 
  2124 ;; Registers used:
  2125 ;;		wreg, fsr0l, fsr0h, status,2, status,0, pclath, btemp1, cstack
  2126 ;; Tracked objects:
  2127 ;;		On entry : B00/0
  2128 ;;		On exit  : 0/0
  2129 ;;		Unchanged: 0/0
  2130 ;; Data sizes:     COMMON   BANK0   BANK1   BANK3   BANK2
  2131 ;;      Params:         0       0       0       0       0
  2132 ;;      Locals:         0       2       0       0       0
  2133 ;;      Temps:          0       0       0       0       0
  2134 ;;      Totals:         0       2       0       0       0
  2135 ;;Total ram usage:        2 bytes
  2136 ;; Hardware stack levels required when called: 7
  2137 ;; This function calls:
  2138 ;;		_auth_user
  2139 ;;		_dashboard
  2140 ;;		_init_config
  2141 ;;		_main_menu
  2142 ;;		_read_digital_keypad
  2143 ;; This function is called by:
  2144 ;;		Startup code after reset
  2145 ;; This function uses a non-reentrant model
  2146 ;;
  2147                           
  2148     03BE                     _main:	
  2149                           ;psect for function _main
  2150                           
  2151     03BE                     l3616:	
  2152                           ;incstack = 0
  2153                           ; Regs used in _main: [wreg-fsr0h+status,2+status,0+pclath+btemp1+cstack]
  2154                           
  2155                           
  2156                           ;main.c: 34:     init_config();
  2157     03BE  120A  158A  21D0  120A  118A  	fcall	_init_config
  2158     03C3                     l3618:
  2159                           
  2160                           ;main.c: 36:     unsigned char key, operation = 0;
  2161     03C3  1283               	bcf	3,5	;RP0=0, select bank0
  2162     03C4  1303               	bcf	3,6	;RP1=0, select bank0
  2163     03C5  01CE               	clrf	main@operation
  2164     03C6                     l3620:
  2165                           
  2166                           ;main.c: 39:     {;main.c: 40:         key = read_digital_keypad(1);
  2167     03C6  3001               	movlw	1
  2168     03C7  120A  158A  208F  120A  118A  	fcall	_read_digital_keypad
  2169     03CC  1283               	bcf	3,5	;RP0=0, select bank0
  2170     03CD  1303               	bcf	3,6	;RP1=0, select bank0
  2171     03CE  00CD               	movwf	main@key
  2172     03CF                     l3622:
  2173                           
  2174                           ;main.c: 42:         if(key == 0x37)
  2175     03CF  3037               	movlw	55
  2176     03D0  064D               	xorwf	main@key,w
  2177     03D1  1D03               	btfss	3,2
  2178     03D2  2BD4               	goto	u4161
  2179     03D3  2BD5               	goto	u4160
  2180     03D4                     u4161:
  2181     03D4  2BD7               	goto	l3626
  2182     03D5                     u4160:
  2183     03D5                     l3624:
  2184                           
  2185                           ;main.c: 43:         {;main.c: 44:             operation = 1;
  2186     03D5  3001               	movlw	1
  2187     03D6  00CE               	movwf	main@operation
  2188     03D7                     l3626:
  2189                           
  2190                           ;main.c: 48:         if(operation == 0)
  2191     03D7  084E               	movf	main@operation,w
  2192     03D8  1D03               	btfss	3,2
  2193     03D9  2BDB               	goto	u4171
  2194     03DA  2BDC               	goto	u4170
  2195     03DB                     u4171:
  2196     03DB  2BE3               	goto	l3630
  2197     03DC                     u4170:
  2198     03DC                     l3628:
  2199                           
  2200                           ;main.c: 49:         {;main.c: 50:             dashboard(key);
  2201     03DC  084D               	movf	main@key,w
  2202     03DD  120A  118A  2538  120A  118A  	fcall	_dashboard
  2203                           
  2204                           ;main.c: 51:         }
  2205     03E2  2BC6               	goto	l3620
  2206     03E3                     l3630:
  2207     03E3  034E               	decf	main@operation,w
  2208     03E4  1D03               	btfss	3,2
  2209     03E5  2BE7               	goto	u4181
  2210     03E6  2BE8               	goto	u4180
  2211     03E7                     u4181:
  2212     03E7  2BC6               	goto	l3620
  2213     03E8                     u4180:
  2214     03E8                     l3632:
  2215                           
  2216                           ;main.c: 53:         {;main.c: 54:             if(access == 1) {
  2217     03E8  035B               	decf	_access,w
  2218     03E9  1D03               	btfss	3,2
  2219     03EA  2BEC               	goto	u4191
  2220     03EB  2BED               	goto	u4190
  2221     03EC                     u4191:
  2222     03EC  2BF7               	goto	l3640
  2223     03ED                     u4190:
  2224     03ED                     l3634:
  2225                           
  2226                           ;main.c: 55:                 main_menu();
  2227     03ED  120A  118A  2645  120A  118A  	fcall	_main_menu
  2228     03F2                     l3636:
  2229                           
  2230                           ;main.c: 56:                 operation = 0;
  2231     03F2  1283               	bcf	3,5	;RP0=0, select bank0
  2232     03F3  1303               	bcf	3,6	;RP1=0, select bank0
  2233     03F4  01CE               	clrf	main@operation
  2234     03F5                     l3638:
  2235                           
  2236                           ;main.c: 57:                 access = 0;
  2237     03F5  01DB               	clrf	_access
  2238                           
  2239                           ;main.c: 58:             }
  2240     03F6  2BC6               	goto	l3620
  2241     03F7                     l3640:
  2242     03F7  120A  158A  273A  120A  118A  	fcall	_auth_user
  2243     03FC  2BC6               	goto	l3620
  2244     03FD  120A  118A  280C   	ljmp	start
  2245     0400                     __end_of_main:
  2246                           
  2247                           	psect	text1
  2248     0645                     __ptext1:	
  2249 ;; *************** function _main_menu *****************
  2250 ;; Defined at:
  2251 ;;		line 162 in file "dashboard.c"
  2252 ;; Parameters:    Size  Location     Type
  2253 ;;		None
  2254 ;; Auto vars:     Size  Location     Type
  2255 ;;  selected_men    2   20[BANK0 ] unsigned int 
  2256 ;;  menu_index      2   22[BANK0 ] unsigned int 
  2257 ;;  star            1   19[BANK0 ] unsigned char 
  2258 ;;  key             1   18[BANK0 ] unsigned char 
  2259 ;; Return value:  Size  Location     Type
  2260 ;;                  1    wreg      void 
  2261 ;; Registers used:
  2262 ;;		wreg, fsr0l, fsr0h, status,2, status,0, pclath, btemp1, cstack
  2263 ;; Tracked objects:
  2264 ;;		On entry : 0/0
  2265 ;;		On exit  : 0/0
  2266 ;;		Unchanged: 0/0
  2267 ;; Data sizes:     COMMON   BANK0   BANK1   BANK3   BANK2
  2268 ;;      Params:         0       0       0       0       0
  2269 ;;      Locals:         0       6       0       0       0
  2270 ;;      Temps:          0       2       0       0       0
  2271 ;;      Totals:         0       8       0       0       0
  2272 ;;Total ram usage:        8 bytes
  2273 ;; Hardware stack levels used: 1
  2274 ;; Hardware stack levels required when called: 6
  2275 ;; This function calls:
  2276 ;;		_clcd_print
  2277 ;;		_clear_log
  2278 ;;		_clear_screen
  2279 ;;		_download_log
  2280 ;;		_print_star
  2281 ;;		_read_digital_keypad
  2282 ;;		_set_time
  2283 ;;		_view_log
  2284 ;; This function is called by:
  2285 ;;		_main
  2286 ;; This function uses a non-reentrant model
  2287 ;;
  2288                           
  2289     0645                     _main_menu:	
  2290                           ;psect for function _main_menu
  2291                           
  2292     0645                     l3492:	
  2293                           ;incstack = 0
  2294                           ; Regs used in _main_menu: [wreg-fsr0h+status,2+status,0+pclath+btemp1+cstack]
  2295                           
  2296                           
  2297                           ;dashboard.c: 164:  unsigned int menu_index = 0;
  2298     0645  1283               	bcf	3,5	;RP0=0, select bank0
  2299     0646  1303               	bcf	3,6	;RP1=0, select bank0
  2300     0647  01B6               	clrf	main_menu@menu_index
  2301     0648  01B7               	clrf	main_menu@menu_index+1
  2302                           
  2303                           ;dashboard.c: 165:  unsigned char star = 0;
  2304     0649  01B3               	clrf	main_menu@star
  2305     064A                     l3494:
  2306                           
  2307                           ;dashboard.c: 166:  unsigned char key;;dashboard.c: 168:  clear_screen();
  2308     064A  160A  118A  26B4  120A  118A  	fcall	_clear_screen
  2309     064F                     l3496:
  2310                           
  2311                           ;dashboard.c: 172:   print_star(star);
  2312     064F  1283               	bcf	3,5	;RP0=0, select bank0
  2313     0650  1303               	bcf	3,6	;RP1=0, select bank0
  2314     0651  0833               	movf	main_menu@star,w
  2315     0652  00B0               	movwf	??_main_menu
  2316     0653  01B1               	clrf	??_main_menu+1
  2317     0654  0830               	movf	??_main_menu,w
  2318     0655  00A0               	movwf	print_star@position
  2319     0656  0831               	movf	??_main_menu+1,w
  2320     0657  00A1               	movwf	print_star@position+1
  2321     0658  120A  158A  223A  120A  118A  	fcall	_print_star
  2322     065D                     l3498:
  2323                           
  2324                           ;dashboard.c: 173:   clcd_print(menu_options[menu_index], (0x80 + 2));
  2325     065D  1283               	bcf	3,5	;RP0=0, select bank0
  2326     065E  1303               	bcf	3,6	;RP1=0, select bank0
  2327     065F  0836               	movf	main_menu@menu_index,w
  2328     0660  00B0               	movwf	??_main_menu
  2329     0661  0730               	addwf	??_main_menu,w
  2330     0662  3ED0               	addlw	(low (_menu_options| 0))& (0+255)
  2331     0663  0084               	movwf	4
  2332     0664  1383               	bcf	3,7	;select IRP bank1
  2333     0665  0800               	movf	0,w
  2334     0666  00F6               	movwf	clcd_print@str
  2335     0667  0A84               	incf	4,f
  2336     0668  0800               	movf	0,w
  2337     0669  0384               	decf	4,f
  2338     066A  00F7               	movwf	clcd_print@str+1
  2339     066B  3082               	movlw	130
  2340     066C  00F8               	movwf	clcd_print@addr
  2341     066D  120A  158A  210F  120A  118A  	fcall	_clcd_print
  2342     0672                     l3500:
  2343                           
  2344                           ;dashboard.c: 174:   clcd_print(menu_options[menu_index + 1], (0xC0 + 2));
  2345     0672  1283               	bcf	3,5	;RP0=0, select bank0
  2346     0673  1303               	bcf	3,6	;RP1=0, select bank0
  2347     0674  0836               	movf	main_menu@menu_index,w
  2348     0675  00B0               	movwf	??_main_menu
  2349     0676  0730               	addwf	??_main_menu,w
  2350     0677  3ED2               	addlw	(low ((_menu_options| 0+2)))& (0+255)
  2351     0678  0084               	movwf	4
  2352     0679  1383               	bcf	3,7	;select IRP bank1
  2353     067A  0800               	movf	0,w
  2354     067B  00F6               	movwf	clcd_print@str
  2355     067C  0A84               	incf	4,f
  2356     067D  0800               	movf	0,w
  2357     067E  0384               	decf	4,f
  2358     067F  00F7               	movwf	clcd_print@str+1
  2359     0680  30C2               	movlw	194
  2360     0681  00F8               	movwf	clcd_print@addr
  2361     0682  120A  158A  210F  120A  118A  	fcall	_clcd_print
  2362     0687                     l3502:
  2363                           
  2364                           ;dashboard.c: 176:   key = read_digital_keypad(1);
  2365     0687  3001               	movlw	1
  2366     0688  120A  158A  208F  120A  118A  	fcall	_read_digital_keypad
  2367     068D  1283               	bcf	3,5	;RP0=0, select bank0
  2368     068E  1303               	bcf	3,6	;RP1=0, select bank0
  2369     068F  00B2               	movwf	main_menu@key
  2370     0690                     l3504:
  2371                           
  2372                           ;dashboard.c: 178:   if(key == 0x3E){
  2373     0690  303E               	movlw	62
  2374     0691  0632               	xorwf	main_menu@key,w
  2375     0692  1D03               	btfss	3,2
  2376     0693  2E95               	goto	u3961
  2377     0694  2E96               	goto	u3960
  2378     0695                     u3961:
  2379     0695  2EAA               	goto	l3514
  2380     0696                     u3960:
  2381     0696                     l3506:
  2382                           
  2383                           ;dashboard.c: 179:    if(star == 1){
  2384     0696  0333               	decf	main_menu@star,w
  2385     0697  1D03               	btfss	3,2
  2386     0698  2E9A               	goto	u3971
  2387     0699  2E9B               	goto	u3970
  2388     069A                     u3971:
  2389     069A  2E9D               	goto	l3510
  2390     069B                     u3970:
  2391     069B                     l3508:
  2392                           
  2393                           ;dashboard.c: 180:     star = 0;
  2394     069B  01B3               	clrf	main_menu@star
  2395                           
  2396                           ;dashboard.c: 181:    }
  2397     069C  2E4F               	goto	l3496
  2398     069D                     l3510:
  2399     069D  0836               	movf	main_menu@menu_index,w
  2400     069E  0437               	iorwf	main_menu@menu_index+1,w
  2401     069F  1903               	btfsc	3,2
  2402     06A0  2EA2               	goto	u3981
  2403     06A1  2EA3               	goto	u3980
  2404     06A2                     u3981:
  2405     06A2  2E4F               	goto	l3496
  2406     06A3                     u3980:
  2407     06A3                     l3512:
  2408     06A3  3001               	movlw	1
  2409     06A4  02B6               	subwf	main_menu@menu_index,f
  2410     06A5  3000               	movlw	0
  2411     06A6  1C03               	skipc
  2412     06A7  03B7               	decf	main_menu@menu_index+1,f
  2413     06A8  02B7               	subwf	main_menu@menu_index+1,f
  2414     06A9  2E4F               	goto	l3496
  2415     06AA                     l3514:
  2416     06AA  303D               	movlw	61
  2417     06AB  0632               	xorwf	main_menu@key,w
  2418     06AC  1D03               	btfss	3,2
  2419     06AD  2EAF               	goto	u3991
  2420     06AE  2EB0               	goto	u3990
  2421     06AF                     u3991:
  2422     06AF  2EC8               	goto	l3524
  2423     06B0                     u3990:
  2424     06B0                     l3516:
  2425                           
  2426                           ;dashboard.c: 187:    if(star == 0){
  2427     06B0  0833               	movf	main_menu@star,w
  2428     06B1  1D03               	btfss	3,2
  2429     06B2  2EB4               	goto	u4001
  2430     06B3  2EB5               	goto	u4000
  2431     06B4                     u4001:
  2432     06B4  2EB8               	goto	l3520
  2433     06B5                     u4000:
  2434     06B5                     l3518:
  2435                           
  2436                           ;dashboard.c: 188:     star = 1;
  2437     06B5  3001               	movlw	1
  2438     06B6  00B3               	movwf	main_menu@star
  2439                           
  2440                           ;dashboard.c: 189:    }
  2441     06B7  2E4F               	goto	l3496
  2442     06B8                     l3520:
  2443     06B8  3000               	movlw	0
  2444     06B9  0237               	subwf	main_menu@menu_index+1,w
  2445     06BA  3003               	movlw	3
  2446     06BB  1903               	skipnz
  2447     06BC  0236               	subwf	main_menu@menu_index,w
  2448     06BD  1803               	skipnc
  2449     06BE  2EC0               	goto	u4011
  2450     06BF  2EC1               	goto	u4010
  2451     06C0                     u4011:
  2452     06C0  2E4F               	goto	l3496
  2453     06C1                     u4010:
  2454     06C1                     l3522:
  2455     06C1  3001               	movlw	1
  2456     06C2  07B6               	addwf	main_menu@menu_index,f
  2457     06C3  1803               	skipnc
  2458     06C4  0AB7               	incf	main_menu@menu_index+1,f
  2459     06C5  3000               	movlw	0
  2460     06C6  07B7               	addwf	main_menu@menu_index+1,f
  2461     06C7  2E4F               	goto	l3496
  2462     06C8                     l3524:
  2463     06C8  3037               	movlw	55
  2464     06C9  0632               	xorwf	main_menu@key,w
  2465     06CA  1D03               	btfss	3,2
  2466     06CB  2ECD               	goto	u4021
  2467     06CC  2ECE               	goto	u4020
  2468     06CD                     u4021:
  2469     06CD  2F0E               	goto	l3548
  2470     06CE                     u4020:
  2471     06CE                     l3526:
  2472                           
  2473                           ;dashboard.c: 196:    unsigned int selected_menu = menu_index + star;
  2474     06CE  0833               	movf	main_menu@star,w
  2475     06CF  0736               	addwf	main_menu@menu_index,w
  2476     06D0  00B4               	movwf	main_menu@selected_menu
  2477     06D1  0837               	movf	main_menu@menu_index+1,w
  2478     06D2  1803               	skipnc
  2479     06D3  0A37               	incf	main_menu@menu_index+1,w
  2480     06D4  00B5               	movwf	main_menu@selected_menu+1
  2481     06D5                     l3528:
  2482                           
  2483                           ;dashboard.c: 197:    clear_screen();
  2484     06D5  160A  118A  26B4  120A  118A  	fcall	_clear_screen
  2485     06DA                     l3530:
  2486                           
  2487                           ;dashboard.c: 199:    if(selected_menu == 0){
  2488     06DA  1283               	bcf	3,5	;RP0=0, select bank0
  2489     06DB  1303               	bcf	3,6	;RP1=0, select bank0
  2490     06DC  0834               	movf	main_menu@selected_menu,w
  2491     06DD  0435               	iorwf	main_menu@selected_menu+1,w
  2492     06DE  1D03               	btfss	3,2
  2493     06DF  2EE1               	goto	u4031
  2494     06E0  2EE2               	goto	u4030
  2495     06E1                     u4031:
  2496     06E1  2EE8               	goto	l3534
  2497     06E2                     u4030:
  2498     06E2                     l3532:
  2499                           
  2500                           ;dashboard.c: 200:     view_log();
  2501     06E2  120A  158A  25EF  120A  118A  	fcall	_view_log
  2502                           
  2503                           ;dashboard.c: 201:    }
  2504     06E7  2E4F               	goto	l3496
  2505     06E8                     l3534:
  2506     06E8  0334               	decf	main_menu@selected_menu,w
  2507     06E9  0435               	iorwf	main_menu@selected_menu+1,w
  2508     06EA  1D03               	btfss	3,2
  2509     06EB  2EED               	goto	u4041
  2510     06EC  2EEE               	goto	u4040
  2511     06ED                     u4041:
  2512     06ED  2EF4               	goto	l3538
  2513     06EE                     u4040:
  2514     06EE                     l3536:
  2515                           
  2516                           ;dashboard.c: 203:     clear_log();
  2517     06EE  160A  118A  277D  120A  118A  	fcall	_clear_log
  2518                           
  2519                           ;dashboard.c: 204:    }
  2520     06F3  2E4F               	goto	l3496
  2521     06F4                     l3538:
  2522     06F4  3002               	movlw	2
  2523     06F5  0634               	xorwf	main_menu@selected_menu,w
  2524     06F6  0435               	iorwf	main_menu@selected_menu+1,w
  2525     06F7  1D03               	btfss	3,2
  2526     06F8  2EFA               	goto	u4051
  2527     06F9  2EFB               	goto	u4050
  2528     06FA                     u4051:
  2529     06FA  2F01               	goto	l3542
  2530     06FB                     u4050:
  2531     06FB                     l3540:
  2532                           
  2533                           ;dashboard.c: 206:     download_log();
  2534     06FB  120A  158A  23CE  120A  118A  	fcall	_download_log
  2535                           
  2536                           ;dashboard.c: 207:    }
  2537     0700  2E4F               	goto	l3496
  2538     0701                     l3542:
  2539     0701  3003               	movlw	3
  2540     0702  0634               	xorwf	main_menu@selected_menu,w
  2541     0703  0435               	iorwf	main_menu@selected_menu+1,w
  2542     0704  1D03               	btfss	3,2
  2543     0705  2F07               	goto	u4061
  2544     0706  2F08               	goto	u4060
  2545     0707                     u4061:
  2546     0707  2E4F               	goto	l3496
  2547     0708                     u4060:
  2548     0708                     l3544:
  2549                           
  2550                           ;dashboard.c: 209:     set_time();
  2551     0708  120A  118A  220A  120A  118A  	fcall	_set_time
  2552                           
  2553                           ;dashboard.c: 210:    }
  2554     070D  2E4F               	goto	l3496
  2555     070E                     l3548:
  2556     070E  302F               	movlw	47
  2557     070F  0632               	xorwf	main_menu@key,w
  2558     0710  1D03               	btfss	3,2
  2559     0711  2F13               	goto	u4071
  2560     0712  2F14               	goto	u4070
  2561     0713                     u4071:
  2562     0713  2E4F               	goto	l3496
  2563     0714                     u4070:
  2564     0714                     l3550:
  2565                           
  2566                           ;dashboard.c: 218:    clear_screen();
  2567     0714  160A  118A  26B4  120A  118A  	fcall	_clear_screen
  2568     0719                     l319:
  2569     0719  0008               	return
  2570     071A                     __end_of_main_menu:
  2571                           
  2572                           	psect	text2
  2573     0DEF                     __ptext2:	
  2574 ;; *************** function _view_log *****************
  2575 ;; Defined at:
  2576 ;;		line 247 in file "dashboard.c"
  2577 ;; Parameters:    Size  Location     Type
  2578 ;;		None
  2579 ;; Auto vars:     Size  Location     Type
  2580 ;;  curr_log        2   14[BANK0 ] unsigned int 
  2581 ;;  key             2   12[BANK0 ] unsigned int 
  2582 ;;  log             2    0        PTR unsigned char 
  2583 ;; Return value:  Size  Location     Type
  2584 ;;                  1    wreg      void 
  2585 ;; Registers used:
  2586 ;;		wreg, fsr0l, fsr0h, status,2, status,0, pclath, btemp1, cstack
  2587 ;; Tracked objects:
  2588 ;;		On entry : 0/0
  2589 ;;		On exit  : 0/0
  2590 ;;		Unchanged: 0/0
  2591 ;; Data sizes:     COMMON   BANK0   BANK1   BANK3   BANK2
  2592 ;;      Params:         0       0       0       0       0
  2593 ;;      Locals:         0       4       0       0       0
  2594 ;;      Temps:          0       2       0       0       0
  2595 ;;      Totals:         0       6       0       0       0
  2596 ;;Total ram usage:        6 bytes
  2597 ;; Hardware stack levels used: 1
  2598 ;; Hardware stack levels required when called: 2
  2599 ;; This function calls:
  2600 ;;		_clcd_print
  2601 ;;		_read_and_format_log
  2602 ;;		_read_digital_keypad
  2603 ;; This function is called by:
  2604 ;;		_main_menu
  2605 ;; This function uses a non-reentrant model
  2606 ;;
  2607                           
  2608     0DEF                     _view_log:	
  2609                           ;psect for function _view_log
  2610                           
  2611     0DEF                     l3268:	
  2612                           ;incstack = 0
  2613                           ; Regs used in _view_log: [wreg-fsr0h+status,2+status,0+pclath+btemp1+cstack]
  2614                           
  2615                           
  2616                           ;dashboard.c: 250:  char *log;;dashboard.c: 251:  unsigned int curr_log = 0;
  2617     0DEF  1283               	bcf	3,5	;RP0=0, select bank0
  2618     0DF0  1303               	bcf	3,6	;RP1=0, select bank0
  2619     0DF1  01AE               	clrf	view_log@curr_log
  2620     0DF2  01AF               	clrf	view_log@curr_log+1
  2621     0DF3                     l3270:
  2622                           
  2623                           ;dashboard.c: 252:  unsigned int key;;dashboard.c: 255:  read_and_format_log(curr_log);
  2624     0DF3  3000               	movlw	0
  2625     0DF4  120A  158A  2568  120A  158A  	fcall	_read_and_format_log
  2626     0DF9                     l3272:
  2627                           
  2628                           ;dashboard.c: 260:   if(event_count == 0){
  2629     0DF9  1283               	bcf	3,5	;RP0=0, select bank0
  2630     0DFA  1303               	bcf	3,6	;RP1=0, select bank0
  2631     0DFB  0857               	movf	_event_count,w
  2632     0DFC  0458               	iorwf	_event_count+1,w
  2633     0DFD  1D03               	btfss	3,2
  2634     0DFE  2E00               	goto	u3631
  2635     0DFF  2E01               	goto	u3630
  2636     0E00                     u3631:
  2637     0E00  2E18               	goto	l3276
  2638     0E01                     u3630:
  2639     0E01                     l3274:
  2640                           
  2641                           ;dashboard.c: 261:    clcd_print("No Logs", (0x80 + 0));
  2642     0E01  3015               	movlw	low (STR_19| (0+32768))
  2643     0E02  00F6               	movwf	clcd_print@str
  2644     0E03  3085               	movlw	high (STR_19| (0+32768))
  2645     0E04  00F7               	movwf	clcd_print@str+1
  2646     0E05  3080               	movlw	128
  2647     0E06  00F8               	movwf	clcd_print@addr
  2648     0E07  120A  158A  210F  120A  158A  	fcall	_clcd_print
  2649                           
  2650                           ;dashboard.c: 262:    clcd_print("Available", (0xC0 + 0));
  2651     0E0C  3002               	movlw	low (STR_20| (0+32768))
  2652     0E0D  00F6               	movwf	clcd_print@str
  2653     0E0E  3085               	movlw	high (STR_20| (0+32768))
  2654     0E0F  00F7               	movwf	clcd_print@str+1
  2655     0E10  30C0               	movlw	192
  2656     0E11  00F8               	movwf	clcd_print@addr
  2657     0E12  120A  158A  210F  120A  158A  	fcall	_clcd_print
  2658                           
  2659                           ;dashboard.c: 263:   }
  2660     0E17  2E2E               	goto	l3278
  2661     0E18                     l3276:
  2662                           
  2663                           ;dashboard.c: 266:    clcd_print("# TIME     EV SP", (0x80 + 0));
  2664     0E18  3078               	movlw	low (STR_21| (0+32768))
  2665     0E19  00F6               	movwf	clcd_print@str
  2666     0E1A  3084               	movlw	high (STR_21| (0+32768))
  2667     0E1B  00F7               	movwf	clcd_print@str+1
  2668     0E1C  3080               	movlw	128
  2669     0E1D  00F8               	movwf	clcd_print@addr
  2670     0E1E  120A  158A  210F  120A  158A  	fcall	_clcd_print
  2671                           
  2672                           ;dashboard.c: 267:    clcd_print(logs, (0xC0 + 0));
  2673     0E23  30A4               	movlw	(low (_logs| 0))& (0+255)
  2674     0E24  00F6               	movwf	clcd_print@str
  2675     0E25  3000               	movlw	0
  2676     0E26  00F7               	movwf	clcd_print@str+1
  2677     0E27  30C0               	movlw	192
  2678     0E28  00F8               	movwf	clcd_print@addr
  2679     0E29  120A  158A  210F  120A  158A  	fcall	_clcd_print
  2680     0E2E                     l3278:
  2681                           
  2682                           ;dashboard.c: 271:   key = read_digital_keypad(1);
  2683     0E2E  3001               	movlw	1
  2684     0E2F  120A  158A  208F  120A  158A  	fcall	_read_digital_keypad
  2685     0E34  1283               	bcf	3,5	;RP0=0, select bank0
  2686     0E35  1303               	bcf	3,6	;RP1=0, select bank0
  2687     0E36  00AA               	movwf	??_view_log
  2688     0E37  01AB               	clrf	??_view_log+1
  2689     0E38  082A               	movf	??_view_log,w
  2690     0E39  00AC               	movwf	view_log@key
  2691     0E3A  082B               	movf	??_view_log+1,w
  2692     0E3B  00AD               	movwf	view_log@key+1
  2693     0E3C                     l3280:
  2694                           
  2695                           ;dashboard.c: 273:   if(key == 0x3E){
  2696     0E3C  303E               	movlw	62
  2697     0E3D  062C               	xorwf	view_log@key,w
  2698     0E3E  042D               	iorwf	view_log@key+1,w
  2699     0E3F  1D03               	btfss	3,2
  2700     0E40  2E42               	goto	u3641
  2701     0E41  2E43               	goto	u3640
  2702     0E42                     u3641:
  2703     0E42  2E56               	goto	l3288
  2704     0E43                     u3640:
  2705     0E43                     l3282:
  2706                           
  2707                           ;dashboard.c: 274:    if(curr_log > 0) curr_log--;
  2708     0E43  082E               	movf	view_log@curr_log,w
  2709     0E44  042F               	iorwf	view_log@curr_log+1,w
  2710     0E45  1903               	btfsc	3,2
  2711     0E46  2E48               	goto	u3651
  2712     0E47  2E49               	goto	u3650
  2713     0E48                     u3651:
  2714     0E48  2E4F               	goto	l3286
  2715     0E49                     u3650:
  2716     0E49                     l3284:
  2717     0E49  3001               	movlw	1
  2718     0E4A  02AE               	subwf	view_log@curr_log,f
  2719     0E4B  3000               	movlw	0
  2720     0E4C  1C03               	skipc
  2721     0E4D  03AF               	decf	view_log@curr_log+1,f
  2722     0E4E  02AF               	subwf	view_log@curr_log+1,f
  2723     0E4F                     l3286:
  2724                           
  2725                           ;dashboard.c: 275:    read_and_format_log(curr_log);
  2726     0E4F  082E               	movf	view_log@curr_log,w
  2727     0E50  120A  158A  2568  120A  158A  	fcall	_read_and_format_log
  2728                           
  2729                           ;dashboard.c: 276:   }
  2730     0E55  2DF9               	goto	l3272
  2731     0E56                     l3288:
  2732     0E56  303D               	movlw	61
  2733     0E57  062C               	xorwf	view_log@key,w
  2734     0E58  042D               	iorwf	view_log@key+1,w
  2735     0E59  1D03               	btfss	3,2
  2736     0E5A  2E5C               	goto	u3661
  2737     0E5B  2E5D               	goto	u3660
  2738     0E5C                     u3661:
  2739     0E5C  2E7C               	goto	l3296
  2740     0E5D                     u3660:
  2741     0E5D                     l3290:
  2742                           
  2743                           ;dashboard.c: 279:    if(curr_log < event_count - 1) curr_log++;
  2744     0E5D  0857               	movf	_event_count,w
  2745     0E5E  3EFF               	addlw	255
  2746     0E5F  00AA               	movwf	??_view_log
  2747     0E60  0858               	movf	_event_count+1,w
  2748     0E61  1803               	skipnc
  2749     0E62  3E01               	addlw	1
  2750     0E63  3EFF               	addlw	255
  2751     0E64  00AB               	movwf	??_view_log+1
  2752     0E65  082B               	movf	??_view_log+1,w
  2753     0E66  022F               	subwf	view_log@curr_log+1,w
  2754     0E67  1D03               	skipz
  2755     0E68  2E6B               	goto	u3675
  2756     0E69  082A               	movf	??_view_log,w
  2757     0E6A  022E               	subwf	view_log@curr_log,w
  2758     0E6B                     u3675:
  2759     0E6B  1803               	skipnc
  2760     0E6C  2E6E               	goto	u3671
  2761     0E6D  2E6F               	goto	u3670
  2762     0E6E                     u3671:
  2763     0E6E  2E75               	goto	l3294
  2764     0E6F                     u3670:
  2765     0E6F                     l3292:
  2766     0E6F  3001               	movlw	1
  2767     0E70  07AE               	addwf	view_log@curr_log,f
  2768     0E71  1803               	skipnc
  2769     0E72  0AAF               	incf	view_log@curr_log+1,f
  2770     0E73  3000               	movlw	0
  2771     0E74  07AF               	addwf	view_log@curr_log+1,f
  2772     0E75                     l3294:
  2773                           
  2774                           ;dashboard.c: 280:    read_and_format_log(curr_log);
  2775     0E75  082E               	movf	view_log@curr_log,w
  2776     0E76  120A  158A  2568  120A  158A  	fcall	_read_and_format_log
  2777                           
  2778                           ;dashboard.c: 281:   }
  2779     0E7B  2DF9               	goto	l3272
  2780     0E7C                     l3296:
  2781     0E7C  302F               	movlw	47
  2782     0E7D  062C               	xorwf	view_log@key,w
  2783     0E7E  042D               	iorwf	view_log@key+1,w
  2784     0E7F  1D03               	btfss	3,2
  2785     0E80  2E82               	goto	u3681
  2786     0E81  2E83               	goto	u3680
  2787     0E82                     u3681:
  2788     0E82  2DF9               	goto	l3272
  2789     0E83                     u3680:
  2790     0E83                     l349:
  2791     0E83  0008               	return
  2792     0E84                     __end_of_view_log:
  2793                           
  2794                           	psect	text3
  2795     020A                     __ptext3:	
  2796 ;; *************** function _set_time *****************
  2797 ;; Defined at:
  2798 ;;		line 336 in file "dashboard.c"
  2799 ;; Parameters:    Size  Location     Type
  2800 ;;		None
  2801 ;; Auto vars:     Size  Location     Type
  2802 ;;  indicator       2   13[BANK0 ] unsigned int 
  2803 ;;  sec             2   10[BANK0 ] unsigned int 
  2804 ;;  min             2    8[BANK0 ] unsigned int 
  2805 ;;  hour            2    6[BANK0 ] unsigned int 
  2806 ;;  key             1   12[BANK0 ] unsigned char 
  2807 ;; Return value:  Size  Location     Type
  2808 ;;                  1    wreg      void 
  2809 ;; Registers used:
  2810 ;;		wreg, fsr0l, fsr0h, status,2, status,0, pclath, btemp1, cstack
  2811 ;; Tracked objects:
  2812 ;;		On entry : 0/0
  2813 ;;		On exit  : 0/0
  2814 ;;		Unchanged: 0/0
  2815 ;; Data sizes:     COMMON   BANK0   BANK1   BANK3   BANK2
  2816 ;;      Params:         0       0       0       0       0
  2817 ;;      Locals:         0       9       0       0       0
  2818 ;;      Temps:          0       4       0       0       0
  2819 ;;      Totals:         0      13       0       0       0
  2820 ;;Total ram usage:       13 bytes
  2821 ;; Hardware stack levels used: 1
  2822 ;; Hardware stack levels required when called: 3
  2823 ;; This function calls:
  2824 ;;		___lwdiv
  2825 ;;		___lwmod
  2826 ;;		___wmul
  2827 ;;		_clcd_print
  2828 ;;		_clcd_putch
  2829 ;;		_display_indicator
  2830 ;;		_read_digital_keypad
  2831 ;; This function is called by:
  2832 ;;		_main_menu
  2833 ;; This function uses a non-reentrant model
  2834 ;;
  2835                           
  2836     020A                     _set_time:	
  2837                           ;psect for function _set_time
  2838                           
  2839     020A                     l3322:	
  2840                           ;incstack = 0
  2841                           ; Regs used in _set_time: [wreg-fsr0h+status,2+status,0+pclath+btemp1+cstack]
  2842                           
  2843                           
  2844                           ;dashboard.c: 339:  unsigned int hour = ((time[0] - '0') * 10) + (time[1] - '0');
  2845     020A  1283               	bcf	3,5	;RP0=0, select bank0
  2846     020B  1303               	bcf	3,6	;RP1=0, select bank0
  2847     020C  085C               	movf	_time,w
  2848     020D  00A2               	movwf	??_set_time
  2849     020E  01A3               	clrf	??_set_time+1
  2850     020F  0822               	movf	??_set_time,w
  2851     0210  00F2               	movwf	___wmul@multiplier
  2852     0211  0823               	movf	??_set_time+1,w
  2853     0212  00F3               	movwf	___wmul@multiplier+1
  2854     0213  300A               	movlw	10
  2855     0214  00F4               	movwf	___wmul@multiplicand
  2856     0215  3000               	movlw	0
  2857     0216  00F5               	movwf	___wmul@multiplicand+1
  2858     0217  120A  158A  201C  120A  118A  	fcall	___wmul
  2859     021C  1283               	bcf	3,5	;RP0=0, select bank0
  2860     021D  1303               	bcf	3,6	;RP1=0, select bank0
  2861     021E  085D               	movf	_time+1,w
  2862     021F  0772               	addwf	?___wmul,w
  2863     0220  00A4               	movwf	??_set_time+2
  2864     0221  3000               	movlw	0
  2865     0222  1803               	skipnc
  2866     0223  3001               	movlw	1
  2867     0224  0773               	addwf	?___wmul+1,w
  2868     0225  00A5               	movwf	??_set_time+3
  2869     0226  0824               	movf	??_set_time+2,w
  2870     0227  3EF0               	addlw	240
  2871     0228  00A6               	movwf	set_time@hour
  2872     0229  0825               	movf	??_set_time+3,w
  2873     022A  1803               	skipnc
  2874     022B  3E01               	addlw	1
  2875     022C  3EFD               	addlw	253
  2876     022D  00A7               	movwf	set_time@hour+1
  2877                           
  2878                           ;dashboard.c: 340:  unsigned int min = ((time[3] - '0') * 10) + (time[4] - '0');
  2879     022E  085F               	movf	_time+3,w
  2880     022F  00A2               	movwf	??_set_time
  2881     0230  01A3               	clrf	??_set_time+1
  2882     0231  0822               	movf	??_set_time,w
  2883     0232  00F2               	movwf	___wmul@multiplier
  2884     0233  0823               	movf	??_set_time+1,w
  2885     0234  00F3               	movwf	___wmul@multiplier+1
  2886     0235  300A               	movlw	10
  2887     0236  00F4               	movwf	___wmul@multiplicand
  2888     0237  3000               	movlw	0
  2889     0238  00F5               	movwf	___wmul@multiplicand+1
  2890     0239  120A  158A  201C  120A  118A  	fcall	___wmul
  2891     023E  1283               	bcf	3,5	;RP0=0, select bank0
  2892     023F  1303               	bcf	3,6	;RP1=0, select bank0
  2893     0240  0860               	movf	_time+4,w
  2894     0241  0772               	addwf	?___wmul,w
  2895     0242  00A4               	movwf	??_set_time+2
  2896     0243  3000               	movlw	0
  2897     0244  1803               	skipnc
  2898     0245  3001               	movlw	1
  2899     0246  0773               	addwf	?___wmul+1,w
  2900     0247  00A5               	movwf	??_set_time+3
  2901     0248  0824               	movf	??_set_time+2,w
  2902     0249  3EF0               	addlw	240
  2903     024A  00A8               	movwf	set_time@min
  2904     024B  0825               	movf	??_set_time+3,w
  2905     024C  1803               	skipnc
  2906     024D  3E01               	addlw	1
  2907     024E  3EFD               	addlw	253
  2908     024F  00A9               	movwf	set_time@min+1
  2909                           
  2910                           ;dashboard.c: 341:  unsigned int sec = ((time[6] - '0') * 10) + (time[7] - '0');
  2911     0250  0862               	movf	_time+6,w
  2912     0251  00A2               	movwf	??_set_time
  2913     0252  01A3               	clrf	??_set_time+1
  2914     0253  0822               	movf	??_set_time,w
  2915     0254  00F2               	movwf	___wmul@multiplier
  2916     0255  0823               	movf	??_set_time+1,w
  2917     0256  00F3               	movwf	___wmul@multiplier+1
  2918     0257  300A               	movlw	10
  2919     0258  00F4               	movwf	___wmul@multiplicand
  2920     0259  3000               	movlw	0
  2921     025A  00F5               	movwf	___wmul@multiplicand+1
  2922     025B  120A  158A  201C  120A  118A  	fcall	___wmul
  2923     0260  1283               	bcf	3,5	;RP0=0, select bank0
  2924     0261  1303               	bcf	3,6	;RP1=0, select bank0
  2925     0262  0863               	movf	_time+7,w
  2926     0263  0772               	addwf	?___wmul,w
  2927     0264  00A4               	movwf	??_set_time+2
  2928     0265  3000               	movlw	0
  2929     0266  1803               	skipnc
  2930     0267  3001               	movlw	1
  2931     0268  0773               	addwf	?___wmul+1,w
  2932     0269  00A5               	movwf	??_set_time+3
  2933     026A  0824               	movf	??_set_time+2,w
  2934     026B  3EF0               	addlw	240
  2935     026C  00AA               	movwf	set_time@sec
  2936     026D  0825               	movf	??_set_time+3,w
  2937     026E  1803               	skipnc
  2938     026F  3E01               	addlw	1
  2939     0270  3EFD               	addlw	253
  2940     0271  00AB               	movwf	set_time@sec+1
  2941     0272                     l3324:
  2942                           
  2943                           ;dashboard.c: 342:  unsigned int indicator = 0;
  2944     0272  01AD               	clrf	set_time@indicator
  2945     0273  01AE               	clrf	set_time@indicator+1
  2946     0274                     l3326:
  2947                           
  2948                           ;dashboard.c: 343:  unsigned char key;;dashboard.c: 345:  clcd_print("    HH:MM:SS    ",
      +                           (0x80 + 0));
  2949     0274  3045               	movlw	low (STR_29| (0+32768))
  2950     0275  00F6               	movwf	clcd_print@str
  2951     0276  3084               	movlw	high (STR_29| (0+32768))
  2952     0277  00F7               	movwf	clcd_print@str+1
  2953     0278  3080               	movlw	128
  2954     0279  00F8               	movwf	clcd_print@addr
  2955     027A  120A  158A  210F  120A  118A  	fcall	_clcd_print
  2956     027F                     l3328:
  2957                           
  2958                           ;dashboard.c: 350:   clcd_putch((hour / 10) + '0', (0xC0 + 4));
  2959     027F  30C4               	movlw	196
  2960     0280  00F9               	movwf	clcd_putch@addr
  2961     0281  300A               	movlw	10
  2962     0282  00F2               	movwf	___lwdiv@divisor
  2963     0283  3000               	movlw	0
  2964     0284  00F3               	movwf	___lwdiv@divisor+1
  2965     0285  1283               	bcf	3,5	;RP0=0, select bank0
  2966     0286  1303               	bcf	3,6	;RP1=0, select bank0
  2967     0287  0827               	movf	set_time@hour+1,w
  2968     0288  00F5               	movwf	___lwdiv@dividend+1
  2969     0289  0826               	movf	set_time@hour,w
  2970     028A  00F4               	movwf	___lwdiv@dividend
  2971     028B  120A  158A  22E1  120A  118A  	fcall	___lwdiv
  2972     0290  0872               	movf	?___lwdiv,w
  2973     0291  3E30               	addlw	48
  2974     0292  120A  118A  27E8  120A  118A  	fcall	_clcd_putch
  2975     0297                     l3330:
  2976                           
  2977                           ;dashboard.c: 351:   clcd_putch((hour % 10) + '0', (0xC0 + 5));
  2978     0297  30C5               	movlw	197
  2979     0298  00F9               	movwf	clcd_putch@addr
  2980     0299  300A               	movlw	10
  2981     029A  00F2               	movwf	___lwmod@divisor
  2982     029B  3000               	movlw	0
  2983     029C  00F3               	movwf	___lwmod@divisor+1
  2984     029D  1283               	bcf	3,5	;RP0=0, select bank0
  2985     029E  1303               	bcf	3,6	;RP1=0, select bank0
  2986     029F  0827               	movf	set_time@hour+1,w
  2987     02A0  00F5               	movwf	___lwmod@dividend+1
  2988     02A1  0826               	movf	set_time@hour,w
  2989     02A2  00F4               	movwf	___lwmod@dividend
  2990     02A3  120A  158A  2270  120A  118A  	fcall	___lwmod
  2991     02A8  0872               	movf	?___lwmod,w
  2992     02A9  3E30               	addlw	48
  2993     02AA  120A  118A  27E8  120A  118A  	fcall	_clcd_putch
  2994     02AF                     l3332:
  2995                           
  2996                           ;dashboard.c: 352:   clcd_putch(':', (0xC0 + 6));
  2997     02AF  30C6               	movlw	198
  2998     02B0  00F9               	movwf	clcd_putch@addr
  2999     02B1  303A               	movlw	58
  3000     02B2  120A  118A  27E8  120A  118A  	fcall	_clcd_putch
  3001     02B7                     l3334:
  3002                           
  3003                           ;dashboard.c: 355:   clcd_putch((min / 10) + '0', (0xC0 + 7));
  3004     02B7  30C7               	movlw	199
  3005     02B8  00F9               	movwf	clcd_putch@addr
  3006     02B9  300A               	movlw	10
  3007     02BA  00F2               	movwf	___lwdiv@divisor
  3008     02BB  3000               	movlw	0
  3009     02BC  00F3               	movwf	___lwdiv@divisor+1
  3010     02BD  1283               	bcf	3,5	;RP0=0, select bank0
  3011     02BE  1303               	bcf	3,6	;RP1=0, select bank0
  3012     02BF  0829               	movf	set_time@min+1,w
  3013     02C0  00F5               	movwf	___lwdiv@dividend+1
  3014     02C1  0828               	movf	set_time@min,w
  3015     02C2  00F4               	movwf	___lwdiv@dividend
  3016     02C3  120A  158A  22E1  120A  118A  	fcall	___lwdiv
  3017     02C8  0872               	movf	?___lwdiv,w
  3018     02C9  3E30               	addlw	48
  3019     02CA  120A  118A  27E8  120A  118A  	fcall	_clcd_putch
  3020     02CF                     l3336:
  3021                           
  3022                           ;dashboard.c: 356:   clcd_putch((min % 10) + '0', (0xC0 + 8));
  3023     02CF  30C8               	movlw	200
  3024     02D0  00F9               	movwf	clcd_putch@addr
  3025     02D1  300A               	movlw	10
  3026     02D2  00F2               	movwf	___lwmod@divisor
  3027     02D3  3000               	movlw	0
  3028     02D4  00F3               	movwf	___lwmod@divisor+1
  3029     02D5  1283               	bcf	3,5	;RP0=0, select bank0
  3030     02D6  1303               	bcf	3,6	;RP1=0, select bank0
  3031     02D7  0829               	movf	set_time@min+1,w
  3032     02D8  00F5               	movwf	___lwmod@dividend+1
  3033     02D9  0828               	movf	set_time@min,w
  3034     02DA  00F4               	movwf	___lwmod@dividend
  3035     02DB  120A  158A  2270  120A  118A  	fcall	___lwmod
  3036     02E0  0872               	movf	?___lwmod,w
  3037     02E1  3E30               	addlw	48
  3038     02E2  120A  118A  27E8  120A  118A  	fcall	_clcd_putch
  3039     02E7                     l3338:
  3040                           
  3041                           ;dashboard.c: 357:   clcd_putch(':', (0xC0 + 9));
  3042     02E7  30C9               	movlw	201
  3043     02E8  00F9               	movwf	clcd_putch@addr
  3044     02E9  303A               	movlw	58
  3045     02EA  120A  118A  27E8  120A  118A  	fcall	_clcd_putch
  3046     02EF                     l3340:
  3047                           
  3048                           ;dashboard.c: 360:   clcd_putch((sec / 10) + '0', (0xC0 + 10));
  3049     02EF  30CA               	movlw	202
  3050     02F0  00F9               	movwf	clcd_putch@addr
  3051     02F1  300A               	movlw	10
  3052     02F2  00F2               	movwf	___lwdiv@divisor
  3053     02F3  3000               	movlw	0
  3054     02F4  00F3               	movwf	___lwdiv@divisor+1
  3055     02F5  1283               	bcf	3,5	;RP0=0, select bank0
  3056     02F6  1303               	bcf	3,6	;RP1=0, select bank0
  3057     02F7  082B               	movf	set_time@sec+1,w
  3058     02F8  00F5               	movwf	___lwdiv@dividend+1
  3059     02F9  082A               	movf	set_time@sec,w
  3060     02FA  00F4               	movwf	___lwdiv@dividend
  3061     02FB  120A  158A  22E1  120A  118A  	fcall	___lwdiv
  3062     0300  0872               	movf	?___lwdiv,w
  3063     0301  3E30               	addlw	48
  3064     0302  120A  118A  27E8  120A  118A  	fcall	_clcd_putch
  3065     0307                     l3342:
  3066                           
  3067                           ;dashboard.c: 361:   clcd_putch((sec % 10) + '0', (0xC0 + 11));
  3068     0307  30CB               	movlw	203
  3069     0308  00F9               	movwf	clcd_putch@addr
  3070     0309  300A               	movlw	10
  3071     030A  00F2               	movwf	___lwmod@divisor
  3072     030B  3000               	movlw	0
  3073     030C  00F3               	movwf	___lwmod@divisor+1
  3074     030D  1283               	bcf	3,5	;RP0=0, select bank0
  3075     030E  1303               	bcf	3,6	;RP1=0, select bank0
  3076     030F  082B               	movf	set_time@sec+1,w
  3077     0310  00F5               	movwf	___lwmod@dividend+1
  3078     0311  082A               	movf	set_time@sec,w
  3079     0312  00F4               	movwf	___lwmod@dividend
  3080     0313  120A  158A  2270  120A  118A  	fcall	___lwmod
  3081     0318  0872               	movf	?___lwmod,w
  3082     0319  3E30               	addlw	48
  3083     031A  120A  118A  27E8  120A  118A  	fcall	_clcd_putch
  3084     031F                     l3344:
  3085                           
  3086                           ;dashboard.c: 363:   display_indicator(indicator);
  3087     031F  1283               	bcf	3,5	;RP0=0, select bank0
  3088     0320  1303               	bcf	3,6	;RP1=0, select bank0
  3089     0321  082E               	movf	set_time@indicator+1,w
  3090     0322  00A1               	movwf	display_indicator@pos+1
  3091     0323  082D               	movf	set_time@indicator,w
  3092     0324  00A0               	movwf	display_indicator@pos
  3093     0325  120A  158A  22A8  120A  118A  	fcall	_display_indicator
  3094     032A                     l3346:
  3095                           
  3096                           ;dashboard.c: 367:   key = read_digital_keypad(1);
  3097     032A  3001               	movlw	1
  3098     032B  120A  158A  208F  120A  118A  	fcall	_read_digital_keypad
  3099     0330  1283               	bcf	3,5	;RP0=0, select bank0
  3100     0331  1303               	bcf	3,6	;RP1=0, select bank0
  3101     0332  00AC               	movwf	set_time@key
  3102     0333                     l3348:
  3103                           
  3104                           ;dashboard.c: 369:   if(key == 0x3E){
  3105     0333  303E               	movlw	62
  3106     0334  062C               	xorwf	set_time@key,w
  3107     0335  1D03               	btfss	3,2
  3108     0336  2B38               	goto	u3701
  3109     0337  2B39               	goto	u3700
  3110     0338                     u3701:
  3111     0338  2B92               	goto	l3362
  3112     0339                     u3700:
  3113     0339                     l3350:
  3114                           
  3115                           ;dashboard.c: 370:    if(indicator == 0) hour = (hour + 1) % 24;
  3116     0339  082D               	movf	set_time@indicator,w
  3117     033A  042E               	iorwf	set_time@indicator+1,w
  3118     033B  1D03               	btfss	3,2
  3119     033C  2B3E               	goto	u3711
  3120     033D  2B3F               	goto	u3710
  3121     033E                     u3711:
  3122     033E  2B56               	goto	l3354
  3123     033F                     u3710:
  3124     033F                     l3352:
  3125     033F  3018               	movlw	24
  3126     0340  00F2               	movwf	___lwmod@divisor
  3127     0341  3000               	movlw	0
  3128     0342  00F3               	movwf	___lwmod@divisor+1
  3129     0343  0826               	movf	set_time@hour,w
  3130     0344  3E01               	addlw	1
  3131     0345  00F4               	movwf	___lwmod@dividend
  3132     0346  0827               	movf	set_time@hour+1,w
  3133     0347  1803               	skipnc
  3134     0348  3E01               	addlw	1
  3135     0349  3E00               	addlw	0
  3136     034A  00F5               	movwf	___lwmod@dividend+1
  3137     034B  120A  158A  2270  120A  118A  	fcall	___lwmod
  3138     0350  0873               	movf	?___lwmod+1,w
  3139     0351  1283               	bcf	3,5	;RP0=0, select bank0
  3140     0352  1303               	bcf	3,6	;RP1=0, select bank0
  3141     0353  00A7               	movwf	set_time@hour+1
  3142     0354  0872               	movf	?___lwmod,w
  3143     0355  00A6               	movwf	set_time@hour
  3144     0356                     l3354:
  3145                           
  3146                           ;dashboard.c: 372:    if(indicator == 1) min = (min + 1) % 60;
  3147     0356  032D               	decf	set_time@indicator,w
  3148     0357  042E               	iorwf	set_time@indicator+1,w
  3149     0358  1D03               	btfss	3,2
  3150     0359  2B5B               	goto	u3721
  3151     035A  2B5C               	goto	u3720
  3152     035B                     u3721:
  3153     035B  2B73               	goto	l3358
  3154     035C                     u3720:
  3155     035C                     l3356:
  3156     035C  303C               	movlw	60
  3157     035D  00F2               	movwf	___lwmod@divisor
  3158     035E  3000               	movlw	0
  3159     035F  00F3               	movwf	___lwmod@divisor+1
  3160     0360  0828               	movf	set_time@min,w
  3161     0361  3E01               	addlw	1
  3162     0362  00F4               	movwf	___lwmod@dividend
  3163     0363  0829               	movf	set_time@min+1,w
  3164     0364  1803               	skipnc
  3165     0365  3E01               	addlw	1
  3166     0366  3E00               	addlw	0
  3167     0367  00F5               	movwf	___lwmod@dividend+1
  3168     0368  120A  158A  2270  120A  118A  	fcall	___lwmod
  3169     036D  0873               	movf	?___lwmod+1,w
  3170     036E  1283               	bcf	3,5	;RP0=0, select bank0
  3171     036F  1303               	bcf	3,6	;RP1=0, select bank0
  3172     0370  00A9               	movwf	set_time@min+1
  3173     0371  0872               	movf	?___lwmod,w
  3174     0372  00A8               	movwf	set_time@min
  3175     0373                     l3358:
  3176                           
  3177                           ;dashboard.c: 374:    if(indicator == 2) sec = (sec + 1) % 60;
  3178     0373  3002               	movlw	2
  3179     0374  062D               	xorwf	set_time@indicator,w
  3180     0375  042E               	iorwf	set_time@indicator+1,w
  3181     0376  1D03               	btfss	3,2
  3182     0377  2B79               	goto	u3731
  3183     0378  2B7A               	goto	u3730
  3184     0379                     u3731:
  3185     0379  2A7F               	goto	l3328
  3186     037A                     u3730:
  3187     037A                     l3360:
  3188     037A  303C               	movlw	60
  3189     037B  00F2               	movwf	___lwmod@divisor
  3190     037C  3000               	movlw	0
  3191     037D  00F3               	movwf	___lwmod@divisor+1
  3192     037E  082A               	movf	set_time@sec,w
  3193     037F  3E01               	addlw	1
  3194     0380  00F4               	movwf	___lwmod@dividend
  3195     0381  082B               	movf	set_time@sec+1,w
  3196     0382  1803               	skipnc
  3197     0383  3E01               	addlw	1
  3198     0384  3E00               	addlw	0
  3199     0385  00F5               	movwf	___lwmod@dividend+1
  3200     0386  120A  158A  2270  120A  118A  	fcall	___lwmod
  3201     038B  0873               	movf	?___lwmod+1,w
  3202     038C  1283               	bcf	3,5	;RP0=0, select bank0
  3203     038D  1303               	bcf	3,6	;RP1=0, select bank0
  3204     038E  00AB               	movwf	set_time@sec+1
  3205     038F  0872               	movf	?___lwmod,w
  3206     0390  00AA               	movwf	set_time@sec
  3207     0391  2A7F               	goto	l3328
  3208     0392                     l3362:
  3209     0392  303D               	movlw	61
  3210     0393  062C               	xorwf	set_time@key,w
  3211     0394  1D03               	btfss	3,2
  3212     0395  2B97               	goto	u3741
  3213     0396  2B98               	goto	u3740
  3214     0397                     u3741:
  3215     0397  2BB0               	goto	l3366
  3216     0398                     u3740:
  3217     0398                     l3364:
  3218                           
  3219                           ;dashboard.c: 378:    indicator = (indicator + 1) % 3;
  3220     0398  3003               	movlw	3
  3221     0399  00F2               	movwf	___lwmod@divisor
  3222     039A  3000               	movlw	0
  3223     039B  00F3               	movwf	___lwmod@divisor+1
  3224     039C  082D               	movf	set_time@indicator,w
  3225     039D  3E01               	addlw	1
  3226     039E  00F4               	movwf	___lwmod@dividend
  3227     039F  082E               	movf	set_time@indicator+1,w
  3228     03A0  1803               	skipnc
  3229     03A1  3E01               	addlw	1
  3230     03A2  3E00               	addlw	0
  3231     03A3  00F5               	movwf	___lwmod@dividend+1
  3232     03A4  120A  158A  2270  120A  118A  	fcall	___lwmod
  3233     03A9  0873               	movf	?___lwmod+1,w
  3234     03AA  1283               	bcf	3,5	;RP0=0, select bank0
  3235     03AB  1303               	bcf	3,6	;RP1=0, select bank0
  3236     03AC  00AE               	movwf	set_time@indicator+1
  3237     03AD  0872               	movf	?___lwmod,w
  3238     03AE  00AD               	movwf	set_time@indicator
  3239                           
  3240                           ;dashboard.c: 379:   }
  3241     03AF  2A7F               	goto	l3328
  3242     03B0                     l3366:
  3243     03B0  3037               	movlw	55
  3244     03B1  062C               	xorwf	set_time@key,w
  3245     03B2  1D03               	btfss	3,2
  3246     03B3  2BB5               	goto	u3751
  3247     03B4  2BB6               	goto	u3750
  3248     03B5                     u3751:
  3249     03B5  2BB7               	goto	l3370
  3250     03B6                     u3750:
  3251     03B6  2A7F               	goto	l3328
  3252     03B7                     l3370:
  3253     03B7  302F               	movlw	47
  3254     03B8  062C               	xorwf	set_time@key,w
  3255     03B9  1D03               	btfss	3,2
  3256     03BA  2BBC               	goto	u3761
  3257     03BB  2BBD               	goto	u3760
  3258     03BC                     u3761:
  3259     03BC  2A7F               	goto	l3328
  3260     03BD                     u3760:
  3261     03BD                     l382:
  3262     03BD  0008               	return
  3263     03BE                     __end_of_set_time:
  3264                           
  3265                           	psect	text4
  3266     0AA8                     __ptext4:	
  3267 ;; *************** function _display_indicator *****************
  3268 ;; Defined at:
  3269 ;;		line 320 in file "dashboard.c"
  3270 ;; Parameters:    Size  Location     Type
  3271 ;;  pos             2    0[BANK0 ] unsigned int 
  3272 ;; Auto vars:     Size  Location     Type
  3273 ;;		None
  3274 ;; Return value:  Size  Location     Type
  3275 ;;                  1    wreg      void 
  3276 ;; Registers used:
  3277 ;;		wreg, fsr0l, fsr0h, status,2, status,0, pclath, btemp1, cstack
  3278 ;; Tracked objects:
  3279 ;;		On entry : 0/0
  3280 ;;		On exit  : 0/0
  3281 ;;		Unchanged: 0/0
  3282 ;; Data sizes:     COMMON   BANK0   BANK1   BANK3   BANK2
  3283 ;;      Params:         0       2       0       0       0
  3284 ;;      Locals:         0       0       0       0       0
  3285 ;;      Temps:          0       0       0       0       0
  3286 ;;      Totals:         0       2       0       0       0
  3287 ;;Total ram usage:        2 bytes
  3288 ;; Hardware stack levels used: 1
  3289 ;; Hardware stack levels required when called: 2
  3290 ;; This function calls:
  3291 ;;		_clcd_print
  3292 ;; This function is called by:
  3293 ;;		_set_time
  3294 ;; This function uses a non-reentrant model
  3295 ;;
  3296                           
  3297     0AA8                     _display_indicator:	
  3298                           ;psect for function _display_indicator
  3299                           
  3300     0AA8                     l3152:	
  3301                           ;incstack = 0
  3302                           ; Regs used in _display_indicator: [wreg-fsr0h+status,2+status,0+pclath+btemp1+cstack]
  3303                           
  3304                           
  3305                           ;dashboard.c: 321:  if(pos == 0){
  3306     0AA8  1283               	bcf	3,5	;RP0=0, select bank0
  3307     0AA9  1303               	bcf	3,6	;RP1=0, select bank0
  3308     0AAA  0820               	movf	display_indicator@pos,w
  3309     0AAB  0421               	iorwf	display_indicator@pos+1,w
  3310     0AAC  1D03               	btfss	3,2
  3311     0AAD  2AAF               	goto	u3431
  3312     0AAE  2AB0               	goto	u3430
  3313     0AAF                     u3431:
  3314     0AAF  2ABC               	goto	l3156
  3315     0AB0                     u3430:
  3316     0AB0                     l3154:
  3317                           
  3318                           ;dashboard.c: 323:   clcd_print("  ", (0xC0 + 4));
  3319     0AB0  3020               	movlw	low ((STR_31+14)| (0+32768))
  3320     0AB1  00F6               	movwf	clcd_print@str
  3321     0AB2  3084               	movlw	high ((STR_31+14)| (0+32768))
  3322     0AB3  00F7               	movwf	clcd_print@str+1
  3323     0AB4  30C4               	movlw	196
  3324     0AB5  00F8               	movwf	clcd_print@addr
  3325     0AB6  120A  158A  210F  120A  158A  	fcall	_clcd_print
  3326                           
  3327                           ;dashboard.c: 324:  }
  3328     0ABB  2AE0               	goto	l368
  3329     0ABC                     l3156:
  3330     0ABC  0320               	decf	display_indicator@pos,w
  3331     0ABD  0421               	iorwf	display_indicator@pos+1,w
  3332     0ABE  1D03               	btfss	3,2
  3333     0ABF  2AC1               	goto	u3441
  3334     0AC0  2AC2               	goto	u3440
  3335     0AC1                     u3441:
  3336     0AC1  2ACE               	goto	l3160
  3337     0AC2                     u3440:
  3338     0AC2                     l3158:
  3339                           
  3340                           ;dashboard.c: 327:   clcd_print("  ", (0xC0 + 7));
  3341     0AC2  3020               	movlw	low ((STR_31+14)| (0+32768))
  3342     0AC3  00F6               	movwf	clcd_print@str
  3343     0AC4  3084               	movlw	high ((STR_31+14)| (0+32768))
  3344     0AC5  00F7               	movwf	clcd_print@str+1
  3345     0AC6  30C7               	movlw	199
  3346     0AC7  00F8               	movwf	clcd_print@addr
  3347     0AC8  120A  158A  210F  120A  158A  	fcall	_clcd_print
  3348                           
  3349                           ;dashboard.c: 328:  }
  3350     0ACD  2AE0               	goto	l368
  3351     0ACE                     l3160:
  3352     0ACE  3002               	movlw	2
  3353     0ACF  0620               	xorwf	display_indicator@pos,w
  3354     0AD0  0421               	iorwf	display_indicator@pos+1,w
  3355     0AD1  1D03               	btfss	3,2
  3356     0AD2  2AD4               	goto	u3451
  3357     0AD3  2AD5               	goto	u3450
  3358     0AD4                     u3451:
  3359     0AD4  2AE0               	goto	l368
  3360     0AD5                     u3450:
  3361     0AD5                     l3162:
  3362                           
  3363                           ;dashboard.c: 331:   clcd_print("  ", (0xC0 + 10));
  3364     0AD5  3020               	movlw	low ((STR_31+14)| (0+32768))
  3365     0AD6  00F6               	movwf	clcd_print@str
  3366     0AD7  3084               	movlw	high ((STR_31+14)| (0+32768))
  3367     0AD8  00F7               	movwf	clcd_print@str+1
  3368     0AD9  30CA               	movlw	202
  3369     0ADA  00F8               	movwf	clcd_print@addr
  3370     0ADB  120A  158A  210F  120A  158A  	fcall	_clcd_print
  3371     0AE0                     l368:
  3372     0AE0  0008               	return
  3373     0AE1                     __end_of_display_indicator:
  3374                           
  3375                           	psect	text5
  3376     0A3A                     __ptext5:	
  3377 ;; *************** function _print_star *****************
  3378 ;; Defined at:
  3379 ;;		line 150 in file "dashboard.c"
  3380 ;; Parameters:    Size  Location     Type
  3381 ;;  position        2    0[BANK0 ] unsigned int 
  3382 ;; Auto vars:     Size  Location     Type
  3383 ;;		None
  3384 ;; Return value:  Size  Location     Type
  3385 ;;                  1    wreg      void 
  3386 ;; Registers used:
  3387 ;;		wreg, fsr0l, fsr0h, status,2, status,0, pclath, btemp1, cstack
  3388 ;; Tracked objects:
  3389 ;;		On entry : 0/0
  3390 ;;		On exit  : 0/0
  3391 ;;		Unchanged: 0/0
  3392 ;; Data sizes:     COMMON   BANK0   BANK1   BANK3   BANK2
  3393 ;;      Params:         0       2       0       0       0
  3394 ;;      Locals:         0       0       0       0       0
  3395 ;;      Temps:          0       0       0       0       0
  3396 ;;      Totals:         0       2       0       0       0
  3397 ;;Total ram usage:        2 bytes
  3398 ;; Hardware stack levels used: 1
  3399 ;; Hardware stack levels required when called: 2
  3400 ;; This function calls:
  3401 ;;		_clcd_print
  3402 ;; This function is called by:
  3403 ;;		_main_menu
  3404 ;; This function uses a non-reentrant model
  3405 ;;
  3406                           
  3407     0A3A                     _print_star:	
  3408                           ;psect for function _print_star
  3409                           
  3410     0A3A                     l3262:	
  3411                           ;incstack = 0
  3412                           ; Regs used in _print_star: [wreg-fsr0h+status,2+status,0+pclath+btemp1+cstack]
  3413                           
  3414                           
  3415                           ;dashboard.c: 151:  if(position == 0){
  3416     0A3A  1283               	bcf	3,5	;RP0=0, select bank0
  3417     0A3B  1303               	bcf	3,6	;RP1=0, select bank0
  3418     0A3C  0820               	movf	print_star@position,w
  3419     0A3D  0421               	iorwf	print_star@position+1,w
  3420     0A3E  1D03               	btfss	3,2
  3421     0A3F  2A41               	goto	u3621
  3422     0A40  2A42               	goto	u3620
  3423     0A41                     u3621:
  3424     0A41  2A59               	goto	l3266
  3425     0A42                     u3620:
  3426     0A42                     l3264:
  3427                           
  3428                           ;dashboard.c: 152:   clcd_print("* ", (0x80 + 0));
  3429     0A42  301D               	movlw	low (STR_15| (0+32768))
  3430     0A43  00F6               	movwf	clcd_print@str
  3431     0A44  3085               	movlw	high (STR_15| (0+32768))
  3432     0A45  00F7               	movwf	clcd_print@str+1
  3433     0A46  3080               	movlw	128
  3434     0A47  00F8               	movwf	clcd_print@addr
  3435     0A48  120A  158A  210F  120A  158A  	fcall	_clcd_print
  3436                           
  3437                           ;dashboard.c: 153:   clcd_print("  ", (0xC0 + 0));
  3438     0A4D  3020               	movlw	low ((STR_31+14)| (0+32768))
  3439     0A4E  00F6               	movwf	clcd_print@str
  3440     0A4F  3084               	movlw	high ((STR_31+14)| (0+32768))
  3441     0A50  00F7               	movwf	clcd_print@str+1
  3442     0A51  30C0               	movlw	192
  3443     0A52  00F8               	movwf	clcd_print@addr
  3444     0A53  120A  158A  210F  120A  158A  	fcall	_clcd_print
  3445                           
  3446                           ;dashboard.c: 154:  }
  3447     0A58  2A6F               	goto	l293
  3448     0A59                     l3266:
  3449                           
  3450                           ;dashboard.c: 156:   clcd_print("* ", (0xC0 + 0));
  3451     0A59  301D               	movlw	low (STR_15| (0+32768))
  3452     0A5A  00F6               	movwf	clcd_print@str
  3453     0A5B  3085               	movlw	high (STR_15| (0+32768))
  3454     0A5C  00F7               	movwf	clcd_print@str+1
  3455     0A5D  30C0               	movlw	192
  3456     0A5E  00F8               	movwf	clcd_print@addr
  3457     0A5F  120A  158A  210F  120A  158A  	fcall	_clcd_print
  3458                           
  3459                           ;dashboard.c: 157:   clcd_print("  ", (0x80 + 0));
  3460     0A64  3020               	movlw	low ((STR_31+14)| (0+32768))
  3461     0A65  00F6               	movwf	clcd_print@str
  3462     0A66  3084               	movlw	high ((STR_31+14)| (0+32768))
  3463     0A67  00F7               	movwf	clcd_print@str+1
  3464     0A68  3080               	movlw	128
  3465     0A69  00F8               	movwf	clcd_print@addr
  3466     0A6A  120A  158A  210F  120A  158A  	fcall	_clcd_print
  3467     0A6F                     l293:
  3468     0A6F  0008               	return
  3469     0A70                     __end_of_print_star:
  3470                           
  3471                           	psect	text6
  3472     0BCE                     __ptext6:	
  3473 ;; *************** function _download_log *****************
  3474 ;; Defined at:
  3475 ;;		line 300 in file "dashboard.c"
  3476 ;; Parameters:    Size  Location     Type
  3477 ;;		None
  3478 ;; Auto vars:     Size  Location     Type
  3479 ;;  i               2   13[BANK0 ] unsigned int 
  3480 ;; Return value:  Size  Location     Type
  3481 ;;                  1    wreg      void 
  3482 ;; Registers used:
  3483 ;;		wreg, fsr0l, fsr0h, status,2, status,0, pclath, btemp1, cstack
  3484 ;; Tracked objects:
  3485 ;;		On entry : 0/0
  3486 ;;		On exit  : 0/0
  3487 ;;		Unchanged: 0/0
  3488 ;; Data sizes:     COMMON   BANK0   BANK1   BANK3   BANK2
  3489 ;;      Params:         0       0       0       0       0
  3490 ;;      Locals:         0       2       0       0       0
  3491 ;;      Temps:          0       3       0       0       0
  3492 ;;      Totals:         0       5       0       0       0
  3493 ;;Total ram usage:        5 bytes
  3494 ;; Hardware stack levels used: 1
  3495 ;; Hardware stack levels required when called: 5
  3496 ;; This function calls:
  3497 ;;		_clcd_print
  3498 ;;		_put_char
  3499 ;;		_put_s
  3500 ;;		_read_and_format_log
  3501 ;; This function is called by:
  3502 ;;		_main_menu
  3503 ;; This function uses a non-reentrant model
  3504 ;;
  3505                           
  3506     0BCE                     _download_log:	
  3507                           ;psect for function _download_log
  3508                           
  3509     0BCE                     l3308:	
  3510                           ;incstack = 0
  3511                           ; Regs used in _download_log: [wreg-fsr0h+status,2+status,0+pclath+btemp1+cstack]
  3512                           
  3513                           
  3514                           ;dashboard.c: 302:  clcd_print("Logs are", (0x80 + 0));
  3515     0BCE  300C               	movlw	low (STR_23| (0+32768))
  3516     0BCF  00F6               	movwf	clcd_print@str
  3517     0BD0  3085               	movlw	high (STR_23| (0+32768))
  3518     0BD1  00F7               	movwf	clcd_print@str+1
  3519     0BD2  3080               	movlw	128
  3520     0BD3  00F8               	movwf	clcd_print@addr
  3521     0BD4  120A  158A  210F  120A  158A  	fcall	_clcd_print
  3522                           
  3523                           ;dashboard.c: 303:  clcd_print("Downloading...", (0xC0 + 0));
  3524     0BD9  30F3               	movlw	low (STR_24| (0+32768))
  3525     0BDA  00F6               	movwf	clcd_print@str
  3526     0BDB  3084               	movlw	high (STR_24| (0+32768))
  3527     0BDC  00F7               	movwf	clcd_print@str+1
  3528     0BDD  30C0               	movlw	192
  3529     0BDE  00F8               	movwf	clcd_print@addr
  3530     0BDF  120A  158A  210F  120A  158A  	fcall	_clcd_print
  3531                           
  3532                           ;dashboard.c: 306:  put_s("# TIME     EV SP\n");
  3533     0BE4  3000               	movlw	low (STR_25| (0+32768))
  3534     0BE5  00F3               	movwf	put_s@s
  3535     0BE6  3084               	movlw	high (STR_25| (0+32768))
  3536     0BE7  00F4               	movwf	put_s@s+1
  3537     0BE8  120A  158A  2041  120A  158A  	fcall	_put_s
  3538     0BED                     l3310:
  3539                           
  3540                           ;dashboard.c: 309:  for(unsigned int i = 0; i < event_count; i++){
  3541     0BED  1283               	bcf	3,5	;RP0=0, select bank0
  3542     0BEE  1303               	bcf	3,6	;RP1=0, select bank0
  3543     0BEF  01AD               	clrf	download_log@i
  3544     0BF0  01AE               	clrf	download_log@i+1
  3545     0BF1  2C1E               	goto	l3320
  3546     0BF2                     l3312:
  3547                           
  3548                           ;dashboard.c: 310:   read_and_format_log(i);
  3549     0BF2  082D               	movf	download_log@i,w
  3550     0BF3  120A  158A  2568  120A  158A  	fcall	_read_and_format_log
  3551                           
  3552                           ;dashboard.c: 311:   put_s(logs);
  3553     0BF8  30A4               	movlw	(low (_logs| 0))& (0+255)
  3554     0BF9  00F3               	movwf	put_s@s
  3555     0BFA  3000               	movlw	0
  3556     0BFB  00F4               	movwf	put_s@s+1
  3557     0BFC  120A  158A  2041  120A  158A  	fcall	_put_s
  3558     0C01                     l3314:
  3559                           
  3560                           ;dashboard.c: 312:   put_char('\n');
  3561     0C01  300A               	movlw	10
  3562     0C02  160A  118A  26F8  120A  158A  	fcall	_put_char
  3563     0C07                     l3316:
  3564                           
  3565                           ;dashboard.c: 314:   _delay((unsigned long)((500)*(20000000/4000.0)));
  3566     0C07  300D               	movlw	13
  3567     0C08  1283               	bcf	3,5	;RP0=0, select bank0
  3568     0C09  1303               	bcf	3,6	;RP1=0, select bank0
  3569     0C0A  00AC               	movwf	??_download_log+2
  3570     0C0B  30AF               	movlw	175
  3571     0C0C  00AB               	movwf	??_download_log+1
  3572     0C0D  30B5               	movlw	181
  3573     0C0E  00AA               	movwf	??_download_log
  3574     0C0F                     u4207:
  3575     0C0F  0BAA               	decfsz	??_download_log,f
  3576     0C10  2C0F               	goto	u4207
  3577     0C11  0BAB               	decfsz	??_download_log+1,f
  3578     0C12  2C0F               	goto	u4207
  3579     0C13  0BAC               	decfsz	??_download_log+2,f
  3580     0C14  2C0F               	goto	u4207
  3581     0C15  2C16               	nop2
  3582     0C16                     l3318:
  3583                           
  3584                           ;dashboard.c: 315:  }
  3585     0C16  3001               	movlw	1
  3586     0C17  1283               	bcf	3,5	;RP0=0, select bank0
  3587     0C18  1303               	bcf	3,6	;RP1=0, select bank0
  3588     0C19  07AD               	addwf	download_log@i,f
  3589     0C1A  1803               	skipnc
  3590     0C1B  0AAE               	incf	download_log@i+1,f
  3591     0C1C  3000               	movlw	0
  3592     0C1D  07AE               	addwf	download_log@i+1,f
  3593     0C1E                     l3320:
  3594     0C1E  0858               	movf	_event_count+1,w
  3595     0C1F  022E               	subwf	download_log@i+1,w
  3596     0C20  1D03               	skipz
  3597     0C21  2C24               	goto	u3695
  3598     0C22  0857               	movf	_event_count,w
  3599     0C23  022D               	subwf	download_log@i,w
  3600     0C24                     u3695:
  3601     0C24  1C03               	skipc
  3602     0C25  2C27               	goto	u3691
  3603     0C26  2C28               	goto	u3690
  3604     0C27                     u3691:
  3605     0C27  2BF2               	goto	l3312
  3606     0C28                     u3690:
  3607     0C28                     l360:
  3608     0C28  0008               	return
  3609     0C29                     __end_of_download_log:
  3610                           
  3611                           	psect	text7
  3612     0D68                     __ptext7:	
  3613 ;; *************** function _read_and_format_log *****************
  3614 ;; Defined at:
  3615 ;;		line 225 in file "dashboard.c"
  3616 ;; Parameters:    Size  Location     Type
  3617 ;;  index           1    wreg     unsigned char 
  3618 ;; Auto vars:     Size  Location     Type
  3619 ;;  index           1    7[BANK0 ] unsigned char 
  3620 ;;  i               2    8[BANK0 ] unsigned int 
  3621 ;;  col             2    5[BANK0 ] unsigned int 
  3622 ;;  log             1    4[BANK0 ] PTR unsigned char 
  3623 ;;		 -> read_event@event(11), 
  3624 ;; Return value:  Size  Location     Type
  3625 ;;                  1    wreg      void 
  3626 ;; Registers used:
  3627 ;;		wreg, fsr0l, fsr0h, status,2, status,0, pclath, btemp1, cstack
  3628 ;; Tracked objects:
  3629 ;;		On entry : 0/0
  3630 ;;		On exit  : 0/0
  3631 ;;		Unchanged: 0/0
  3632 ;; Data sizes:     COMMON   BANK0   BANK1   BANK3   BANK2
  3633 ;;      Params:         0       0       0       0       0
  3634 ;;      Locals:         0       6       0       0       0
  3635 ;;      Temps:          0       2       0       0       0
  3636 ;;      Totals:         0       8       0       0       0
  3637 ;;Total ram usage:        8 bytes
  3638 ;; Hardware stack levels used: 1
  3639 ;; Hardware stack levels required when called: 1
  3640 ;; This function calls:
  3641 ;;		___wmul
  3642 ;;		_read_event
  3643 ;; This function is called by:
  3644 ;;		_view_log
  3645 ;;		_download_log
  3646 ;; This function uses a non-reentrant model
  3647 ;;
  3648                           
  3649     0D68                     _read_and_format_log:	
  3650                           ;psect for function _read_and_format_log
  3651                           
  3652                           
  3653                           ;incstack = 0
  3654                           ; Regs used in _read_and_format_log: [wreg-fsr0h+status,2+status,0+pclath+btemp1+cstack]
  3655                           ;read_and_format_log@index stored from wreg
  3656     0D68  1283               	bcf	3,5	;RP0=0, select bank0
  3657     0D69  1303               	bcf	3,6	;RP1=0, select bank0
  3658     0D6A  00A7               	movwf	read_and_format_log@index
  3659     0D6B                     l3114:
  3660                           
  3661                           ;dashboard.c: 227:  char *log = read_event(index * 10);
  3662     0D6B  0827               	movf	read_and_format_log@index,w
  3663     0D6C  00A2               	movwf	??_read_and_format_log
  3664     0D6D  01A3               	clrf	??_read_and_format_log+1
  3665     0D6E  0822               	movf	??_read_and_format_log,w
  3666     0D6F  00F2               	movwf	___wmul@multiplier
  3667     0D70  0823               	movf	??_read_and_format_log+1,w
  3668     0D71  00F3               	movwf	___wmul@multiplier+1
  3669     0D72  300A               	movlw	10
  3670     0D73  00F4               	movwf	___wmul@multiplicand
  3671     0D74  3000               	movlw	0
  3672     0D75  00F5               	movwf	___wmul@multiplicand+1
  3673     0D76  120A  158A  201C  120A  158A  	fcall	___wmul
  3674     0D7B  0873               	movf	?___wmul+1,w
  3675     0D7C  00F9               	movwf	read_event@addr+1
  3676     0D7D  0872               	movf	?___wmul,w
  3677     0D7E  00F8               	movwf	read_event@addr
  3678     0D7F  160A  118A  27DD  120A  158A  	fcall	_read_event
  3679     0D84  1283               	bcf	3,5	;RP0=0, select bank0
  3680     0D85  1303               	bcf	3,6	;RP1=0, select bank0
  3681     0D86  00A4               	movwf	read_and_format_log@log
  3682     0D87                     l3116:
  3683                           
  3684                           ;dashboard.c: 228:  unsigned int col = 0;
  3685     0D87  01A5               	clrf	read_and_format_log@col
  3686     0D88  01A6               	clrf	read_and_format_log@col+1
  3687     0D89                     l3118:
  3688                           
  3689                           ;dashboard.c: 230:  for(unsigned int i = 0; i < 16; i++){
  3690     0D89  01A8               	clrf	read_and_format_log@i
  3691     0D8A  01A9               	clrf	read_and_format_log@i+1
  3692     0D8B                     l3124:
  3693                           
  3694                           ;dashboard.c: 232:   if(i == 0) logs[i] = index + '0';
  3695     0D8B  0828               	movf	read_and_format_log@i,w
  3696     0D8C  0429               	iorwf	read_and_format_log@i+1,w
  3697     0D8D  1D03               	btfss	3,2
  3698     0D8E  2D90               	goto	u3361
  3699     0D8F  2D91               	goto	u3360
  3700     0D90                     u3361:
  3701     0D90  2D99               	goto	l3128
  3702     0D91                     u3360:
  3703     0D91                     l3126:
  3704     0D91  0828               	movf	read_and_format_log@i,w
  3705     0D92  3EA4               	addlw	(low (_logs| 0))& (0+255)
  3706     0D93  0084               	movwf	4
  3707     0D94  0827               	movf	read_and_format_log@index,w
  3708     0D95  3E30               	addlw	48
  3709     0D96  1383               	bcf	3,7	;select IRP bank1
  3710     0D97  0080               	movwf	0
  3711     0D98  2DDC               	goto	l3146
  3712     0D99                     l3128:
  3713     0D99  3004               	movlw	4
  3714     0D9A  0628               	xorwf	read_and_format_log@i,w
  3715     0D9B  0429               	iorwf	read_and_format_log@i+1,w
  3716     0D9C  1903               	btfsc	3,2
  3717     0D9D  2D9F               	goto	u3371
  3718     0D9E  2DA0               	goto	u3370
  3719     0D9F                     u3371:
  3720     0D9F  2DA7               	goto	l3132
  3721     0DA0                     u3370:
  3722     0DA0                     l3130:
  3723     0DA0  3007               	movlw	7
  3724     0DA1  0628               	xorwf	read_and_format_log@i,w
  3725     0DA2  0429               	iorwf	read_and_format_log@i+1,w
  3726     0DA3  1D03               	btfss	3,2
  3727     0DA4  2DA6               	goto	u3381
  3728     0DA5  2DA7               	goto	u3380
  3729     0DA6                     u3381:
  3730     0DA6  2DAE               	goto	l3134
  3731     0DA7                     u3380:
  3732     0DA7                     l3132:
  3733     0DA7  0828               	movf	read_and_format_log@i,w
  3734     0DA8  3EA4               	addlw	(low (_logs| 0))& (0+255)
  3735     0DA9  0084               	movwf	4
  3736     0DAA  303A               	movlw	58
  3737     0DAB  1383               	bcf	3,7	;select IRP bank1
  3738     0DAC  0080               	movwf	0
  3739     0DAD  2DDC               	goto	l3146
  3740     0DAE                     l3134:
  3741     0DAE  0328               	decf	read_and_format_log@i,w
  3742     0DAF  0429               	iorwf	read_and_format_log@i+1,w
  3743     0DB0  1903               	btfsc	3,2
  3744     0DB1  2DB3               	goto	u3391
  3745     0DB2  2DB4               	goto	u3390
  3746     0DB3                     u3391:
  3747     0DB3  2DC2               	goto	l3140
  3748     0DB4                     u3390:
  3749     0DB4                     l3136:
  3750     0DB4  300A               	movlw	10
  3751     0DB5  0628               	xorwf	read_and_format_log@i,w
  3752     0DB6  0429               	iorwf	read_and_format_log@i+1,w
  3753     0DB7  1903               	btfsc	3,2
  3754     0DB8  2DBA               	goto	u3401
  3755     0DB9  2DBB               	goto	u3400
  3756     0DBA                     u3401:
  3757     0DBA  2DC2               	goto	l3140
  3758     0DBB                     u3400:
  3759     0DBB                     l3138:
  3760     0DBB  300D               	movlw	13
  3761     0DBC  0628               	xorwf	read_and_format_log@i,w
  3762     0DBD  0429               	iorwf	read_and_format_log@i+1,w
  3763     0DBE  1D03               	btfss	3,2
  3764     0DBF  2DC1               	goto	u3411
  3765     0DC0  2DC2               	goto	u3410
  3766     0DC1                     u3411:
  3767     0DC1  2DC9               	goto	l3142
  3768     0DC2                     u3410:
  3769     0DC2                     l3140:
  3770     0DC2  0828               	movf	read_and_format_log@i,w
  3771     0DC3  3EA4               	addlw	(low (_logs| 0))& (0+255)
  3772     0DC4  0084               	movwf	4
  3773     0DC5  3020               	movlw	32
  3774     0DC6  1383               	bcf	3,7	;select IRP bank1
  3775     0DC7  0080               	movwf	0
  3776     0DC8  2DDC               	goto	l3146
  3777     0DC9                     l3142:
  3778                           
  3779                           ;dashboard.c: 239:    logs[i] = log[col++];
  3780     0DC9  0825               	movf	read_and_format_log@col,w
  3781     0DCA  0724               	addwf	read_and_format_log@log,w
  3782     0DCB  00A2               	movwf	??_read_and_format_log
  3783     0DCC  0822               	movf	??_read_and_format_log,w
  3784     0DCD  0084               	movwf	4
  3785     0DCE  1383               	bcf	3,7	;select IRP bank0
  3786     0DCF  0800               	movf	0,w
  3787     0DD0  00FF               	movwf	btemp1
  3788     0DD1  0828               	movf	read_and_format_log@i,w
  3789     0DD2  3EA4               	addlw	(low (_logs| 0))& (0+255)
  3790     0DD3  0084               	movwf	4
  3791     0DD4  087F               	movf	btemp1,w
  3792     0DD5  0080               	movwf	0
  3793     0DD6                     l3144:
  3794     0DD6  3001               	movlw	1
  3795     0DD7  07A5               	addwf	read_and_format_log@col,f
  3796     0DD8  1803               	skipnc
  3797     0DD9  0AA6               	incf	read_and_format_log@col+1,f
  3798     0DDA  3000               	movlw	0
  3799     0DDB  07A6               	addwf	read_and_format_log@col+1,f
  3800     0DDC                     l3146:
  3801                           
  3802                           ;dashboard.c: 241:  }
  3803     0DDC  3001               	movlw	1
  3804     0DDD  07A8               	addwf	read_and_format_log@i,f
  3805     0DDE  1803               	skipnc
  3806     0DDF  0AA9               	incf	read_and_format_log@i+1,f
  3807     0DE0  3000               	movlw	0
  3808     0DE1  07A9               	addwf	read_and_format_log@i+1,f
  3809     0DE2                     l3148:
  3810     0DE2  3000               	movlw	0
  3811     0DE3  0229               	subwf	read_and_format_log@i+1,w
  3812     0DE4  3010               	movlw	16
  3813     0DE5  1903               	skipnz
  3814     0DE6  0228               	subwf	read_and_format_log@i,w
  3815     0DE7  1C03               	skipc
  3816     0DE8  2DEA               	goto	u3421
  3817     0DE9  2DEB               	goto	u3420
  3818     0DEA                     u3421:
  3819     0DEA  2D8B               	goto	l3124
  3820     0DEB                     u3420:
  3821     0DEB                     l3150:
  3822                           
  3823                           ;dashboard.c: 243:  logs[16] = '\0';
  3824     0DEB  1683               	bsf	3,5	;RP0=1, select bank1
  3825     0DEC  1303               	bcf	3,6	;RP1=0, select bank1
  3826     0DED  01B4               	clrf	(_logs^(0+128)+16)
  3827     0DEE                     l336:
  3828     0DEE  0008               	return
  3829     0DEF                     __end_of_read_and_format_log:
  3830                           
  3831                           	psect	text8
  3832     17DD                     __ptext8:	
  3833 ;; *************** function _read_event *****************
  3834 ;; Defined at:
  3835 ;;		line 49 in file "dashboard.c"
  3836 ;; Parameters:    Size  Location     Type
  3837 ;;  addr            2    8[COMMON] unsigned int 
  3838 ;; Auto vars:     Size  Location     Type
  3839 ;;  i               2    0[BANK0 ] unsigned int 
  3840 ;; Return value:  Size  Location     Type
  3841 ;;                  1    8[COMMON] PTR unsigned char 
  3842 ;; Registers used:
  3843 ;;		wreg, fsr0l, fsr0h, status,2, status,0, pclath, cstack
  3844 ;; Tracked objects:
  3845 ;;		On entry : 0/0
  3846 ;;		On exit  : 0/0
  3847 ;;		Unchanged: 0/0
  3848 ;; Data sizes:     COMMON   BANK0   BANK1   BANK3   BANK2
  3849 ;;      Params:         2       0       0       0       0
  3850 ;;      Locals:         0       2       0       0       0
  3851 ;;      Temps:          0       0       0       0       0
  3852 ;;      Totals:         2       2       0       0       0
  3853 ;;Total ram usage:        4 bytes
  3854 ;; Hardware stack levels used: 1
  3855 ;; Hardware stack levels required when called: 3
  3856 ;; This function calls:
  3857 ;;		_read_external_eeprom
  3858 ;; This function is called by:
  3859 ;;		_read_and_format_log
  3860 ;; This function uses a non-reentrant model
  3861 ;;
  3862                           
  3863     17DD                     _read_event:	
  3864                           ;psect for function _read_event
  3865                           
  3866     17DD                     l3058:	
  3867                           ;incstack = 0
  3868                           ; Regs used in _read_event: [wreg-fsr0h+status,2+status,0+pclath+cstack]
  3869                           
  3870                           
  3871                           ;dashboard.c: 50:  static char event[11];;dashboard.c: 52:  for(unsigned int i = 0; i < 
      +                          10; i++){
  3872     17DD  1283               	bcf	3,5	;RP0=0, select bank0
  3873     17DE  1303               	bcf	3,6	;RP1=0, select bank0
  3874     17DF  01A0               	clrf	read_event@i
  3875     17E0  01A1               	clrf	read_event@i+1
  3876     17E1                     l3064:
  3877                           
  3878                           ;dashboard.c: 53:   event[i] = read_external_eeprom(addr + i);
  3879     17E1  0820               	movf	read_event@i,w
  3880     17E2  3EB5               	addlw	(low (read_event@event| 0))& (0+255)
  3881     17E3  0084               	movwf	4
  3882     17E4  0820               	movf	read_event@i,w
  3883     17E5  0778               	addwf	read_event@addr,w
  3884     17E6  120A  158A  20E4  160A  118A  	fcall	_read_external_eeprom
  3885     17EB  1383               	bcf	3,7	;select IRP bank1
  3886     17EC  0080               	movwf	0
  3887     17ED                     l3066:
  3888                           
  3889                           ;dashboard.c: 54:  }
  3890     17ED  3001               	movlw	1
  3891     17EE  1283               	bcf	3,5	;RP0=0, select bank0
  3892     17EF  1303               	bcf	3,6	;RP1=0, select bank0
  3893     17F0  07A0               	addwf	read_event@i,f
  3894     17F1  1803               	skipnc
  3895     17F2  0AA1               	incf	read_event@i+1,f
  3896     17F3  3000               	movlw	0
  3897     17F4  07A1               	addwf	read_event@i+1,f
  3898     17F5                     l3068:
  3899     17F5  3000               	movlw	0
  3900     17F6  0221               	subwf	read_event@i+1,w
  3901     17F7  300A               	movlw	10
  3902     17F8  1903               	skipnz
  3903     17F9  0220               	subwf	read_event@i,w
  3904     17FA  1C03               	skipc
  3905     17FB  2FFD               	goto	u3341
  3906     17FC  2FFE               	goto	u3340
  3907     17FD                     u3341:
  3908     17FD  2FE1               	goto	l3064
  3909     17FE                     u3340:
  3910     17FE                     l3070:
  3911                           
  3912                           ;dashboard.c: 56:  return event;
  3913     17FE  30B5               	movlw	(low (read_event@event| 0))& (0+255)
  3914     17FF                     l260:
  3915     17FF  0008               	return
  3916     1800                     __end_of_read_event:
  3917                           
  3918                           	psect	text9
  3919     08E4                     __ptext9:	
  3920 ;; *************** function _read_external_eeprom *****************
  3921 ;; Defined at:
  3922 ;;		line 16 in file "external_eeprom.c"
  3923 ;; Parameters:    Size  Location     Type
  3924 ;;  address         1    wreg     unsigned char 
  3925 ;; Auto vars:     Size  Location     Type
  3926 ;;  address         1    4[COMMON] unsigned char 
  3927 ;;  data            1    5[COMMON] unsigned char 
  3928 ;; Return value:  Size  Location     Type
  3929 ;;                  1    wreg      unsigned char 
  3930 ;; Registers used:
  3931 ;;		wreg, status,2, status,0, pclath, cstack
  3932 ;; Tracked objects:
  3933 ;;		On entry : 0/0
  3934 ;;		On exit  : 0/0
  3935 ;;		Unchanged: 0/0
  3936 ;; Data sizes:     COMMON   BANK0   BANK1   BANK3   BANK2
  3937 ;;      Params:         0       0       0       0       0
  3938 ;;      Locals:         2       0       0       0       0
  3939 ;;      Temps:          0       0       0       0       0
  3940 ;;      Totals:         2       0       0       0       0
  3941 ;;Total ram usage:        2 bytes
  3942 ;; Hardware stack levels used: 1
  3943 ;; Hardware stack levels required when called: 2
  3944 ;; This function calls:
  3945 ;;		_i2c_read
  3946 ;;		_i2c_rep_start
  3947 ;;		_i2c_start
  3948 ;;		_i2c_stop
  3949 ;;		_i2c_write
  3950 ;; This function is called by:
  3951 ;;		_read_event
  3952 ;; This function uses a non-reentrant model
  3953 ;;
  3954                           
  3955     08E4                     _read_external_eeprom:	
  3956                           ;psect for function _read_external_eeprom
  3957                           
  3958                           
  3959                           ;incstack = 0
  3960                           ; Regs used in _read_external_eeprom: [wreg+status,2+status,0+pclath+cstack]
  3961                           ;read_external_eeprom@address stored from wreg
  3962     08E4  00F4               	movwf	read_external_eeprom@address
  3963     08E5                     l3044:
  3964                           
  3965                           ;external_eeprom.c: 16: unsigned char read_external_eeprom(unsigned char address);extern
      +                          al_eeprom.c: 17: {;external_eeprom.c: 18:     unsigned char data;;external_eeprom.c: 20:
      +                               i2c_start();
  3966     08E5  160A  118A  26C4  120A  158A  	fcall	_i2c_start
  3967                           
  3968                           ;external_eeprom.c: 21:     i2c_write(0xA0);
  3969     08EA  30A0               	movlw	160
  3970     08EB  160A  118A  26E2  120A  158A  	fcall	_i2c_write
  3971                           
  3972                           ;external_eeprom.c: 22:     i2c_write(address);
  3973     08F0  0874               	movf	read_external_eeprom@address,w
  3974     08F1  160A  118A  26E2  120A  158A  	fcall	_i2c_write
  3975                           
  3976                           ;external_eeprom.c: 23:     i2c_rep_start();
  3977     08F6  160A  118A  26D7  120A  158A  	fcall	_i2c_rep_start
  3978                           
  3979                           ;external_eeprom.c: 24:     i2c_write(0xA1);
  3980     08FB  30A1               	movlw	161
  3981     08FC  160A  118A  26E2  120A  158A  	fcall	_i2c_write
  3982                           
  3983                           ;external_eeprom.c: 25:     data = i2c_read(0);
  3984     0901  3000               	movlw	0
  3985     0902  160A  118A  27BC  120A  158A  	fcall	_i2c_read
  3986     0907  00F5               	movwf	read_external_eeprom@data
  3987                           
  3988                           ;external_eeprom.c: 26:     i2c_stop();
  3989     0908  120A  158A  2000  120A  158A  	fcall	_i2c_stop
  3990     090D                     l3046:
  3991                           
  3992                           ;external_eeprom.c: 28:     return data;
  3993     090D  0875               	movf	read_external_eeprom@data,w
  3994     090E                     l403:
  3995     090E  0008               	return
  3996     090F                     __end_of_read_external_eeprom:
  3997                           
  3998                           	psect	text10
  3999     081C                     __ptext10:	
  4000 ;; *************** function ___wmul *****************
  4001 ;; Defined at:
  4002 ;;		line 15 in file "/opt/microchip/xc8/v3.10/pic/sources/c99/common/Umul16.c"
  4003 ;; Parameters:    Size  Location     Type
  4004 ;;  multiplier      2    2[COMMON] unsigned int 
  4005 ;;  multiplicand    2    4[COMMON] unsigned int 
  4006 ;; Auto vars:     Size  Location     Type
  4007 ;;  product         2    6[COMMON] unsigned int 
  4008 ;; Return value:  Size  Location     Type
  4009 ;;                  2    2[COMMON] unsigned int 
  4010 ;; Registers used:
  4011 ;;		wreg, status,2, status,0
  4012 ;; Tracked objects:
  4013 ;;		On entry : 0/0
  4014 ;;		On exit  : 0/0
  4015 ;;		Unchanged: 0/0
  4016 ;; Data sizes:     COMMON   BANK0   BANK1   BANK3   BANK2
  4017 ;;      Params:         4       0       0       0       0
  4018 ;;      Locals:         2       0       0       0       0
  4019 ;;      Temps:          0       0       0       0       0
  4020 ;;      Totals:         6       0       0       0       0
  4021 ;;Total ram usage:        6 bytes
  4022 ;; Hardware stack levels used: 1
  4023 ;; Hardware stack levels required when called: 1
  4024 ;; This function calls:
  4025 ;;		Nothing
  4026 ;; This function is called by:
  4027 ;;		_read_and_format_log
  4028 ;;		_set_time
  4029 ;; This function uses a non-reentrant model
  4030 ;;
  4031                           
  4032     081C                     ___wmul:	
  4033                           ;psect for function ___wmul
  4034                           
  4035     081C                     l2110:	
  4036                           ;incstack = 0
  4037                           ; Regs used in ___wmul: [wreg+status,2+status,0]
  4038                           
  4039     081C  01F6               	clrf	___wmul@product
  4040     081D  01F7               	clrf	___wmul@product+1
  4041     081E                     l2112:
  4042     081E  1C72               	btfss	___wmul@multiplier,0
  4043     081F  2821               	goto	u1731
  4044     0820  2822               	goto	u1730
  4045     0821                     u1731:
  4046     0821  2828               	goto	l594
  4047     0822                     u1730:
  4048     0822                     l2114:
  4049     0822  0874               	movf	___wmul@multiplicand,w
  4050     0823  07F6               	addwf	___wmul@product,f
  4051     0824  1803               	skipnc
  4052     0825  0AF7               	incf	___wmul@product+1,f
  4053     0826  0875               	movf	___wmul@multiplicand+1,w
  4054     0827  07F7               	addwf	___wmul@product+1,f
  4055     0828                     l594:
  4056     0828  3001               	movlw	1
  4057     0829                     u1745:
  4058     0829  1003               	clrc
  4059     082A  0DF4               	rlf	___wmul@multiplicand,f
  4060     082B  0DF5               	rlf	___wmul@multiplicand+1,f
  4061     082C  3EFF               	addlw	-1
  4062     082D  1D03               	skipz
  4063     082E  2829               	goto	u1745
  4064     082F                     l2116:
  4065     082F  3001               	movlw	1
  4066     0830                     u1755:
  4067     0830  1003               	clrc
  4068     0831  0CF3               	rrf	___wmul@multiplier+1,f
  4069     0832  0CF2               	rrf	___wmul@multiplier,f
  4070     0833  3EFF               	addlw	-1
  4071     0834  1D03               	skipz
  4072     0835  2830               	goto	u1755
  4073     0836                     l2118:
  4074     0836  0872               	movf	___wmul@multiplier,w
  4075     0837  0473               	iorwf	___wmul@multiplier+1,w
  4076     0838  1D03               	btfss	3,2
  4077     0839  283B               	goto	u1761
  4078     083A  283C               	goto	u1760
  4079     083B                     u1761:
  4080     083B  281E               	goto	l2112
  4081     083C                     u1760:
  4082     083C                     l2120:
  4083     083C  0877               	movf	___wmul@product+1,w
  4084     083D  00F3               	movwf	?___wmul+1
  4085     083E  0876               	movf	___wmul@product,w
  4086     083F  00F2               	movwf	?___wmul
  4087     0840                     l596:
  4088     0840  0008               	return
  4089     0841                     __end_of___wmul:
  4090                           
  4091                           	psect	text11
  4092     0841                     __ptext11:	
  4093 ;; *************** function _put_s *****************
  4094 ;; Defined at:
  4095 ;;		line 46 in file "uart.c"
  4096 ;; Parameters:    Size  Location     Type
  4097 ;;  s               2    3[COMMON] PTR const unsigned char 
  4098 ;;		 -> STR_25(18), logs(17), 
  4099 ;; Auto vars:     Size  Location     Type
  4100 ;;		None
  4101 ;; Return value:  Size  Location     Type
  4102 ;;                  1    wreg      void 
  4103 ;; Registers used:
  4104 ;;		wreg, fsr0l, fsr0h, status,2, status,0, pclath, btemp1, cstack
  4105 ;; Tracked objects:
  4106 ;;		On entry : 0/0
  4107 ;;		On exit  : 0/0
  4108 ;;		Unchanged: 0/0
  4109 ;; Data sizes:     COMMON   BANK0   BANK1   BANK3   BANK2
  4110 ;;      Params:         2       0       0       0       0
  4111 ;;      Locals:         0       0       0       0       0
  4112 ;;      Temps:          0       0       0       0       0
  4113 ;;      Totals:         2       0       0       0       0
  4114 ;;Total ram usage:        2 bytes
  4115 ;; Hardware stack levels used: 1
  4116 ;; Hardware stack levels required when called: 2
  4117 ;; This function calls:
  4118 ;;		_put_char
  4119 ;; This function is called by:
  4120 ;;		_download_log
  4121 ;; This function uses a non-reentrant model
  4122 ;;
  4123                           
  4124     0841                     _put_s:	
  4125                           ;psect for function _put_s
  4126                           
  4127     0841                     l2230:	
  4128                           ;incstack = 0
  4129                           ; Regs used in _put_s: [wreg-fsr0h+status,2+status,0+pclath+btemp1+cstack]
  4130                           
  4131                           
  4132                           ;uart.c: 46: void put_s(const char *s);uart.c: 47: {;uart.c: 48:     while (*s)
  4133     0841  2856               	goto	l2236
  4134     0842                     l2232:
  4135                           
  4136                           ;uart.c: 49:     {;uart.c: 50:         put_char(*s++);
  4137     0842  0874               	movf	put_s@s+1,w
  4138     0843  00FF               	movwf	btemp1
  4139     0844  0873               	movf	put_s@s,w
  4140     0845  0084               	movwf	4
  4141     0846  160A  118A  2000  120A  158A  	fcall	stringtab
  4142     084B  160A  118A  26F8  120A  158A  	fcall	_put_char
  4143     0850                     l2234:
  4144     0850  3001               	movlw	1
  4145     0851  07F3               	addwf	put_s@s,f
  4146     0852  1803               	skipnc
  4147     0853  0AF4               	incf	put_s@s+1,f
  4148     0854  3000               	movlw	0
  4149     0855  07F4               	addwf	put_s@s+1,f
  4150     0856                     l2236:
  4151                           
  4152                           ;uart.c: 48:     while (*s)
  4153     0856  0874               	movf	put_s@s+1,w
  4154     0857  1283               	bcf	3,5	;RP0=0, select bank0
  4155     0858  1303               	bcf	3,6	;RP1=0, select bank0
  4156     0859  00FF               	movwf	btemp1
  4157     085A  0873               	movf	put_s@s,w
  4158     085B  0084               	movwf	4
  4159     085C  160A  118A  2000  120A  158A  	fcall	stringtab
  4160     0861  3A00               	xorlw	0
  4161     0862  1D03               	skipz
  4162     0863  2865               	goto	u1891
  4163     0864  2866               	goto	u1890
  4164     0865                     u1891:
  4165     0865  2842               	goto	l2232
  4166     0866                     u1890:
  4167     0866                     l438:
  4168     0866  0008               	return
  4169     0867                     __end_of_put_s:
  4170                           
  4171                           	psect	text12
  4172     16F8                     __ptext12:	
  4173 ;; *************** function _put_char *****************
  4174 ;; Defined at:
  4175 ;;		line 31 in file "uart.c"
  4176 ;; Parameters:    Size  Location     Type
  4177 ;;  data            1    wreg     unsigned char 
  4178 ;; Auto vars:     Size  Location     Type
  4179 ;;  data            1    2[COMMON] unsigned char 
  4180 ;; Return value:  Size  Location     Type
  4181 ;;                  1    wreg      void 
  4182 ;; Registers used:
  4183 ;;		wreg
  4184 ;; Tracked objects:
  4185 ;;		On entry : 0/0
  4186 ;;		On exit  : 0/0
  4187 ;;		Unchanged: 0/0
  4188 ;; Data sizes:     COMMON   BANK0   BANK1   BANK3   BANK2
  4189 ;;      Params:         0       0       0       0       0
  4190 ;;      Locals:         1       0       0       0       0
  4191 ;;      Temps:          0       0       0       0       0
  4192 ;;      Totals:         1       0       0       0       0
  4193 ;;Total ram usage:        1 bytes
  4194 ;; Hardware stack levels used: 1
  4195 ;; Hardware stack levels required when called: 1
  4196 ;; This function calls:
  4197 ;;		Nothing
  4198 ;; This function is called by:
  4199 ;;		_download_log
  4200 ;;		_put_s
  4201 ;; This function uses a non-reentrant model
  4202 ;;
  4203                           
  4204     16F8                     _put_char:	
  4205                           ;psect for function _put_char
  4206                           
  4207                           
  4208                           ;incstack = 0
  4209                           ; Regs used in _put_char: [wreg]
  4210                           ;put_char@data stored from wreg
  4211     16F8  00F2               	movwf	put_char@data
  4212     16F9                     l2108:
  4213                           
  4214                           ;uart.c: 31: void put_char(unsigned char data);uart.c: 32: {;uart.c: 34:     TXREG = dat
      +                          a;
  4215     16F9  0872               	movf	put_char@data,w
  4216     16FA  1283               	bcf	3,5	;RP0=0, select bank0
  4217     16FB  1303               	bcf	3,6	;RP1=0, select bank0
  4218     16FC  0099               	movwf	25	;volatile
  4219     16FD                     l430:	
  4220                           ;uart.c: 40:     } while (TXIF != 1);
  4221                           
  4222     16FD  1E0C               	btfss	12,4	;volatile
  4223     16FE  2F00               	goto	u1721
  4224     16FF  2F01               	goto	u1720
  4225     1700                     u1721:
  4226     1700  2EFD               	goto	l430
  4227     1701                     u1720:
  4228     1701                     l431:
  4229                           
  4230                           ;uart.c: 43:     TXIF = 0;
  4231     1701  120C               	bcf	12,4	;volatile
  4232     1702                     l432:
  4233     1702  0008               	return
  4234     1703                     __end_of_put_char:
  4235                           
  4236                           	psect	text13
  4237     16B4                     __ptext13:	
  4238 ;; *************** function _clear_screen *****************
  4239 ;; Defined at:
  4240 ;;		line 75 in file "clcd.c"
  4241 ;; Parameters:    Size  Location     Type
  4242 ;;		None
  4243 ;; Auto vars:     Size  Location     Type
  4244 ;;		None
  4245 ;; Return value:  Size  Location     Type
  4246 ;;                  1    wreg      void 
  4247 ;; Registers used:
  4248 ;;		wreg, status,2, status,0, pclath, cstack
  4249 ;; Tracked objects:
  4250 ;;		On entry : 0/0
  4251 ;;		On exit  : 0/0
  4252 ;;		Unchanged: 0/0
  4253 ;; Data sizes:     COMMON   BANK0   BANK1   BANK3   BANK2
  4254 ;;      Params:         0       0       0       0       0
  4255 ;;      Locals:         0       0       0       0       0
  4256 ;;      Temps:          0       0       0       0       0
  4257 ;;      Totals:         0       0       0       0       0
  4258 ;;Total ram usage:        0 bytes
  4259 ;; Hardware stack levels used: 1
  4260 ;; Hardware stack levels required when called: 2
  4261 ;; This function calls:
  4262 ;;		_clcd_write
  4263 ;; This function is called by:
  4264 ;;		_main_menu
  4265 ;; This function uses a non-reentrant model
  4266 ;;
  4267                           
  4268     16B4                     _clear_screen:	
  4269                           ;psect for function _clear_screen
  4270                           
  4271     16B4                     l3212:	
  4272                           ;incstack = 0
  4273                           ; Regs used in _clear_screen: [wreg+status,2+status,0+pclath+cstack]
  4274                           
  4275                           
  4276                           ;clcd.c: 76:     clcd_write(0x01, 0);
  4277     16B4  01F2               	clrf	clcd_write@mode
  4278     16B5  3001               	movlw	1
  4279     16B6  120A  158A  2204  160A  118A  	fcall	_clcd_write
  4280     16BB                     l95:
  4281     16BB  0008               	return
  4282     16BC                     __end_of_clear_screen:
  4283                           
  4284                           	psect	text14
  4285     177D                     __ptext14:	
  4286 ;; *************** function _clear_log *****************
  4287 ;; Defined at:
  4288 ;;		line 292 in file "dashboard.c"
  4289 ;; Parameters:    Size  Location     Type
  4290 ;;		None
  4291 ;; Auto vars:     Size  Location     Type
  4292 ;;		None
  4293 ;; Return value:  Size  Location     Type
  4294 ;;                  1    wreg      void 
  4295 ;; Registers used:
  4296 ;;		wreg, fsr0l, fsr0h, status,2, status,0, pclath, btemp1, cstack
  4297 ;; Tracked objects:
  4298 ;;		On entry : 0/0
  4299 ;;		On exit  : 0/0
  4300 ;;		Unchanged: 0/0
  4301 ;; Data sizes:     COMMON   BANK0   BANK1   BANK3   BANK2
  4302 ;;      Params:         0       0       0       0       0
  4303 ;;      Locals:         0       0       0       0       0
  4304 ;;      Temps:          0       3       0       0       0
  4305 ;;      Totals:         0       3       0       0       0
  4306 ;;Total ram usage:        3 bytes
  4307 ;; Hardware stack levels used: 1
  4308 ;; Hardware stack levels required when called: 2
  4309 ;; This function calls:
  4310 ;;		_clcd_print
  4311 ;; This function is called by:
  4312 ;;		_main_menu
  4313 ;; This function uses a non-reentrant model
  4314 ;;
  4315                           
  4316     177D                     _clear_log:	
  4317                           ;psect for function _clear_log
  4318                           
  4319     177D                     l3300:	
  4320                           ;incstack = 0
  4321                           ; Regs used in _clear_log: [wreg-fsr0h+status,2+status,0+pclath+btemp1+cstack]
  4322                           
  4323                           
  4324                           ;dashboard.c: 293:  event_count = 0;
  4325     177D  1283               	bcf	3,5	;RP0=0, select bank0
  4326     177E  1303               	bcf	3,6	;RP1=0, select bank0
  4327     177F  01D7               	clrf	_event_count
  4328     1780  01D8               	clrf	_event_count+1
  4329     1781                     l3302:
  4330                           
  4331                           ;dashboard.c: 294:  clcd_print("Clearing Logs...", (0x80 + 0));
  4332     1781  3056               	movlw	low (STR_22| (0+32768))
  4333     1782  00F6               	movwf	clcd_print@str
  4334     1783  3084               	movlw	high (STR_22| (0+32768))
  4335     1784  00F7               	movwf	clcd_print@str+1
  4336     1785  3080               	movlw	128
  4337     1786  00F8               	movwf	clcd_print@addr
  4338     1787  120A  158A  210F  160A  118A  	fcall	_clcd_print
  4339     178C                     l3304:
  4340                           
  4341                           ;dashboard.c: 295:  _delay((unsigned long)((500)*(20000000/4000.0)));
  4342     178C  300D               	movlw	13
  4343     178D  1283               	bcf	3,5	;RP0=0, select bank0
  4344     178E  1303               	bcf	3,6	;RP1=0, select bank0
  4345     178F  00A2               	movwf	??_clear_log+2
  4346     1790  30AF               	movlw	175
  4347     1791  00A1               	movwf	??_clear_log+1
  4348     1792  30B5               	movlw	181
  4349     1793  00A0               	movwf	??_clear_log
  4350     1794                     u4217:
  4351     1794  0BA0               	decfsz	??_clear_log,f
  4352     1795  2F94               	goto	u4217
  4353     1796  0BA1               	decfsz	??_clear_log+1,f
  4354     1797  2F94               	goto	u4217
  4355     1798  0BA2               	decfsz	??_clear_log+2,f
  4356     1799  2F94               	goto	u4217
  4357     179A  2F9B               	nop2
  4358     179B                     l354:
  4359     179B  0008               	return
  4360     179C                     __end_of_clear_log:
  4361                           
  4362                           	psect	text15
  4363     09D0                     __ptext15:	
  4364 ;; *************** function _init_config *****************
  4365 ;; Defined at:
  4366 ;;		line 19 in file "main.c"
  4367 ;; Parameters:    Size  Location     Type
  4368 ;;		None
  4369 ;; Auto vars:     Size  Location     Type
  4370 ;;		None
  4371 ;; Return value:  Size  Location     Type
  4372 ;;                  1    wreg      void 
  4373 ;; Registers used:
  4374 ;;		wreg, status,2, status,0, pclath, cstack
  4375 ;; Tracked objects:
  4376 ;;		On entry : 0/0
  4377 ;;		On exit  : 0/0
  4378 ;;		Unchanged: 0/0
  4379 ;; Data sizes:     COMMON   BANK0   BANK1   BANK3   BANK2
  4380 ;;      Params:         0       0       0       0       0
  4381 ;;      Locals:         0       0       0       0       0
  4382 ;;      Temps:          0       0       0       0       0
  4383 ;;      Totals:         0       0       0       0       0
  4384 ;;Total ram usage:        0 bytes
  4385 ;; Hardware stack levels used: 1
  4386 ;; Hardware stack levels required when called: 4
  4387 ;; This function calls:
  4388 ;;		_init_adc
  4389 ;;		_init_clcd
  4390 ;;		_init_digital_keypad
  4391 ;;		_init_ds1307
  4392 ;;		_init_i2c
  4393 ;;		_init_uart
  4394 ;; This function is called by:
  4395 ;;		_main
  4396 ;; This function uses a non-reentrant model
  4397 ;;
  4398                           
  4399     09D0                     _init_config:	
  4400                           ;psect for function _init_config
  4401                           
  4402     09D0                     l3424:	
  4403                           ;incstack = 0
  4404                           ; Regs used in _init_config: [wreg+status,2+status,0+pclath+cstack]
  4405                           
  4406                           
  4407                           ;main.c: 21:     init_adc();
  4408     09D0  160A  118A  26AD  120A  158A  	fcall	_init_adc
  4409     09D5                     l3426:
  4410                           
  4411                           ;main.c: 22:     init_clcd();
  4412     09D5  160A  118A  26ED  120A  158A  	fcall	_init_clcd
  4413     09DA                     l3428:
  4414                           
  4415                           ;main.c: 23:     init_digital_keypad();
  4416     09DA  160A  118A  26A7  120A  158A  	fcall	_init_digital_keypad
  4417     09DF                     l3430:
  4418                           
  4419                           ;main.c: 24:     init_i2c(100000);
  4420     09DF  3000               	movlw	0
  4421     09E0  1283               	bcf	3,5	;RP0=0, select bank0
  4422     09E1  1303               	bcf	3,6	;RP1=0, select bank0
  4423     09E2  00A9               	movwf	init_i2c@baud+3
  4424     09E3  3001               	movlw	1
  4425     09E4  00A8               	movwf	init_i2c@baud+2
  4426     09E5  3086               	movlw	134
  4427     09E6  00A7               	movwf	init_i2c@baud+1
  4428     09E7  30A0               	movlw	160
  4429     09E8  00A6               	movwf	init_i2c@baud
  4430     09E9  120A  158A  219E  120A  158A  	fcall	_init_i2c
  4431     09EE                     l3432:
  4432                           
  4433                           ;main.c: 25:     init_ds1307();
  4434     09EE  160A  118A  2710  120A  158A  	fcall	_init_ds1307
  4435     09F3                     l3434:
  4436                           
  4437                           ;main.c: 26:     init_uart(9600);
  4438     09F3  3000               	movlw	0
  4439     09F4  1283               	bcf	3,5	;RP0=0, select bank0
  4440     09F5  1303               	bcf	3,6	;RP1=0, select bank0
  4441     09F6  00A9               	movwf	init_uart@baud+3
  4442     09F7  3000               	movlw	0
  4443     09F8  00A8               	movwf	init_uart@baud+2
  4444     09F9  3025               	movlw	37
  4445     09FA  00A7               	movwf	init_uart@baud+1
  4446     09FB  3080               	movlw	128
  4447     09FC  00A6               	movwf	init_uart@baud
  4448     09FD  120A  158A  216E  120A  158A  	fcall	_init_uart
  4449     0A02                     l3436:
  4450                           
  4451                           ;main.c: 28:     GIE = 1;
  4452     0A02  178B               	bsf	11,7	;volatile
  4453     0A03                     l27:
  4454     0A03  0008               	return
  4455     0A04                     __end_of_init_config:
  4456                           
  4457                           	psect	text16
  4458     096E                     __ptext16:	
  4459 ;; *************** function _init_uart *****************
  4460 ;; Defined at:
  4461 ;;		line 4 in file "uart.c"
  4462 ;; Parameters:    Size  Location     Type
  4463 ;;  baud            4    6[BANK0 ] unsigned long 
  4464 ;; Auto vars:     Size  Location     Type
  4465 ;;		None
  4466 ;; Return value:  Size  Location     Type
  4467 ;;                  1    wreg      void 
  4468 ;; Registers used:
  4469 ;;		wreg, status,2, status,0, pclath, cstack
  4470 ;; Tracked objects:
  4471 ;;		On entry : 0/0
  4472 ;;		On exit  : 0/0
  4473 ;;		Unchanged: 0/0
  4474 ;; Data sizes:     COMMON   BANK0   BANK1   BANK3   BANK2
  4475 ;;      Params:         0       4       0       0       0
  4476 ;;      Locals:         0       0       0       0       0
  4477 ;;      Temps:          0       4       0       0       0
  4478 ;;      Totals:         0       8       0       0       0
  4479 ;;Total ram usage:        8 bytes
  4480 ;; Hardware stack levels used: 1
  4481 ;; Hardware stack levels required when called: 2
  4482 ;; This function calls:
  4483 ;;		___lldiv
  4484 ;; This function is called by:
  4485 ;;		_init_config
  4486 ;; This function uses a non-reentrant model
  4487 ;;
  4488                           
  4489     096E                     _init_uart:	
  4490                           ;psect for function _init_uart
  4491                           
  4492     096E                     l3208:	
  4493                           ;incstack = 0
  4494                           ; Regs used in _init_uart: [wreg+status,2+status,0+pclath+cstack]
  4495                           
  4496                           
  4497                           ;uart.c: 4: void init_uart(unsigned long baud);uart.c: 5: {;uart.c: 7:     SPEN = 1;
  4498     096E  1283               	bcf	3,5	;RP0=0, select bank0
  4499     096F  1303               	bcf	3,6	;RP1=0, select bank0
  4500     0970  1798               	bsf	24,7	;volatile
  4501                           
  4502                           ;uart.c: 10:     CREN = 1;
  4503     0971  1618               	bsf	24,4	;volatile
  4504     0972                     l3210:
  4505                           
  4506                           ;uart.c: 13:     SPBRG = (20000000 / (16 * baud)) - 1;
  4507     0972  0826               	movf	init_uart@baud,w
  4508     0973  00AA               	movwf	??_init_uart
  4509     0974  0827               	movf	init_uart@baud+1,w
  4510     0975  00AB               	movwf	??_init_uart+1
  4511     0976  0828               	movf	init_uart@baud+2,w
  4512     0977  00AC               	movwf	??_init_uart+2
  4513     0978  0829               	movf	init_uart@baud+3,w
  4514     0979  00AD               	movwf	??_init_uart+3
  4515     097A  3004               	movlw	4
  4516     097B                     u3545:
  4517     097B  1003               	clrc
  4518     097C  0DAA               	rlf	??_init_uart,f
  4519     097D  0DAB               	rlf	??_init_uart+1,f
  4520     097E  0DAC               	rlf	??_init_uart+2,f
  4521     097F  0DAD               	rlf	??_init_uart+3,f
  4522     0980                     u3540:
  4523     0980  3EFF               	addlw	-1
  4524     0981  1D03               	skipz
  4525     0982  297B               	goto	u3545
  4526     0983  082D               	movf	??_init_uart+3,w
  4527     0984  00F5               	movwf	___lldiv@divisor+3
  4528     0985  082C               	movf	??_init_uart+2,w
  4529     0986  00F4               	movwf	___lldiv@divisor+2
  4530     0987  082B               	movf	??_init_uart+1,w
  4531     0988  00F3               	movwf	___lldiv@divisor+1
  4532     0989  082A               	movf	??_init_uart,w
  4533     098A  00F2               	movwf	___lldiv@divisor
  4534     098B  3001               	movlw	1
  4535     098C  00F9               	movwf	___lldiv@dividend+3
  4536     098D  3031               	movlw	49
  4537     098E  00F8               	movwf	___lldiv@dividend+2
  4538     098F  302D               	movlw	45
  4539     0990  00F7               	movwf	___lldiv@dividend+1
  4540     0991  3000               	movlw	0
  4541     0992  00F6               	movwf	___lldiv@dividend
  4542     0993  120A  158A  248C  120A  158A  	fcall	___lldiv
  4543     0998  0872               	movf	?___lldiv,w
  4544     0999  3EFF               	addlw	255
  4545     099A  1683               	bsf	3,5	;RP0=1, select bank1
  4546     099B  1303               	bcf	3,6	;RP1=0, select bank1
  4547     099C  0099               	movwf	25	;volatile
  4548     099D                     l420:
  4549     099D  0008               	return
  4550     099E                     __end_of_init_uart:
  4551                           
  4552                           	psect	text17
  4553     099E                     __ptext17:	
  4554 ;; *************** function _init_i2c *****************
  4555 ;; Defined at:
  4556 ;;		line 4 in file "i2c.c"
  4557 ;; Parameters:    Size  Location     Type
  4558 ;;  baud            4    6[BANK0 ] unsigned long 
  4559 ;; Auto vars:     Size  Location     Type
  4560 ;;		None
  4561 ;; Return value:  Size  Location     Type
  4562 ;;                  1    wreg      void 
  4563 ;; Registers used:
  4564 ;;		wreg, status,2, status,0, pclath, cstack
  4565 ;; Tracked objects:
  4566 ;;		On entry : 0/0
  4567 ;;		On exit  : 0/0
  4568 ;;		Unchanged: 0/0
  4569 ;; Data sizes:     COMMON   BANK0   BANK1   BANK3   BANK2
  4570 ;;      Params:         0       4       0       0       0
  4571 ;;      Locals:         0       0       0       0       0
  4572 ;;      Temps:          0       4       0       0       0
  4573 ;;      Totals:         0       8       0       0       0
  4574 ;;Total ram usage:        8 bytes
  4575 ;; Hardware stack levels used: 1
  4576 ;; Hardware stack levels required when called: 2
  4577 ;; This function calls:
  4578 ;;		___lldiv
  4579 ;; This function is called by:
  4580 ;;		_init_config
  4581 ;; This function uses a non-reentrant model
  4582 ;;
  4583                           
  4584     099E                     _init_i2c:	
  4585                           ;psect for function _init_i2c
  4586                           
  4587     099E                     l3196:	
  4588                           ;incstack = 0
  4589                           ; Regs used in _init_i2c: [wreg+status,2+status,0+pclath+cstack]
  4590                           
  4591                           
  4592                           ;i2c.c: 4: void init_i2c(unsigned long baud);i2c.c: 5: {;i2c.c: 7:     SSPM3 = 1;
  4593     099E  1283               	bcf	3,5	;RP0=0, select bank0
  4594     099F  1303               	bcf	3,6	;RP1=0, select bank0
  4595     09A0  1594               	bsf	20,3	;volatile
  4596     09A1                     l3198:
  4597                           
  4598                           ;i2c.c: 10:     SSPADD = (unsigned char)(20000000 / (4 * baud)) - 1;
  4599     09A1  0826               	movf	init_i2c@baud,w
  4600     09A2  00AA               	movwf	??_init_i2c
  4601     09A3  0827               	movf	init_i2c@baud+1,w
  4602     09A4  00AB               	movwf	??_init_i2c+1
  4603     09A5  0828               	movf	init_i2c@baud+2,w
  4604     09A6  00AC               	movwf	??_init_i2c+2
  4605     09A7  0829               	movf	init_i2c@baud+3,w
  4606     09A8  00AD               	movwf	??_init_i2c+3
  4607     09A9  3002               	movlw	2
  4608     09AA                     u3535:
  4609     09AA  1003               	clrc
  4610     09AB  0DAA               	rlf	??_init_i2c,f
  4611     09AC  0DAB               	rlf	??_init_i2c+1,f
  4612     09AD  0DAC               	rlf	??_init_i2c+2,f
  4613     09AE  0DAD               	rlf	??_init_i2c+3,f
  4614     09AF                     u3530:
  4615     09AF  3EFF               	addlw	-1
  4616     09B0  1D03               	skipz
  4617     09B1  29AA               	goto	u3535
  4618     09B2  082D               	movf	??_init_i2c+3,w
  4619     09B3  00F5               	movwf	___lldiv@divisor+3
  4620     09B4  082C               	movf	??_init_i2c+2,w
  4621     09B5  00F4               	movwf	___lldiv@divisor+2
  4622     09B6  082B               	movf	??_init_i2c+1,w
  4623     09B7  00F3               	movwf	___lldiv@divisor+1
  4624     09B8  082A               	movf	??_init_i2c,w
  4625     09B9  00F2               	movwf	___lldiv@divisor
  4626     09BA  3001               	movlw	1
  4627     09BB  00F9               	movwf	___lldiv@dividend+3
  4628     09BC  3031               	movlw	49
  4629     09BD  00F8               	movwf	___lldiv@dividend+2
  4630     09BE  302D               	movlw	45
  4631     09BF  00F7               	movwf	___lldiv@dividend+1
  4632     09C0  3000               	movlw	0
  4633     09C1  00F6               	movwf	___lldiv@dividend
  4634     09C2  120A  158A  248C  120A  158A  	fcall	___lldiv
  4635     09C7  0872               	movf	?___lldiv,w
  4636     09C8  3EFF               	addlw	255
  4637     09C9  1683               	bsf	3,5	;RP0=1, select bank1
  4638     09CA  1303               	bcf	3,6	;RP1=0, select bank1
  4639     09CB  0093               	movwf	19	;volatile
  4640     09CC                     l3200:
  4641                           
  4642                           ;i2c.c: 13:     SSPEN = 1;
  4643     09CC  1283               	bcf	3,5	;RP0=0, select bank0
  4644     09CD  1303               	bcf	3,6	;RP1=0, select bank0
  4645     09CE  1694               	bsf	20,5	;volatile
  4646     09CF                     l124:
  4647     09CF  0008               	return
  4648     09D0                     __end_of_init_i2c:
  4649                           
  4650                           	psect	text18
  4651     0C8C                     __ptext18:	
  4652 ;; *************** function ___lldiv *****************
  4653 ;; Defined at:
  4654 ;;		line 5 in file "/opt/microchip/xc8/v3.10/pic/sources/c99/common/__lldiv.c"
  4655 ;; Parameters:    Size  Location     Type
  4656 ;;  divisor         4    2[COMMON] unsigned long 
  4657 ;;  dividend        4    6[COMMON] unsigned long 
  4658 ;; Auto vars:     Size  Location     Type
  4659 ;;  quotient        4    1[BANK0 ] unsigned long 
  4660 ;;  counter         1    5[BANK0 ] unsigned char 
  4661 ;; Return value:  Size  Location     Type
  4662 ;;                  4    2[COMMON] unsigned long 
  4663 ;; Registers used:
  4664 ;;		wreg, status,2, status,0
  4665 ;; Tracked objects:
  4666 ;;		On entry : 0/0
  4667 ;;		On exit  : 0/0
  4668 ;;		Unchanged: 0/0
  4669 ;; Data sizes:     COMMON   BANK0   BANK1   BANK3   BANK2
  4670 ;;      Params:         8       0       0       0       0
  4671 ;;      Locals:         0       5       0       0       0
  4672 ;;      Temps:          0       1       0       0       0
  4673 ;;      Totals:         8       6       0       0       0
  4674 ;;Total ram usage:       14 bytes
  4675 ;; Hardware stack levels used: 1
  4676 ;; Hardware stack levels required when called: 1
  4677 ;; This function calls:
  4678 ;;		Nothing
  4679 ;; This function is called by:
  4680 ;;		_init_i2c
  4681 ;;		_init_uart
  4682 ;; This function uses a non-reentrant model
  4683 ;;
  4684                           
  4685     0C8C                     ___lldiv:	
  4686                           ;psect for function ___lldiv
  4687                           
  4688     0C8C                     l3164:	
  4689                           ;incstack = 0
  4690                           ; Regs used in ___lldiv: [wreg+status,2+status,0]
  4691                           
  4692     0C8C  3000               	movlw	0
  4693     0C8D  1283               	bcf	3,5	;RP0=0, select bank0
  4694     0C8E  1303               	bcf	3,6	;RP1=0, select bank0
  4695     0C8F  00A4               	movwf	___lldiv@quotient+3
  4696     0C90  3000               	movlw	0
  4697     0C91  00A3               	movwf	___lldiv@quotient+2
  4698     0C92  3000               	movlw	0
  4699     0C93  00A2               	movwf	___lldiv@quotient+1
  4700     0C94  3000               	movlw	0
  4701     0C95  00A1               	movwf	___lldiv@quotient
  4702     0C96  0875               	movf	___lldiv@divisor+3,w
  4703     0C97  0474               	iorwf	___lldiv@divisor+2,w
  4704     0C98  0473               	iorwf	___lldiv@divisor+1,w
  4705     0C99  0472               	iorwf	___lldiv@divisor,w
  4706     0C9A  1903               	skipnz
  4707     0C9B  2C9D               	goto	u3461
  4708     0C9C  2C9E               	goto	u3460
  4709     0C9D                     u3461:
  4710     0C9D  2CE9               	goto	l3184
  4711     0C9E                     u3460:
  4712     0C9E                     l3166:
  4713     0C9E  3001               	movlw	1
  4714     0C9F  00A5               	movwf	___lldiv@counter
  4715     0CA0  2CAC               	goto	l3170
  4716     0CA1                     l3168:
  4717     0CA1  3001               	movlw	1
  4718     0CA2  00A0               	movwf	??___lldiv
  4719     0CA3                     u3475:
  4720     0CA3  1003               	clrc
  4721     0CA4  0DF2               	rlf	___lldiv@divisor,f
  4722     0CA5  0DF3               	rlf	___lldiv@divisor+1,f
  4723     0CA6  0DF4               	rlf	___lldiv@divisor+2,f
  4724     0CA7  0DF5               	rlf	___lldiv@divisor+3,f
  4725     0CA8  0BA0               	decfsz	??___lldiv,f
  4726     0CA9  2CA3               	goto	u3475
  4727     0CAA  3001               	movlw	1
  4728     0CAB  07A5               	addwf	___lldiv@counter,f
  4729     0CAC                     l3170:
  4730     0CAC  1FF5               	btfss	___lldiv@divisor+3,7
  4731     0CAD  2CAF               	goto	u3481
  4732     0CAE  2CB0               	goto	u3480
  4733     0CAF                     u3481:
  4734     0CAF  2CA1               	goto	l3168
  4735     0CB0                     u3480:
  4736     0CB0                     l3172:
  4737     0CB0  3001               	movlw	1
  4738     0CB1  00A0               	movwf	??___lldiv
  4739     0CB2                     u3495:
  4740     0CB2  1003               	clrc
  4741     0CB3  0DA1               	rlf	___lldiv@quotient,f
  4742     0CB4  0DA2               	rlf	___lldiv@quotient+1,f
  4743     0CB5  0DA3               	rlf	___lldiv@quotient+2,f
  4744     0CB6  0DA4               	rlf	___lldiv@quotient+3,f
  4745     0CB7  0BA0               	decfsz	??___lldiv,f
  4746     0CB8  2CB2               	goto	u3495
  4747     0CB9                     l3174:
  4748     0CB9  0875               	movf	___lldiv@divisor+3,w
  4749     0CBA  0279               	subwf	___lldiv@dividend+3,w
  4750     0CBB  1D03               	skipz
  4751     0CBC  2CC7               	goto	u3505
  4752     0CBD  0874               	movf	___lldiv@divisor+2,w
  4753     0CBE  0278               	subwf	___lldiv@dividend+2,w
  4754     0CBF  1D03               	skipz
  4755     0CC0  2CC7               	goto	u3505
  4756     0CC1  0873               	movf	___lldiv@divisor+1,w
  4757     0CC2  0277               	subwf	___lldiv@dividend+1,w
  4758     0CC3  1D03               	skipz
  4759     0CC4  2CC7               	goto	u3505
  4760     0CC5  0872               	movf	___lldiv@divisor,w
  4761     0CC6  0276               	subwf	___lldiv@dividend,w
  4762     0CC7                     u3505:
  4763     0CC7  1C03               	skipc
  4764     0CC8  2CCA               	goto	u3501
  4765     0CC9  2CCB               	goto	u3500
  4766     0CCA                     u3501:
  4767     0CCA  2CDA               	goto	l3180
  4768     0CCB                     u3500:
  4769     0CCB                     l3176:
  4770     0CCB  0872               	movf	___lldiv@divisor,w
  4771     0CCC  02F6               	subwf	___lldiv@dividend,f
  4772     0CCD  0873               	movf	___lldiv@divisor+1,w
  4773     0CCE  1C03               	skipc
  4774     0CCF  0F73               	incfsz	___lldiv@divisor+1,w
  4775     0CD0  02F7               	subwf	___lldiv@dividend+1,f
  4776     0CD1  0874               	movf	___lldiv@divisor+2,w
  4777     0CD2  1C03               	skipc
  4778     0CD3  0F74               	incfsz	___lldiv@divisor+2,w
  4779     0CD4  02F8               	subwf	___lldiv@dividend+2,f
  4780     0CD5  0875               	movf	___lldiv@divisor+3,w
  4781     0CD6  1C03               	skipc
  4782     0CD7  0F75               	incfsz	___lldiv@divisor+3,w
  4783     0CD8  02F9               	subwf	___lldiv@dividend+3,f
  4784     0CD9                     l3178:
  4785     0CD9  1421               	bsf	___lldiv@quotient,0
  4786     0CDA                     l3180:
  4787     0CDA  3001               	movlw	1
  4788     0CDB                     u3515:
  4789     0CDB  1003               	clrc
  4790     0CDC  0CF5               	rrf	___lldiv@divisor+3,f
  4791     0CDD  0CF4               	rrf	___lldiv@divisor+2,f
  4792     0CDE  0CF3               	rrf	___lldiv@divisor+1,f
  4793     0CDF  0CF2               	rrf	___lldiv@divisor,f
  4794     0CE0  3EFF               	addlw	-1
  4795     0CE1  1D03               	skipz
  4796     0CE2  2CDB               	goto	u3515
  4797     0CE3                     l3182:
  4798     0CE3  3001               	movlw	1
  4799     0CE4  02A5               	subwf	___lldiv@counter,f
  4800     0CE5  1D03               	btfss	3,2
  4801     0CE6  2CE8               	goto	u3521
  4802     0CE7  2CE9               	goto	u3520
  4803     0CE8                     u3521:
  4804     0CE8  2CB0               	goto	l3172
  4805     0CE9                     u3520:
  4806     0CE9                     l3184:
  4807     0CE9  0824               	movf	___lldiv@quotient+3,w
  4808     0CEA  00F5               	movwf	?___lldiv+3
  4809     0CEB  0823               	movf	___lldiv@quotient+2,w
  4810     0CEC  00F4               	movwf	?___lldiv+2
  4811     0CED  0822               	movf	___lldiv@quotient+1,w
  4812     0CEE  00F3               	movwf	?___lldiv+1
  4813     0CEF  0821               	movf	___lldiv@quotient,w
  4814     0CF0  00F2               	movwf	?___lldiv
  4815     0CF1                     l630:
  4816     0CF1  0008               	return
  4817     0CF2                     __end_of___lldiv:
  4818                           
  4819                           	psect	text19
  4820     1710                     __ptext19:	
  4821 ;; *************** function _init_ds1307 *****************
  4822 ;; Defined at:
  4823 ;;		line 8 in file "ds1307.c"
  4824 ;; Parameters:    Size  Location     Type
  4825 ;;		None
  4826 ;; Auto vars:     Size  Location     Type
  4827 ;;  dummy           1    6[COMMON] unsigned char 
  4828 ;; Return value:  Size  Location     Type
  4829 ;;                  1    wreg      void 
  4830 ;; Registers used:
  4831 ;;		wreg, status,2, status,0, pclath, cstack
  4832 ;; Tracked objects:
  4833 ;;		On entry : 0/0
  4834 ;;		On exit  : 0/0
  4835 ;;		Unchanged: 0/0
  4836 ;; Data sizes:     COMMON   BANK0   BANK1   BANK3   BANK2
  4837 ;;      Params:         0       0       0       0       0
  4838 ;;      Locals:         1       0       0       0       0
  4839 ;;      Temps:          0       0       0       0       0
  4840 ;;      Totals:         1       0       0       0       0
  4841 ;;Total ram usage:        1 bytes
  4842 ;; Hardware stack levels used: 1
  4843 ;; Hardware stack levels required when called: 3
  4844 ;; This function calls:
  4845 ;;		_read_ds1307
  4846 ;;		_write_ds1307
  4847 ;; This function is called by:
  4848 ;;		_init_config
  4849 ;; This function uses a non-reentrant model
  4850 ;;
  4851                           
  4852     1710                     _init_ds1307:	
  4853                           ;psect for function _init_ds1307
  4854                           
  4855     1710                     l3202:	
  4856                           ;incstack = 0
  4857                           ; Regs used in _init_ds1307: [wreg+status,2+status,0+pclath+cstack]
  4858                           
  4859                           
  4860                           ;ds1307.c: 10:     unsigned char dummy;;ds1307.c: 12:     dummy = read_ds1307(0x00);
  4861     1710  3000               	movlw	0
  4862     1711  120A  158A  20B9  160A  118A  	fcall	_read_ds1307
  4863     1716  00F6               	movwf	init_ds1307@dummy
  4864     1717                     l3204:
  4865                           
  4866                           ;ds1307.c: 13:     dummy = dummy & 0x7F;
  4867     1717  307F               	movlw	127
  4868     1718  05F6               	andwf	init_ds1307@dummy,f
  4869     1719                     l3206:
  4870                           
  4871                           ;ds1307.c: 14:     write_ds1307(0x00, dummy);
  4872     1719  0876               	movf	init_ds1307@dummy,w
  4873     171A  00F3               	movwf	write_ds1307@data
  4874     171B  3000               	movlw	0
  4875     171C  160A  118A  2722  160A  118A  	fcall	_write_ds1307
  4876     1721                     l168:
  4877     1721  0008               	return
  4878     1722                     __end_of_init_ds1307:
  4879                           
  4880                           	psect	text20
  4881     1722                     __ptext20:	
  4882 ;; *************** function _write_ds1307 *****************
  4883 ;; Defined at:
  4884 ;;		line 32 in file "ds1307.c"
  4885 ;; Parameters:    Size  Location     Type
  4886 ;;  addr            1    wreg     unsigned char 
  4887 ;;  data            1    3[COMMON] unsigned char 
  4888 ;; Auto vars:     Size  Location     Type
  4889 ;;  addr            1    4[COMMON] unsigned char 
  4890 ;; Return value:  Size  Location     Type
  4891 ;;                  1    wreg      void 
  4892 ;; Registers used:
  4893 ;;		wreg, status,2, status,0, pclath, cstack
  4894 ;; Tracked objects:
  4895 ;;		On entry : 0/0
  4896 ;;		On exit  : 0/0
  4897 ;;		Unchanged: 0/0
  4898 ;; Data sizes:     COMMON   BANK0   BANK1   BANK3   BANK2
  4899 ;;      Params:         1       0       0       0       0
  4900 ;;      Locals:         1       0       0       0       0
  4901 ;;      Temps:          0       0       0       0       0
  4902 ;;      Totals:         2       0       0       0       0
  4903 ;;Total ram usage:        2 bytes
  4904 ;; Hardware stack levels used: 1
  4905 ;; Hardware stack levels required when called: 2
  4906 ;; This function calls:
  4907 ;;		_i2c_start
  4908 ;;		_i2c_stop
  4909 ;;		_i2c_write
  4910 ;; This function is called by:
  4911 ;;		_init_ds1307
  4912 ;; This function uses a non-reentrant model
  4913 ;;
  4914                           
  4915     1722                     _write_ds1307:	
  4916                           ;psect for function _write_ds1307
  4917                           
  4918                           
  4919                           ;incstack = 0
  4920                           ; Regs used in _write_ds1307: [wreg+status,2+status,0+pclath+cstack]
  4921                           ;write_ds1307@addr stored from wreg
  4922     1722  00F4               	movwf	write_ds1307@addr
  4923     1723                     l3106:
  4924                           
  4925                           ;ds1307.c: 32: void write_ds1307(unsigned char addr, unsigned char data);ds1307.c: 33: {
      +                          ;ds1307.c: 34:     i2c_start();
  4926     1723  160A  118A  26C4  160A  118A  	fcall	_i2c_start
  4927                           
  4928                           ;ds1307.c: 35:     i2c_write(0b11010000);
  4929     1728  30D0               	movlw	208
  4930     1729  160A  118A  26E2  160A  118A  	fcall	_i2c_write
  4931                           
  4932                           ;ds1307.c: 36:     i2c_write(addr);
  4933     172E  0874               	movf	write_ds1307@addr,w
  4934     172F  160A  118A  26E2  160A  118A  	fcall	_i2c_write
  4935                           
  4936                           ;ds1307.c: 37:     i2c_write(data);
  4937     1734  0873               	movf	write_ds1307@data,w
  4938     1735  160A  118A  26E2  160A  118A  	fcall	_i2c_write
  4939                           
  4940                           ;ds1307.c: 38:     i2c_stop();
  4941     173A  120A  158A  2000  160A  118A  	fcall	_i2c_stop
  4942     173F                     l174:
  4943     173F  0008               	return
  4944     1740                     __end_of_write_ds1307:
  4945                           
  4946                           	psect	text21
  4947     16A7                     __ptext21:	
  4948 ;; *************** function _init_digital_keypad *****************
  4949 ;; Defined at:
  4950 ;;		line 4 in file "digital_keypad.c"
  4951 ;; Parameters:    Size  Location     Type
  4952 ;;		None
  4953 ;; Auto vars:     Size  Location     Type
  4954 ;;		None
  4955 ;; Return value:  Size  Location     Type
  4956 ;;                  1    wreg      void 
  4957 ;; Registers used:
  4958 ;;		wreg, status,2
  4959 ;; Tracked objects:
  4960 ;;		On entry : 0/0
  4961 ;;		On exit  : 0/0
  4962 ;;		Unchanged: 0/0
  4963 ;; Data sizes:     COMMON   BANK0   BANK1   BANK3   BANK2
  4964 ;;      Params:         0       0       0       0       0
  4965 ;;      Locals:         0       0       0       0       0
  4966 ;;      Temps:          0       0       0       0       0
  4967 ;;      Totals:         0       0       0       0       0
  4968 ;;Total ram usage:        0 bytes
  4969 ;; Hardware stack levels used: 1
  4970 ;; Hardware stack levels required when called: 1
  4971 ;; This function calls:
  4972 ;;		Nothing
  4973 ;; This function is called by:
  4974 ;;		_init_config
  4975 ;; This function uses a non-reentrant model
  4976 ;;
  4977                           
  4978     16A7                     _init_digital_keypad:	
  4979                           ;psect for function _init_digital_keypad
  4980                           
  4981     16A7                     l2334:	
  4982                           ;incstack = 0
  4983                           ; Regs used in _init_digital_keypad: [wreg+status,2]
  4984                           
  4985                           
  4986                           ;digital_keypad.c: 7:     TRISB = TRISB | 0x3F;
  4987     16A7  1683               	bsf	3,5	;RP0=1, select bank1
  4988     16A8  1303               	bcf	3,6	;RP1=0, select bank1
  4989     16A9  0806               	movf	6,w	;volatile
  4990     16AA  383F               	iorlw	63
  4991     16AB  0086               	movwf	6	;volatile
  4992     16AC                     l50:
  4993     16AC  0008               	return
  4994     16AD                     __end_of_init_digital_keypad:
  4995                           
  4996                           	psect	text22
  4997     16ED                     __ptext22:	
  4998 ;; *************** function _init_clcd *****************
  4999 ;; Defined at:
  5000 ;;		line 45 in file "clcd.c"
  5001 ;; Parameters:    Size  Location     Type
  5002 ;;		None
  5003 ;; Auto vars:     Size  Location     Type
  5004 ;;		None
  5005 ;; Return value:  Size  Location     Type
  5006 ;;                  1    wreg      void 
  5007 ;; Registers used:
  5008 ;;		wreg, status,2, status,0, pclath, cstack
  5009 ;; Tracked objects:
  5010 ;;		On entry : 0/0
  5011 ;;		On exit  : 0/0
  5012 ;;		Unchanged: 0/0
  5013 ;; Data sizes:     COMMON   BANK0   BANK1   BANK3   BANK2
  5014 ;;      Params:         0       0       0       0       0
  5015 ;;      Locals:         0       0       0       0       0
  5016 ;;      Temps:          0       0       0       0       0
  5017 ;;      Totals:         0       0       0       0       0
  5018 ;;Total ram usage:        0 bytes
  5019 ;; Hardware stack levels used: 1
  5020 ;; Hardware stack levels required when called: 3
  5021 ;; This function calls:
  5022 ;;		_init_display_controller
  5023 ;; This function is called by:
  5024 ;;		_init_config
  5025 ;; This function uses a non-reentrant model
  5026 ;;
  5027                           
  5028     16ED                     _init_clcd:	
  5029                           ;psect for function _init_clcd
  5030                           
  5031     16ED                     l3188:	
  5032                           ;incstack = 0
  5033                           ; Regs used in _init_clcd: [wreg+status,2+status,0+pclath+cstack]
  5034                           
  5035                           
  5036                           ;clcd.c: 48:     TRISD = 0x00;
  5037     16ED  1683               	bsf	3,5	;RP0=1, select bank1
  5038     16EE  1303               	bcf	3,6	;RP1=0, select bank1
  5039     16EF  0188               	clrf	8	;volatile
  5040     16F0                     l3190:
  5041                           
  5042                           ;clcd.c: 51:     TRISE2 = 0;
  5043     16F0  1109               	bcf	9,2	;volatile
  5044     16F1                     l3192:
  5045                           
  5046                           ;clcd.c: 52:     TRISE1 = 0;
  5047     16F1  1089               	bcf	9,1	;volatile
  5048     16F2                     l3194:
  5049                           
  5050                           ;clcd.c: 54:     init_display_controller();
  5051     16F2  120A  158A  2429  160A  118A  	fcall	_init_display_controller
  5052     16F7                     l83:
  5053     16F7  0008               	return
  5054     16F8                     __end_of_init_clcd:
  5055                           
  5056                           	psect	text23
  5057     0C29                     __ptext23:	
  5058 ;; *************** function _init_display_controller *****************
  5059 ;; Defined at:
  5060 ;;		line 22 in file "clcd.c"
  5061 ;; Parameters:    Size  Location     Type
  5062 ;;		None
  5063 ;; Auto vars:     Size  Location     Type
  5064 ;;		None
  5065 ;; Return value:  Size  Location     Type
  5066 ;;                  1    wreg      void 
  5067 ;; Registers used:
  5068 ;;		wreg, status,2, status,0, pclath, cstack
  5069 ;; Tracked objects:
  5070 ;;		On entry : 0/0
  5071 ;;		On exit  : 0/0
  5072 ;;		Unchanged: 0/0
  5073 ;; Data sizes:     COMMON   BANK0   BANK1   BANK3   BANK2
  5074 ;;      Params:         0       0       0       0       0
  5075 ;;      Locals:         0       0       0       0       0
  5076 ;;      Temps:          2       0       0       0       0
  5077 ;;      Totals:         2       0       0       0       0
  5078 ;;Total ram usage:        2 bytes
  5079 ;; Hardware stack levels used: 1
  5080 ;; Hardware stack levels required when called: 2
  5081 ;; This function calls:
  5082 ;;		_clcd_write
  5083 ;; This function is called by:
  5084 ;;		_init_clcd
  5085 ;; This function uses a non-reentrant model
  5086 ;;
  5087                           
  5088     0C29                     _init_display_controller:	
  5089                           ;psect for function _init_display_controller
  5090                           
  5091     0C29                     l3074:	
  5092                           ;incstack = 0
  5093                           ; Regs used in _init_display_controller: [wreg+status,2+status,0+pclath+cstack]
  5094                           
  5095                           
  5096                           ;clcd.c: 25:     _delay((unsigned long)((30)*(20000000/4000.0)));
  5097     0C29  30C3               	movlw	195
  5098     0C2A  00F7               	movwf	??_init_display_controller+1
  5099     0C2B  30CD               	movlw	205
  5100     0C2C  00F6               	movwf	??_init_display_controller
  5101     0C2D                     u4227:
  5102     0C2D  0BF6               	decfsz	??_init_display_controller,f
  5103     0C2E  2C2D               	goto	u4227
  5104     0C2F  0BF7               	decfsz	??_init_display_controller+1,f
  5105     0C30  2C2D               	goto	u4227
  5106     0C31                     l3076:
  5107                           
  5108                           ;clcd.c: 28:     clcd_write(0x33, 0);
  5109     0C31  01F2               	clrf	clcd_write@mode
  5110     0C32  3033               	movlw	51
  5111     0C33  120A  158A  2204  120A  158A  	fcall	_clcd_write
  5112     0C38                     l3078:
  5113                           
  5114                           ;clcd.c: 29:     _delay((unsigned long)((4100)*(20000000/4000000.0)));
  5115     0C38  301B               	movlw	27
  5116     0C39  00F7               	movwf	??_init_display_controller+1
  5117     0C3A  309E               	movlw	158
  5118     0C3B  00F6               	movwf	??_init_display_controller
  5119     0C3C                     u4237:
  5120     0C3C  0BF6               	decfsz	??_init_display_controller,f
  5121     0C3D  2C3C               	goto	u4237
  5122     0C3E  0BF7               	decfsz	??_init_display_controller+1,f
  5123     0C3F  2C3C               	goto	u4237
  5124     0C40  0000               	nop
  5125                           
  5126                           ;clcd.c: 30:     clcd_write(0x33, 0);
  5127     0C41  01F2               	clrf	clcd_write@mode
  5128     0C42  3033               	movlw	51
  5129     0C43  120A  158A  2204  120A  158A  	fcall	_clcd_write
  5130     0C48                     l3080:
  5131                           
  5132                           ;clcd.c: 31:     _delay((unsigned long)((100)*(20000000/4000000.0)));
  5133     0C48  30A6               	movlw	166
  5134     0C49  00F6               	movwf	??_init_display_controller
  5135     0C4A                     u4247:
  5136     0C4A  0BF6               	decfsz	??_init_display_controller,f
  5137     0C4B  2C4A               	goto	u4247
  5138     0C4C  0000               	nop
  5139     0C4D                     l3082:
  5140                           
  5141                           ;clcd.c: 32:     clcd_write(0x33, 0);
  5142     0C4D  01F2               	clrf	clcd_write@mode
  5143     0C4E  3033               	movlw	51
  5144     0C4F  120A  158A  2204  120A  158A  	fcall	_clcd_write
  5145     0C54                     l3084:
  5146                           
  5147                           ;clcd.c: 33:     _delay((unsigned long)((1)*(20000000/4000000.0)));
  5148     0C54  2C55               	nop2	;2 cycle nop
  5149     0C55  2C56               	nop2	;2 cycle nop
  5150     0C56  0000               	nop
  5151     0C57                     l3086:
  5152                           
  5153                           ;clcd.c: 35:     clcd_write(0x02, 0);
  5154     0C57  01F2               	clrf	clcd_write@mode
  5155     0C58  3002               	movlw	2
  5156     0C59  120A  158A  2204  120A  158A  	fcall	_clcd_write
  5157     0C5E                     l3088:
  5158                           
  5159                           ;clcd.c: 36:     _delay((unsigned long)((100)*(20000000/4000000.0)));
  5160     0C5E  30A6               	movlw	166
  5161     0C5F  00F6               	movwf	??_init_display_controller
  5162     0C60                     u4257:
  5163     0C60  0BF6               	decfsz	??_init_display_controller,f
  5164     0C61  2C60               	goto	u4257
  5165     0C62  0000               	nop
  5166                           
  5167                           ;clcd.c: 37:     clcd_write(0x28, 0);
  5168     0C63  01F2               	clrf	clcd_write@mode
  5169     0C64  3028               	movlw	40
  5170     0C65  120A  158A  2204  120A  158A  	fcall	_clcd_write
  5171     0C6A                     l3090:
  5172                           
  5173                           ;clcd.c: 38:     _delay((unsigned long)((100)*(20000000/4000000.0)));
  5174     0C6A  30A6               	movlw	166
  5175     0C6B  00F6               	movwf	??_init_display_controller
  5176     0C6C                     u4267:
  5177     0C6C  0BF6               	decfsz	??_init_display_controller,f
  5178     0C6D  2C6C               	goto	u4267
  5179     0C6E  0000               	nop
  5180     0C6F                     l3092:
  5181                           
  5182                           ;clcd.c: 39:     clcd_write(0x01, 0);
  5183     0C6F  01F2               	clrf	clcd_write@mode
  5184     0C70  3001               	movlw	1
  5185     0C71  120A  158A  2204  120A  158A  	fcall	_clcd_write
  5186                           
  5187                           ;clcd.c: 40:     _delay((unsigned long)((500)*(20000000/4000000.0)));
  5188     0C76  3004               	movlw	4
  5189     0C77  00F7               	movwf	??_init_display_controller+1
  5190     0C78  303D               	movlw	61
  5191     0C79  00F6               	movwf	??_init_display_controller
  5192     0C7A                     u4277:
  5193     0C7A  0BF6               	decfsz	??_init_display_controller,f
  5194     0C7B  2C7A               	goto	u4277
  5195     0C7C  0BF7               	decfsz	??_init_display_controller+1,f
  5196     0C7D  2C7A               	goto	u4277
  5197     0C7E  2C7F               	nop2
  5198     0C7F                     l3094:
  5199                           
  5200                           ;clcd.c: 41:     clcd_write(0x0C, 0);
  5201     0C7F  01F2               	clrf	clcd_write@mode
  5202     0C80  300C               	movlw	12
  5203     0C81  120A  158A  2204  120A  158A  	fcall	_clcd_write
  5204     0C86                     l3096:
  5205                           
  5206                           ;clcd.c: 42:     _delay((unsigned long)((100)*(20000000/4000000.0)));
  5207     0C86  30A6               	movlw	166
  5208     0C87  00F6               	movwf	??_init_display_controller
  5209     0C88                     u4287:
  5210     0C88  0BF6               	decfsz	??_init_display_controller,f
  5211     0C89  2C88               	goto	u4287
  5212     0C8A  0000               	nop
  5213     0C8B                     l80:
  5214     0C8B  0008               	return
  5215     0C8C                     __end_of_init_display_controller:
  5216                           
  5217                           	psect	text24
  5218     16AD                     __ptext24:	
  5219 ;; *************** function _init_adc *****************
  5220 ;; Defined at:
  5221 ;;		line 4 in file "adc.c"
  5222 ;; Parameters:    Size  Location     Type
  5223 ;;		None
  5224 ;; Auto vars:     Size  Location     Type
  5225 ;;		None
  5226 ;; Return value:  Size  Location     Type
  5227 ;;                  1    wreg      void 
  5228 ;; Registers used:
  5229 ;;		None
  5230 ;; Tracked objects:
  5231 ;;		On entry : 0/0
  5232 ;;		On exit  : 0/0
  5233 ;;		Unchanged: 0/0
  5234 ;; Data sizes:     COMMON   BANK0   BANK1   BANK3   BANK2
  5235 ;;      Params:         0       0       0       0       0
  5236 ;;      Locals:         0       0       0       0       0
  5237 ;;      Temps:          0       0       0       0       0
  5238 ;;      Totals:         0       0       0       0       0
  5239 ;;Total ram usage:        0 bytes
  5240 ;; Hardware stack levels used: 1
  5241 ;; Hardware stack levels required when called: 1
  5242 ;; This function calls:
  5243 ;;		Nothing
  5244 ;; This function is called by:
  5245 ;;		_init_config
  5246 ;; This function uses a non-reentrant model
  5247 ;;
  5248                           
  5249     16AD                     _init_adc:	
  5250                           ;psect for function _init_adc
  5251                           
  5252     16AD                     l2324:	
  5253                           ;incstack = 0
  5254                           ; Regs used in _init_adc: []
  5255                           
  5256                           
  5257                           ;adc.c: 7:     ADFM = 1;
  5258     16AD  1683               	bsf	3,5	;RP0=1, select bank1
  5259     16AE  1303               	bcf	3,6	;RP1=0, select bank1
  5260     16AF  179F               	bsf	31,7	;volatile
  5261                           
  5262                           ;adc.c: 10:     ADON = 1;
  5263     16B0  1283               	bcf	3,5	;RP0=0, select bank0
  5264     16B1  1303               	bcf	3,6	;RP1=0, select bank0
  5265     16B2  141F               	bsf	31,0	;volatile
  5266     16B3                     l197:
  5267     16B3  0008               	return
  5268     16B4                     __end_of_init_adc:
  5269                           
  5270                           	psect	text25
  5271     0538                     __ptext25:	
  5272 ;; *************** function _dashboard *****************
  5273 ;; Defined at:
  5274 ;;		line 89 in file "dashboard.c"
  5275 ;; Parameters:    Size  Location     Type
  5276 ;;  key             1    wreg     unsigned char 
  5277 ;; Auto vars:     Size  Location     Type
  5278 ;;  key             1   44[BANK0 ] unsigned char 
  5279 ;; Return value:  Size  Location     Type
  5280 ;;                  1    wreg      void 
  5281 ;; Registers used:
  5282 ;;		wreg, fsr0l, fsr0h, status,2, status,0, pclath, btemp1, cstack
  5283 ;; Tracked objects:
  5284 ;;		On entry : 0/0
  5285 ;;		On exit  : 0/0
  5286 ;;		Unchanged: 0/0
  5287 ;; Data sizes:     COMMON   BANK0   BANK1   BANK3   BANK2
  5288 ;;      Params:         0       0       0       0       0
  5289 ;;      Locals:         0       1       0       0       0
  5290 ;;      Temps:          0       2       0       0       0
  5291 ;;      Totals:         0       3       0       0       0
  5292 ;;Total ram usage:        3 bytes
  5293 ;; Hardware stack levels used: 1
  5294 ;; Hardware stack levels required when called: 6
  5295 ;; This function calls:
  5296 ;;		___fldiv
  5297 ;;		___fltol
  5298 ;;		___lwdiv
  5299 ;;		___lwmod
  5300 ;;		___xxtofl
  5301 ;;		_clcd_print
  5302 ;;		_display_time
  5303 ;;		_get_time
  5304 ;;		_read_adc
  5305 ;;		_write_event
  5306 ;; This function is called by:
  5307 ;;		_main
  5308 ;; This function uses a non-reentrant model
  5309 ;;
  5310                           
  5311     0538                     _dashboard:	
  5312                           ;psect for function _dashboard
  5313                           
  5314                           
  5315                           ;incstack = 0
  5316                           ; Regs used in _dashboard: [wreg-fsr0h+status,2+status,0+pclath+btemp1+cstack]
  5317                           ;dashboard@key stored from wreg
  5318     0538  1283               	bcf	3,5	;RP0=0, select bank0
  5319     0539  1303               	bcf	3,6	;RP1=0, select bank0
  5320     053A  00CC               	movwf	dashboard@key
  5321     053B                     l3438:
  5322                           
  5323                           ;dashboard.c: 91:  clcd_print(" TIME     EV  SP", (0x80 + 0));
  5324     053B  3067               	movlw	low (STR_14| (0+32768))
  5325     053C  00F6               	movwf	clcd_print@str
  5326     053D  3084               	movlw	high (STR_14| (0+32768))
  5327     053E  00F7               	movwf	clcd_print@str+1
  5328     053F  3080               	movlw	128
  5329     0540  00F8               	movwf	clcd_print@addr
  5330     0541  120A  158A  210F  120A  118A  	fcall	_clcd_print
  5331     0546                     l3440:
  5332                           
  5333                           ;dashboard.c: 95:  get_time(clock_reg);
  5334     0546  3068               	movlw	(low (_clock_reg| 0))& (0+255)
  5335     0547  00F6               	movwf	get_time@clock_reg
  5336     0548  160A  118A  279C  120A  118A  	fcall	_get_time
  5337     054D                     l3442:
  5338                           
  5339                           ;dashboard.c: 96:  display_time(clock_reg);
  5340     054D  3068               	movlw	(low (_clock_reg| 0))& (0+255)
  5341     054E  00F9               	movwf	display_time@clock_reg
  5342     054F  120A  158A  2323  120A  118A  	fcall	_display_time
  5343     0554                     l3444:
  5344                           
  5345                           ;dashboard.c: 100:  if(key == 0x3E){
  5346     0554  303E               	movlw	62
  5347     0555  1283               	bcf	3,5	;RP0=0, select bank0
  5348     0556  1303               	bcf	3,6	;RP1=0, select bank0
  5349     0557  064C               	xorwf	dashboard@key,w
  5350     0558  1D03               	btfss	3,2
  5351     0559  2D5B               	goto	u3881
  5352     055A  2D5C               	goto	u3880
  5353     055B                     u3881:
  5354     055B  2D81               	goto	l3456
  5355     055C                     u3880:
  5356     055C                     l3446:
  5357                           
  5358                           ;dashboard.c: 103:   if(pos == 7){
  5359     055C  3007               	movlw	7
  5360     055D  067A               	xorwf	_pos,w
  5361     055E  047B               	iorwf	_pos+1,w
  5362     055F  1D03               	btfss	3,2
  5363     0560  2D62               	goto	u3891
  5364     0561  2D63               	goto	u3890
  5365     0562                     u3891:
  5366     0562  2D68               	goto	l3450
  5367     0563                     u3890:
  5368     0563                     l3448:
  5369                           
  5370                           ;dashboard.c: 104:    pos = 1;
  5371     0563  3001               	movlw	1
  5372     0564  00FA               	movwf	_pos
  5373     0565  3000               	movlw	0
  5374     0566  00FB               	movwf	_pos+1
  5375                           
  5376                           ;dashboard.c: 105:   }
  5377     0567  2DAE               	goto	l3474
  5378     0568                     l3450:
  5379     0568  087B               	movf	_pos+1,w
  5380     0569  3A80               	xorlw	128
  5381     056A  00FF               	movwf	btemp1
  5382     056B  3080               	movlw	128
  5383     056C  027F               	subwf	btemp1,w
  5384     056D  1D03               	skipz
  5385     056E  2D71               	goto	u3905
  5386     056F  3006               	movlw	6
  5387     0570  027A               	subwf	_pos,w
  5388     0571                     u3905:
  5389     0571  1803               	skipnc
  5390     0572  2D74               	goto	u3901
  5391     0573  2D75               	goto	u3900
  5392     0574                     u3901:
  5393     0574  2DAE               	goto	l3474
  5394     0575                     u3900:
  5395     0575                     l3452:
  5396                           
  5397                           ;dashboard.c: 107:    pos++;
  5398     0575  3001               	movlw	1
  5399     0576  07FA               	addwf	_pos,f
  5400     0577  1803               	skipnc
  5401     0578  0AFB               	incf	_pos+1,f
  5402     0579  3000               	movlw	0
  5403     057A  07FB               	addwf	_pos+1,f
  5404     057B                     l3454:
  5405                           
  5406                           ;dashboard.c: 108:    write_event();
  5407     057B  120A  118A  271A  120A  118A  	fcall	_write_event
  5408     0580  2DAE               	goto	l3474
  5409     0581                     l3456:
  5410     0581  303D               	movlw	61
  5411     0582  064C               	xorwf	dashboard@key,w
  5412     0583  1D03               	btfss	3,2
  5413     0584  2D86               	goto	u3911
  5414     0585  2D87               	goto	u3910
  5415     0586                     u3911:
  5416     0586  2DA3               	goto	l3468
  5417     0587                     u3910:
  5418     0587                     l3458:
  5419                           
  5420                           ;dashboard.c: 114:   if(pos == 7){
  5421     0587  3007               	movlw	7
  5422     0588  067A               	xorwf	_pos,w
  5423     0589  047B               	iorwf	_pos+1,w
  5424     058A  1D03               	btfss	3,2
  5425     058B  2D8D               	goto	u3921
  5426     058C  2D8E               	goto	u3920
  5427     058D                     u3921:
  5428     058D  2D8F               	goto	l3462
  5429     058E                     u3920:
  5430     058E  2D63               	goto	l3448
  5431     058F                     l3462:
  5432     058F  087B               	movf	_pos+1,w
  5433     0590  3A80               	xorlw	128
  5434     0591  00FF               	movwf	btemp1
  5435     0592  3080               	movlw	128
  5436     0593  027F               	subwf	btemp1,w
  5437     0594  1D03               	skipz
  5438     0595  2D98               	goto	u3935
  5439     0596  3002               	movlw	2
  5440     0597  027A               	subwf	_pos,w
  5441     0598                     u3935:
  5442     0598  1C03               	skipc
  5443     0599  2D9B               	goto	u3931
  5444     059A  2D9C               	goto	u3930
  5445     059B                     u3931:
  5446     059B  2DAE               	goto	l3474
  5447     059C                     u3930:
  5448     059C                     l3464:
  5449                           
  5450                           ;dashboard.c: 118:    pos--;
  5451     059C  30FF               	movlw	255
  5452     059D  07FA               	addwf	_pos,f
  5453     059E  1803               	skipnc
  5454     059F  0AFB               	incf	_pos+1,f
  5455     05A0  30FF               	movlw	255
  5456     05A1  07FB               	addwf	_pos+1,f
  5457     05A2  2D7B               	goto	l3454
  5458     05A3                     l3468:
  5459     05A3  303B               	movlw	59
  5460     05A4  064C               	xorwf	dashboard@key,w
  5461     05A5  1D03               	btfss	3,2
  5462     05A6  2DA8               	goto	u3941
  5463     05A7  2DA9               	goto	u3940
  5464     05A8                     u3941:
  5465     05A8  2DAE               	goto	l3474
  5466     05A9                     u3940:
  5467     05A9                     l3470:
  5468                           
  5469                           ;dashboard.c: 125:   pos = 7;
  5470     05A9  3007               	movlw	7
  5471     05AA  00FA               	movwf	_pos
  5472     05AB  3000               	movlw	0
  5473     05AC  00FB               	movwf	_pos+1
  5474     05AD  2D7B               	goto	l3454
  5475     05AE                     l3474:
  5476                           
  5477                           ;dashboard.c: 130:  clcd_print(event[pos], (0xC0 + 10));
  5478     05AE  087A               	movf	_pos,w
  5479     05AF  1283               	bcf	3,5	;RP0=0, select bank0
  5480     05B0  1303               	bcf	3,6	;RP1=0, select bank0
  5481     05B1  00CA               	movwf	??_dashboard
  5482     05B2  074A               	addwf	??_dashboard,w
  5483     05B3  3EC0               	addlw	(low (_event| 0))& (0+255)
  5484     05B4  0084               	movwf	4
  5485     05B5  1383               	bcf	3,7	;select IRP bank1
  5486     05B6  0800               	movf	0,w
  5487     05B7  00F6               	movwf	clcd_print@str
  5488     05B8  0A84               	incf	4,f
  5489     05B9  0800               	movf	0,w
  5490     05BA  0384               	decf	4,f
  5491     05BB  00F7               	movwf	clcd_print@str+1
  5492     05BC  30CA               	movlw	202
  5493     05BD  00F8               	movwf	clcd_print@addr
  5494     05BE  120A  158A  210F  120A  118A  	fcall	_clcd_print
  5495     05C3                     l3476:
  5496                           
  5497                           ;dashboard.c: 134:  adc_val = read_adc(0x00);
  5498     05C3  3000               	movlw	0
  5499     05C4  160A  118A  275E  120A  118A  	fcall	_read_adc
  5500     05C9  0873               	movf	?_read_adc+1,w
  5501     05CA  1283               	bcf	3,5	;RP0=0, select bank0
  5502     05CB  1303               	bcf	3,6	;RP1=0, select bank0
  5503     05CC  00DA               	movwf	_adc_val+1
  5504     05CD  0872               	movf	?_read_adc,w
  5505     05CE  00D9               	movwf	_adc_val
  5506     05CF                     l3478:
  5507                           
  5508                           ;dashboard.c: 137:  adc_val = adc_val / 10.23;
  5509     05CF  0859               	movf	_adc_val,w
  5510     05D0  00F2               	movwf	___xxtofl@val
  5511     05D1  085A               	movf	_adc_val+1,w
  5512     05D2  00F3               	movwf	___xxtofl@val+1
  5513     05D3  01F4               	clrf	___xxtofl@val+2
  5514     05D4  01F5               	clrf	___xxtofl@val+3
  5515     05D5  3000               	movlw	0
  5516     05D6  120A  158A  2684  120A  118A  	fcall	___xxtofl
  5517     05DB  0875               	movf	?___xxtofl+3,w
  5518     05DC  1283               	bcf	3,5	;RP0=0, select bank0
  5519     05DD  1303               	bcf	3,6	;RP1=0, select bank0
  5520     05DE  00AD               	movwf	___fldiv@b+3
  5521     05DF  0874               	movf	?___xxtofl+2,w
  5522     05E0  00AC               	movwf	___fldiv@b+2
  5523     05E1  0873               	movf	?___xxtofl+1,w
  5524     05E2  00AB               	movwf	___fldiv@b+1
  5525     05E3  0872               	movf	?___xxtofl,w
  5526     05E4  00AA               	movwf	___fldiv@b
  5527     05E5  3041               	movlw	65
  5528     05E6  00A9               	movwf	___fldiv@a+3
  5529     05E7  3023               	movlw	35
  5530     05E8  00A8               	movwf	___fldiv@a+2
  5531     05E9  30AE               	movlw	174
  5532     05EA  00A7               	movwf	___fldiv@a+1
  5533     05EB  3014               	movlw	20
  5534     05EC  00A6               	movwf	___fldiv@a
  5535     05ED  120A  118A  2040  120A  118A  	fcall	___fldiv
  5536     05F2  1283               	bcf	3,5	;RP0=0, select bank0
  5537     05F3  1303               	bcf	3,6	;RP1=0, select bank0
  5538     05F4  0829               	movf	?___fldiv+3,w
  5539     05F5  00C3               	movwf	___fltol@f1+3
  5540     05F6  0828               	movf	?___fldiv+2,w
  5541     05F7  00C2               	movwf	___fltol@f1+2
  5542     05F8  0827               	movf	?___fldiv+1,w
  5543     05F9  00C1               	movwf	___fltol@f1+1
  5544     05FA  0826               	movf	?___fldiv,w
  5545     05FB  00C0               	movwf	___fltol@f1
  5546     05FC  120A  158A  24F2  120A  118A  	fcall	___fltol
  5547     0601  1283               	bcf	3,5	;RP0=0, select bank0
  5548     0602  1303               	bcf	3,6	;RP1=0, select bank0
  5549     0603  0841               	movf	?___fltol+1,w
  5550     0604  00DA               	movwf	_adc_val+1
  5551     0605  0840               	movf	?___fltol,w
  5552     0606  00D9               	movwf	_adc_val
  5553     0607                     l3480:
  5554                           
  5555                           ;dashboard.c: 140:  if(adc_val == 100) adc_val--;
  5556     0607  3064               	movlw	100
  5557     0608  0659               	xorwf	_adc_val,w
  5558     0609  045A               	iorwf	_adc_val+1,w
  5559     060A  1D03               	btfss	3,2
  5560     060B  2E0D               	goto	u3951
  5561     060C  2E0E               	goto	u3950
  5562     060D                     u3951:
  5563     060D  2E14               	goto	l3484
  5564     060E                     u3950:
  5565     060E                     l3482:
  5566     060E  3001               	movlw	1
  5567     060F  02D9               	subwf	_adc_val,f
  5568     0610  3000               	movlw	0
  5569     0611  1C03               	skipc
  5570     0612  03DA               	decf	_adc_val+1,f
  5571     0613  02DA               	subwf	_adc_val+1,f
  5572     0614                     l3484:
  5573                           
  5574                           ;dashboard.c: 142:  speed[0] = (adc_val / 10) + '0';
  5575     0614  300A               	movlw	10
  5576     0615  00F2               	movwf	___lwdiv@divisor
  5577     0616  3000               	movlw	0
  5578     0617  00F3               	movwf	___lwdiv@divisor+1
  5579     0618  085A               	movf	_adc_val+1,w
  5580     0619  00F5               	movwf	___lwdiv@dividend+1
  5581     061A  0859               	movf	_adc_val,w
  5582     061B  00F4               	movwf	___lwdiv@dividend
  5583     061C  120A  158A  22E1  120A  118A  	fcall	___lwdiv
  5584     0621  0872               	movf	?___lwdiv,w
  5585     0622  3E30               	addlw	48
  5586     0623  1283               	bcf	3,5	;RP0=0, select bank0
  5587     0624  1303               	bcf	3,6	;RP1=0, select bank0
  5588     0625  00E5               	movwf	_speed
  5589     0626                     l3486:
  5590                           
  5591                           ;dashboard.c: 143:  speed[1] = (adc_val % 10) + '0';
  5592     0626  300A               	movlw	10
  5593     0627  00F2               	movwf	___lwmod@divisor
  5594     0628  3000               	movlw	0
  5595     0629  00F3               	movwf	___lwmod@divisor+1
  5596     062A  085A               	movf	_adc_val+1,w
  5597     062B  00F5               	movwf	___lwmod@dividend+1
  5598     062C  0859               	movf	_adc_val,w
  5599     062D  00F4               	movwf	___lwmod@dividend
  5600     062E  120A  158A  2270  120A  118A  	fcall	___lwmod
  5601     0633  0872               	movf	?___lwmod,w
  5602     0634  3E30               	addlw	48
  5603     0635  1283               	bcf	3,5	;RP0=0, select bank0
  5604     0636  1303               	bcf	3,6	;RP1=0, select bank0
  5605     0637  00E6               	movwf	_speed+1
  5606     0638                     l3488:
  5607                           
  5608                           ;dashboard.c: 144:  speed[2] = '\0';
  5609     0638  01E7               	clrf	_speed+2
  5610     0639                     l3490:
  5611                           
  5612                           ;dashboard.c: 146:  clcd_print(speed, (0xC0 + 14));
  5613     0639  3065               	movlw	(low (_speed| 0))& (0+255)
  5614     063A  00F6               	movwf	clcd_print@str
  5615     063B  3000               	movlw	0
  5616     063C  00F7               	movwf	clcd_print@str+1
  5617     063D  30CE               	movlw	206
  5618     063E  00F8               	movwf	clcd_print@addr
  5619     063F  120A  158A  210F  120A  118A  	fcall	_clcd_print
  5620     0644                     l288:
  5621     0644  0008               	return
  5622     0645                     __end_of_dashboard:
  5623                           
  5624                           	psect	text26
  5625     071A                     __ptext26:	
  5626 ;; *************** function _write_event *****************
  5627 ;; Defined at:
  5628 ;;		line 61 in file "dashboard.c"
  5629 ;; Parameters:    Size  Location     Type
  5630 ;;		None
  5631 ;; Auto vars:     Size  Location     Type
  5632 ;;  i               2    7[COMMON] unsigned int 
  5633 ;; Return value:  Size  Location     Type
  5634 ;;                  1    wreg      void 
  5635 ;; Registers used:
  5636 ;;		wreg, fsr0l, fsr0h, status,2, status,0, pclath, btemp1, cstack
  5637 ;; Tracked objects:
  5638 ;;		On entry : 0/0
  5639 ;;		On exit  : 0/0
  5640 ;;		Unchanged: 0/0
  5641 ;; Data sizes:     COMMON   BANK0   BANK1   BANK3   BANK2
  5642 ;;      Params:         0       0       0       0       0
  5643 ;;      Locals:         2       0       0       0       0
  5644 ;;      Temps:          0       7       0       0       0
  5645 ;;      Totals:         2       7       0       0       0
  5646 ;;Total ram usage:        9 bytes
  5647 ;; Hardware stack levels used: 1
  5648 ;; Hardware stack levels required when called: 3
  5649 ;; This function calls:
  5650 ;;		___lwmod
  5651 ;;		_write_external_eeprom
  5652 ;; This function is called by:
  5653 ;;		_dashboard
  5654 ;; This function uses a non-reentrant model
  5655 ;;
  5656                           
  5657     071A                     _write_event:	
  5658                           ;psect for function _write_event
  5659                           
  5660     071A                     l3226:	
  5661                           ;incstack = 0
  5662                           ; Regs used in _write_event: [wreg-fsr0h+status,2+status,0+pclath+btemp1+cstack]
  5663                           
  5664                           
  5665                           ;dashboard.c: 63:  static unsigned int address = 0x00;;dashboard.c: 69:  if(address == 1
      +                          00) address = 0x00;
  5666     071A  3064               	movlw	100
  5667     071B  1283               	bcf	3,5	;RP0=0, select bank0
  5668     071C  1303               	bcf	3,6	;RP1=0, select bank0
  5669     071D  0655               	xorwf	write_event@address,w
  5670     071E  0456               	iorwf	write_event@address+1,w
  5671     071F  1D03               	btfss	3,2
  5672     0720  2F22               	goto	u3581
  5673     0721  2F23               	goto	u3580
  5674     0722                     u3581:
  5675     0722  2F25               	goto	l265
  5676     0723                     u3580:
  5677     0723                     l3228:
  5678     0723  01D5               	clrf	write_event@address
  5679     0724  01D6               	clrf	write_event@address+1
  5680     0725                     l265:
  5681                           
  5682                           ;dashboard.c: 72:  for(unsigned int i = 0; i < 8; i++){
  5683     0725  01F7               	clrf	write_event@i
  5684     0726  01F8               	clrf	write_event@i+1
  5685     0727                     l3234:
  5686                           
  5687                           ;dashboard.c: 73:   if(i == 2 || i == 5) continue;
  5688     0727  3002               	movlw	2
  5689     0728  0677               	xorwf	write_event@i,w
  5690     0729  0478               	iorwf	write_event@i+1,w
  5691     072A  1903               	btfsc	3,2
  5692     072B  2F2D               	goto	u3591
  5693     072C  2F2E               	goto	u3590
  5694     072D                     u3591:
  5695     072D  2F4C               	goto	l3244
  5696     072E                     u3590:
  5697     072E                     l3236:
  5698     072E  3005               	movlw	5
  5699     072F  0677               	xorwf	write_event@i,w
  5700     0730  0478               	iorwf	write_event@i+1,w
  5701     0731  1D03               	btfss	3,2
  5702     0732  2F34               	goto	u3601
  5703     0733  2F35               	goto	u3600
  5704     0734                     u3601:
  5705     0734  2F36               	goto	l3240
  5706     0735                     u3600:
  5707     0735  2F4C               	goto	l3244
  5708     0736                     l3240:
  5709     0736  0877               	movf	write_event@i,w
  5710     0737  3E5C               	addlw	(low (_time| 0))& (0+255)
  5711     0738  0084               	movwf	4
  5712     0739  1383               	bcf	3,7	;select IRP bank0
  5713     073A  0800               	movf	0,w
  5714     073B  00F3               	movwf	write_external_eeprom@data
  5715     073C  1283               	bcf	3,5	;RP0=0, select bank0
  5716     073D  1303               	bcf	3,6	;RP1=0, select bank0
  5717     073E  0855               	movf	write_event@address,w
  5718     073F  120A  158A  213E  120A  118A  	fcall	_write_external_eeprom
  5719     0744                     l3242:
  5720     0744  3001               	movlw	1
  5721     0745  1283               	bcf	3,5	;RP0=0, select bank0
  5722     0746  1303               	bcf	3,6	;RP1=0, select bank0
  5723     0747  07D5               	addwf	write_event@address,f
  5724     0748  1803               	skipnc
  5725     0749  0AD6               	incf	write_event@address+1,f
  5726     074A  3000               	movlw	0
  5727     074B  07D6               	addwf	write_event@address+1,f
  5728     074C                     l3244:
  5729     074C  3001               	movlw	1
  5730     074D  07F7               	addwf	write_event@i,f
  5731     074E  1803               	skipnc
  5732     074F  0AF8               	incf	write_event@i+1,f
  5733     0750  3000               	movlw	0
  5734     0751  07F8               	addwf	write_event@i+1,f
  5735     0752                     l3246:
  5736     0752  3000               	movlw	0
  5737     0753  0278               	subwf	write_event@i+1,w
  5738     0754  3008               	movlw	8
  5739     0755  1903               	skipnz
  5740     0756  0277               	subwf	write_event@i,w
  5741     0757  1C03               	skipc
  5742     0758  2F5A               	goto	u3611
  5743     0759  2F5B               	goto	u3610
  5744     075A                     u3611:
  5745     075A  2F27               	goto	l3234
  5746     075B                     u3610:
  5747     075B                     l3248:
  5748                           
  5749                           ;dashboard.c: 78:  write_external_eeprom(address++, event[pos][0]);
  5750     075B  087A               	movf	_pos,w
  5751     075C  1283               	bcf	3,5	;RP0=0, select bank0
  5752     075D  1303               	bcf	3,6	;RP1=0, select bank0
  5753     075E  00A0               	movwf	??_write_event
  5754     075F  0720               	addwf	??_write_event,w
  5755     0760  3EC0               	addlw	(low (_event| 0))& (0+255)
  5756     0761  0084               	movwf	4
  5757     0762  1383               	bcf	3,7	;select IRP bank1
  5758     0763  0800               	movf	0,w
  5759     0764  00A1               	movwf	??_write_event+1
  5760     0765  0A84               	incf	4,f
  5761     0766  0800               	movf	0,w
  5762     0767  00A2               	movwf	??_write_event+2
  5763     0768  0822               	movf	??_write_event+2,w
  5764     0769  00FF               	movwf	btemp1
  5765     076A  0821               	movf	??_write_event+1,w
  5766     076B  0084               	movwf	4
  5767     076C  160A  118A  2000  120A  118A  	fcall	stringtab
  5768     0771  00F3               	movwf	write_external_eeprom@data
  5769     0772  0855               	movf	write_event@address,w
  5770     0773  120A  158A  213E  120A  118A  	fcall	_write_external_eeprom
  5771     0778                     l3250:
  5772     0778  3001               	movlw	1
  5773     0779  1283               	bcf	3,5	;RP0=0, select bank0
  5774     077A  1303               	bcf	3,6	;RP1=0, select bank0
  5775     077B  07D5               	addwf	write_event@address,f
  5776     077C  1803               	skipnc
  5777     077D  0AD6               	incf	write_event@address+1,f
  5778     077E  3000               	movlw	0
  5779     077F  07D6               	addwf	write_event@address+1,f
  5780     0780                     l3252:
  5781                           
  5782                           ;dashboard.c: 79:  write_external_eeprom(address++, event[pos][1]);
  5783     0780  3001               	movlw	1
  5784     0781  00A0               	movwf	??_write_event
  5785     0782  087A               	movf	_pos,w
  5786     0783  00A1               	movwf	??_write_event+1
  5787     0784  0721               	addwf	??_write_event+1,w
  5788     0785  3EC0               	addlw	(low (_event| 0))& (0+255)
  5789     0786  0084               	movwf	4
  5790     0787  1383               	bcf	3,7	;select IRP bank1
  5791     0788  0800               	movf	0,w
  5792     0789  00A2               	movwf	??_write_event+2
  5793     078A  0A84               	incf	4,f
  5794     078B  0800               	movf	0,w
  5795     078C  00A3               	movwf	??_write_event+3
  5796     078D  0820               	movf	??_write_event,w
  5797     078E  0722               	addwf	??_write_event+2,w
  5798     078F  00A5               	movwf	??_write_event+5
  5799     0790  0823               	movf	??_write_event+3,w
  5800     0791  00A4               	movwf	??_write_event+4
  5801     0792  1803               	skipnc
  5802     0793  0AA4               	incf	??_write_event+4,f
  5803     0794  1BA0               	btfsc	??_write_event,7
  5804     0795  03A4               	decf	??_write_event+4,f
  5805     0796  0824               	movf	??_write_event+4,w
  5806     0797  00A6               	movwf	??_write_event+6
  5807     0798  0826               	movf	??_write_event+6,w
  5808     0799  00FF               	movwf	btemp1
  5809     079A  0825               	movf	??_write_event+5,w
  5810     079B  0084               	movwf	4
  5811     079C  160A  118A  2000  120A  118A  	fcall	stringtab
  5812     07A1  00F3               	movwf	write_external_eeprom@data
  5813     07A2  0855               	movf	write_event@address,w
  5814     07A3  120A  158A  213E  120A  118A  	fcall	_write_external_eeprom
  5815     07A8  3001               	movlw	1
  5816     07A9  1283               	bcf	3,5	;RP0=0, select bank0
  5817     07AA  1303               	bcf	3,6	;RP1=0, select bank0
  5818     07AB  07D5               	addwf	write_event@address,f
  5819     07AC  1803               	skipnc
  5820     07AD  0AD6               	incf	write_event@address+1,f
  5821     07AE  3000               	movlw	0
  5822     07AF  07D6               	addwf	write_event@address+1,f
  5823     07B0                     l3254:
  5824                           
  5825                           ;dashboard.c: 82:  write_external_eeprom(address++, speed[0]);
  5826     07B0  0865               	movf	_speed,w
  5827     07B1  00F3               	movwf	write_external_eeprom@data
  5828     07B2  0855               	movf	write_event@address,w
  5829     07B3  120A  158A  213E  120A  118A  	fcall	_write_external_eeprom
  5830     07B8                     l3256:
  5831     07B8  3001               	movlw	1
  5832     07B9  1283               	bcf	3,5	;RP0=0, select bank0
  5833     07BA  1303               	bcf	3,6	;RP1=0, select bank0
  5834     07BB  07D5               	addwf	write_event@address,f
  5835     07BC  1803               	skipnc
  5836     07BD  0AD6               	incf	write_event@address+1,f
  5837     07BE  3000               	movlw	0
  5838     07BF  07D6               	addwf	write_event@address+1,f
  5839                           
  5840                           ;dashboard.c: 83:  write_external_eeprom(address++, speed[1]);
  5841     07C0  0866               	movf	_speed+1,w
  5842     07C1  00F3               	movwf	write_external_eeprom@data
  5843     07C2  0855               	movf	write_event@address,w
  5844     07C3  120A  158A  213E  120A  118A  	fcall	_write_external_eeprom
  5845     07C8                     l3258:
  5846     07C8  3001               	movlw	1
  5847     07C9  1283               	bcf	3,5	;RP0=0, select bank0
  5848     07CA  1303               	bcf	3,6	;RP1=0, select bank0
  5849     07CB  07D5               	addwf	write_event@address,f
  5850     07CC  1803               	skipnc
  5851     07CD  0AD6               	incf	write_event@address+1,f
  5852     07CE  3000               	movlw	0
  5853     07CF  07D6               	addwf	write_event@address+1,f
  5854     07D0                     l3260:
  5855                           
  5856                           ;dashboard.c: 85:  event_count = (event_count + 1) % 10;
  5857     07D0  300A               	movlw	10
  5858     07D1  00F2               	movwf	___lwmod@divisor
  5859     07D2  3000               	movlw	0
  5860     07D3  00F3               	movwf	___lwmod@divisor+1
  5861     07D4  0857               	movf	_event_count,w
  5862     07D5  3E01               	addlw	1
  5863     07D6  00F4               	movwf	___lwmod@dividend
  5864     07D7  0858               	movf	_event_count+1,w
  5865     07D8  1803               	skipnc
  5866     07D9  3E01               	addlw	1
  5867     07DA  3E00               	addlw	0
  5868     07DB  00F5               	movwf	___lwmod@dividend+1
  5869     07DC  120A  158A  2270  120A  118A  	fcall	___lwmod
  5870     07E1  0873               	movf	?___lwmod+1,w
  5871     07E2  1283               	bcf	3,5	;RP0=0, select bank0
  5872     07E3  1303               	bcf	3,6	;RP1=0, select bank0
  5873     07E4  00D8               	movwf	_event_count+1
  5874     07E5  0872               	movf	?___lwmod,w
  5875     07E6  00D7               	movwf	_event_count
  5876     07E7                     l273:
  5877     07E7  0008               	return
  5878     07E8                     __end_of_write_event:
  5879                           
  5880                           	psect	text27
  5881     093E                     __ptext27:	
  5882 ;; *************** function _write_external_eeprom *****************
  5883 ;; Defined at:
  5884 ;;		line 6 in file "external_eeprom.c"
  5885 ;; Parameters:    Size  Location     Type
  5886 ;;  address         1    wreg     unsigned char 
  5887 ;;  data            1    3[COMMON] unsigned char 
  5888 ;; Auto vars:     Size  Location     Type
  5889 ;;  address         1    4[COMMON] unsigned char 
  5890 ;;  wait            2    5[COMMON] unsigned int 
  5891 ;; Return value:  Size  Location     Type
  5892 ;;                  1    wreg      void 
  5893 ;; Registers used:
  5894 ;;		wreg, status,2, status,0, pclath, cstack
  5895 ;; Tracked objects:
  5896 ;;		On entry : 0/0
  5897 ;;		On exit  : 0/0
  5898 ;;		Unchanged: 0/0
  5899 ;; Data sizes:     COMMON   BANK0   BANK1   BANK3   BANK2
  5900 ;;      Params:         1       0       0       0       0
  5901 ;;      Locals:         3       0       0       0       0
  5902 ;;      Temps:          0       0       0       0       0
  5903 ;;      Totals:         4       0       0       0       0
  5904 ;;Total ram usage:        4 bytes
  5905 ;; Hardware stack levels used: 1
  5906 ;; Hardware stack levels required when called: 2
  5907 ;; This function calls:
  5908 ;;		_i2c_start
  5909 ;;		_i2c_stop
  5910 ;;		_i2c_write
  5911 ;; This function is called by:
  5912 ;;		_write_event
  5913 ;; This function uses a non-reentrant model
  5914 ;;
  5915                           
  5916     093E                     _write_external_eeprom:	
  5917                           ;psect for function _write_external_eeprom
  5918                           
  5919                           
  5920                           ;incstack = 0
  5921                           ; Regs used in _write_external_eeprom: [wreg+status,2+status,0+pclath+cstack]
  5922                           ;write_external_eeprom@address stored from wreg
  5923     093E  00F4               	movwf	write_external_eeprom@address
  5924     093F                     l3108:
  5925                           
  5926                           ;external_eeprom.c: 6: void write_external_eeprom(unsigned char address, unsigned char d
      +                          ata);external_eeprom.c: 7: {;external_eeprom.c: 8:     i2c_start();
  5927     093F  160A  118A  26C4  120A  158A  	fcall	_i2c_start
  5928                           
  5929                           ;external_eeprom.c: 9:     i2c_write(0xA0);
  5930     0944  30A0               	movlw	160
  5931     0945  160A  118A  26E2  120A  158A  	fcall	_i2c_write
  5932                           
  5933                           ;external_eeprom.c: 10:     i2c_write(address);
  5934     094A  0874               	movf	write_external_eeprom@address,w
  5935     094B  160A  118A  26E2  120A  158A  	fcall	_i2c_write
  5936                           
  5937                           ;external_eeprom.c: 11:     i2c_write(data);
  5938     0950  0873               	movf	write_external_eeprom@data,w
  5939     0951  160A  118A  26E2  120A  158A  	fcall	_i2c_write
  5940                           
  5941                           ;external_eeprom.c: 12:     i2c_stop();
  5942     0956  120A  158A  2000  120A  158A  	fcall	_i2c_stop
  5943     095B                     l3110:
  5944                           
  5945                           ;external_eeprom.c: 13:     for (unsigned int wait = 3000;wait--;);
  5946     095B  30B8               	movlw	184
  5947     095C  00F5               	movwf	write_external_eeprom@wait
  5948     095D  300B               	movlw	11
  5949     095E  00F6               	movwf	write_external_eeprom@wait+1
  5950     095F                     l3112:
  5951     095F  3001               	movlw	1
  5952     0960  02F5               	subwf	write_external_eeprom@wait,f
  5953     0961  3000               	movlw	0
  5954     0962  1C03               	skipc
  5955     0963  03F6               	decf	write_external_eeprom@wait+1,f
  5956     0964  02F6               	subwf	write_external_eeprom@wait+1,f
  5957     0965  0A75               	incf	write_external_eeprom@wait,w
  5958     0966  1D03               	skipz
  5959     0967  296C               	goto	u3351
  5960     0968  0A76               	incf	write_external_eeprom@wait+1,w
  5961     0969  1D03               	btfss	3,2
  5962     096A  296C               	goto	u3351
  5963     096B  296D               	goto	u3350
  5964     096C                     u3351:
  5965     096C  295F               	goto	l3112
  5966     096D                     u3350:
  5967     096D                     l400:
  5968     096D  0008               	return
  5969     096E                     __end_of_write_external_eeprom:
  5970                           
  5971                           	psect	text28
  5972     175E                     __ptext28:	
  5973 ;; *************** function _read_adc *****************
  5974 ;; Defined at:
  5975 ;;		line 13 in file "adc.c"
  5976 ;; Parameters:    Size  Location     Type
  5977 ;;  channel         1    wreg     unsigned char 
  5978 ;; Auto vars:     Size  Location     Type
  5979 ;;  channel         1    7[COMMON] unsigned char 
  5980 ;;  adc_reg_val     2    5[COMMON] unsigned short 
  5981 ;; Return value:  Size  Location     Type
  5982 ;;                  2    2[COMMON] unsigned short 
  5983 ;; Registers used:
  5984 ;;		wreg, status,2, status,0
  5985 ;; Tracked objects:
  5986 ;;		On entry : 0/0
  5987 ;;		On exit  : 0/0
  5988 ;;		Unchanged: 0/0
  5989 ;; Data sizes:     COMMON   BANK0   BANK1   BANK3   BANK2
  5990 ;;      Params:         2       0       0       0       0
  5991 ;;      Locals:         3       0       0       0       0
  5992 ;;      Temps:          1       0       0       0       0
  5993 ;;      Totals:         6       0       0       0       0
  5994 ;;Total ram usage:        6 bytes
  5995 ;; Hardware stack levels used: 1
  5996 ;; Hardware stack levels required when called: 1
  5997 ;; This function calls:
  5998 ;;		Nothing
  5999 ;; This function is called by:
  6000 ;;		_dashboard
  6001 ;; This function uses a non-reentrant model
  6002 ;;
  6003                           
  6004     175E                     _read_adc:	
  6005                           ;psect for function _read_adc
  6006                           
  6007                           
  6008                           ;incstack = 0
  6009                           ; Regs used in _read_adc: [wreg+status,2+status,0]
  6010                           ;read_adc@channel stored from wreg
  6011     175E  00F7               	movwf	read_adc@channel
  6012     175F                     l2366:
  6013                           
  6014                           ;adc.c: 13: unsigned short read_adc(unsigned char channel);adc.c: 14: {;adc.c: 15:     u
      +                          nsigned short adc_reg_val;;adc.c: 18:     ADCON0 = (ADCON0 & 0xC7) | (channel << 3);
  6015     175F  0877               	movf	read_adc@channel,w
  6016     1760  00F4               	movwf	??_read_adc
  6017     1761  3003               	movlw	3
  6018     1762                     u2185:
  6019     1762  1003               	clrc
  6020     1763  0DF4               	rlf	??_read_adc,f
  6021     1764  3EFF               	addlw	-1
  6022     1765  1D03               	skipz
  6023     1766  2F62               	goto	u2185
  6024     1767  1283               	bcf	3,5	;RP0=0, select bank0
  6025     1768  1303               	bcf	3,6	;RP1=0, select bank0
  6026     1769  081F               	movf	31,w	;volatile
  6027     176A  39C7               	andlw	199
  6028     176B  0474               	iorwf	??_read_adc,w
  6029     176C  009F               	movwf	31	;volatile
  6030     176D                     l2368:
  6031                           
  6032                           ;adc.c: 21:     GO = 1;
  6033     176D  151F               	bsf	31,2	;volatile
  6034     176E                     l200:	
  6035                           ;adc.c: 23:     while (nDONE);
  6036                           
  6037     176E  191F               	btfsc	31,2	;volatile
  6038     176F  2F71               	goto	u2191
  6039     1770  2F72               	goto	u2190
  6040     1771                     u2191:
  6041     1771  2F6E               	goto	l200
  6042     1772                     u2190:
  6043     1772                     l2370:
  6044                           
  6045                           ;adc.c: 25:     adc_reg_val = (ADRESH << 8) | ADRESL;
  6046     1772  081E               	movf	30,w	;volatile
  6047     1773  00F6               	movwf	read_adc@adc_reg_val+1
  6048     1774  1683               	bsf	3,5	;RP0=1, select bank1
  6049     1775  1303               	bcf	3,6	;RP1=0, select bank1
  6050     1776  081E               	movf	30,w	;volatile
  6051     1777  00F5               	movwf	read_adc@adc_reg_val
  6052                           
  6053                           ;adc.c: 27:     return adc_reg_val;
  6054     1778  0876               	movf	read_adc@adc_reg_val+1,w
  6055     1779  00F3               	movwf	?_read_adc+1
  6056     177A  0875               	movf	read_adc@adc_reg_val,w
  6057     177B  00F2               	movwf	?_read_adc
  6058     177C                     l203:
  6059     177C  0008               	return
  6060     177D                     __end_of_read_adc:
  6061                           
  6062                           	psect	text29
  6063     179C                     __ptext29:	
  6064 ;; *************** function _get_time *****************
  6065 ;; Defined at:
  6066 ;;		line 41 in file "ds1307.c"
  6067 ;; Parameters:    Size  Location     Type
  6068 ;;  clock_reg       1    6[COMMON] PTR unsigned char 
  6069 ;;		 -> clock_reg(3), 
  6070 ;; Auto vars:     Size  Location     Type
  6071 ;;		None
  6072 ;; Return value:  Size  Location     Type
  6073 ;;                  1    wreg      void 
  6074 ;; Registers used:
  6075 ;;		wreg, fsr0l, fsr0h, status,2, status,0, pclath, cstack
  6076 ;; Tracked objects:
  6077 ;;		On entry : 0/0
  6078 ;;		On exit  : 0/0
  6079 ;;		Unchanged: 0/0
  6080 ;; Data sizes:     COMMON   BANK0   BANK1   BANK3   BANK2
  6081 ;;      Params:         1       0       0       0       0
  6082 ;;      Locals:         0       0       0       0       0
  6083 ;;      Temps:          0       0       0       0       0
  6084 ;;      Totals:         1       0       0       0       0
  6085 ;;Total ram usage:        1 bytes
  6086 ;; Hardware stack levels used: 1
  6087 ;; Hardware stack levels required when called: 5
  6088 ;; This function calls:
  6089 ;;		_read_ds1307
  6090 ;; This function is called by:
  6091 ;;		_dashboard
  6092 ;; This function uses a non-reentrant model
  6093 ;;
  6094                           
  6095     179C                     _get_time:	
  6096                           ;psect for function _get_time
  6097                           
  6098     179C                     l3214:	
  6099                           ;incstack = 0
  6100                           ; Regs used in _get_time: [wreg-fsr0h+status,2+status,0+pclath+cstack]
  6101                           
  6102                           
  6103                           ;ds1307.c: 41: void get_time(unsigned char *clock_reg);ds1307.c: 42: {;ds1307.c: 43:    
      +                           clock_reg[0] = read_ds1307(0x02);
  6104     179C  0876               	movf	get_time@clock_reg,w
  6105     179D  0084               	movwf	4
  6106     179E  3002               	movlw	2
  6107     179F  120A  158A  20B9  160A  118A  	fcall	_read_ds1307
  6108     17A4  1383               	bcf	3,7	;select IRP bank0
  6109     17A5  0080               	movwf	0
  6110                           
  6111                           ;ds1307.c: 44:     clock_reg[1] = read_ds1307(0x01);
  6112     17A6  0A76               	incf	get_time@clock_reg,w
  6113     17A7  0084               	movwf	4
  6114     17A8  3001               	movlw	1
  6115     17A9  120A  158A  20B9  160A  118A  	fcall	_read_ds1307
  6116     17AE  1383               	bcf	3,7	;select IRP bank0
  6117     17AF  0080               	movwf	0
  6118                           
  6119                           ;ds1307.c: 45:     clock_reg[2] = read_ds1307(0x00);
  6120     17B0  0876               	movf	get_time@clock_reg,w
  6121     17B1  3E02               	addlw	2
  6122     17B2  0084               	movwf	4
  6123     17B3  3000               	movlw	0
  6124     17B4  120A  158A  20B9  160A  118A  	fcall	_read_ds1307
  6125     17B9  1383               	bcf	3,7	;select IRP bank0
  6126     17BA  0080               	movwf	0
  6127     17BB                     l177:
  6128     17BB  0008               	return
  6129     17BC                     __end_of_get_time:
  6130                           
  6131                           	psect	text30
  6132     08B9                     __ptext30:	
  6133 ;; *************** function _read_ds1307 *****************
  6134 ;; Defined at:
  6135 ;;		line 17 in file "ds1307.c"
  6136 ;; Parameters:    Size  Location     Type
  6137 ;;  addr            1    wreg     unsigned char 
  6138 ;; Auto vars:     Size  Location     Type
  6139 ;;  addr            1    4[COMMON] unsigned char 
  6140 ;;  data            1    5[COMMON] unsigned char 
  6141 ;; Return value:  Size  Location     Type
  6142 ;;                  1    wreg      unsigned char 
  6143 ;; Registers used:
  6144 ;;		wreg, status,2, status,0, pclath, cstack
  6145 ;; Tracked objects:
  6146 ;;		On entry : 0/0
  6147 ;;		On exit  : 0/0
  6148 ;;		Unchanged: 0/0
  6149 ;; Data sizes:     COMMON   BANK0   BANK1   BANK3   BANK2
  6150 ;;      Params:         0       0       0       0       0
  6151 ;;      Locals:         2       0       0       0       0
  6152 ;;      Temps:          0       0       0       0       0
  6153 ;;      Totals:         2       0       0       0       0
  6154 ;;Total ram usage:        2 bytes
  6155 ;; Hardware stack levels used: 1
  6156 ;; Hardware stack levels required when called: 1
  6157 ;; This function calls:
  6158 ;;		_i2c_read
  6159 ;;		_i2c_rep_start
  6160 ;;		_i2c_start
  6161 ;;		_i2c_stop
  6162 ;;		_i2c_write
  6163 ;; This function is called by:
  6164 ;;		_init_ds1307
  6165 ;;		_get_time
  6166 ;; This function uses a non-reentrant model
  6167 ;;
  6168                           
  6169     08B9                     _read_ds1307:	
  6170                           ;psect for function _read_ds1307
  6171                           
  6172                           
  6173                           ;incstack = 0
  6174                           ; Regs used in _read_ds1307: [wreg+status,2+status,0+pclath+cstack]
  6175                           ;read_ds1307@addr stored from wreg
  6176     08B9  00F4               	movwf	read_ds1307@addr
  6177     08BA                     l3100:
  6178                           
  6179                           ;ds1307.c: 17: unsigned char read_ds1307(unsigned char addr);ds1307.c: 18: {;ds1307.c: 1
      +                          9:     unsigned char data;;ds1307.c: 21:     i2c_start();
  6180     08BA  160A  118A  26C4  120A  158A  	fcall	_i2c_start
  6181                           
  6182                           ;ds1307.c: 22:     i2c_write(0b11010000);
  6183     08BF  30D0               	movlw	208
  6184     08C0  160A  118A  26E2  120A  158A  	fcall	_i2c_write
  6185                           
  6186                           ;ds1307.c: 23:     i2c_write(addr);
  6187     08C5  0874               	movf	read_ds1307@addr,w
  6188     08C6  160A  118A  26E2  120A  158A  	fcall	_i2c_write
  6189                           
  6190                           ;ds1307.c: 24:     i2c_rep_start();
  6191     08CB  160A  118A  26D7  120A  158A  	fcall	_i2c_rep_start
  6192                           
  6193                           ;ds1307.c: 25:     i2c_write(0b11010001);
  6194     08D0  30D1               	movlw	209
  6195     08D1  160A  118A  26E2  120A  158A  	fcall	_i2c_write
  6196                           
  6197                           ;ds1307.c: 26:     data = i2c_read(0);
  6198     08D6  3000               	movlw	0
  6199     08D7  160A  118A  27BC  120A  158A  	fcall	_i2c_read
  6200     08DC  00F5               	movwf	read_ds1307@data
  6201                           
  6202                           ;ds1307.c: 27:     i2c_stop();
  6203     08DD  120A  158A  2000  120A  158A  	fcall	_i2c_stop
  6204     08E2                     l3102:
  6205                           
  6206                           ;ds1307.c: 29:     return data;
  6207     08E2  0875               	movf	read_ds1307@data,w
  6208     08E3                     l171:
  6209     08E3  0008               	return
  6210     08E4                     __end_of_read_ds1307:
  6211                           
  6212                           	psect	text31
  6213     16E2                     __ptext31:	
  6214 ;; *************** function _i2c_write *****************
  6215 ;; Defined at:
  6216 ;;		line 65 in file "i2c.c"
  6217 ;; Parameters:    Size  Location     Type
  6218 ;;  data            1    wreg     unsigned char 
  6219 ;; Auto vars:     Size  Location     Type
  6220 ;;  data            1    2[COMMON] unsigned char 
  6221 ;; Return value:  Size  Location     Type
  6222 ;;                  2  146[None  ] int 
  6223 ;; Registers used:
  6224 ;;		wreg, status,2, status,0, pclath, cstack
  6225 ;; Tracked objects:
  6226 ;;		On entry : 0/0
  6227 ;;		On exit  : 0/0
  6228 ;;		Unchanged: 0/0
  6229 ;; Data sizes:     COMMON   BANK0   BANK1   BANK3   BANK2
  6230 ;;      Params:         0       0       0       0       0
  6231 ;;      Locals:         1       0       0       0       0
  6232 ;;      Temps:          0       0       0       0       0
  6233 ;;      Totals:         1       0       0       0       0
  6234 ;;Total ram usage:        1 bytes
  6235 ;; Hardware stack levels used: 1
  6236 ;; Hardware stack levels required when called: 1
  6237 ;; This function calls:
  6238 ;;		_i2c_wait_for_idle
  6239 ;; This function is called by:
  6240 ;;		_read_ds1307
  6241 ;;		_write_ds1307
  6242 ;;		_write_external_eeprom
  6243 ;;		_read_external_eeprom
  6244 ;; This function uses a non-reentrant model
  6245 ;;
  6246                           
  6247     16E2                     _i2c_write:	
  6248                           ;psect for function _i2c_write
  6249                           
  6250                           
  6251                           ;incstack = 0
  6252                           ; Regs used in _i2c_write: [wreg+status,2+status,0+pclath+cstack]
  6253                           ;i2c_write@data stored from wreg
  6254     16E2  00F2               	movwf	i2c_write@data
  6255     16E3                     l3016:
  6256                           
  6257                           ;i2c.c: 65: int i2c_write(unsigned char data);i2c.c: 66: {;i2c.c: 67:     i2c_wait_for_i
      +                          dle();
  6258     16E3  160A  118A  2703  160A  118A  	fcall	_i2c_wait_for_idle
  6259     16E8                     l3018:
  6260                           
  6261                           ;i2c.c: 68:     SSPBUF = data;
  6262     16E8  0872               	movf	i2c_write@data,w
  6263     16E9  1283               	bcf	3,5	;RP0=0, select bank0
  6264     16EA  1303               	bcf	3,6	;RP1=0, select bank0
  6265     16EB  0093               	movwf	19	;volatile
  6266     16EC                     l3020:
  6267     16EC                     l147:	
  6268                           ;i2c.c: 70:     return !ACKSTAT;;	Return value of _i2c_write is never used
  6269                           
  6270     16EC  0008               	return
  6271     16ED                     __end_of_i2c_write:
  6272                           
  6273                           	psect	text32
  6274     16D7                     __ptext32:	
  6275 ;; *************** function _i2c_rep_start *****************
  6276 ;; Defined at:
  6277 ;;		line 28 in file "i2c.c"
  6278 ;; Parameters:    Size  Location     Type
  6279 ;;		None
  6280 ;; Auto vars:     Size  Location     Type
  6281 ;;		None
  6282 ;; Return value:  Size  Location     Type
  6283 ;;                  1    wreg      void 
  6284 ;; Registers used:
  6285 ;;		wreg, status,2, status,0, pclath, cstack
  6286 ;; Tracked objects:
  6287 ;;		On entry : 0/0
  6288 ;;		On exit  : 0/0
  6289 ;;		Unchanged: 0/0
  6290 ;; Data sizes:     COMMON   BANK0   BANK1   BANK3   BANK2
  6291 ;;      Params:         0       0       0       0       0
  6292 ;;      Locals:         0       0       0       0       0
  6293 ;;      Temps:          0       0       0       0       0
  6294 ;;      Totals:         0       0       0       0       0
  6295 ;;Total ram usage:        0 bytes
  6296 ;; Hardware stack levels used: 1
  6297 ;; Hardware stack levels required when called: 1
  6298 ;; This function calls:
  6299 ;;		_i2c_start
  6300 ;;		_i2c_stop
  6301 ;; This function is called by:
  6302 ;;		_read_ds1307
  6303 ;;		_read_external_eeprom
  6304 ;; This function uses a non-reentrant model
  6305 ;;
  6306                           
  6307     16D7                     _i2c_rep_start:	
  6308                           ;psect for function _i2c_rep_start
  6309                           
  6310     16D7                     l3000:	
  6311                           ;incstack = 0
  6312                           ; Regs used in _i2c_rep_start: [wreg+status,2+status,0+pclath+cstack]
  6313                           
  6314                           
  6315                           ;i2c.c: 30:     i2c_stop();
  6316     16D7  120A  158A  2000  160A  118A  	fcall	_i2c_stop
  6317                           
  6318                           ;i2c.c: 31:     i2c_start();
  6319     16DC  160A  118A  26C4  160A  118A  	fcall	_i2c_start
  6320     16E1                     l136:
  6321     16E1  0008               	return
  6322     16E2                     __end_of_i2c_rep_start:
  6323                           
  6324                           	psect	text33
  6325     0800                     __ptext33:	
  6326 ;; *************** function _i2c_stop *****************
  6327 ;; Defined at:
  6328 ;;		line 35 in file "i2c.c"
  6329 ;; Parameters:    Size  Location     Type
  6330 ;;		None
  6331 ;; Auto vars:     Size  Location     Type
  6332 ;;		None
  6333 ;; Return value:  Size  Location     Type
  6334 ;;                  1    wreg      void 
  6335 ;; Registers used:
  6336 ;;		wreg, status,2, status,0, pclath, cstack
  6337 ;; Tracked objects:
  6338 ;;		On entry : 0/0
  6339 ;;		On exit  : 0/0
  6340 ;;		Unchanged: 0/0
  6341 ;; Data sizes:     COMMON   BANK0   BANK1   BANK3   BANK2
  6342 ;;      Params:         0       0       0       0       0
  6343 ;;      Locals:         0       0       0       0       0
  6344 ;;      Temps:          0       0       0       0       0
  6345 ;;      Totals:         0       0       0       0       0
  6346 ;;Total ram usage:        0 bytes
  6347 ;; Hardware stack levels used: 1
  6348 ;; Hardware stack levels required when called: 1
  6349 ;; This function calls:
  6350 ;;		_i2c_wait_for_idle
  6351 ;; This function is called by:
  6352 ;;		_i2c_rep_start
  6353 ;;		_read_ds1307
  6354 ;;		_write_ds1307
  6355 ;;		_write_external_eeprom
  6356 ;;		_read_external_eeprom
  6357 ;; This function uses a non-reentrant model
  6358 ;;
  6359                           
  6360     0800                     _i2c_stop:	
  6361                           ;psect for function _i2c_stop
  6362                           
  6363     0800                     l2996:	
  6364                           ;incstack = 0
  6365                           ; Regs used in _i2c_stop: [wreg+status,2+status,0+pclath+cstack]
  6366                           
  6367                           
  6368                           ;i2c.c: 37:     i2c_wait_for_idle();
  6369     0800  160A  118A  2703  120A  158A  	fcall	_i2c_wait_for_idle
  6370     0805                     l2998:
  6371                           
  6372                           ;i2c.c: 38:     PEN = 1;
  6373     0805  1683               	bsf	3,5	;RP0=1, select bank1
  6374     0806  1303               	bcf	3,6	;RP1=0, select bank1
  6375     0807  1511               	bsf	17,2	;volatile
  6376     0808                     l139:
  6377     0808  0008               	return
  6378     0809                     __end_of_i2c_stop:
  6379                           
  6380                           	psect	text34
  6381     16C4                     __ptext34:	
  6382 ;; *************** function _i2c_start *****************
  6383 ;; Defined at:
  6384 ;;		line 22 in file "i2c.c"
  6385 ;; Parameters:    Size  Location     Type
  6386 ;;		None
  6387 ;; Auto vars:     Size  Location     Type
  6388 ;;		None
  6389 ;; Return value:  Size  Location     Type
  6390 ;;                  1    wreg      void 
  6391 ;; Registers used:
  6392 ;;		wreg, status,2, status,0, pclath, cstack
  6393 ;; Tracked objects:
  6394 ;;		On entry : 0/0
  6395 ;;		On exit  : 0/0
  6396 ;;		Unchanged: 0/0
  6397 ;; Data sizes:     COMMON   BANK0   BANK1   BANK3   BANK2
  6398 ;;      Params:         0       0       0       0       0
  6399 ;;      Locals:         0       0       0       0       0
  6400 ;;      Temps:          0       0       0       0       0
  6401 ;;      Totals:         0       0       0       0       0
  6402 ;;Total ram usage:        0 bytes
  6403 ;; Hardware stack levels used: 1
  6404 ;; Hardware stack levels required when called: 1
  6405 ;; This function calls:
  6406 ;;		_i2c_wait_for_idle
  6407 ;; This function is called by:
  6408 ;;		_i2c_rep_start
  6409 ;;		_read_ds1307
  6410 ;;		_write_ds1307
  6411 ;;		_write_external_eeprom
  6412 ;;		_read_external_eeprom
  6413 ;; This function uses a non-reentrant model
  6414 ;;
  6415                           
  6416     16C4                     _i2c_start:	
  6417                           ;psect for function _i2c_start
  6418                           
  6419     16C4                     l2992:	
  6420                           ;incstack = 0
  6421                           ; Regs used in _i2c_start: [wreg+status,2+status,0+pclath+cstack]
  6422                           
  6423                           
  6424                           ;i2c.c: 24:     i2c_wait_for_idle();
  6425     16C4  160A  118A  2703  160A  118A  	fcall	_i2c_wait_for_idle
  6426     16C9                     l2994:
  6427                           
  6428                           ;i2c.c: 25:     SEN = 1;
  6429     16C9  1683               	bsf	3,5	;RP0=1, select bank1
  6430     16CA  1303               	bcf	3,6	;RP1=0, select bank1
  6431     16CB  1411               	bsf	17,0	;volatile
  6432     16CC                     l133:
  6433     16CC  0008               	return
  6434     16CD                     __end_of_i2c_start:
  6435                           
  6436                           	psect	text35
  6437     17BC                     __ptext35:	
  6438 ;; *************** function _i2c_read *****************
  6439 ;; Defined at:
  6440 ;;		line 41 in file "i2c.c"
  6441 ;; Parameters:    Size  Location     Type
  6442 ;;  ack             1    wreg     unsigned char 
  6443 ;; Auto vars:     Size  Location     Type
  6444 ;;  ack             1    2[COMMON] unsigned char 
  6445 ;;  data            1    3[COMMON] unsigned char 
  6446 ;; Return value:  Size  Location     Type
  6447 ;;                  1    wreg      unsigned char 
  6448 ;; Registers used:
  6449 ;;		wreg, status,2, status,0, pclath, cstack
  6450 ;; Tracked objects:
  6451 ;;		On entry : 0/0
  6452 ;;		On exit  : 0/0
  6453 ;;		Unchanged: 0/0
  6454 ;; Data sizes:     COMMON   BANK0   BANK1   BANK3   BANK2
  6455 ;;      Params:         0       0       0       0       0
  6456 ;;      Locals:         2       0       0       0       0
  6457 ;;      Temps:          0       0       0       0       0
  6458 ;;      Totals:         2       0       0       0       0
  6459 ;;Total ram usage:        2 bytes
  6460 ;; Hardware stack levels used: 1
  6461 ;; Hardware stack levels required when called: 1
  6462 ;; This function calls:
  6463 ;;		_i2c_wait_for_idle
  6464 ;; This function is called by:
  6465 ;;		_read_ds1307
  6466 ;;		_read_external_eeprom
  6467 ;; This function uses a non-reentrant model
  6468 ;;
  6469                           
  6470     17BC                     _i2c_read:	
  6471                           ;psect for function _i2c_read
  6472                           
  6473                           
  6474                           ;incstack = 0
  6475                           ; Regs used in _i2c_read: [wreg+status,2+status,0+pclath+cstack]
  6476                           ;i2c_read@ack stored from wreg
  6477     17BC  00F2               	movwf	i2c_read@ack
  6478     17BD                     l3002:
  6479                           
  6480                           ;i2c.c: 41: unsigned char i2c_read(unsigned char ack);i2c.c: 42: {;i2c.c: 43:     unsign
      +                          ed char data;;i2c.c: 45:     i2c_wait_for_idle();
  6481     17BD  160A  118A  2703  160A  118A  	fcall	_i2c_wait_for_idle
  6482     17C2                     l3004:
  6483                           
  6484                           ;i2c.c: 46:     RCEN = 1;
  6485     17C2  1683               	bsf	3,5	;RP0=1, select bank1
  6486     17C3  1303               	bcf	3,6	;RP1=0, select bank1
  6487     17C4  1591               	bsf	17,3	;volatile
  6488                           
  6489                           ;i2c.c: 48:     i2c_wait_for_idle();
  6490     17C5  160A  118A  2703  160A  118A  	fcall	_i2c_wait_for_idle
  6491     17CA                     l3006:
  6492                           
  6493                           ;i2c.c: 49:     data = SSPBUF;
  6494     17CA  1283               	bcf	3,5	;RP0=0, select bank0
  6495     17CB  1303               	bcf	3,6	;RP1=0, select bank0
  6496     17CC  0813               	movf	19,w	;volatile
  6497     17CD  00F3               	movwf	i2c_read@data
  6498     17CE                     l3008:
  6499                           
  6500                           ;i2c.c: 51:     if (ack == 1)
  6501     17CE  0372               	decf	i2c_read@ack,w
  6502     17CF  1D03               	btfss	3,2
  6503     17D0  2FD2               	goto	u3291
  6504     17D1  2FD3               	goto	u3290
  6505     17D2                     u3291:
  6506     17D2  2FD7               	goto	l142
  6507     17D3                     u3290:
  6508     17D3                     l3010:
  6509                           
  6510                           ;i2c.c: 52:     {;i2c.c: 53:         ACKDT = 1;
  6511     17D3  1683               	bsf	3,5	;RP0=1, select bank1
  6512     17D4  1303               	bcf	3,6	;RP1=0, select bank1
  6513     17D5  1691               	bsf	17,5	;volatile
  6514                           
  6515                           ;i2c.c: 54:     }
  6516     17D6  2FDA               	goto	l143
  6517     17D7                     l142:	
  6518                           ;i2c.c: 55:     else
  6519                           
  6520                           
  6521                           ;i2c.c: 56:     {;i2c.c: 57:         ACKDT = 0;
  6522     17D7  1683               	bsf	3,5	;RP0=1, select bank1
  6523     17D8  1303               	bcf	3,6	;RP1=0, select bank1
  6524     17D9  1291               	bcf	17,5	;volatile
  6525     17DA                     l143:	
  6526                           ;i2c.c: 58:     }
  6527                           
  6528                           
  6529                           ;i2c.c: 60:     ACKEN = 1;
  6530     17DA  1611               	bsf	17,4	;volatile
  6531     17DB                     l3012:
  6532                           
  6533                           ;i2c.c: 62:     return data;
  6534     17DB  0873               	movf	i2c_read@data,w
  6535     17DC                     l144:
  6536     17DC  0008               	return
  6537     17DD                     __end_of_i2c_read:
  6538                           
  6539                           	psect	text36
  6540     1703                     __ptext36:	
  6541 ;; *************** function _i2c_wait_for_idle *****************
  6542 ;; Defined at:
  6543 ;;		line 16 in file "i2c.c"
  6544 ;; Parameters:    Size  Location     Type
  6545 ;;		None
  6546 ;; Auto vars:     Size  Location     Type
  6547 ;;		None
  6548 ;; Return value:  Size  Location     Type
  6549 ;;                  1    wreg      void 
  6550 ;; Registers used:
  6551 ;;		wreg, status,2
  6552 ;; Tracked objects:
  6553 ;;		On entry : 0/0
  6554 ;;		On exit  : 0/0
  6555 ;;		Unchanged: 0/0
  6556 ;; Data sizes:     COMMON   BANK0   BANK1   BANK3   BANK2
  6557 ;;      Params:         0       0       0       0       0
  6558 ;;      Locals:         0       0       0       0       0
  6559 ;;      Temps:          0       0       0       0       0
  6560 ;;      Totals:         0       0       0       0       0
  6561 ;;Total ram usage:        0 bytes
  6562 ;; Hardware stack levels used: 1
  6563 ;; Hardware stack levels required when called: 1
  6564 ;; This function calls:
  6565 ;;		Nothing
  6566 ;; This function is called by:
  6567 ;;		_i2c_start
  6568 ;;		_i2c_stop
  6569 ;;		_i2c_read
  6570 ;;		_i2c_write
  6571 ;; This function uses a non-reentrant model
  6572 ;;
  6573                           
  6574     1703                     _i2c_wait_for_idle:	
  6575                           ;psect for function _i2c_wait_for_idle
  6576                           
  6577     1703                     l2988:	
  6578                           ;incstack = 0
  6579 ;; hardware stack exceeded
  6580                           ; Regs used in _i2c_wait_for_idle: [wreg+status,2]
  6581                           
  6582     1703                     l127:	
  6583                           ;i2c.c: 19:     while (R_nW || (SSPCON2 & 0x1F));
  6584                           
  6585     1703  1683               	bsf	3,5	;RP0=1, select bank1
  6586     1704  1303               	bcf	3,6	;RP1=0, select bank1
  6587     1705  1914               	btfsc	20,2	;volatile
  6588     1706  2F08               	goto	u3271
  6589     1707  2F09               	goto	u3270
  6590     1708                     u3271:
  6591     1708  2F03               	goto	l127
  6592     1709                     u3270:
  6593     1709                     l2990:
  6594     1709  0811               	movf	17,w	;volatile
  6595     170A  391F               	andlw	31
  6596     170B  1D03               	btfss	3,2
  6597     170C  2F0E               	goto	u3281
  6598     170D  2F0F               	goto	u3280
  6599     170E                     u3281:
  6600     170E  2F03               	goto	l127
  6601     170F                     u3280:
  6602     170F                     l130:
  6603     170F  0008               	return
  6604     1710                     __end_of_i2c_wait_for_idle:
  6605                           
  6606                           	psect	text37
  6607     0B23                     __ptext37:	
  6608 ;; *************** function _display_time *****************
  6609 ;; Defined at:
  6610 ;;		line 47 in file "ds1307.c"
  6611 ;; Parameters:    Size  Location     Type
  6612 ;;  clock_reg       1    9[COMMON] PTR unsigned char 
  6613 ;;		 -> clock_reg(3), 
  6614 ;; Auto vars:     Size  Location     Type
  6615 ;;		None
  6616 ;; Return value:  Size  Location     Type
  6617 ;;                  1    wreg      void 
  6618 ;; Registers used:
  6619 ;;		wreg, fsr0l, fsr0h, status,2, status,0, pclath, btemp1, cstack
  6620 ;; Tracked objects:
  6621 ;;		On entry : 0/0
  6622 ;;		On exit  : 0/0
  6623 ;;		Unchanged: 0/0
  6624 ;; Data sizes:     COMMON   BANK0   BANK1   BANK3   BANK2
  6625 ;;      Params:         1       0       0       0       0
  6626 ;;      Locals:         0       0       0       0       0
  6627 ;;      Temps:          0       1       0       0       0
  6628 ;;      Totals:         1       1       0       0       0
  6629 ;;Total ram usage:        2 bytes
  6630 ;; Hardware stack levels used: 1
  6631 ;; Hardware stack levels required when called: 2
  6632 ;; This function calls:
  6633 ;;		_clcd_print
  6634 ;; This function is called by:
  6635 ;;		_dashboard
  6636 ;; This function uses a non-reentrant model
  6637 ;;
  6638                           
  6639     0B23                     _display_time:	
  6640                           ;psect for function _display_time
  6641                           
  6642     0B23                     l3216:	
  6643                           ;incstack = 0
  6644                           ; Regs used in _display_time: [wreg-fsr0h+status,2+status,0+pclath+btemp1+cstack]
  6645                           
  6646                           
  6647                           ;ds1307.c: 47: void display_time(unsigned char *clock_reg);ds1307.c: 48: {;ds1307.c: 55:
      +                               time[0] = ((clock_reg[0] >> 4) & 0x03) + '0';
  6648     0B23  0879               	movf	display_time@clock_reg,w
  6649     0B24  0084               	movwf	4
  6650     0B25  1383               	bcf	3,7	;select IRP bank0
  6651     0B26  0800               	movf	0,w
  6652     0B27  1283               	bcf	3,5	;RP0=0, select bank0
  6653     0B28  1303               	bcf	3,6	;RP1=0, select bank0
  6654     0B29  00A0               	movwf	??_display_time
  6655     0B2A  3004               	movlw	4
  6656     0B2B                     u3555:
  6657     0B2B  1003               	clrc
  6658     0B2C  0CA0               	rrf	??_display_time,f
  6659     0B2D  3EFF               	addlw	-1
  6660     0B2E  1D03               	skipz
  6661     0B2F  2B2B               	goto	u3555
  6662     0B30  0820               	movf	??_display_time,w
  6663     0B31  3903               	andlw	3
  6664     0B32  3E30               	addlw	48
  6665     0B33  00DC               	movwf	_time
  6666                           
  6667                           ;ds1307.c: 56:     time[1] = (clock_reg[0] & 0x0F) + '0';
  6668     0B34  0879               	movf	display_time@clock_reg,w
  6669     0B35  0084               	movwf	4
  6670     0B36  0800               	movf	0,w
  6671     0B37  390F               	andlw	15
  6672     0B38  3E30               	addlw	48
  6673     0B39  00DD               	movwf	_time+1
  6674     0B3A                     l3218:
  6675                           
  6676                           ;ds1307.c: 58:     time[2] = ':';
  6677     0B3A  303A               	movlw	58
  6678     0B3B  00DE               	movwf	_time+2
  6679                           
  6680                           ;ds1307.c: 60:     time[3] = ((clock_reg[1] >> 4) & 0x07) + '0';
  6681     0B3C  0A79               	incf	display_time@clock_reg,w
  6682     0B3D  0084               	movwf	4
  6683     0B3E  0800               	movf	0,w
  6684     0B3F  00A0               	movwf	??_display_time
  6685     0B40  3004               	movlw	4
  6686     0B41                     u3565:
  6687     0B41  1003               	clrc
  6688     0B42  0CA0               	rrf	??_display_time,f
  6689     0B43  3EFF               	addlw	-1
  6690     0B44  1D03               	skipz
  6691     0B45  2B41               	goto	u3565
  6692     0B46  0820               	movf	??_display_time,w
  6693     0B47  3907               	andlw	7
  6694     0B48  3E30               	addlw	48
  6695     0B49  00DF               	movwf	_time+3
  6696                           
  6697                           ;ds1307.c: 61:     time[4] = (clock_reg[1] & 0x0F) + '0';
  6698     0B4A  0A79               	incf	display_time@clock_reg,w
  6699     0B4B  0084               	movwf	4
  6700     0B4C  0800               	movf	0,w
  6701     0B4D  390F               	andlw	15
  6702     0B4E  3E30               	addlw	48
  6703     0B4F  00E0               	movwf	_time+4
  6704     0B50                     l3220:
  6705                           
  6706                           ;ds1307.c: 63:     time[5] = ':';
  6707     0B50  303A               	movlw	58
  6708     0B51  00E1               	movwf	_time+5
  6709                           
  6710                           ;ds1307.c: 65:     time[6] = ((clock_reg[2] >> 4) & 0x07) + '0';
  6711     0B52  0879               	movf	display_time@clock_reg,w
  6712     0B53  3E02               	addlw	2
  6713     0B54  0084               	movwf	4
  6714     0B55  0800               	movf	0,w
  6715     0B56  00A0               	movwf	??_display_time
  6716     0B57  3004               	movlw	4
  6717     0B58                     u3575:
  6718     0B58  1003               	clrc
  6719     0B59  0CA0               	rrf	??_display_time,f
  6720     0B5A  3EFF               	addlw	-1
  6721     0B5B  1D03               	skipz
  6722     0B5C  2B58               	goto	u3575
  6723     0B5D  0820               	movf	??_display_time,w
  6724     0B5E  3907               	andlw	7
  6725     0B5F  3E30               	addlw	48
  6726     0B60  00E2               	movwf	_time+6
  6727                           
  6728                           ;ds1307.c: 66:     time[7] = (clock_reg[2] & 0x0F) + '0';
  6729     0B61  0879               	movf	display_time@clock_reg,w
  6730     0B62  3E02               	addlw	2
  6731     0B63  0084               	movwf	4
  6732     0B64  0800               	movf	0,w
  6733     0B65  390F               	andlw	15
  6734     0B66  3E30               	addlw	48
  6735     0B67  00E3               	movwf	_time+7
  6736     0B68                     l3222:
  6737                           
  6738                           ;ds1307.c: 67:     time[8] = '\0';
  6739     0B68  01E4               	clrf	_time+8
  6740     0B69                     l3224:
  6741                           
  6742                           ;ds1307.c: 69:     clcd_print(time, (0xC0 + 0));
  6743     0B69  305C               	movlw	(low (_time| 0))& (0+255)
  6744     0B6A  00F6               	movwf	clcd_print@str
  6745     0B6B  3000               	movlw	0
  6746     0B6C  00F7               	movwf	clcd_print@str+1
  6747     0B6D  30C0               	movlw	192
  6748     0B6E  00F8               	movwf	clcd_print@addr
  6749     0B6F  120A  158A  210F  120A  158A  	fcall	_clcd_print
  6750     0B74                     l180:
  6751     0B74  0008               	return
  6752     0B75                     __end_of_display_time:
  6753                           
  6754                           	psect	text38
  6755     0E84                     __ptext38:	
  6756 ;; *************** function ___xxtofl *****************
  6757 ;; Defined at:
  6758 ;;		line 10 in file "/opt/microchip/xc8/v3.10/pic/sources/c99/common/xxtofl.c"
  6759 ;; Parameters:    Size  Location     Type
  6760 ;;  sign            1    wreg     unsigned char 
  6761 ;;  val             4    2[COMMON] long 
  6762 ;; Auto vars:     Size  Location     Type
  6763 ;;  sign            1    0[BANK0 ] unsigned char 
  6764 ;;  arg             4    2[BANK0 ] unsigned long 
  6765 ;;  exp             1    1[BANK0 ] unsigned char 
  6766 ;; Return value:  Size  Location     Type
  6767 ;;                  4    2[COMMON] unsigned char 
  6768 ;; Registers used:
  6769 ;;		wreg, status,2, status,0
  6770 ;; Tracked objects:
  6771 ;;		On entry : 0/0
  6772 ;;		On exit  : 0/0
  6773 ;;		Unchanged: 0/0
  6774 ;; Data sizes:     COMMON   BANK0   BANK1   BANK3   BANK2
  6775 ;;      Params:         4       0       0       0       0
  6776 ;;      Locals:         0       6       0       0       0
  6777 ;;      Temps:          4       0       0       0       0
  6778 ;;      Totals:         8       6       0       0       0
  6779 ;;Total ram usage:       14 bytes
  6780 ;; Hardware stack levels used: 1
  6781 ;; Hardware stack levels required when called: 1
  6782 ;; This function calls:
  6783 ;;		Nothing
  6784 ;; This function is called by:
  6785 ;;		_dashboard
  6786 ;; This function uses a non-reentrant model
  6787 ;;
  6788                           
  6789     0E84                     ___xxtofl:	
  6790                           ;psect for function ___xxtofl
  6791                           
  6792                           
  6793                           ;incstack = 0
  6794                           ; Regs used in ___xxtofl: [wreg+status,2+status,0]
  6795                           ;___xxtofl@sign stored from wreg
  6796     0E84  1283               	bcf	3,5	;RP0=0, select bank0
  6797     0E85  1303               	bcf	3,6	;RP1=0, select bank0
  6798     0E86  00A0               	movwf	___xxtofl@sign
  6799     0E87                     l2716:
  6800     0E87  0820               	movf	___xxtofl@sign,w
  6801     0E88  1903               	btfsc	3,2
  6802     0E89  2E8B               	goto	u2791
  6803     0E8A  2E8C               	goto	u2790
  6804     0E8B                     u2791:
  6805     0E8B  2EA0               	goto	l2722
  6806     0E8C                     u2790:
  6807     0E8C                     l2718:
  6808     0E8C  1FF5               	btfss	___xxtofl@val+3,7
  6809     0E8D  2E8F               	goto	u2801
  6810     0E8E  2E90               	goto	u2800
  6811     0E8F                     u2801:
  6812     0E8F  2EA0               	goto	l2722
  6813     0E90                     u2800:
  6814     0E90                     l2720:
  6815     0E90  0972               	comf	___xxtofl@val,w
  6816     0E91  00A2               	movwf	___xxtofl@arg
  6817     0E92  0973               	comf	___xxtofl@val+1,w
  6818     0E93  00A3               	movwf	___xxtofl@arg+1
  6819     0E94  0974               	comf	___xxtofl@val+2,w
  6820     0E95  00A4               	movwf	___xxtofl@arg+2
  6821     0E96  0975               	comf	___xxtofl@val+3,w
  6822     0E97  00A5               	movwf	___xxtofl@arg+3
  6823     0E98  0AA2               	incf	___xxtofl@arg,f
  6824     0E99  1903               	skipnz
  6825     0E9A  0AA3               	incf	___xxtofl@arg+1,f
  6826     0E9B  1903               	skipnz
  6827     0E9C  0AA4               	incf	___xxtofl@arg+2,f
  6828     0E9D  1903               	skipnz
  6829     0E9E  0AA5               	incf	___xxtofl@arg+3,f
  6830     0E9F  2EA8               	goto	l1035
  6831     0EA0                     l2722:
  6832     0EA0  0875               	movf	___xxtofl@val+3,w
  6833     0EA1  00A5               	movwf	___xxtofl@arg+3
  6834     0EA2  0874               	movf	___xxtofl@val+2,w
  6835     0EA3  00A4               	movwf	___xxtofl@arg+2
  6836     0EA4  0873               	movf	___xxtofl@val+1,w
  6837     0EA5  00A3               	movwf	___xxtofl@arg+1
  6838     0EA6  0872               	movf	___xxtofl@val,w
  6839     0EA7  00A2               	movwf	___xxtofl@arg
  6840     0EA8                     l1035:
  6841     0EA8  0875               	movf	___xxtofl@val+3,w
  6842     0EA9  0474               	iorwf	___xxtofl@val+2,w
  6843     0EAA  0473               	iorwf	___xxtofl@val+1,w
  6844     0EAB  0472               	iorwf	___xxtofl@val,w
  6845     0EAC  1D03               	skipz
  6846     0EAD  2EAF               	goto	u2811
  6847     0EAE  2EB0               	goto	u2810
  6848     0EAF                     u2811:
  6849     0EAF  2EB9               	goto	l1036
  6850     0EB0                     u2810:
  6851     0EB0                     l2724:
  6852     0EB0  3000               	movlw	0
  6853     0EB1  00F5               	movwf	?___xxtofl+3
  6854     0EB2  3000               	movlw	0
  6855     0EB3  00F4               	movwf	?___xxtofl+2
  6856     0EB4  3000               	movlw	0
  6857     0EB5  00F3               	movwf	?___xxtofl+1
  6858     0EB6  3000               	movlw	0
  6859     0EB7  00F2               	movwf	?___xxtofl
  6860     0EB8  2F39               	goto	l1037
  6861     0EB9                     l1036:
  6862     0EB9  3096               	movlw	150
  6863     0EBA  00A1               	movwf	___xxtofl@exp
  6864     0EBB  2EC7               	goto	l2730
  6865     0EBC                     l2728:
  6866     0EBC  3001               	movlw	1
  6867     0EBD  07A1               	addwf	___xxtofl@exp,f
  6868     0EBE  3001               	movlw	1
  6869     0EBF                     u2825:
  6870     0EBF  1003               	clrc
  6871     0EC0  0CA5               	rrf	___xxtofl@arg+3,f
  6872     0EC1  0CA4               	rrf	___xxtofl@arg+2,f
  6873     0EC2  0CA3               	rrf	___xxtofl@arg+1,f
  6874     0EC3  0CA2               	rrf	___xxtofl@arg,f
  6875     0EC4  3EFF               	addlw	-1
  6876     0EC5  1D03               	skipz
  6877     0EC6  2EBF               	goto	u2825
  6878     0EC7                     l2730:
  6879     0EC7  30FE               	movlw	254
  6880     0EC8  0525               	andwf	___xxtofl@arg+3,w
  6881     0EC9  1D03               	btfss	3,2
  6882     0ECA  2ECC               	goto	u2831
  6883     0ECB  2ECD               	goto	u2830
  6884     0ECC                     u2831:
  6885     0ECC  2EBC               	goto	l2728
  6886     0ECD                     u2830:
  6887     0ECD  2EE7               	goto	l1041
  6888     0ECE                     l2732:
  6889     0ECE  3001               	movlw	1
  6890     0ECF  07A1               	addwf	___xxtofl@exp,f
  6891     0ED0                     l2734:
  6892     0ED0  3001               	movlw	1
  6893     0ED1  07A2               	addwf	___xxtofl@arg,f
  6894     0ED2  3000               	movlw	0
  6895     0ED3  1803               	skipnc
  6896     0ED4  3001               	movlw	1
  6897     0ED5  07A3               	addwf	___xxtofl@arg+1,f
  6898     0ED6  3000               	movlw	0
  6899     0ED7  1803               	skipnc
  6900     0ED8  3001               	movlw	1
  6901     0ED9  07A4               	addwf	___xxtofl@arg+2,f
  6902     0EDA  3000               	movlw	0
  6903     0EDB  1803               	skipnc
  6904     0EDC  3001               	movlw	1
  6905     0EDD  07A5               	addwf	___xxtofl@arg+3,f
  6906     0EDE                     l2736:
  6907     0EDE  3001               	movlw	1
  6908     0EDF                     u2845:
  6909     0EDF  1003               	clrc
  6910     0EE0  0CA5               	rrf	___xxtofl@arg+3,f
  6911     0EE1  0CA4               	rrf	___xxtofl@arg+2,f
  6912     0EE2  0CA3               	rrf	___xxtofl@arg+1,f
  6913     0EE3  0CA2               	rrf	___xxtofl@arg,f
  6914     0EE4  3EFF               	addlw	-1
  6915     0EE5  1D03               	skipz
  6916     0EE6  2EDF               	goto	u2845
  6917     0EE7                     l1041:
  6918     0EE7  30FF               	movlw	255
  6919     0EE8  0525               	andwf	___xxtofl@arg+3,w
  6920     0EE9  1D03               	btfss	3,2
  6921     0EEA  2EEC               	goto	u2851
  6922     0EEB  2EED               	goto	u2850
  6923     0EEC                     u2851:
  6924     0EEC  2ECE               	goto	l2732
  6925     0EED                     u2850:
  6926     0EED  2EF9               	goto	l2740
  6927     0EEE                     l2738:
  6928     0EEE  3001               	movlw	1
  6929     0EEF  02A1               	subwf	___xxtofl@exp,f
  6930     0EF0  3001               	movlw	1
  6931     0EF1  00F6               	movwf	??___xxtofl
  6932     0EF2                     u2865:
  6933     0EF2  1003               	clrc
  6934     0EF3  0DA2               	rlf	___xxtofl@arg,f
  6935     0EF4  0DA3               	rlf	___xxtofl@arg+1,f
  6936     0EF5  0DA4               	rlf	___xxtofl@arg+2,f
  6937     0EF6  0DA5               	rlf	___xxtofl@arg+3,f
  6938     0EF7  0BF6               	decfsz	??___xxtofl,f
  6939     0EF8  2EF2               	goto	u2865
  6940     0EF9                     l2740:
  6941     0EF9  1BA4               	btfsc	___xxtofl@arg+2,7
  6942     0EFA  2EFC               	goto	u2871
  6943     0EFB  2EFD               	goto	u2870
  6944     0EFC                     u2871:
  6945     0EFC  2F03               	goto	l1048
  6946     0EFD                     u2870:
  6947     0EFD                     l2742:
  6948     0EFD  3002               	movlw	2
  6949     0EFE  0221               	subwf	___xxtofl@exp,w
  6950     0EFF  1803               	skipnc
  6951     0F00  2F02               	goto	u2881
  6952     0F01  2F03               	goto	u2880
  6953     0F02                     u2881:
  6954     0F02  2EEE               	goto	l2738
  6955     0F03                     u2880:
  6956     0F03                     l1048:
  6957     0F03  1821               	btfsc	___xxtofl@exp,0
  6958     0F04  2F06               	goto	u2891
  6959     0F05  2F07               	goto	u2890
  6960     0F06                     u2891:
  6961     0F06  2F0F               	goto	l1049
  6962     0F07                     u2890:
  6963     0F07                     l2744:
  6964     0F07  30FF               	movlw	255
  6965     0F08  05A2               	andwf	___xxtofl@arg,f
  6966     0F09  30FF               	movlw	255
  6967     0F0A  05A3               	andwf	___xxtofl@arg+1,f
  6968     0F0B  307F               	movlw	127
  6969     0F0C  05A4               	andwf	___xxtofl@arg+2,f
  6970     0F0D  30FF               	movlw	255
  6971     0F0E  05A5               	andwf	___xxtofl@arg+3,f
  6972     0F0F                     l1049:
  6973     0F0F  1003               	clrc
  6974     0F10  0CA1               	rrf	___xxtofl@exp,f
  6975     0F11                     l2746:
  6976     0F11  0821               	movf	___xxtofl@exp,w
  6977     0F12  00F6               	movwf	??___xxtofl
  6978     0F13  01F7               	clrf	??___xxtofl+1
  6979     0F14  01F8               	clrf	??___xxtofl+2
  6980     0F15  01F9               	clrf	??___xxtofl+3
  6981     0F16  3018               	movlw	24
  6982     0F17                     u2905:
  6983     0F17  1003               	clrc
  6984     0F18  0DF6               	rlf	??___xxtofl,f
  6985     0F19  0DF7               	rlf	??___xxtofl+1,f
  6986     0F1A  0DF8               	rlf	??___xxtofl+2,f
  6987     0F1B  0DF9               	rlf	??___xxtofl+3,f
  6988     0F1C                     u2900:
  6989     0F1C  3EFF               	addlw	-1
  6990     0F1D  1D03               	skipz
  6991     0F1E  2F17               	goto	u2905
  6992     0F1F  0876               	movf	??___xxtofl,w
  6993     0F20  04A2               	iorwf	___xxtofl@arg,f
  6994     0F21  0877               	movf	??___xxtofl+1,w
  6995     0F22  04A3               	iorwf	___xxtofl@arg+1,f
  6996     0F23  0878               	movf	??___xxtofl+2,w
  6997     0F24  04A4               	iorwf	___xxtofl@arg+2,f
  6998     0F25  0879               	movf	??___xxtofl+3,w
  6999     0F26  04A5               	iorwf	___xxtofl@arg+3,f
  7000     0F27                     l2748:
  7001     0F27  0820               	movf	___xxtofl@sign,w
  7002     0F28  1903               	btfsc	3,2
  7003     0F29  2F2B               	goto	u2911
  7004     0F2A  2F2C               	goto	u2910
  7005     0F2B                     u2911:
  7006     0F2B  2F31               	goto	l2754
  7007     0F2C                     u2910:
  7008     0F2C                     l2750:
  7009     0F2C  1FF5               	btfss	___xxtofl@val+3,7
  7010     0F2D  2F2F               	goto	u2921
  7011     0F2E  2F30               	goto	u2920
  7012     0F2F                     u2921:
  7013     0F2F  2F31               	goto	l2754
  7014     0F30                     u2920:
  7015     0F30                     l2752:
  7016     0F30  17A5               	bsf	___xxtofl@arg+3,7
  7017     0F31                     l2754:
  7018     0F31  0825               	movf	___xxtofl@arg+3,w
  7019     0F32  00F5               	movwf	?___xxtofl+3
  7020     0F33  0824               	movf	___xxtofl@arg+2,w
  7021     0F34  00F4               	movwf	?___xxtofl+2
  7022     0F35  0823               	movf	___xxtofl@arg+1,w
  7023     0F36  00F3               	movwf	?___xxtofl+1
  7024     0F37  0822               	movf	___xxtofl@arg,w
  7025     0F38  00F2               	movwf	?___xxtofl
  7026     0F39                     l1037:
  7027     0F39  0008               	return
  7028     0F3A                     __end_of___xxtofl:
  7029                           
  7030                           	psect	text39
  7031     0CF2                     __ptext39:	
  7032 ;; *************** function ___fltol *****************
  7033 ;; Defined at:
  7034 ;;		line 43 in file "/opt/microchip/xc8/v3.10/pic/sources/c99/common/fltol.c"
  7035 ;; Parameters:    Size  Location     Type
  7036 ;;  f1              4   32[BANK0 ] unsigned char 
  7037 ;; Auto vars:     Size  Location     Type
  7038 ;;  exp1            1   41[BANK0 ] unsigned char 
  7039 ;;  sign1           1   40[BANK0 ] unsigned char 
  7040 ;; Return value:  Size  Location     Type
  7041 ;;                  4   32[BANK0 ] long 
  7042 ;; Registers used:
  7043 ;;		wreg, status,2, status,0
  7044 ;; Tracked objects:
  7045 ;;		On entry : 0/0
  7046 ;;		On exit  : 0/0
  7047 ;;		Unchanged: 0/0
  7048 ;; Data sizes:     COMMON   BANK0   BANK1   BANK3   BANK2
  7049 ;;      Params:         0       4       0       0       0
  7050 ;;      Locals:         0       2       0       0       0
  7051 ;;      Temps:          0       4       0       0       0
  7052 ;;      Totals:         0      10       0       0       0
  7053 ;;Total ram usage:       10 bytes
  7054 ;; Hardware stack levels used: 1
  7055 ;; Hardware stack levels required when called: 1
  7056 ;; This function calls:
  7057 ;;		Nothing
  7058 ;; This function is called by:
  7059 ;;		_dashboard
  7060 ;; This function uses a non-reentrant model
  7061 ;;
  7062                           
  7063     0CF2                     ___fltol:	
  7064                           ;psect for function ___fltol
  7065                           
  7066     0CF2                     l3388:	
  7067                           ;incstack = 0
  7068                           ; Regs used in ___fltol: [wreg+status,2+status,0]
  7069                           
  7070     0CF2  1003               	clrc
  7071     0CF3  1283               	bcf	3,5	;RP0=0, select bank0
  7072     0CF4  1303               	bcf	3,6	;RP1=0, select bank0
  7073     0CF5  0D42               	rlf	___fltol@f1+2,w
  7074     0CF6  0D43               	rlf	___fltol@f1+3,w
  7075     0CF7  00C9               	movwf	___fltol@exp1
  7076     0CF8  0849               	movf	___fltol@exp1,w
  7077     0CF9  1D03               	btfss	3,2
  7078     0CFA  2CFC               	goto	u3781
  7079     0CFB  2CFD               	goto	u3780
  7080     0CFC                     u3781:
  7081     0CFC  2D06               	goto	l3394
  7082     0CFD                     u3780:
  7083     0CFD                     l3390:
  7084     0CFD  3000               	movlw	0
  7085     0CFE  00C3               	movwf	?___fltol+3
  7086     0CFF  3000               	movlw	0
  7087     0D00  00C2               	movwf	?___fltol+2
  7088     0D01  3000               	movlw	0
  7089     0D02  00C1               	movwf	?___fltol+1
  7090     0D03  3000               	movlw	0
  7091     0D04  00C0               	movwf	?___fltol
  7092     0D05  2D67               	goto	l788
  7093     0D06                     l3394:
  7094     0D06  0840               	movf	___fltol@f1,w
  7095     0D07  00C4               	movwf	??___fltol
  7096     0D08  0841               	movf	___fltol@f1+1,w
  7097     0D09  00C5               	movwf	??___fltol+1
  7098     0D0A  0842               	movf	___fltol@f1+2,w
  7099     0D0B  00C6               	movwf	??___fltol+2
  7100     0D0C  0843               	movf	___fltol@f1+3,w
  7101     0D0D  00C7               	movwf	??___fltol+3
  7102     0D0E  301F               	movlw	31
  7103     0D0F                     u3795:
  7104     0D0F  1003               	clrc
  7105     0D10  0CC7               	rrf	??___fltol+3,f
  7106     0D11  0CC6               	rrf	??___fltol+2,f
  7107     0D12  0CC5               	rrf	??___fltol+1,f
  7108     0D13  0CC4               	rrf	??___fltol,f
  7109     0D14                     u3790:
  7110     0D14  3EFF               	addlw	-1
  7111     0D15  1D03               	skipz
  7112     0D16  2D0F               	goto	u3795
  7113     0D17  0844               	movf	??___fltol,w
  7114     0D18  00C8               	movwf	___fltol@sign1
  7115     0D19                     l3396:
  7116     0D19  17C2               	bsf	___fltol@f1+2,7
  7117     0D1A                     l3398:
  7118     0D1A  30FF               	movlw	255
  7119     0D1B  05C0               	andwf	___fltol@f1,f
  7120     0D1C  30FF               	movlw	255
  7121     0D1D  05C1               	andwf	___fltol@f1+1,f
  7122     0D1E  30FF               	movlw	255
  7123     0D1F  05C2               	andwf	___fltol@f1+2,f
  7124     0D20  3000               	movlw	0
  7125     0D21  05C3               	andwf	___fltol@f1+3,f
  7126     0D22                     l3400:
  7127     0D22  3096               	movlw	150
  7128     0D23  02C9               	subwf	___fltol@exp1,f
  7129     0D24                     l3402:
  7130     0D24  1FC9               	btfss	___fltol@exp1,7
  7131     0D25  2D27               	goto	u3801
  7132     0D26  2D28               	goto	u3800
  7133     0D27                     u3801:
  7134     0D27  2D40               	goto	l3412
  7135     0D28                     u3800:
  7136     0D28                     l3404:
  7137     0D28  0849               	movf	___fltol@exp1,w
  7138     0D29  3A80               	xorlw	128
  7139     0D2A  3E97               	addlw	151
  7140     0D2B  1803               	skipnc
  7141     0D2C  2D2E               	goto	u3811
  7142     0D2D  2D2F               	goto	u3810
  7143     0D2E                     u3811:
  7144     0D2E  2D30               	goto	l3410
  7145     0D2F                     u3810:
  7146     0D2F  2CFD               	goto	l3390
  7147     0D30                     l3410:
  7148     0D30  3001               	movlw	1
  7149     0D31                     u3825:
  7150     0D31  1003               	clrc
  7151     0D32  0CC3               	rrf	___fltol@f1+3,f
  7152     0D33  0CC2               	rrf	___fltol@f1+2,f
  7153     0D34  0CC1               	rrf	___fltol@f1+1,f
  7154     0D35  0CC0               	rrf	___fltol@f1,f
  7155     0D36  3EFF               	addlw	-1
  7156     0D37  1D03               	skipz
  7157     0D38  2D31               	goto	u3825
  7158     0D39  3001               	movlw	1
  7159     0D3A  07C9               	addwf	___fltol@exp1,f
  7160     0D3B  1D03               	btfss	3,2
  7161     0D3C  2D3E               	goto	u3831
  7162     0D3D  2D3F               	goto	u3830
  7163     0D3E                     u3831:
  7164     0D3E  2D30               	goto	l3410
  7165     0D3F                     u3830:
  7166     0D3F  2D57               	goto	l3420
  7167     0D40                     l3412:
  7168     0D40  3020               	movlw	32
  7169     0D41  0249               	subwf	___fltol@exp1,w
  7170     0D42  1C03               	skipc
  7171     0D43  2D45               	goto	u3841
  7172     0D44  2D46               	goto	u3840
  7173     0D45                     u3841:
  7174     0D45  2D52               	goto	l795
  7175     0D46                     u3840:
  7176     0D46  2CFD               	goto	l3390
  7177     0D47                     l3418:
  7178     0D47  3001               	movlw	1
  7179     0D48  00C4               	movwf	??___fltol
  7180     0D49                     u3855:
  7181     0D49  1003               	clrc
  7182     0D4A  0DC0               	rlf	___fltol@f1,f
  7183     0D4B  0DC1               	rlf	___fltol@f1+1,f
  7184     0D4C  0DC2               	rlf	___fltol@f1+2,f
  7185     0D4D  0DC3               	rlf	___fltol@f1+3,f
  7186     0D4E  0BC4               	decfsz	??___fltol,f
  7187     0D4F  2D49               	goto	u3855
  7188     0D50  3001               	movlw	1
  7189     0D51  02C9               	subwf	___fltol@exp1,f
  7190     0D52                     l795:
  7191     0D52  0849               	movf	___fltol@exp1,w
  7192     0D53  1D03               	btfss	3,2
  7193     0D54  2D56               	goto	u3861
  7194     0D55  2D57               	goto	u3860
  7195     0D56                     u3861:
  7196     0D56  2D47               	goto	l3418
  7197     0D57                     u3860:
  7198     0D57                     l3420:
  7199     0D57  0848               	movf	___fltol@sign1,w
  7200     0D58  1903               	btfsc	3,2
  7201     0D59  2D5B               	goto	u3871
  7202     0D5A  2D5C               	goto	u3870
  7203     0D5B                     u3871:
  7204     0D5B  2D67               	goto	l798
  7205     0D5C                     u3870:
  7206     0D5C                     l3422:
  7207     0D5C  09C0               	comf	___fltol@f1,f
  7208     0D5D  09C1               	comf	___fltol@f1+1,f
  7209     0D5E  09C2               	comf	___fltol@f1+2,f
  7210     0D5F  09C3               	comf	___fltol@f1+3,f
  7211     0D60  0AC0               	incf	___fltol@f1,f
  7212     0D61  1903               	skipnz
  7213     0D62  0AC1               	incf	___fltol@f1+1,f
  7214     0D63  1903               	skipnz
  7215     0D64  0AC2               	incf	___fltol@f1+2,f
  7216     0D65  1903               	skipnz
  7217     0D66  0AC3               	incf	___fltol@f1+3,f
  7218     0D67                     l798:
  7219     0D67                     l788:
  7220     0D67  0008               	return
  7221     0D68                     __end_of___fltol:
  7222                           
  7223                           	psect	text40
  7224     0040                     __ptext40:	
  7225 ;; *************** function ___fldiv *****************
  7226 ;; Defined at:
  7227 ;;		line 8 in file "/opt/microchip/xc8/v3.10/pic/sources/c99/common/sprcdiv.c"
  7228 ;; Parameters:    Size  Location     Type
  7229 ;;  a               4    6[BANK0 ] long 
  7230 ;;  b               4   10[BANK0 ] long 
  7231 ;; Auto vars:     Size  Location     Type
  7232 ;;  grs             4   26[BANK0 ] unsigned long 
  7233 ;;  rem             4   19[BANK0 ] unsigned long 
  7234 ;;  new_exp         2   24[BANK0 ] short 
  7235 ;;  aexp            1   31[BANK0 ] unsigned char 
  7236 ;;  bexp            1   30[BANK0 ] unsigned char 
  7237 ;;  sign            1   23[BANK0 ] unsigned char 
  7238 ;; Return value:  Size  Location     Type
  7239 ;;                  4    6[BANK0 ] unsigned char 
  7240 ;; Registers used:
  7241 ;;		wreg, status,2, status,0, btemp1
  7242 ;; Tracked objects:
  7243 ;;		On entry : 0/0
  7244 ;;		On exit  : 0/0
  7245 ;;		Unchanged: 0/0
  7246 ;; Data sizes:     COMMON   BANK0   BANK1   BANK3   BANK2
  7247 ;;      Params:         0       8       0       0       0
  7248 ;;      Locals:         0      13       0       0       0
  7249 ;;      Temps:          0       5       0       0       0
  7250 ;;      Totals:         0      26       0       0       0
  7251 ;;Total ram usage:       26 bytes
  7252 ;; Hardware stack levels used: 1
  7253 ;; Hardware stack levels required when called: 1
  7254 ;; This function calls:
  7255 ;;		Nothing
  7256 ;; This function is called by:
  7257 ;;		_dashboard
  7258 ;; This function uses a non-reentrant model
  7259 ;;
  7260                           
  7261     0040                     ___fldiv:	
  7262                           ;psect for function ___fldiv
  7263                           
  7264     0040                     l2572:	
  7265                           ;incstack = 0
  7266                           ; Regs used in ___fldiv: [wreg+status,2+status,0+btemp1]
  7267                           
  7268     0040  1283               	bcf	3,5	;RP0=0, select bank0
  7269     0041  1303               	bcf	3,6	;RP1=0, select bank0
  7270     0042  082D               	movf	___fldiv@b+3,w
  7271     0043  00B7               	movwf	___fldiv@sign
  7272     0044                     l2574:
  7273     0044  3080               	movlw	128
  7274     0045  05B7               	andwf	___fldiv@sign,f
  7275     0046                     l2576:
  7276     0046  082D               	movf	___fldiv@b+3,w
  7277     0047  00AE               	movwf	??___fldiv
  7278     0048  072E               	addwf	??___fldiv,w
  7279     0049  00BE               	movwf	___fldiv@bexp
  7280     004A                     l2578:
  7281     004A  1FAC               	btfss	___fldiv@b+2,7
  7282     004B  284D               	goto	u2501
  7283     004C  284E               	goto	u2500
  7284     004D                     u2501:
  7285     004D  284F               	goto	l2582
  7286     004E                     u2500:
  7287     004E                     l2580:
  7288     004E  143E               	bsf	___fldiv@bexp,0
  7289     004F                     l2582:
  7290     004F  083E               	movf	___fldiv@bexp,w
  7291     0050  1903               	btfsc	3,2
  7292     0051  2853               	goto	u2511
  7293     0052  2854               	goto	u2510
  7294     0053                     u2511:
  7295     0053  2864               	goto	l2592
  7296     0054                     u2510:
  7297     0054                     l2584:
  7298     0054  0A3E               	incf	___fldiv@bexp,w
  7299     0055  1D03               	btfss	3,2
  7300     0056  2858               	goto	u2521
  7301     0057  2859               	goto	u2520
  7302     0058                     u2521:
  7303     0058  2861               	goto	l2588
  7304     0059                     u2520:
  7305     0059                     l2586:
  7306     0059  3000               	movlw	0
  7307     005A  00AD               	movwf	___fldiv@b+3
  7308     005B  3000               	movlw	0
  7309     005C  00AC               	movwf	___fldiv@b+2
  7310     005D  3000               	movlw	0
  7311     005E  00AB               	movwf	___fldiv@b+1
  7312     005F  3000               	movlw	0
  7313     0060  00AA               	movwf	___fldiv@b
  7314     0061                     l2588:
  7315     0061  17AC               	bsf	___fldiv@b+2,7
  7316     0062                     l2590:
  7317     0062  01AD               	clrf	___fldiv@b+3
  7318     0063  286C               	goto	l2594
  7319     0064                     l2592:
  7320     0064  3000               	movlw	0
  7321     0065  00AD               	movwf	___fldiv@b+3
  7322     0066  3000               	movlw	0
  7323     0067  00AC               	movwf	___fldiv@b+2
  7324     0068  3000               	movlw	0
  7325     0069  00AB               	movwf	___fldiv@b+1
  7326     006A  3000               	movlw	0
  7327     006B  00AA               	movwf	___fldiv@b
  7328     006C                     l2594:
  7329     006C  0829               	movf	___fldiv@a+3,w
  7330     006D  3980               	andlw	128
  7331     006E  06B7               	xorwf	___fldiv@sign,f
  7332     006F                     l2596:
  7333     006F  0829               	movf	___fldiv@a+3,w
  7334     0070  00AE               	movwf	??___fldiv
  7335     0071  072E               	addwf	??___fldiv,w
  7336     0072  00BF               	movwf	___fldiv@aexp
  7337     0073                     l2598:
  7338     0073  1FA8               	btfss	___fldiv@a+2,7
  7339     0074  2876               	goto	u2531
  7340     0075  2877               	goto	u2530
  7341     0076                     u2531:
  7342     0076  2878               	goto	l2602
  7343     0077                     u2530:
  7344     0077                     l2600:
  7345     0077  143F               	bsf	___fldiv@aexp,0
  7346     0078                     l2602:
  7347     0078  083F               	movf	___fldiv@aexp,w
  7348     0079  1903               	btfsc	3,2
  7349     007A  287C               	goto	u2541
  7350     007B  287D               	goto	u2540
  7351     007C                     u2541:
  7352     007C  288D               	goto	l2612
  7353     007D                     u2540:
  7354     007D                     l2604:
  7355     007D  0A3F               	incf	___fldiv@aexp,w
  7356     007E  1D03               	btfss	3,2
  7357     007F  2881               	goto	u2551
  7358     0080  2882               	goto	u2550
  7359     0081                     u2551:
  7360     0081  288A               	goto	l2608
  7361     0082                     u2550:
  7362     0082                     l2606:
  7363     0082  3000               	movlw	0
  7364     0083  00A9               	movwf	___fldiv@a+3
  7365     0084  3000               	movlw	0
  7366     0085  00A8               	movwf	___fldiv@a+2
  7367     0086  3000               	movlw	0
  7368     0087  00A7               	movwf	___fldiv@a+1
  7369     0088  3000               	movlw	0
  7370     0089  00A6               	movwf	___fldiv@a
  7371     008A                     l2608:
  7372     008A  17A8               	bsf	___fldiv@a+2,7
  7373     008B                     l2610:
  7374     008B  01A9               	clrf	___fldiv@a+3
  7375     008C  2895               	goto	l951
  7376     008D                     l2612:
  7377     008D  3000               	movlw	0
  7378     008E  00A9               	movwf	___fldiv@a+3
  7379     008F  3000               	movlw	0
  7380     0090  00A8               	movwf	___fldiv@a+2
  7381     0091  3000               	movlw	0
  7382     0092  00A7               	movwf	___fldiv@a+1
  7383     0093  3000               	movlw	0
  7384     0094  00A6               	movwf	___fldiv@a
  7385     0095                     l951:
  7386     0095  0829               	movf	___fldiv@a+3,w
  7387     0096  0428               	iorwf	___fldiv@a+2,w
  7388     0097  0427               	iorwf	___fldiv@a+1,w
  7389     0098  0426               	iorwf	___fldiv@a,w
  7390     0099  1D03               	skipz
  7391     009A  289C               	goto	u2561
  7392     009B  289D               	goto	u2560
  7393     009C                     u2561:
  7394     009C  28B4               	goto	l2622
  7395     009D                     u2560:
  7396     009D                     l2614:
  7397     009D  3000               	movlw	0
  7398     009E  00AD               	movwf	___fldiv@b+3
  7399     009F  3000               	movlw	0
  7400     00A0  00AC               	movwf	___fldiv@b+2
  7401     00A1  3000               	movlw	0
  7402     00A2  00AB               	movwf	___fldiv@b+1
  7403     00A3  3000               	movlw	0
  7404     00A4  00AA               	movwf	___fldiv@b
  7405     00A5  3080               	movlw	128
  7406     00A6  04AC               	iorwf	___fldiv@b+2,f
  7407     00A7  307F               	movlw	127
  7408     00A8  04AD               	iorwf	___fldiv@b+3,f
  7409     00A9                     l2616:
  7410     00A9  0837               	movf	___fldiv@sign,w
  7411     00AA  04AD               	iorwf	___fldiv@b+3,f
  7412     00AB                     l2618:
  7413     00AB  082D               	movf	___fldiv@b+3,w
  7414     00AC  00A9               	movwf	?___fldiv+3
  7415     00AD  082C               	movf	___fldiv@b+2,w
  7416     00AE  00A8               	movwf	?___fldiv+2
  7417     00AF  082B               	movf	___fldiv@b+1,w
  7418     00B0  00A7               	movwf	?___fldiv+1
  7419     00B1  082A               	movf	___fldiv@b,w
  7420     00B2  00A6               	movwf	?___fldiv
  7421     00B3  2A09               	goto	l953
  7422     00B4                     l2622:
  7423     00B4  083E               	movf	___fldiv@bexp,w
  7424     00B5  1D03               	btfss	3,2
  7425     00B6  28B8               	goto	u2571
  7426     00B7  28B9               	goto	u2570
  7427     00B8                     u2571:
  7428     00B8  28C2               	goto	l2628
  7429     00B9                     u2570:
  7430     00B9                     l2624:
  7431     00B9  3000               	movlw	0
  7432     00BA  00A9               	movwf	?___fldiv+3
  7433     00BB  3000               	movlw	0
  7434     00BC  00A8               	movwf	?___fldiv+2
  7435     00BD  3000               	movlw	0
  7436     00BE  00A7               	movwf	?___fldiv+1
  7437     00BF  3000               	movlw	0
  7438     00C0  00A6               	movwf	?___fldiv
  7439     00C1  2A09               	goto	l953
  7440     00C2                     l2628:
  7441     00C2  083E               	movf	___fldiv@bexp,w
  7442     00C3  00AE               	movwf	??___fldiv
  7443     00C4  01AF               	clrf	??___fldiv+1
  7444     00C5  082F               	movf	??___fldiv+1,w
  7445     00C6  00B1               	movwf	??___fldiv+3
  7446     00C7  083F               	movf	___fldiv@aexp,w
  7447     00C8  022E               	subwf	??___fldiv,w
  7448     00C9  00B0               	movwf	??___fldiv+2
  7449     00CA  1C03               	skipc
  7450     00CB  03B1               	decf	??___fldiv+3,f
  7451     00CC  0830               	movf	??___fldiv+2,w
  7452     00CD  3E7F               	addlw	127
  7453     00CE  00B8               	movwf	___fldiv@new_exp
  7454     00CF  0831               	movf	??___fldiv+3,w
  7455     00D0  1803               	skipnc
  7456     00D1  3E01               	addlw	1
  7457     00D2  3E00               	addlw	0
  7458     00D3  00B9               	movwf	___fldiv@new_exp+1
  7459     00D4                     l2630:
  7460     00D4  082D               	movf	___fldiv@b+3,w
  7461     00D5  00B6               	movwf	___fldiv@rem+3
  7462     00D6  082C               	movf	___fldiv@b+2,w
  7463     00D7  00B5               	movwf	___fldiv@rem+2
  7464     00D8  082B               	movf	___fldiv@b+1,w
  7465     00D9  00B4               	movwf	___fldiv@rem+1
  7466     00DA  082A               	movf	___fldiv@b,w
  7467     00DB  00B3               	movwf	___fldiv@rem
  7468     00DC                     l2632:
  7469     00DC  3000               	movlw	0
  7470     00DD  00AD               	movwf	___fldiv@b+3
  7471     00DE  3000               	movlw	0
  7472     00DF  00AC               	movwf	___fldiv@b+2
  7473     00E0  3000               	movlw	0
  7474     00E1  00AB               	movwf	___fldiv@b+1
  7475     00E2  3000               	movlw	0
  7476     00E3  00AA               	movwf	___fldiv@b
  7477     00E4                     l2634:
  7478     00E4  3000               	movlw	0
  7479     00E5  00BD               	movwf	___fldiv@grs+3
  7480     00E6  3000               	movlw	0
  7481     00E7  00BC               	movwf	___fldiv@grs+2
  7482     00E8  3000               	movlw	0
  7483     00E9  00BB               	movwf	___fldiv@grs+1
  7484     00EA  3000               	movlw	0
  7485     00EB  00BA               	movwf	___fldiv@grs
  7486     00EC                     l2636:
  7487     00EC  01BF               	clrf	___fldiv@aexp
  7488     00ED  2936               	goto	l2656
  7489     00EE                     l2638:
  7490     00EE  083F               	movf	___fldiv@aexp,w
  7491     00EF  1903               	btfsc	3,2
  7492     00F0  28F2               	goto	u2581
  7493     00F1  28F3               	goto	u2580
  7494     00F2                     u2581:
  7495     00F2  2913               	goto	l2648
  7496     00F3                     u2580:
  7497     00F3                     l2640:
  7498     00F3  3001               	movlw	1
  7499     00F4  00AE               	movwf	??___fldiv
  7500     00F5                     u2595:
  7501     00F5  1003               	clrc
  7502     00F6  0DB3               	rlf	___fldiv@rem,f
  7503     00F7  0DB4               	rlf	___fldiv@rem+1,f
  7504     00F8  0DB5               	rlf	___fldiv@rem+2,f
  7505     00F9  0DB6               	rlf	___fldiv@rem+3,f
  7506     00FA  0BAE               	decfsz	??___fldiv,f
  7507     00FB  28F5               	goto	u2595
  7508     00FC  3001               	movlw	1
  7509     00FD  00AE               	movwf	??___fldiv
  7510     00FE                     u2605:
  7511     00FE  1003               	clrc
  7512     00FF  0DAA               	rlf	___fldiv@b,f
  7513     0100  0DAB               	rlf	___fldiv@b+1,f
  7514     0101  0DAC               	rlf	___fldiv@b+2,f
  7515     0102  0DAD               	rlf	___fldiv@b+3,f
  7516     0103  0BAE               	decfsz	??___fldiv,f
  7517     0104  28FE               	goto	u2605
  7518     0105                     l2642:
  7519     0105  1FBD               	btfss	___fldiv@grs+3,7
  7520     0106  2908               	goto	u2611
  7521     0107  2909               	goto	u2610
  7522     0108                     u2611:
  7523     0108  290A               	goto	l2646
  7524     0109                     u2610:
  7525     0109                     l2644:
  7526     0109  142A               	bsf	___fldiv@b,0
  7527     010A                     l2646:
  7528     010A  3001               	movlw	1
  7529     010B  00AE               	movwf	??___fldiv
  7530     010C                     u2625:
  7531     010C  1003               	clrc
  7532     010D  0DBA               	rlf	___fldiv@grs,f
  7533     010E  0DBB               	rlf	___fldiv@grs+1,f
  7534     010F  0DBC               	rlf	___fldiv@grs+2,f
  7535     0110  0DBD               	rlf	___fldiv@grs+3,f
  7536     0111  0BAE               	decfsz	??___fldiv,f
  7537     0112  290C               	goto	u2625
  7538     0113                     l2648:
  7539     0113  0829               	movf	___fldiv@a+3,w
  7540     0114  0236               	subwf	___fldiv@rem+3,w
  7541     0115  1D03               	skipz
  7542     0116  2921               	goto	u2635
  7543     0117  0828               	movf	___fldiv@a+2,w
  7544     0118  0235               	subwf	___fldiv@rem+2,w
  7545     0119  1D03               	skipz
  7546     011A  2921               	goto	u2635
  7547     011B  0827               	movf	___fldiv@a+1,w
  7548     011C  0234               	subwf	___fldiv@rem+1,w
  7549     011D  1D03               	skipz
  7550     011E  2921               	goto	u2635
  7551     011F  0826               	movf	___fldiv@a,w
  7552     0120  0233               	subwf	___fldiv@rem,w
  7553     0121                     u2635:
  7554     0121  1C03               	skipc
  7555     0122  2924               	goto	u2631
  7556     0123  2925               	goto	u2630
  7557     0124                     u2631:
  7558     0124  2934               	goto	l2654
  7559     0125                     u2630:
  7560     0125                     l2650:
  7561     0125  173D               	bsf	___fldiv@grs+3,6
  7562     0126                     l2652:
  7563     0126  0826               	movf	___fldiv@a,w
  7564     0127  02B3               	subwf	___fldiv@rem,f
  7565     0128  0827               	movf	___fldiv@a+1,w
  7566     0129  1C03               	skipc
  7567     012A  0F27               	incfsz	___fldiv@a+1,w
  7568     012B  02B4               	subwf	___fldiv@rem+1,f
  7569     012C  0828               	movf	___fldiv@a+2,w
  7570     012D  1C03               	skipc
  7571     012E  0F28               	incfsz	___fldiv@a+2,w
  7572     012F  02B5               	subwf	___fldiv@rem+2,f
  7573     0130  0829               	movf	___fldiv@a+3,w
  7574     0131  1C03               	skipc
  7575     0132  0F29               	incfsz	___fldiv@a+3,w
  7576     0133  02B6               	subwf	___fldiv@rem+3,f
  7577     0134                     l2654:
  7578     0134  3001               	movlw	1
  7579     0135  07BF               	addwf	___fldiv@aexp,f
  7580     0136                     l2656:
  7581     0136  301A               	movlw	26
  7582     0137  023F               	subwf	___fldiv@aexp,w
  7583     0138  1C03               	skipc
  7584     0139  293B               	goto	u2641
  7585     013A  293C               	goto	u2640
  7586     013B                     u2641:
  7587     013B  28EE               	goto	l2638
  7588     013C                     u2640:
  7589     013C                     l2658:
  7590     013C  0836               	movf	___fldiv@rem+3,w
  7591     013D  0435               	iorwf	___fldiv@rem+2,w
  7592     013E  0434               	iorwf	___fldiv@rem+1,w
  7593     013F  0433               	iorwf	___fldiv@rem,w
  7594     0140  1903               	skipnz
  7595     0141  2943               	goto	u2651
  7596     0142  2944               	goto	u2650
  7597     0143                     u2651:
  7598     0143  2963               	goto	l2672
  7599     0144                     u2650:
  7600     0144                     l2660:
  7601     0144  143A               	bsf	___fldiv@grs,0
  7602     0145  2963               	goto	l2672
  7603     0146                     l2662:
  7604     0146  3001               	movlw	1
  7605     0147  00AE               	movwf	??___fldiv
  7606     0148                     u2665:
  7607     0148  1003               	clrc
  7608     0149  0DAA               	rlf	___fldiv@b,f
  7609     014A  0DAB               	rlf	___fldiv@b+1,f
  7610     014B  0DAC               	rlf	___fldiv@b+2,f
  7611     014C  0DAD               	rlf	___fldiv@b+3,f
  7612     014D  0BAE               	decfsz	??___fldiv,f
  7613     014E  2948               	goto	u2665
  7614     014F                     l2664:
  7615     014F  1FBD               	btfss	___fldiv@grs+3,7
  7616     0150  2952               	goto	u2671
  7617     0151  2953               	goto	u2670
  7618     0152                     u2671:
  7619     0152  2954               	goto	l2668
  7620     0153                     u2670:
  7621     0153                     l2666:
  7622     0153  142A               	bsf	___fldiv@b,0
  7623     0154                     l2668:
  7624     0154  3001               	movlw	1
  7625     0155  00AE               	movwf	??___fldiv
  7626     0156                     u2685:
  7627     0156  1003               	clrc
  7628     0157  0DBA               	rlf	___fldiv@grs,f
  7629     0158  0DBB               	rlf	___fldiv@grs+1,f
  7630     0159  0DBC               	rlf	___fldiv@grs+2,f
  7631     015A  0DBD               	rlf	___fldiv@grs+3,f
  7632     015B  0BAE               	decfsz	??___fldiv,f
  7633     015C  2956               	goto	u2685
  7634     015D                     l2670:
  7635     015D  30FF               	movlw	255
  7636     015E  07B8               	addwf	___fldiv@new_exp,f
  7637     015F  1803               	skipnc
  7638     0160  0AB9               	incf	___fldiv@new_exp+1,f
  7639     0161  30FF               	movlw	255
  7640     0162  07B9               	addwf	___fldiv@new_exp+1,f
  7641     0163                     l2672:
  7642     0163  1FAC               	btfss	___fldiv@b+2,7
  7643     0164  2966               	goto	u2691
  7644     0165  2967               	goto	u2690
  7645     0166                     u2691:
  7646     0166  2946               	goto	l2662
  7647     0167                     u2690:
  7648     0167                     l2674:
  7649     0167  01BF               	clrf	___fldiv@aexp
  7650     0168                     l2676:
  7651     0168  1FBD               	btfss	___fldiv@grs+3,7
  7652     0169  296B               	goto	u2701
  7653     016A  296C               	goto	u2700
  7654     016B                     u2701:
  7655     016B  2988               	goto	l2684
  7656     016C                     u2700:
  7657     016C                     l2678:
  7658     016C  30FF               	movlw	255
  7659     016D  053A               	andwf	___fldiv@grs,w
  7660     016E  00AE               	movwf	??___fldiv
  7661     016F  30FF               	movlw	255
  7662     0170  053B               	andwf	___fldiv@grs+1,w
  7663     0171  00AF               	movwf	??___fldiv+1
  7664     0172  30FF               	movlw	255
  7665     0173  053C               	andwf	___fldiv@grs+2,w
  7666     0174  00B0               	movwf	??___fldiv+2
  7667     0175  307F               	movlw	127
  7668     0176  053D               	andwf	___fldiv@grs+3,w
  7669     0177  00B1               	movwf	??___fldiv+3
  7670     0178  0831               	movf	??___fldiv+3,w
  7671     0179  0430               	iorwf	??___fldiv+2,w
  7672     017A  042F               	iorwf	??___fldiv+1,w
  7673     017B  042E               	iorwf	??___fldiv,w
  7674     017C  1903               	skipnz
  7675     017D  297F               	goto	u2711
  7676     017E  2980               	goto	u2710
  7677     017F                     u2711:
  7678     017F  2983               	goto	l967
  7679     0180                     u2710:
  7680     0180                     l2680:
  7681     0180  3001               	movlw	1
  7682     0181  00BF               	movwf	___fldiv@aexp
  7683     0182  2988               	goto	l2684
  7684     0183                     l967:
  7685     0183  1C2A               	btfss	___fldiv@b,0
  7686     0184  2986               	goto	u2721
  7687     0185  2987               	goto	u2720
  7688     0186                     u2721:
  7689     0186  2988               	goto	l2684
  7690     0187                     u2720:
  7691     0187  2980               	goto	l2680
  7692     0188                     l2684:
  7693     0188  083F               	movf	___fldiv@aexp,w
  7694     0189  1903               	btfsc	3,2
  7695     018A  298C               	goto	u2731
  7696     018B  298D               	goto	u2730
  7697     018C                     u2731:
  7698     018C  29BE               	goto	l2694
  7699     018D                     u2730:
  7700     018D                     l2686:
  7701     018D  3001               	movlw	1
  7702     018E  07AA               	addwf	___fldiv@b,f
  7703     018F  3000               	movlw	0
  7704     0190  1803               	skipnc
  7705     0191  3001               	movlw	1
  7706     0192  07AB               	addwf	___fldiv@b+1,f
  7707     0193  3000               	movlw	0
  7708     0194  1803               	skipnc
  7709     0195  3001               	movlw	1
  7710     0196  07AC               	addwf	___fldiv@b+2,f
  7711     0197  3000               	movlw	0
  7712     0198  1803               	skipnc
  7713     0199  3001               	movlw	1
  7714     019A  07AD               	addwf	___fldiv@b+3,f
  7715     019B                     l2688:
  7716     019B  1C2D               	btfss	___fldiv@b+3,0
  7717     019C  299E               	goto	u2741
  7718     019D  299F               	goto	u2740
  7719     019E                     u2741:
  7720     019E  29BE               	goto	l2694
  7721     019F                     u2740:
  7722     019F                     l2690:
  7723     019F  082A               	movf	___fldiv@b,w
  7724     01A0  00AE               	movwf	??___fldiv
  7725     01A1  082B               	movf	___fldiv@b+1,w
  7726     01A2  00AF               	movwf	??___fldiv+1
  7727     01A3  082C               	movf	___fldiv@b+2,w
  7728     01A4  00B0               	movwf	??___fldiv+2
  7729     01A5  082D               	movf	___fldiv@b+3,w
  7730     01A6  00B1               	movwf	??___fldiv+3
  7731     01A7  3001               	movlw	1
  7732     01A8  00B2               	movwf	??___fldiv+4
  7733     01A9                     u2755:
  7734     01A9  0D31               	rlf	??___fldiv+3,w
  7735     01AA  0CB1               	rrf	??___fldiv+3,f
  7736     01AB  0CB0               	rrf	??___fldiv+2,f
  7737     01AC  0CAF               	rrf	??___fldiv+1,f
  7738     01AD  0CAE               	rrf	??___fldiv,f
  7739     01AE                     u2750:
  7740     01AE  0BB2               	decfsz	??___fldiv+4,f
  7741     01AF  29A9               	goto	u2755
  7742     01B0  0831               	movf	??___fldiv+3,w
  7743     01B1  00AD               	movwf	___fldiv@b+3
  7744     01B2  0830               	movf	??___fldiv+2,w
  7745     01B3  00AC               	movwf	___fldiv@b+2
  7746     01B4  082F               	movf	??___fldiv+1,w
  7747     01B5  00AB               	movwf	___fldiv@b+1
  7748     01B6  082E               	movf	??___fldiv,w
  7749     01B7  00AA               	movwf	___fldiv@b
  7750     01B8                     l2692:
  7751     01B8  3001               	movlw	1
  7752     01B9  07B8               	addwf	___fldiv@new_exp,f
  7753     01BA  1803               	skipnc
  7754     01BB  0AB9               	incf	___fldiv@new_exp+1,f
  7755     01BC  3000               	movlw	0
  7756     01BD  07B9               	addwf	___fldiv@new_exp+1,f
  7757     01BE                     l2694:
  7758     01BE  0839               	movf	___fldiv@new_exp+1,w
  7759     01BF  3A80               	xorlw	128
  7760     01C0  00FF               	movwf	btemp1
  7761     01C1  3080               	movlw	128
  7762     01C2  027F               	subwf	btemp1,w
  7763     01C3  1D03               	skipz
  7764     01C4  29C7               	goto	u2765
  7765     01C5  30FF               	movlw	255
  7766     01C6  0238               	subwf	___fldiv@new_exp,w
  7767     01C7                     u2765:
  7768     01C7  1C03               	skipc
  7769     01C8  29CA               	goto	u2761
  7770     01C9  29CB               	goto	u2760
  7771     01CA                     u2761:
  7772     01CA  29D9               	goto	l2698
  7773     01CB                     u2760:
  7774     01CB                     l2696:
  7775     01CB  30FF               	movlw	255
  7776     01CC  1283               	bcf	3,5	;RP0=0, select bank0
  7777     01CD  1303               	bcf	3,6	;RP1=0, select bank0
  7778     01CE  00B8               	movwf	___fldiv@new_exp
  7779     01CF  3000               	movlw	0
  7780     01D0  00B9               	movwf	___fldiv@new_exp+1
  7781     01D1  3000               	movlw	0
  7782     01D2  00AD               	movwf	___fldiv@b+3
  7783     01D3  3000               	movlw	0
  7784     01D4  00AC               	movwf	___fldiv@b+2
  7785     01D5  3000               	movlw	0
  7786     01D6  00AB               	movwf	___fldiv@b+1
  7787     01D7  3000               	movlw	0
  7788     01D8  00AA               	movwf	___fldiv@b
  7789     01D9                     l2698:
  7790     01D9  1283               	bcf	3,5	;RP0=0, select bank0
  7791     01DA  1303               	bcf	3,6	;RP1=0, select bank0
  7792     01DB  0839               	movf	___fldiv@new_exp+1,w
  7793     01DC  3A80               	xorlw	128
  7794     01DD  00FF               	movwf	btemp1
  7795     01DE  3080               	movlw	128
  7796     01DF  027F               	subwf	btemp1,w
  7797     01E0  1D03               	skipz
  7798     01E1  29E4               	goto	u2775
  7799     01E2  3001               	movlw	1
  7800     01E3  0238               	subwf	___fldiv@new_exp,w
  7801     01E4                     u2775:
  7802     01E4  1803               	skipnc
  7803     01E5  29E7               	goto	u2771
  7804     01E6  29E8               	goto	u2770
  7805     01E7                     u2771:
  7806     01E7  29F5               	goto	l973
  7807     01E8                     u2770:
  7808     01E8                     l2700:
  7809     01E8  1283               	bcf	3,5	;RP0=0, select bank0
  7810     01E9  1303               	bcf	3,6	;RP1=0, select bank0
  7811     01EA  01B8               	clrf	___fldiv@new_exp
  7812     01EB  01B9               	clrf	___fldiv@new_exp+1
  7813     01EC                     l2702:
  7814     01EC  3000               	movlw	0
  7815     01ED  00AD               	movwf	___fldiv@b+3
  7816     01EE  3000               	movlw	0
  7817     01EF  00AC               	movwf	___fldiv@b+2
  7818     01F0  3000               	movlw	0
  7819     01F1  00AB               	movwf	___fldiv@b+1
  7820     01F2  3000               	movlw	0
  7821     01F3  00AA               	movwf	___fldiv@b
  7822     01F4                     l2704:
  7823     01F4  01B7               	clrf	___fldiv@sign
  7824     01F5                     l973:
  7825     01F5  1283               	bcf	3,5	;RP0=0, select bank0
  7826     01F6  1303               	bcf	3,6	;RP1=0, select bank0
  7827     01F7  0838               	movf	___fldiv@new_exp,w
  7828     01F8  00BE               	movwf	___fldiv@bexp
  7829     01F9                     l2706:
  7830     01F9  1C3E               	btfss	___fldiv@bexp,0
  7831     01FA  29FC               	goto	u2781
  7832     01FB  29FD               	goto	u2780
  7833     01FC                     u2781:
  7834     01FC  29FF               	goto	l2710
  7835     01FD                     u2780:
  7836     01FD                     l2708:
  7837     01FD  17AC               	bsf	___fldiv@b+2,7
  7838     01FE  2A01               	goto	l975
  7839     01FF                     l2710:
  7840     01FF  307F               	movlw	127
  7841     0200  05AC               	andwf	___fldiv@b+2,f
  7842     0201                     l975:
  7843     0201  083E               	movf	___fldiv@bexp,w
  7844     0202  00AE               	movwf	??___fldiv
  7845     0203  1003               	clrc
  7846     0204  0C2E               	rrf	??___fldiv,w
  7847     0205  00AD               	movwf	___fldiv@b+3
  7848     0206  0837               	movf	___fldiv@sign,w
  7849     0207  04AD               	iorwf	___fldiv@b+3,f
  7850     0208  28AB               	goto	l2618
  7851     0209                     l953:
  7852     0209  0008               	return
  7853     020A                     __end_of___fldiv:
  7854                           
  7855                           	psect	text41
  7856     0F3A                     __ptext41:	
  7857 ;; *************** function _auth_user *****************
  7858 ;; Defined at:
  7859 ;;		line 26 in file "auth.c"
  7860 ;; Parameters:    Size  Location     Type
  7861 ;;		None
  7862 ;; Auto vars:     Size  Location     Type
  7863 ;;  i               2    5[BANK0 ] unsigned int 
  7864 ;;  key             1    4[BANK0 ] unsigned char 
  7865 ;; Return value:  Size  Location     Type
  7866 ;;                  1    wreg      void 
  7867 ;; Registers used:
  7868 ;;		wreg, fsr0l, fsr0h, status,2, status,0, pclath, btemp1, cstack
  7869 ;; Tracked objects:
  7870 ;;		On entry : 0/0
  7871 ;;		On exit  : 0/0
  7872 ;;		Unchanged: 0/0
  7873 ;; Data sizes:     COMMON   BANK0   BANK1   BANK3   BANK2
  7874 ;;      Params:         0       0       0       0       0
  7875 ;;      Locals:         0       3       0       0       0
  7876 ;;      Temps:          0       3       0       0       0
  7877 ;;      Totals:         0       6       0       0       0
  7878 ;;Total ram usage:        6 bytes
  7879 ;; Hardware stack levels used: 1
  7880 ;; Hardware stack levels required when called: 3
  7881 ;; This function calls:
  7882 ;;		_clcd_print
  7883 ;;		_clcd_putch
  7884 ;;		_read_digital_keypad
  7885 ;;		_run_delay
  7886 ;; This function is called by:
  7887 ;;		_main
  7888 ;; This function uses a non-reentrant model
  7889 ;;
  7890                           
  7891     0F3A                     _auth_user:	
  7892                           ;psect for function _auth_user
  7893                           
  7894     0F3A                     l3554:	
  7895                           ;incstack = 0
  7896                           ; Regs used in _auth_user: [wreg-fsr0h+status,2+status,0+pclath+btemp1+cstack]
  7897                           
  7898                           
  7899                           ;auth.c: 28:     clcd_print(" ENTER PASSWORD ", (0x80 + 0));
  7900     0F3A  3034               	movlw	low (STR_30| (0+32768))
  7901     0F3B  00F6               	movwf	clcd_print@str
  7902     0F3C  3084               	movlw	high (STR_30| (0+32768))
  7903     0F3D  00F7               	movwf	clcd_print@str+1
  7904     0F3E  3080               	movlw	128
  7905     0F3F  00F8               	movwf	clcd_print@addr
  7906     0F40  120A  158A  210F  120A  158A  	fcall	_clcd_print
  7907     0F45                     l3556:
  7908                           
  7909                           ;auth.c: 29:     if(index == 0) clcd_print("                ", (0xC0 + 0));
  7910     0F45  1283               	bcf	3,5	;RP0=0, select bank0
  7911     0F46  1303               	bcf	3,6	;RP1=0, select bank0
  7912     0F47  0853               	movf	_index,w
  7913     0F48  0454               	iorwf	_index+1,w
  7914     0F49  1D03               	btfss	3,2
  7915     0F4A  2F4C               	goto	u4081
  7916     0F4B  2F4D               	goto	u4080
  7917     0F4C                     u4081:
  7918     0F4C  2F58               	goto	l3560
  7919     0F4D                     u4080:
  7920     0F4D                     l3558:
  7921     0F4D  3012               	movlw	low (STR_31| (0+32768))
  7922     0F4E  00F6               	movwf	clcd_print@str
  7923     0F4F  3084               	movlw	high (STR_31| (0+32768))
  7924     0F50  00F7               	movwf	clcd_print@str+1
  7925     0F51  30C0               	movlw	192
  7926     0F52  00F8               	movwf	clcd_print@addr
  7927     0F53  120A  158A  210F  120A  158A  	fcall	_clcd_print
  7928     0F58                     l3560:
  7929                           
  7930                           ;auth.c: 31:     char key = read_digital_keypad(1);
  7931     0F58  3001               	movlw	1
  7932     0F59  120A  158A  208F  120A  158A  	fcall	_read_digital_keypad
  7933     0F5E  1283               	bcf	3,5	;RP0=0, select bank0
  7934     0F5F  1303               	bcf	3,6	;RP1=0, select bank0
  7935     0F60  00A4               	movwf	auth_user@key
  7936     0F61                     l3562:
  7937                           
  7938                           ;auth.c: 33:     if(key == 0x3E){
  7939     0F61  303E               	movlw	62
  7940     0F62  0624               	xorwf	auth_user@key,w
  7941     0F63  1D03               	btfss	3,2
  7942     0F64  2F66               	goto	u4091
  7943     0F65  2F67               	goto	u4090
  7944     0F66                     u4091:
  7945     0F66  2F7D               	goto	l3570
  7946     0F67                     u4090:
  7947     0F67                     l3564:
  7948                           
  7949                           ;auth.c: 34:         user_entered_password[index++] = '0';
  7950     0F67  0853               	movf	_index,w
  7951     0F68  3EA0               	addlw	(low (_user_entered_password| 0))& (0+255)
  7952     0F69  0084               	movwf	4
  7953     0F6A  3030               	movlw	48
  7954     0F6B  1383               	bcf	3,7	;select IRP bank1
  7955     0F6C  0080               	movwf	0
  7956     0F6D                     l3566:
  7957     0F6D  3001               	movlw	1
  7958     0F6E  07D3               	addwf	_index,f
  7959     0F6F  1803               	skipnc
  7960     0F70  0AD4               	incf	_index+1,f
  7961     0F71  3000               	movlw	0
  7962     0F72  07D4               	addwf	_index+1,f
  7963     0F73                     l3568:
  7964                           
  7965                           ;auth.c: 35:         clcd_putch('*', (0xC0 + index));
  7966     0F73  0853               	movf	_index,w
  7967     0F74  3EC0               	addlw	192
  7968     0F75  00F9               	movwf	clcd_putch@addr
  7969     0F76  302A               	movlw	42
  7970     0F77  120A  118A  27E8  120A  158A  	fcall	_clcd_putch
  7971                           
  7972                           ;auth.c: 36:     }
  7973     0F7C  2F98               	goto	l3578
  7974     0F7D                     l3570:
  7975     0F7D  303D               	movlw	61
  7976     0F7E  0624               	xorwf	auth_user@key,w
  7977     0F7F  1D03               	btfss	3,2
  7978     0F80  2F82               	goto	u4101
  7979     0F81  2F83               	goto	u4100
  7980     0F82                     u4101:
  7981     0F82  2F98               	goto	l3578
  7982     0F83                     u4100:
  7983     0F83                     l3572:
  7984                           
  7985                           ;auth.c: 39:         user_entered_password[index++] = '1';
  7986     0F83  0853               	movf	_index,w
  7987     0F84  3EA0               	addlw	(low (_user_entered_password| 0))& (0+255)
  7988     0F85  0084               	movwf	4
  7989     0F86  3031               	movlw	49
  7990     0F87  1383               	bcf	3,7	;select IRP bank1
  7991     0F88  0080               	movwf	0
  7992     0F89                     l3574:
  7993     0F89  3001               	movlw	1
  7994     0F8A  07D3               	addwf	_index,f
  7995     0F8B  1803               	skipnc
  7996     0F8C  0AD4               	incf	_index+1,f
  7997     0F8D  3000               	movlw	0
  7998     0F8E  07D4               	addwf	_index+1,f
  7999     0F8F                     l3576:
  8000                           
  8001                           ;auth.c: 40:         clcd_putch('*', (0xC0 + index));
  8002     0F8F  0853               	movf	_index,w
  8003     0F90  3EC0               	addlw	192
  8004     0F91  00F9               	movwf	clcd_putch@addr
  8005     0F92  302A               	movlw	42
  8006     0F93  120A  118A  27E8  120A  158A  	fcall	_clcd_putch
  8007     0F98                     l3578:
  8008                           
  8009                           ;auth.c: 45:     if(index == 4){
  8010     0F98  3004               	movlw	4
  8011     0F99  1283               	bcf	3,5	;RP0=0, select bank0
  8012     0F9A  1303               	bcf	3,6	;RP1=0, select bank0
  8013     0F9B  0653               	xorwf	_index,w
  8014     0F9C  0454               	iorwf	_index+1,w
  8015     0F9D  1D03               	btfss	3,2
  8016     0F9E  2FA0               	goto	u4111
  8017     0F9F  2FA1               	goto	u4110
  8018     0FA0                     u4111:
  8019     0FA0  2FFF               	goto	l474
  8020     0FA1                     u4110:
  8021     0FA1                     l3580:
  8022                           
  8023                           ;auth.c: 47:         unsigned int i = 0;
  8024     0FA1  01A5               	clrf	auth_user@i
  8025     0FA2  01A6               	clrf	auth_user@i+1
  8026     0FA3                     l3586:
  8027                           
  8028                           ;auth.c: 49:             if(user_entered_password[i] != original_password[i]){
  8029     0FA3  0825               	movf	auth_user@i,w
  8030     0FA4  3EDA               	addlw	(low (_original_password| 0))& (0+255)
  8031     0FA5  0084               	movwf	4
  8032     0FA6  1383               	bcf	3,7	;select IRP bank1
  8033     0FA7  0800               	movf	0,w
  8034     0FA8  00A1               	movwf	??_auth_user
  8035     0FA9  0825               	movf	auth_user@i,w
  8036     0FAA  3EA0               	addlw	(low (_user_entered_password| 0))& (0+255)
  8037     0FAB  0084               	movwf	4
  8038     0FAC  0800               	movf	0,w
  8039     0FAD  0621               	xorwf	??_auth_user,w
  8040     0FAE  1903               	skipnz
  8041     0FAF  2FB1               	goto	u4121
  8042     0FB0  2FB2               	goto	u4120
  8043     0FB1                     u4121:
  8044     0FB1  2FB3               	goto	l3590
  8045     0FB2                     u4120:
  8046     0FB2  2FC2               	goto	l3592
  8047     0FB3                     l3590:
  8048                           
  8049                           ;auth.c: 52:         }
  8050     0FB3  3001               	movlw	1
  8051     0FB4  07A5               	addwf	auth_user@i,f
  8052     0FB5  1803               	skipnc
  8053     0FB6  0AA6               	incf	auth_user@i+1,f
  8054     0FB7  3000               	movlw	0
  8055     0FB8  07A6               	addwf	auth_user@i+1,f
  8056     0FB9  3000               	movlw	0
  8057     0FBA  0226               	subwf	auth_user@i+1,w
  8058     0FBB  3004               	movlw	4
  8059     0FBC  1903               	skipnz
  8060     0FBD  0225               	subwf	auth_user@i,w
  8061     0FBE  1C03               	skipc
  8062     0FBF  2FC1               	goto	u4131
  8063     0FC0  2FC2               	goto	u4130
  8064     0FC1                     u4131:
  8065     0FC1  2FA3               	goto	l3586
  8066     0FC2                     u4130:
  8067     0FC2                     l3592:
  8068                           
  8069                           ;auth.c: 55:         if(i == 4){
  8070     0FC2  3004               	movlw	4
  8071     0FC3  0625               	xorwf	auth_user@i,w
  8072     0FC4  0426               	iorwf	auth_user@i+1,w
  8073     0FC5  1D03               	btfss	3,2
  8074     0FC6  2FC8               	goto	u4141
  8075     0FC7  2FC9               	goto	u4140
  8076     0FC8                     u4141:
  8077     0FC8  2FE6               	goto	l3604
  8078     0FC9                     u4140:
  8079     0FC9                     l3594:
  8080                           
  8081                           ;auth.c: 56:             access = 1;
  8082     0FC9  3001               	movlw	1
  8083     0FCA  00DB               	movwf	_access
  8084     0FCB                     l3596:
  8085                           
  8086                           ;auth.c: 57:             clcd_print("Access Granted.", (0xC0 + 0));
  8087     0FCB  3089               	movlw	low (STR_32| (0+32768))
  8088     0FCC  00F6               	movwf	clcd_print@str
  8089     0FCD  3084               	movlw	high (STR_32| (0+32768))
  8090     0FCE  00F7               	movwf	clcd_print@str+1
  8091     0FCF  30C0               	movlw	192
  8092     0FD0  00F8               	movwf	clcd_print@addr
  8093     0FD1  120A  158A  210F  120A  158A  	fcall	_clcd_print
  8094     0FD6                     l3598:
  8095                           
  8096                           ;auth.c: 58:             _delay((unsigned long)((500)*(20000000/4000.0)));
  8097     0FD6  300D               	movlw	13
  8098     0FD7  1283               	bcf	3,5	;RP0=0, select bank0
  8099     0FD8  1303               	bcf	3,6	;RP1=0, select bank0
  8100     0FD9  00A3               	movwf	??_auth_user+2
  8101     0FDA  30AF               	movlw	175
  8102     0FDB  00A2               	movwf	??_auth_user+1
  8103     0FDC  30B5               	movlw	181
  8104     0FDD  00A1               	movwf	??_auth_user
  8105     0FDE                     u4297:
  8106     0FDE  0BA1               	decfsz	??_auth_user,f
  8107     0FDF  2FDE               	goto	u4297
  8108     0FE0  0BA2               	decfsz	??_auth_user+1,f
  8109     0FE1  2FDE               	goto	u4297
  8110     0FE2  0BA3               	decfsz	??_auth_user+2,f
  8111     0FE3  2FDE               	goto	u4297
  8112     0FE4  2FE5               	nop2
  8113     0FE5  2FFF               	goto	l474
  8114     0FE6                     l3604:
  8115                           
  8116                           ;auth.c: 62:             access = 0;
  8117     0FE6  01DB               	clrf	_access
  8118     0FE7                     l3606:
  8119                           
  8120                           ;auth.c: 63:             attempt_no++;
  8121     0FE7  3001               	movlw	1
  8122     0FE8  07D1               	addwf	_attempt_no,f
  8123     0FE9  1803               	skipnc
  8124     0FEA  0AD2               	incf	_attempt_no+1,f
  8125     0FEB  3000               	movlw	0
  8126     0FEC  07D2               	addwf	_attempt_no+1,f
  8127     0FED                     l3608:
  8128                           
  8129                           ;auth.c: 64:             index = 0;
  8130     0FED  01D3               	clrf	_index
  8131     0FEE  01D4               	clrf	_index+1
  8132     0FEF                     l3610:
  8133                           
  8134                           ;auth.c: 66:             if(attempt_no == 3){
  8135     0FEF  3003               	movlw	3
  8136     0FF0  0651               	xorwf	_attempt_no,w
  8137     0FF1  0452               	iorwf	_attempt_no+1,w
  8138     0FF2  1D03               	btfss	3,2
  8139     0FF3  2FF5               	goto	u4151
  8140     0FF4  2FF6               	goto	u4150
  8141     0FF5                     u4151:
  8142     0FF5  2FFF               	goto	l474
  8143     0FF6                     u4150:
  8144     0FF6                     l3612:
  8145                           
  8146                           ;auth.c: 67:                 run_delay();
  8147     0FF6  120A  158A  2375  120A  158A  	fcall	_run_delay
  8148     0FFB                     l3614:
  8149                           
  8150                           ;auth.c: 68:                 attempt_no = 0;
  8151     0FFB  1283               	bcf	3,5	;RP0=0, select bank0
  8152     0FFC  1303               	bcf	3,6	;RP1=0, select bank0
  8153     0FFD  01D1               	clrf	_attempt_no
  8154     0FFE  01D2               	clrf	_attempt_no+1
  8155     0FFF                     l474:
  8156     0FFF  0008               	return
  8157     1000                     __end_of_auth_user:
  8158                           
  8159                           	psect	text42
  8160     0B75                     __ptext42:	
  8161 ;; *************** function _run_delay *****************
  8162 ;; Defined at:
  8163 ;;		line 77 in file "auth.c"
  8164 ;; Parameters:    Size  Location     Type
  8165 ;;		None
  8166 ;; Auto vars:     Size  Location     Type
  8167 ;;		None
  8168 ;; Return value:  Size  Location     Type
  8169 ;;                  1    wreg      void 
  8170 ;; Registers used:
  8171 ;;		wreg, fsr0l, fsr0h, status,2, status,0, pclath, btemp1, cstack
  8172 ;; Tracked objects:
  8173 ;;		On entry : 0/0
  8174 ;;		On exit  : 0/0
  8175 ;;		Unchanged: 0/0
  8176 ;; Data sizes:     COMMON   BANK0   BANK1   BANK3   BANK2
  8177 ;;      Params:         0       0       0       0       0
  8178 ;;      Locals:         0       0       0       0       0
  8179 ;;      Temps:          0       0       0       0       0
  8180 ;;      Totals:         0       0       0       0       0
  8181 ;;Total ram usage:        0 bytes
  8182 ;; Hardware stack levels used: 1
  8183 ;; Hardware stack levels required when called: 2
  8184 ;; This function calls:
  8185 ;;		___lwdiv
  8186 ;;		___lwmod
  8187 ;;		_clcd_print
  8188 ;;		_clcd_putch
  8189 ;;		_init_timer0
  8190 ;; This function is called by:
  8191 ;;		_auth_user
  8192 ;; This function uses a non-reentrant model
  8193 ;;
  8194                           
  8195     0B75                     _run_delay:	
  8196                           ;psect for function _run_delay
  8197                           
  8198     0B75                     l3374:	
  8199                           ;incstack = 0
  8200                           ; Regs used in _run_delay: [wreg-fsr0h+status,2+status,0+pclath+btemp1+cstack]
  8201                           
  8202                           
  8203                           ;auth.c: 79:     init_timer0();
  8204     0B75  160A  118A  26CD  120A  158A  	fcall	_init_timer0
  8205                           
  8206                           ;auth.c: 81:     while(delay){
  8207     0B7A  2BC1               	goto	l3382
  8208     0B7B                     l3376:
  8209                           
  8210                           ;auth.c: 82:         clcd_print(" ENTERING WAIT  ", (0x80 + 0));
  8211     0B7B  3023               	movlw	low (STR_33| (0+32768))
  8212     0B7C  00F6               	movwf	clcd_print@str
  8213     0B7D  3084               	movlw	high (STR_33| (0+32768))
  8214     0B7E  00F7               	movwf	clcd_print@str+1
  8215     0B7F  3080               	movlw	128
  8216     0B80  00F8               	movwf	clcd_print@addr
  8217     0B81  120A  158A  210F  120A  158A  	fcall	_clcd_print
  8218                           
  8219                           ;auth.c: 83:         clcd_print("Seconds left: ", (0xC0 + 0));
  8220     0B86  3099               	movlw	low (STR_34| (0+32768))
  8221     0B87  00F6               	movwf	clcd_print@str
  8222     0B88  3084               	movlw	high (STR_34| (0+32768))
  8223     0B89  00F7               	movwf	clcd_print@str+1
  8224     0B8A  30C0               	movlw	192
  8225     0B8B  00F8               	movwf	clcd_print@addr
  8226     0B8C  120A  158A  210F  120A  158A  	fcall	_clcd_print
  8227     0B91                     l3378:
  8228                           
  8229                           ;auth.c: 86:         clcd_putch((delay / 10) + '0', (0xC0 + 14));
  8230     0B91  30CE               	movlw	206
  8231     0B92  00F9               	movwf	clcd_putch@addr
  8232     0B93  300A               	movlw	10
  8233     0B94  00F2               	movwf	___lwdiv@divisor
  8234     0B95  3000               	movlw	0
  8235     0B96  00F3               	movwf	___lwdiv@divisor+1
  8236     0B97  1283               	bcf	3,5	;RP0=0, select bank0
  8237     0B98  1303               	bcf	3,6	;RP1=0, select bank0
  8238     0B99  086C               	movf	_delay+1,w
  8239     0B9A  00F5               	movwf	___lwdiv@dividend+1
  8240     0B9B  086B               	movf	_delay,w
  8241     0B9C  00F4               	movwf	___lwdiv@dividend
  8242     0B9D  120A  158A  22E1  120A  158A  	fcall	___lwdiv
  8243     0BA2  0872               	movf	?___lwdiv,w
  8244     0BA3  3E30               	addlw	48
  8245     0BA4  120A  118A  27E8  120A  158A  	fcall	_clcd_putch
  8246     0BA9                     l3380:
  8247                           
  8248                           ;auth.c: 87:         clcd_putch((delay % 10) + '0', (0xC0 + 15));
  8249     0BA9  30CF               	movlw	207
  8250     0BAA  00F9               	movwf	clcd_putch@addr
  8251     0BAB  300A               	movlw	10
  8252     0BAC  00F2               	movwf	___lwmod@divisor
  8253     0BAD  3000               	movlw	0
  8254     0BAE  00F3               	movwf	___lwmod@divisor+1
  8255     0BAF  1283               	bcf	3,5	;RP0=0, select bank0
  8256     0BB0  1303               	bcf	3,6	;RP1=0, select bank0
  8257     0BB1  086C               	movf	_delay+1,w
  8258     0BB2  00F5               	movwf	___lwmod@dividend+1
  8259     0BB3  086B               	movf	_delay,w
  8260     0BB4  00F4               	movwf	___lwmod@dividend
  8261     0BB5  120A  158A  2270  120A  158A  	fcall	___lwmod
  8262     0BBA  0872               	movf	?___lwmod,w
  8263     0BBB  3E30               	addlw	48
  8264     0BBC  120A  118A  27E8  120A  158A  	fcall	_clcd_putch
  8265     0BC1                     l3382:
  8266                           
  8267                           ;auth.c: 81:     while(delay){
  8268     0BC1  1283               	bcf	3,5	;RP0=0, select bank0
  8269     0BC2  1303               	bcf	3,6	;RP1=0, select bank0
  8270     0BC3  086B               	movf	_delay,w
  8271     0BC4  046C               	iorwf	_delay+1,w
  8272     0BC5  1D03               	btfss	3,2
  8273     0BC6  2BC8               	goto	u3771
  8274     0BC7  2BC9               	goto	u3770
  8275     0BC8                     u3771:
  8276     0BC8  2B7B               	goto	l3376
  8277     0BC9                     u3770:
  8278     0BC9                     l3384:
  8279                           
  8280                           ;auth.c: 90:     delay = 30;
  8281     0BC9  301E               	movlw	30
  8282     0BCA  00EB               	movwf	_delay
  8283     0BCB  3000               	movlw	0
  8284     0BCC  00EC               	movwf	_delay+1
  8285     0BCD                     l482:
  8286     0BCD  0008               	return
  8287     0BCE                     __end_of_run_delay:
  8288                           
  8289                           	psect	text43
  8290     16CD                     __ptext43:	
  8291 ;; *************** function _init_timer0 *****************
  8292 ;; Defined at:
  8293 ;;		line 3 in file "timers.c"
  8294 ;; Parameters:    Size  Location     Type
  8295 ;;		None
  8296 ;; Auto vars:     Size  Location     Type
  8297 ;;		None
  8298 ;; Return value:  Size  Location     Type
  8299 ;;                  1    wreg      void 
  8300 ;; Registers used:
  8301 ;;		None
  8302 ;; Tracked objects:
  8303 ;;		On entry : 0/0
  8304 ;;		On exit  : 0/0
  8305 ;;		Unchanged: 0/0
  8306 ;; Data sizes:     COMMON   BANK0   BANK1   BANK3   BANK2
  8307 ;;      Params:         0       0       0       0       0
  8308 ;;      Locals:         0       0       0       0       0
  8309 ;;      Temps:          0       0       0       0       0
  8310 ;;      Totals:         0       0       0       0       0
  8311 ;;Total ram usage:        0 bytes
  8312 ;; Hardware stack levels used: 1
  8313 ;; Hardware stack levels required when called: 1
  8314 ;; This function calls:
  8315 ;;		Nothing
  8316 ;; This function is called by:
  8317 ;;		_run_delay
  8318 ;; This function uses a non-reentrant model
  8319 ;;
  8320                           
  8321     16CD                     _init_timer0:	
  8322                           ;psect for function _init_timer0
  8323                           
  8324     16CD                     l2250:	
  8325                           ;incstack = 0
  8326                           ; Regs used in _init_timer0: []
  8327                           
  8328                           
  8329                           ;timers.c: 6:     T0CS = 0;
  8330     16CD  1683               	bsf	3,5	;RP0=1, select bank1
  8331     16CE  1303               	bcf	3,6	;RP1=0, select bank1
  8332     16CF  1281               	bcf	1,5	;volatile
  8333                           
  8334                           ;timers.c: 9:     PSA = 1;
  8335     16D0  1581               	bsf	1,3	;volatile
  8336                           
  8337                           ;timers.c: 11:     TMR0 = 6;
  8338     16D1  3006               	movlw	6
  8339     16D2  1283               	bcf	3,5	;RP0=0, select bank0
  8340     16D3  1303               	bcf	3,6	;RP1=0, select bank0
  8341     16D4  0081               	movwf	1	;volatile
  8342                           
  8343                           ;timers.c: 14:     TMR0IE = 1;
  8344     16D5  168B               	bsf	11,5	;volatile
  8345     16D6                     l493:
  8346     16D6  0008               	return
  8347     16D7                     __end_of_init_timer0:
  8348                           
  8349                           	psect	text44
  8350     07E8                     __ptext44:	
  8351 ;; *************** function _clcd_putch *****************
  8352 ;; Defined at:
  8353 ;;		line 57 in file "clcd.c"
  8354 ;; Parameters:    Size  Location     Type
  8355 ;;  data            1    wreg     const unsigned char 
  8356 ;;  addr            1    9[COMMON] unsigned char 
  8357 ;; Auto vars:     Size  Location     Type
  8358 ;;  data            1    0[BANK0 ] const unsigned char 
  8359 ;; Return value:  Size  Location     Type
  8360 ;;                  1    wreg      void 
  8361 ;; Registers used:
  8362 ;;		wreg, status,2, status,0, pclath, cstack
  8363 ;; Tracked objects:
  8364 ;;		On entry : 0/0
  8365 ;;		On exit  : 0/0
  8366 ;;		Unchanged: 0/0
  8367 ;; Data sizes:     COMMON   BANK0   BANK1   BANK3   BANK2
  8368 ;;      Params:         1       0       0       0       0
  8369 ;;      Locals:         0       1       0       0       0
  8370 ;;      Temps:          0       0       0       0       0
  8371 ;;      Totals:         1       1       0       0       0
  8372 ;;Total ram usage:        2 bytes
  8373 ;; Hardware stack levels used: 1
  8374 ;; Hardware stack levels required when called: 1
  8375 ;; This function calls:
  8376 ;;		_clcd_write
  8377 ;; This function is called by:
  8378 ;;		_set_time
  8379 ;;		_auth_user
  8380 ;;		_run_delay
  8381 ;; This function uses a non-reentrant model
  8382 ;;
  8383                           
  8384     07E8                     _clcd_putch:	
  8385                           ;psect for function _clcd_putch
  8386                           
  8387                           
  8388                           ;incstack = 0
  8389                           ; Regs used in _clcd_putch: [wreg+status,2+status,0+pclath+cstack]
  8390                           ;clcd_putch@data stored from wreg
  8391     07E8  1283               	bcf	3,5	;RP0=0, select bank0
  8392     07E9  1303               	bcf	3,6	;RP1=0, select bank0
  8393     07EA  00A0               	movwf	clcd_putch@data
  8394     07EB                     l3098:
  8395                           
  8396                           ;clcd.c: 57: void clcd_putch(const char data, unsigned char addr);clcd.c: 58: {;clcd.c: 
      +                          59:     clcd_write(addr, 0);
  8397     07EB  01F2               	clrf	clcd_write@mode
  8398     07EC  0879               	movf	clcd_putch@addr,w
  8399     07ED  120A  158A  2204  120A  118A  	fcall	_clcd_write
  8400                           
  8401                           ;clcd.c: 60:     clcd_write(data, 1);
  8402     07F2  01F2               	clrf	clcd_write@mode
  8403     07F3  0AF2               	incf	clcd_write@mode,f
  8404     07F4  1283               	bcf	3,5	;RP0=0, select bank0
  8405     07F5  1303               	bcf	3,6	;RP1=0, select bank0
  8406     07F6  0820               	movf	clcd_putch@data,w
  8407     07F7  120A  158A  2204  120A  118A  	fcall	_clcd_write
  8408     07FC                     l86:
  8409     07FC  0008               	return
  8410     07FD                     __end_of_clcd_putch:
  8411                           
  8412                           	psect	text45
  8413     090F                     __ptext45:	
  8414 ;; *************** function _clcd_print *****************
  8415 ;; Defined at:
  8416 ;;		line 63 in file "clcd.c"
  8417 ;; Parameters:    Size  Location     Type
  8418 ;;  str             2    6[COMMON] PTR const unsigned char 
  8419 ;;		 -> STR_34(15), STR_33(17), STR_32(16), STR_31(17), 
  8420 ;;		 -> STR_30(17), STR_29(17), STR_28(3), STR_27(3), 
  8421 ;;		 -> STR_26(3), STR_24(15), STR_23(9), STR_22(17), 
  8422 ;;		 -> STR_21(17), STR_20(10), STR_19(8), logs(17), 
  8423 ;;		 -> STR_18(3), STR_17(3), STR_16(3), STR_15(3), 
  8424 ;;		 -> STR_14(17), speed(3), STR_13(15), STR_12(15), 
  8425 ;;		 -> STR_11(15), STR_10(15), STR_9(15), STR_8(3), 
  8426 ;;		 -> STR_7(3), STR_6(3), STR_5(3), STR_4(3), 
  8427 ;;		 -> STR_3(3), STR_2(3), STR_1(3), time(9), 
  8428 ;;  addr            1    8[COMMON] unsigned char 
  8429 ;; Auto vars:     Size  Location     Type
  8430 ;;		None
  8431 ;; Return value:  Size  Location     Type
  8432 ;;                  1    wreg      void 
  8433 ;; Registers used:
  8434 ;;		wreg, fsr0l, fsr0h, status,2, status,0, pclath, btemp1, cstack
  8435 ;; Tracked objects:
  8436 ;;		On entry : 0/0
  8437 ;;		On exit  : 0/0
  8438 ;;		Unchanged: 0/0
  8439 ;; Data sizes:     COMMON   BANK0   BANK1   BANK3   BANK2
  8440 ;;      Params:         3       0       0       0       0
  8441 ;;      Locals:         0       0       0       0       0
  8442 ;;      Temps:          0       0       0       0       0
  8443 ;;      Totals:         3       0       0       0       0
  8444 ;;Total ram usage:        3 bytes
  8445 ;; Hardware stack levels used: 1
  8446 ;; Hardware stack levels required when called: 1
  8447 ;; This function calls:
  8448 ;;		_clcd_write
  8449 ;; This function is called by:
  8450 ;;		_display_time
  8451 ;;		_dashboard
  8452 ;;		_print_star
  8453 ;;		_main_menu
  8454 ;;		_view_log
  8455 ;;		_clear_log
  8456 ;;		_download_log
  8457 ;;		_display_indicator
  8458 ;;		_set_time
  8459 ;;		_auth_user
  8460 ;;		_run_delay
  8461 ;; This function uses a non-reentrant model
  8462 ;;
  8463                           
  8464     090F                     _clcd_print:	
  8465                           ;psect for function _clcd_print
  8466                           
  8467     090F                     l3050:	
  8468                           ;incstack = 0
  8469                           ; Regs used in _clcd_print: [wreg-fsr0h+status,2+status,0+pclath+btemp1+cstack]
  8470                           
  8471                           
  8472                           ;clcd.c: 63: void clcd_print(const char *str, unsigned char addr);clcd.c: 64: {;clcd.c: 
      +                          65:     clcd_write(addr, 0);
  8473     090F  01F2               	clrf	clcd_write@mode
  8474     0910  0878               	movf	clcd_print@addr,w
  8475     0911  120A  158A  2204  120A  158A  	fcall	_clcd_write
  8476                           
  8477                           ;clcd.c: 67:     while (*str != '\0')
  8478     0916  292D               	goto	l3056
  8479     0917                     l3052:
  8480                           
  8481                           ;clcd.c: 68:     {;clcd.c: 69:         clcd_write(*str, 1);
  8482     0917  01F2               	clrf	clcd_write@mode
  8483     0918  0AF2               	incf	clcd_write@mode,f
  8484     0919  0877               	movf	clcd_print@str+1,w
  8485     091A  00FF               	movwf	btemp1
  8486     091B  0876               	movf	clcd_print@str,w
  8487     091C  0084               	movwf	4
  8488     091D  160A  118A  2000  120A  158A  	fcall	stringtab
  8489     0922  120A  158A  2204  120A  158A  	fcall	_clcd_write
  8490     0927                     l3054:
  8491                           
  8492                           ;clcd.c: 70:         str++;
  8493     0927  3001               	movlw	1
  8494     0928  07F6               	addwf	clcd_print@str,f
  8495     0929  1803               	skipnc
  8496     092A  0AF7               	incf	clcd_print@str+1,f
  8497     092B  3000               	movlw	0
  8498     092C  07F7               	addwf	clcd_print@str+1,f
  8499     092D                     l3056:
  8500                           
  8501                           ;clcd.c: 67:     while (*str != '\0')
  8502     092D  0877               	movf	clcd_print@str+1,w
  8503     092E  1283               	bcf	3,5	;RP0=0, select bank0
  8504     092F  1303               	bcf	3,6	;RP1=0, select bank0
  8505     0930  00FF               	movwf	btemp1
  8506     0931  0876               	movf	clcd_print@str,w
  8507     0932  0084               	movwf	4
  8508     0933  160A  118A  2000  120A  158A  	fcall	stringtab
  8509     0938  3A00               	xorlw	0
  8510     0939  1D03               	skipz
  8511     093A  293C               	goto	u3331
  8512     093B  293D               	goto	u3330
  8513     093C                     u3331:
  8514     093C  2917               	goto	l3052
  8515     093D                     u3330:
  8516     093D                     l92:
  8517     093D  0008               	return
  8518     093E                     __end_of_clcd_print:
  8519                           
  8520                           	psect	text46
  8521     0A04                     __ptext46:	
  8522 ;; *************** function _clcd_write *****************
  8523 ;; Defined at:
  8524 ;;		line 5 in file "clcd.c"
  8525 ;; Parameters:    Size  Location     Type
  8526 ;;  byte            1    wreg     unsigned char 
  8527 ;;  mode            1    2[COMMON] unsigned char 
  8528 ;; Auto vars:     Size  Location     Type
  8529 ;;  byte            1    5[COMMON] unsigned char 
  8530 ;; Return value:  Size  Location     Type
  8531 ;;                  1    wreg      void 
  8532 ;; Registers used:
  8533 ;;		wreg, status,2, status,0
  8534 ;; Tracked objects:
  8535 ;;		On entry : 0/0
  8536 ;;		On exit  : 0/0
  8537 ;;		Unchanged: 0/0
  8538 ;; Data sizes:     COMMON   BANK0   BANK1   BANK3   BANK2
  8539 ;;      Params:         1       0       0       0       0
  8540 ;;      Locals:         1       0       0       0       0
  8541 ;;      Temps:          2       0       0       0       0
  8542 ;;      Totals:         4       0       0       0       0
  8543 ;;Total ram usage:        4 bytes
  8544 ;; Hardware stack levels used: 1
  8545 ;; Hardware stack levels required when called: 1
  8546 ;; This function calls:
  8547 ;;		Nothing
  8548 ;; This function is called by:
  8549 ;;		_init_display_controller
  8550 ;;		_clcd_putch
  8551 ;;		_clcd_print
  8552 ;;		_clear_screen
  8553 ;; This function uses a non-reentrant model
  8554 ;;
  8555                           
  8556     0A04                     _clcd_write:	
  8557                           ;psect for function _clcd_write
  8558                           
  8559                           
  8560                           ;incstack = 0
  8561                           ; Regs used in _clcd_write: [wreg+status,2+status,0]
  8562                           ;clcd_write@byte stored from wreg
  8563     0A04  00F5               	movwf	clcd_write@byte
  8564     0A05                     l3024:
  8565                           
  8566                           ;clcd.c: 5: static void clcd_write(unsigned char byte, unsigned char mode);clcd.c: 6: {;
      +                          clcd.c: 7:     RE2 = mode;
  8567     0A05  1872               	btfsc	clcd_write@mode,0
  8568     0A06  2A08               	goto	u3301
  8569     0A07  2A0C               	goto	u3300
  8570     0A08                     u3301:
  8571     0A08  1283               	bcf	3,5	;RP0=0, select bank0
  8572     0A09  1303               	bcf	3,6	;RP1=0, select bank0
  8573     0A0A  1509               	bsf	9,2	;volatile
  8574     0A0B  2A0F               	goto	u3314
  8575     0A0C                     u3300:
  8576     0A0C  1283               	bcf	3,5	;RP0=0, select bank0
  8577     0A0D  1303               	bcf	3,6	;RP1=0, select bank0
  8578     0A0E  1109               	bcf	9,2	;volatile
  8579     0A0F                     u3314:
  8580     0A0F                     l3026:
  8581                           
  8582                           ;clcd.c: 9:     PORTD = byte & 0xF0;
  8583     0A0F  0875               	movf	clcd_write@byte,w
  8584     0A10  39F0               	andlw	240
  8585     0A11  0088               	movwf	8	;volatile
  8586     0A12                     l3028:
  8587                           
  8588                           ;clcd.c: 10:     RE1 = 1;
  8589     0A12  1489               	bsf	9,1	;volatile
  8590     0A13                     l3030:
  8591                           
  8592                           ;clcd.c: 11:     _delay((unsigned long)((100)*(20000000/4000000.0)));
  8593     0A13  30A6               	movlw	166
  8594     0A14  00F3               	movwf	??_clcd_write
  8595     0A15                     u4307:
  8596     0A15  0BF3               	decfsz	??_clcd_write,f
  8597     0A16  2A15               	goto	u4307
  8598     0A17  0000               	nop
  8599     0A18                     l3032:
  8600                           
  8601                           ;clcd.c: 12:     RE1 = 0;
  8602     0A18  1283               	bcf	3,5	;RP0=0, select bank0
  8603     0A19  1303               	bcf	3,6	;RP1=0, select bank0
  8604     0A1A  1089               	bcf	9,1	;volatile
  8605     0A1B                     l3034:
  8606                           
  8607                           ;clcd.c: 14:     PORTD = (byte & 0x0F) << 4;
  8608     0A1B  0875               	movf	clcd_write@byte,w
  8609     0A1C  390F               	andlw	15
  8610     0A1D  00F3               	movwf	??_clcd_write
  8611     0A1E  3003               	movlw	3
  8612     0A1F                     u3325:
  8613     0A1F  1003               	clrc
  8614     0A20  0DF3               	rlf	??_clcd_write,f
  8615     0A21  3EFF               	addlw	-1
  8616     0A22  1D03               	skipz
  8617     0A23  2A1F               	goto	u3325
  8618     0A24  1003               	clrc
  8619     0A25  0D73               	rlf	??_clcd_write,w
  8620     0A26  0088               	movwf	8	;volatile
  8621     0A27                     l3036:
  8622                           
  8623                           ;clcd.c: 15:     RE1 = 1;
  8624     0A27  1489               	bsf	9,1	;volatile
  8625     0A28                     l3038:
  8626                           
  8627                           ;clcd.c: 16:     _delay((unsigned long)((100)*(20000000/4000000.0)));
  8628     0A28  30A6               	movlw	166
  8629     0A29  00F3               	movwf	??_clcd_write
  8630     0A2A                     u4317:
  8631     0A2A  0BF3               	decfsz	??_clcd_write,f
  8632     0A2B  2A2A               	goto	u4317
  8633     0A2C  0000               	nop
  8634     0A2D                     l3040:
  8635                           
  8636                           ;clcd.c: 17:     RE1 = 0;
  8637     0A2D  1283               	bcf	3,5	;RP0=0, select bank0
  8638     0A2E  1303               	bcf	3,6	;RP1=0, select bank0
  8639     0A2F  1089               	bcf	9,1	;volatile
  8640     0A30                     l3042:
  8641                           
  8642                           ;clcd.c: 19:     _delay((unsigned long)((4100)*(20000000/4000000.0)));
  8643     0A30  301B               	movlw	27
  8644     0A31  00F4               	movwf	??_clcd_write+1
  8645     0A32  309E               	movlw	158
  8646     0A33  00F3               	movwf	??_clcd_write
  8647     0A34                     u4327:
  8648     0A34  0BF3               	decfsz	??_clcd_write,f
  8649     0A35  2A34               	goto	u4327
  8650     0A36  0BF4               	decfsz	??_clcd_write+1,f
  8651     0A37  2A34               	goto	u4327
  8652     0A38  0000               	nop
  8653     0A39                     l77:
  8654     0A39  0008               	return
  8655     0A3A                     __end_of_clcd_write:
  8656                           
  8657                           	psect	text47
  8658     0A70                     __ptext47:	
  8659 ;; *************** function ___lwmod *****************
  8660 ;; Defined at:
  8661 ;;		line 5 in file "/opt/microchip/xc8/v3.10/pic/sources/c99/common/lwmod.c"
  8662 ;; Parameters:    Size  Location     Type
  8663 ;;  divisor         2    2[COMMON] unsigned int 
  8664 ;;  dividend        2    4[COMMON] unsigned int 
  8665 ;; Auto vars:     Size  Location     Type
  8666 ;;  counter         1    6[COMMON] unsigned char 
  8667 ;; Return value:  Size  Location     Type
  8668 ;;                  2    2[COMMON] unsigned int 
  8669 ;; Registers used:
  8670 ;;		wreg, status,2, status,0
  8671 ;; Tracked objects:
  8672 ;;		On entry : 0/0
  8673 ;;		On exit  : 0/0
  8674 ;;		Unchanged: 0/0
  8675 ;; Data sizes:     COMMON   BANK0   BANK1   BANK3   BANK2
  8676 ;;      Params:         4       0       0       0       0
  8677 ;;      Locals:         1       0       0       0       0
  8678 ;;      Temps:          0       0       0       0       0
  8679 ;;      Totals:         5       0       0       0       0
  8680 ;;Total ram usage:        5 bytes
  8681 ;; Hardware stack levels used: 1
  8682 ;; Hardware stack levels required when called: 1
  8683 ;; This function calls:
  8684 ;;		Nothing
  8685 ;; This function is called by:
  8686 ;;		_write_event
  8687 ;;		_dashboard
  8688 ;;		_set_time
  8689 ;;		_run_delay
  8690 ;; This function uses a non-reentrant model
  8691 ;;
  8692                           
  8693     0A70                     ___lwmod:	
  8694                           ;psect for function ___lwmod
  8695                           
  8696     0A70                     l2302:	
  8697                           ;incstack = 0
  8698                           ; Regs used in ___lwmod: [wreg+status,2+status,0]
  8699                           
  8700     0A70  0872               	movf	___lwmod@divisor,w
  8701     0A71  0473               	iorwf	___lwmod@divisor+1,w
  8702     0A72  1903               	btfsc	3,2
  8703     0A73  2A75               	goto	u2071
  8704     0A74  2A76               	goto	u2070
  8705     0A75                     u2071:
  8706     0A75  2AA3               	goto	l2320
  8707     0A76                     u2070:
  8708     0A76                     l2304:
  8709     0A76  3001               	movlw	1
  8710     0A77  00F6               	movwf	___lwmod@counter
  8711     0A78  2A82               	goto	l2310
  8712     0A79                     l2306:
  8713     0A79  3001               	movlw	1
  8714     0A7A                     u2085:
  8715     0A7A  1003               	clrc
  8716     0A7B  0DF2               	rlf	___lwmod@divisor,f
  8717     0A7C  0DF3               	rlf	___lwmod@divisor+1,f
  8718     0A7D  3EFF               	addlw	-1
  8719     0A7E  1D03               	skipz
  8720     0A7F  2A7A               	goto	u2085
  8721     0A80                     l2308:
  8722     0A80  3001               	movlw	1
  8723     0A81  07F6               	addwf	___lwmod@counter,f
  8724     0A82                     l2310:
  8725     0A82  1FF3               	btfss	___lwmod@divisor+1,7
  8726     0A83  2A85               	goto	u2091
  8727     0A84  2A86               	goto	u2090
  8728     0A85                     u2091:
  8729     0A85  2A79               	goto	l2306
  8730     0A86                     u2090:
  8731     0A86                     l2312:
  8732     0A86  0873               	movf	___lwmod@divisor+1,w
  8733     0A87  0275               	subwf	___lwmod@dividend+1,w
  8734     0A88  1D03               	skipz
  8735     0A89  2A8C               	goto	u2105
  8736     0A8A  0872               	movf	___lwmod@divisor,w
  8737     0A8B  0274               	subwf	___lwmod@dividend,w
  8738     0A8C                     u2105:
  8739     0A8C  1C03               	skipc
  8740     0A8D  2A8F               	goto	u2101
  8741     0A8E  2A90               	goto	u2100
  8742     0A8F                     u2101:
  8743     0A8F  2A96               	goto	l2316
  8744     0A90                     u2100:
  8745     0A90                     l2314:
  8746     0A90  0872               	movf	___lwmod@divisor,w
  8747     0A91  02F4               	subwf	___lwmod@dividend,f
  8748     0A92  0873               	movf	___lwmod@divisor+1,w
  8749     0A93  1C03               	skipc
  8750     0A94  03F5               	decf	___lwmod@dividend+1,f
  8751     0A95  02F5               	subwf	___lwmod@dividend+1,f
  8752     0A96                     l2316:
  8753     0A96  3001               	movlw	1
  8754     0A97                     u2115:
  8755     0A97  1003               	clrc
  8756     0A98  0CF3               	rrf	___lwmod@divisor+1,f
  8757     0A99  0CF2               	rrf	___lwmod@divisor,f
  8758     0A9A  3EFF               	addlw	-1
  8759     0A9B  1D03               	skipz
  8760     0A9C  2A97               	goto	u2115
  8761     0A9D                     l2318:
  8762     0A9D  3001               	movlw	1
  8763     0A9E  02F6               	subwf	___lwmod@counter,f
  8764     0A9F  1D03               	btfss	3,2
  8765     0AA0  2AA2               	goto	u2121
  8766     0AA1  2AA3               	goto	u2120
  8767     0AA2                     u2121:
  8768     0AA2  2A86               	goto	l2312
  8769     0AA3                     u2120:
  8770     0AA3                     l2320:
  8771     0AA3  0875               	movf	___lwmod@dividend+1,w
  8772     0AA4  00F3               	movwf	?___lwmod+1
  8773     0AA5  0874               	movf	___lwmod@dividend,w
  8774     0AA6  00F2               	movwf	?___lwmod
  8775     0AA7                     l884:
  8776     0AA7  0008               	return
  8777     0AA8                     __end_of___lwmod:
  8778                           
  8779                           	psect	text48
  8780     0AE1                     __ptext48:	
  8781 ;; *************** function ___lwdiv *****************
  8782 ;; Defined at:
  8783 ;;		line 5 in file "/opt/microchip/xc8/v3.10/pic/sources/c99/common/lwdiv.c"
  8784 ;; Parameters:    Size  Location     Type
  8785 ;;  divisor         2    2[COMMON] unsigned int 
  8786 ;;  dividend        2    4[COMMON] unsigned int 
  8787 ;; Auto vars:     Size  Location     Type
  8788 ;;  quotient        2    6[COMMON] unsigned int 
  8789 ;;  counter         1    8[COMMON] unsigned char 
  8790 ;; Return value:  Size  Location     Type
  8791 ;;                  2    2[COMMON] unsigned int 
  8792 ;; Registers used:
  8793 ;;		wreg, status,2, status,0
  8794 ;; Tracked objects:
  8795 ;;		On entry : 0/0
  8796 ;;		On exit  : 0/0
  8797 ;;		Unchanged: 0/0
  8798 ;; Data sizes:     COMMON   BANK0   BANK1   BANK3   BANK2
  8799 ;;      Params:         4       0       0       0       0
  8800 ;;      Locals:         3       0       0       0       0
  8801 ;;      Temps:          0       0       0       0       0
  8802 ;;      Totals:         7       0       0       0       0
  8803 ;;Total ram usage:        7 bytes
  8804 ;; Hardware stack levels used: 1
  8805 ;; Hardware stack levels required when called: 1
  8806 ;; This function calls:
  8807 ;;		Nothing
  8808 ;; This function is called by:
  8809 ;;		_dashboard
  8810 ;;		_set_time
  8811 ;;		_run_delay
  8812 ;; This function uses a non-reentrant model
  8813 ;;
  8814                           
  8815     0AE1                     ___lwdiv:	
  8816                           ;psect for function ___lwdiv
  8817                           
  8818     0AE1                     l2276:	
  8819                           ;incstack = 0
  8820                           ; Regs used in ___lwdiv: [wreg+status,2+status,0]
  8821                           
  8822     0AE1  01F6               	clrf	___lwdiv@quotient
  8823     0AE2  01F7               	clrf	___lwdiv@quotient+1
  8824     0AE3                     l2278:
  8825     0AE3  0872               	movf	___lwdiv@divisor,w
  8826     0AE4  0473               	iorwf	___lwdiv@divisor+1,w
  8827     0AE5  1903               	btfsc	3,2
  8828     0AE6  2AE8               	goto	u2001
  8829     0AE7  2AE9               	goto	u2000
  8830     0AE8                     u2001:
  8831     0AE8  2B1E               	goto	l2298
  8832     0AE9                     u2000:
  8833     0AE9                     l2280:
  8834     0AE9  3001               	movlw	1
  8835     0AEA  00F8               	movwf	___lwdiv@counter
  8836     0AEB  2AF5               	goto	l2286
  8837     0AEC                     l2282:
  8838     0AEC  3001               	movlw	1
  8839     0AED                     u2015:
  8840     0AED  1003               	clrc
  8841     0AEE  0DF2               	rlf	___lwdiv@divisor,f
  8842     0AEF  0DF3               	rlf	___lwdiv@divisor+1,f
  8843     0AF0  3EFF               	addlw	-1
  8844     0AF1  1D03               	skipz
  8845     0AF2  2AED               	goto	u2015
  8846     0AF3                     l2284:
  8847     0AF3  3001               	movlw	1
  8848     0AF4  07F8               	addwf	___lwdiv@counter,f
  8849     0AF5                     l2286:
  8850     0AF5  1FF3               	btfss	___lwdiv@divisor+1,7
  8851     0AF6  2AF8               	goto	u2021
  8852     0AF7  2AF9               	goto	u2020
  8853     0AF8                     u2021:
  8854     0AF8  2AEC               	goto	l2282
  8855     0AF9                     u2020:
  8856     0AF9                     l2288:
  8857     0AF9  3001               	movlw	1
  8858     0AFA                     u2035:
  8859     0AFA  1003               	clrc
  8860     0AFB  0DF6               	rlf	___lwdiv@quotient,f
  8861     0AFC  0DF7               	rlf	___lwdiv@quotient+1,f
  8862     0AFD  3EFF               	addlw	-1
  8863     0AFE  1D03               	skipz
  8864     0AFF  2AFA               	goto	u2035
  8865     0B00  0873               	movf	___lwdiv@divisor+1,w
  8866     0B01  0275               	subwf	___lwdiv@dividend+1,w
  8867     0B02  1D03               	skipz
  8868     0B03  2B06               	goto	u2045
  8869     0B04  0872               	movf	___lwdiv@divisor,w
  8870     0B05  0274               	subwf	___lwdiv@dividend,w
  8871     0B06                     u2045:
  8872     0B06  1C03               	skipc
  8873     0B07  2B09               	goto	u2041
  8874     0B08  2B0A               	goto	u2040
  8875     0B09                     u2041:
  8876     0B09  2B11               	goto	l2294
  8877     0B0A                     u2040:
  8878     0B0A                     l2290:
  8879     0B0A  0872               	movf	___lwdiv@divisor,w
  8880     0B0B  02F4               	subwf	___lwdiv@dividend,f
  8881     0B0C  0873               	movf	___lwdiv@divisor+1,w
  8882     0B0D  1C03               	skipc
  8883     0B0E  03F5               	decf	___lwdiv@dividend+1,f
  8884     0B0F  02F5               	subwf	___lwdiv@dividend+1,f
  8885     0B10                     l2292:
  8886     0B10  1476               	bsf	___lwdiv@quotient,0
  8887     0B11                     l2294:
  8888     0B11  3001               	movlw	1
  8889     0B12                     u2055:
  8890     0B12  1003               	clrc
  8891     0B13  0CF3               	rrf	___lwdiv@divisor+1,f
  8892     0B14  0CF2               	rrf	___lwdiv@divisor,f
  8893     0B15  3EFF               	addlw	-1
  8894     0B16  1D03               	skipz
  8895     0B17  2B12               	goto	u2055
  8896     0B18                     l2296:
  8897     0B18  3001               	movlw	1
  8898     0B19  02F8               	subwf	___lwdiv@counter,f
  8899     0B1A  1D03               	btfss	3,2
  8900     0B1B  2B1D               	goto	u2061
  8901     0B1C  2B1E               	goto	u2060
  8902     0B1D                     u2061:
  8903     0B1D  2AF9               	goto	l2288
  8904     0B1E                     u2060:
  8905     0B1E                     l2298:
  8906     0B1E  0877               	movf	___lwdiv@quotient+1,w
  8907     0B1F  00F3               	movwf	?___lwdiv+1
  8908     0B20  0876               	movf	___lwdiv@quotient,w
  8909     0B21  00F2               	movwf	?___lwdiv
  8910     0B22                     l874:
  8911     0B22  0008               	return
  8912     0B23                     __end_of___lwdiv:
  8913                           
  8914                           	psect	text49
  8915     088F                     __ptext49:	
  8916 ;; *************** function _read_digital_keypad *****************
  8917 ;; Defined at:
  8918 ;;		line 10 in file "digital_keypad.c"
  8919 ;; Parameters:    Size  Location     Type
  8920 ;;  mode            1    wreg     unsigned char 
  8921 ;; Auto vars:     Size  Location     Type
  8922 ;;  mode            1    3[COMMON] unsigned char 
  8923 ;; Return value:  Size  Location     Type
  8924 ;;                  1    wreg      unsigned char 
  8925 ;; Registers used:
  8926 ;;		wreg, status,2, status,0
  8927 ;; Tracked objects:
  8928 ;;		On entry : 0/0
  8929 ;;		On exit  : 0/0
  8930 ;;		Unchanged: 0/0
  8931 ;; Data sizes:     COMMON   BANK0   BANK1   BANK3   BANK2
  8932 ;;      Params:         0       0       0       0       0
  8933 ;;      Locals:         1       0       0       0       0
  8934 ;;      Temps:          1       0       0       0       0
  8935 ;;      Totals:         2       0       0       0       0
  8936 ;;Total ram usage:        2 bytes
  8937 ;; Hardware stack levels used: 1
  8938 ;; Hardware stack levels required when called: 1
  8939 ;; This function calls:
  8940 ;;		Nothing
  8941 ;; This function is called by:
  8942 ;;		_main
  8943 ;;		_main_menu
  8944 ;;		_view_log
  8945 ;;		_set_time
  8946 ;;		_auth_user
  8947 ;; This function uses a non-reentrant model
  8948 ;;
  8949                           
  8950     088F                     _read_digital_keypad:	
  8951                           ;psect for function _read_digital_keypad
  8952                           
  8953                           
  8954                           ;incstack = 0
  8955                           ; Regs used in _read_digital_keypad: [wreg+status,2+status,0]
  8956                           ;read_digital_keypad@mode stored from wreg
  8957     088F  00F3               	movwf	read_digital_keypad@mode
  8958     0890                     l2124:
  8959                           
  8960                           ;digital_keypad.c: 10: unsigned char read_digital_keypad(unsigned char mode);digital_key
      +                          pad.c: 11: {;digital_keypad.c: 12:     static unsigned char once = 1;;digital_keypad.c: 
      +                          14:     if (mode == 0)
  8961     0890  0873               	movf	read_digital_keypad@mode,w
  8962     0891  1D03               	btfss	3,2
  8963     0892  2894               	goto	u1771
  8964     0893  2895               	goto	u1770
  8965     0894                     u1771:
  8966     0894  289A               	goto	l2132
  8967     0895                     u1770:
  8968     0895                     l2126:
  8969                           
  8970                           ;digital_keypad.c: 15:     {;digital_keypad.c: 16:         return PORTB & 0x3F;
  8971     0895  1283               	bcf	3,5	;RP0=0, select bank0
  8972     0896  1303               	bcf	3,6	;RP1=0, select bank0
  8973     0897  0806               	movf	6,w	;volatile
  8974     0898  393F               	andlw	63
  8975     0899  28B8               	goto	l56
  8976     089A                     l2132:
  8977                           
  8978                           ;digital_keypad.c: 19:     {;digital_keypad.c: 20:         if (((PORTB & 0x3F) != 0x3F) 
      +                          && once)
  8979     089A  303F               	movlw	63
  8980     089B  1283               	bcf	3,5	;RP0=0, select bank0
  8981     089C  1303               	bcf	3,6	;RP1=0, select bank0
  8982     089D  0506               	andwf	6,w	;volatile
  8983     089E  00F2               	movwf	??_read_digital_keypad
  8984     089F  303F               	movlw	63
  8985     08A0  0672               	xorwf	??_read_digital_keypad,w
  8986     08A1  1903               	btfsc	3,2
  8987     08A2  28A4               	goto	u1781
  8988     08A3  28A5               	goto	u1780
  8989     08A4                     u1781:
  8990     08A4  28AC               	goto	l2144
  8991     08A5                     u1780:
  8992     08A5                     l2134:
  8993     08A5  086D               	movf	read_digital_keypad@once,w
  8994     08A6  1903               	btfsc	3,2
  8995     08A7  28A9               	goto	u1791
  8996     08A8  28AA               	goto	u1790
  8997     08A9                     u1791:
  8998     08A9  28AC               	goto	l2144
  8999     08AA                     u1790:
  9000     08AA                     l2136:
  9001                           
  9002                           ;digital_keypad.c: 21:         {;digital_keypad.c: 22:             once = 0;
  9003     08AA  01ED               	clrf	read_digital_keypad@once
  9004     08AB  2895               	goto	l2126
  9005     08AC                     l2144:
  9006     08AC  303F               	movlw	63
  9007     08AD  0506               	andwf	6,w	;volatile
  9008     08AE  00F2               	movwf	??_read_digital_keypad
  9009     08AF  303F               	movlw	63
  9010     08B0  0672               	xorwf	??_read_digital_keypad,w
  9011     08B1  1D03               	btfss	3,2
  9012     08B2  28B4               	goto	u1801
  9013     08B3  28B5               	goto	u1800
  9014     08B4                     u1801:
  9015     08B4  28B7               	goto	l2148
  9016     08B5                     u1800:
  9017     08B5                     l2146:
  9018                           
  9019                           ;digital_keypad.c: 27:         {;digital_keypad.c: 28:             once = 1;
  9020     08B5  3001               	movlw	1
  9021     08B6  00ED               	movwf	read_digital_keypad@once
  9022     08B7                     l2148:
  9023                           
  9024                           ;digital_keypad.c: 32:     return 0x3F;
  9025     08B7  303F               	movlw	63
  9026     08B8                     l56:
  9027     08B8  0008               	return
  9028     08B9                     __end_of_read_digital_keypad:
  9029                           
  9030                           	psect	text50
  9031     0867                     __ptext50:	
  9032 ;; *************** function _isr *****************
  9033 ;; Defined at:
  9034 ;;		line 7 in file "isr.c"
  9035 ;; Parameters:    Size  Location     Type
  9036 ;;		None
  9037 ;; Auto vars:     Size  Location     Type
  9038 ;;		None
  9039 ;; Return value:  Size  Location     Type
  9040 ;;                  1    wreg      void 
  9041 ;; Registers used:
  9042 ;;		wreg, status,2, status,0
  9043 ;; Tracked objects:
  9044 ;;		On entry : 0/0
  9045 ;;		On exit  : 0/0
  9046 ;;		Unchanged: 0/0
  9047 ;; Data sizes:     COMMON   BANK0   BANK1   BANK3   BANK2
  9048 ;;      Params:         0       0       0       0       0
  9049 ;;      Locals:         0       0       0       0       0
  9050 ;;      Temps:          2       0       0       0       0
  9051 ;;      Totals:         2       0       0       0       0
  9052 ;;Total ram usage:        2 bytes
  9053 ;; Hardware stack levels used: 1
  9054 ;; This function calls:
  9055 ;;		Nothing
  9056 ;; This function is called by:
  9057 ;;		Interrupt level 1
  9058 ;; This function uses a non-reentrant model
  9059 ;;
  9060                           
  9061     0867                     _isr:	
  9062                           ;psect for function _isr
  9063                           
  9064     0867                     i1l2978:
  9065                           
  9066                           ;isr.c: 9:     static unsigned int count = 0;;isr.c: 11:     if (TMR0IF == 1)
  9067     0867  1D0B               	btfss	11,2	;volatile
  9068     0868  286A               	goto	u325_21
  9069     0869  286B               	goto	u325_20
  9070     086A                     u325_21:
  9071     086A  2888               	goto	i1l508
  9072     086B                     u325_20:
  9073     086B                     i1l2980:
  9074                           
  9075                           ;isr.c: 12:     {;isr.c: 14:         TMR0 = TMR0 + 6 + 2;
  9076     086B  1283               	bcf	3,5	;RP0=0, select bank0
  9077     086C  1303               	bcf	3,6	;RP1=0, select bank0
  9078     086D  0801               	movf	1,w	;volatile
  9079     086E  3E08               	addlw	8
  9080     086F  0081               	movwf	1	;volatile
  9081                           
  9082                           ;isr.c: 16:         if (++count == 20000)
  9083     0870  3001               	movlw	1
  9084     0871  07CF               	addwf	isr@count,f
  9085     0872  1803               	skipnc
  9086     0873  0AD0               	incf	isr@count+1,f
  9087     0874  3000               	movlw	0
  9088     0875  07D0               	addwf	isr@count+1,f
  9089     0876  3020               	movlw	32
  9090     0877  064F               	xorwf	isr@count,w
  9091     0878  304E               	movlw	78
  9092     0879  1903               	skipnz
  9093     087A  0650               	xorwf	isr@count+1,w
  9094     087B  1D03               	btfss	3,2
  9095     087C  287E               	goto	u326_21
  9096     087D  287F               	goto	u326_20
  9097     087E                     u326_21:
  9098     087E  2887               	goto	i1l2986
  9099     087F                     u326_20:
  9100     087F                     i1l2982:
  9101                           
  9102                           ;isr.c: 17:         {;isr.c: 18:             count = 0;
  9103     087F  01CF               	clrf	isr@count
  9104     0880  01D0               	clrf	isr@count+1
  9105     0881                     i1l2984:
  9106                           
  9107                           ;isr.c: 20:             delay--;
  9108     0881  3001               	movlw	1
  9109     0882  02EB               	subwf	_delay,f
  9110     0883  3000               	movlw	0
  9111     0884  1C03               	skipc
  9112     0885  03EC               	decf	_delay+1,f
  9113     0886  02EC               	subwf	_delay+1,f
  9114     0887                     i1l2986:
  9115                           
  9116                           ;isr.c: 23:         TMR0IF = 0;
  9117     0887  110B               	bcf	11,2	;volatile
  9118     0888                     i1l508:
  9119     0888  0871               	movf	??_isr+1,w
  9120     0889  008A               	movwf	10
  9121     088A  0E70               	swapf	??_isr,w
  9122     088B  0083               	movwf	3
  9123     088C  0EFE               	swapf	btemp,f
  9124     088D  0E7E               	swapf	btemp,w
  9125     088E  0009               	retfie
  9126     088F                     __end_of_isr:
  9127     0002                     ___latbits      equ	2
  9128     007E                     btemp           set	126	;btemp
  9129     007E                     btemp0          set	126
  9130     007F                     btemp1          set	127
  9131     007E                     wtemp0          set	126
  9132     007F                     wtemp0a         set	127
  9133     007F                     ttemp0a         set	127
  9134     0080                     ltemp0a         set	128
  9135                           
  9136                           	psect	intentry
  9137     0004                     __pintentry:	
  9138                           ;incstack = 0
  9139 ;; hardware stack exceeded
  9140                           ; Regs used in _isr: [wreg+status,2+status,0]
  9141                           
  9142     0004                     interrupt_function:
  9143     007E                     saved_w         set	btemp
  9144     0004  00FE               	movwf	btemp
  9145     0005  0E03               	swapf	3,w
  9146     0006  00F0               	movwf	??_isr
  9147     0007  080A               	movf	10,w
  9148     0008  00F1               	movwf	??_isr+1
  9149     0009  120A  158A  2867   	ljmp	_isr
  9150                           
  9151                           	psect	idloc
  9152                           
  9153                           ;Config register IDLOC0 @ 0x2000
  9154                           ;	unspecified, using default values
  9155     2000                     	org	8192
  9156     2000  3FFF               	dw	16383
  9157                           
  9158                           ;Config register IDLOC1 @ 0x2001
  9159                           ;	unspecified, using default values
  9160     2001                     	org	8193
  9161     2001  3FFF               	dw	16383
  9162                           
  9163                           ;Config register IDLOC2 @ 0x2002
  9164                           ;	unspecified, using default values
  9165     2002                     	org	8194
  9166     2002  3FFF               	dw	16383
  9167                           
  9168                           ;Config register IDLOC3 @ 0x2003
  9169                           ;	unspecified, using default values
  9170     2003                     	org	8195
  9171     2003  3FFF               	dw	16383
  9172                           
  9173                           	psect	config
  9174                           
  9175                           ;Config register CONFIG @ 0x2007
  9176                           ;	Oscillator Selection bits
  9177                           ;	FOSC = 0x3, unprogrammed default
  9178                           ;	Watchdog Timer Enable bit
  9179                           ;	WDTE = OFF, WDT disabled
  9180                           ;	Power-up Timer Enable bit
  9181                           ;	PWRTE = 0x1, unprogrammed default
  9182                           ;	Brown-out Reset Enable bit
  9183                           ;	BOREN = 0x1, unprogrammed default
  9184                           ;	Low-Voltage (Single-Supply) In-Circuit Serial Programming Enable bit
  9185                           ;	LVP = 0x1, unprogrammed default
  9186                           ;	Data EEPROM Memory Code Protection bit
  9187                           ;	CPD = 0x1, unprogrammed default
  9188                           ;	Flash Program Memory Write Enable bits
  9189                           ;	WRT = 0x3, unprogrammed default
  9190                           ;	In-Circuit Debugger Mode bit
  9191                           ;	DEBUG = 0x1, unprogrammed default
  9192                           ;	Flash Program Memory Code Protection bit
  9193                           ;	CP = 0x1, unprogrammed default
  9194     2007                     	org	8199
  9195     2007  3FFB               	dw	16379

Data Sizes:
    Strings     312
    Constant    0
    Data        33
    BSS         62
    Persistent  0
    Stack       0

Auto Spaces:
    Space          Size  Autos    Used
    COMMON           14     10      12
    BANK0            80     47      78
    BANK1            80      0      62
    BANK3            96      0       0
    BANK2            96      0       0

Pointer List with Targets:

    clcd_print@str	PTR const unsigned char  size(2) Largest target is 17
		 -> logs(BANK1[17]), speed(BANK0[3]), STR_1(CODE[3]), STR_10(CODE[15]), 
		 -> STR_11(CODE[15]), STR_12(CODE[15]), STR_13(CODE[15]), STR_14(CODE[17]), 
		 -> STR_15(CODE[3]), STR_16(CODE[3]), STR_17(CODE[3]), STR_18(CODE[3]), 
		 -> STR_19(CODE[8]), STR_2(CODE[3]), STR_20(CODE[10]), STR_21(CODE[17]), 
		 -> STR_22(CODE[17]), STR_23(CODE[9]), STR_24(CODE[15]), STR_26(CODE[3]), 
		 -> STR_27(CODE[3]), STR_28(CODE[3]), STR_29(CODE[17]), STR_3(CODE[3]), 
		 -> STR_30(CODE[17]), STR_31(CODE[17]), STR_32(CODE[16]), STR_33(CODE[17]), 
		 -> STR_34(CODE[15]), STR_4(CODE[3]), STR_5(CODE[3]), STR_6(CODE[3]), 
		 -> STR_7(CODE[3]), STR_8(CODE[3]), STR_9(CODE[15]), time(BANK0[9]), 

    display_time@clock_reg	PTR unsigned char  size(1) Largest target is 3
		 -> clock_reg(BANK0[3]), 

    event	PTR const unsigned char [8] size(2) Largest target is 3
		 -> STR_1(CODE[3]), STR_2(CODE[3]), STR_3(CODE[3]), STR_4(CODE[3]), 
		 -> STR_5(CODE[3]), STR_6(CODE[3]), STR_7(CODE[3]), STR_8(CODE[3]), 

    get_time@clock_reg	PTR unsigned char  size(1) Largest target is 3
		 -> clock_reg(BANK0[3]), 

    menu_options	PTR const unsigned char [5] size(2) Largest target is 15
		 -> STR_10(CODE[15]), STR_11(CODE[15]), STR_12(CODE[15]), STR_13(CODE[15]), 
		 -> STR_9(CODE[15]), 

    put_s@s	PTR const unsigned char  size(2) Largest target is 18
		 -> logs(BANK1[17]), STR_25(CODE[18]), 

    read_and_format_log@log	PTR unsigned char  size(1) Largest target is 11
		 -> read_event@event(BANK1[11]), 

    sp__read_event	PTR unsigned char  size(1) Largest target is 11
		 -> read_event@event(BANK1[11]), 


Critical Paths under _main in COMMON

    _set_time->_clcd_putch
    _display_indicator->_clcd_print
    _print_star->_clcd_print
    _read_and_format_log->_read_event
    _read_event->___wmul
    _read_external_eeprom->_i2c_read
    _put_s->_put_char
    _clear_screen->_clcd_write
    _clear_log->_clcd_print
    _init_uart->___lldiv
    _init_i2c->___lldiv
    _init_ds1307->_read_ds1307
    _write_ds1307->_i2c_write
    _init_clcd->_init_display_controller
    _init_display_controller->_clcd_write
    _dashboard->___xxtofl
    _dashboard->_display_time
    _write_event->___lwmod
    _write_event->_write_external_eeprom
    _write_external_eeprom->_i2c_write
    _get_time->_read_ds1307
    _read_ds1307->_i2c_read
    _display_time->_clcd_print
    ___fltol->___xxtofl
    ___fldiv->___xxtofl
    _auth_user->_clcd_putch
    _run_delay->_clcd_putch
    _clcd_putch->___lwdiv
    _clcd_print->_clcd_write

Critical Paths under _isr in COMMON

    None.

Critical Paths under _main in BANK0

    _main->_dashboard
    _main_menu->_view_log
    _view_log->_read_and_format_log
    _set_time->_display_indicator
    _download_log->_read_and_format_log
    _read_and_format_log->_read_event
    _init_config->_init_i2c
    _init_config->_init_uart
    _init_uart->___lldiv
    _init_i2c->___lldiv
    _dashboard->___fltol
    ___fltol->___fldiv
    ___fldiv->___xxtofl
    _auth_user->_clcd_putch
    _run_delay->_clcd_putch

Critical Paths under _isr in BANK0

    None.

Critical Paths under _main in BANK1

    None.

Critical Paths under _isr in BANK1

    None.

Critical Paths under _main in BANK3

    None.

Critical Paths under _isr in BANK3

    None.

Critical Paths under _main in BANK2

    None.

Critical Paths under _isr in BANK2

    None.

Call Graph Tables:

 ---------------------------------------------------------------------------------
 (Depth) Function   	        Calls       Base Space   Used Autos Params    Refs
 ---------------------------------------------------------------------------------
 (0) _main                                                 2     2      0   15093
                                             45 BANK0      2     2      0
                          _auth_user
                          _dashboard
                        _init_config
                          _main_menu
                _read_digital_keypad
 ---------------------------------------------------------------------------------
 (1) _main_menu                                            8     8      0    7627
                                             16 BANK0      8     8      0
                         _clcd_print
                          _clear_log
                       _clear_screen
                       _download_log
                         _print_star
                _read_digital_keypad
                           _set_time
                           _view_log
 ---------------------------------------------------------------------------------
 (2) _view_log                                             8     8      0    1718
                                             10 BANK0      6     6      0
                         _clcd_print
                _read_and_format_log
                _read_digital_keypad
 ---------------------------------------------------------------------------------
 (2) _set_time                                            13    13      0    2262
                                              2 BANK0     13    13      0
                            ___lwdiv
                            ___lwmod
                             ___wmul
                         _clcd_print
                         _clcd_putch
                  _display_indicator
                _read_digital_keypad
 ---------------------------------------------------------------------------------
 (3) _display_indicator                                    2     0      2     509
                                              0 BANK0      2     0      2
                         _clcd_print
 ---------------------------------------------------------------------------------
 (2) _print_star                                           2     0      2     447
                                              0 BANK0      2     0      2
                         _clcd_print
 ---------------------------------------------------------------------------------
 (2) _download_log                                         5     5      0    1602
                                             10 BANK0      5     5      0
                         _clcd_print
                           _put_char
                              _put_s
                _read_and_format_log
 ---------------------------------------------------------------------------------
 (3) _read_and_format_log                                  8     8      0    1016
                                              2 BANK0      8     8      0
                             ___wmul
                         _read_event
 ---------------------------------------------------------------------------------
 (4) _read_event                                           4     2      2     373
                                              8 COMMON     2     0      2
                                              0 BANK0      2     2      0
                             ___wmul (ARG)
               _read_external_eeprom
 ---------------------------------------------------------------------------------
 (5) _read_external_eeprom                                 2     2      0     209
                                              4 COMMON     2     2      0
                           _i2c_read
                      _i2c_rep_start
                          _i2c_start
                           _i2c_stop
                          _i2c_write
 ---------------------------------------------------------------------------------
 (4) ___wmul                                               6     2      4     100
                                              2 COMMON     6     2      4
 ---------------------------------------------------------------------------------
 (3) _put_s                                                2     0      2      76
                                              3 COMMON     2     0      2
                           _put_char
 ---------------------------------------------------------------------------------
 (4) _put_char                                             1     1      0      29
                                              2 COMMON     1     1      0
 ---------------------------------------------------------------------------------
 (2) _clear_screen                                         0     0      0     161
                         _clcd_write
 ---------------------------------------------------------------------------------
 (2) _clear_log                                            3     3      0     413
                                              0 BANK0      3     3      0
                         _clcd_print
 ---------------------------------------------------------------------------------
 (1) _init_config                                          0     0      0    1109
                           _init_adc
                          _init_clcd
                _init_digital_keypad
                        _init_ds1307
                           _init_i2c
                          _init_uart
 ---------------------------------------------------------------------------------
 (2) _init_uart                                            8     4      4     287
                                              6 BANK0      8     4      4
                            ___lldiv
 ---------------------------------------------------------------------------------
 (2) _init_i2c                                             8     4      4     287
                                              6 BANK0      8     4      4
                            ___lldiv
 ---------------------------------------------------------------------------------
 (3) ___lldiv                                             14     6      8     253
                                              2 COMMON     8     0      8
                                              0 BANK0      6     6      0
 ---------------------------------------------------------------------------------
 (2) _init_ds1307                                          1     1      0     374
                                              6 COMMON     1     1      0
                        _read_ds1307
                       _write_ds1307
 ---------------------------------------------------------------------------------
 (3) _write_ds1307                                         2     1      1     128
                                              3 COMMON     2     1      1
                          _i2c_start
                           _i2c_stop
                          _i2c_write
 ---------------------------------------------------------------------------------
 (2) _init_digital_keypad                                  0     0      0       0
 ---------------------------------------------------------------------------------
 (2) _init_clcd                                            0     0      0     161
            _init_display_controller
 ---------------------------------------------------------------------------------
 (3) _init_display_controller                              2     2      0     161
                                              6 COMMON     2     2      0
                         _clcd_write
 ---------------------------------------------------------------------------------
 (2) _init_adc                                             0     0      0       0
 ---------------------------------------------------------------------------------
 (1) _dashboard                                            3     3      0    4179
                                             42 BANK0      3     3      0
                            ___fldiv
                            ___fltol
                            ___lwdiv
                            ___lwmod
                           ___xxtofl
                         _clcd_print
                       _display_time
                           _get_time
                           _read_adc
                        _write_event
 ---------------------------------------------------------------------------------
 (2) _write_event                                          9     9      0     514
                                              7 COMMON     2     2      0
                                              0 BANK0      7     7      0
                            ___lwmod
              _write_external_eeprom
 ---------------------------------------------------------------------------------
 (3) _write_external_eeprom                                4     3      1     174
                                              3 COMMON     4     3      1
                          _i2c_start
                           _i2c_stop
                          _i2c_write
 ---------------------------------------------------------------------------------
 (2) _read_adc                                             6     4      2      52
                                              2 COMMON     6     4      2
 ---------------------------------------------------------------------------------
 (2) _get_time                                             1     0      1     305
                                              6 COMMON     1     0      1
                        _read_ds1307
 ---------------------------------------------------------------------------------
 (3) _read_ds1307                                          2     2      0     209
                                              4 COMMON     2     2      0
                           _i2c_read
                      _i2c_rep_start
                          _i2c_start
                           _i2c_stop
                          _i2c_write
 ---------------------------------------------------------------------------------
 (6) _i2c_write                                            1     1      0      47
                                              2 COMMON     1     1      0
                  _i2c_wait_for_idle
 ---------------------------------------------------------------------------------
 (6) _i2c_rep_start                                        0     0      0       0
                          _i2c_start
                           _i2c_stop
 ---------------------------------------------------------------------------------
 (7) _i2c_stop                                             0     0      0       0
                  _i2c_wait_for_idle
 ---------------------------------------------------------------------------------
 (7) _i2c_start                                            0     0      0       0
                  _i2c_wait_for_idle
 ---------------------------------------------------------------------------------
 (6) _i2c_read                                             2     2      0      81
                                              2 COMMON     2     2      0
                  _i2c_wait_for_idle
 ---------------------------------------------------------------------------------
 (8) _i2c_wait_for_idle                                    0     0      0       0
 ---------------------------------------------------------------------------------
 (2) _display_time                                         2     1      1     602
                                              9 COMMON     1     0      1
                                              0 BANK0      1     1      0
                         _clcd_print
 ---------------------------------------------------------------------------------
 (2) ___xxtofl                                            14    10      4     337
                                              2 COMMON     8     4      4
                                              0 BANK0      6     6      0
 ---------------------------------------------------------------------------------
 (2) ___fltol                                             10     6      4     340
                                             32 BANK0     10     6      4
                            ___fldiv (ARG)
                           ___xxtofl (ARG)
 ---------------------------------------------------------------------------------
 (2) ___fldiv                                             26    18      8    1124
                                              6 BANK0     26    18      8
                           ___xxtofl (ARG)
 ---------------------------------------------------------------------------------
 (1) _auth_user                                            6     6      0    1982
                                              1 BANK0      6     6      0
                         _clcd_print
                         _clcd_putch
                _read_digital_keypad
                          _run_delay
 ---------------------------------------------------------------------------------
 (2) _run_delay                                            0     0      0    1039
                            ___lwdiv
                            ___lwmod
                         _clcd_print
                         _clcd_putch
                        _init_timer0
 ---------------------------------------------------------------------------------
 (3) _init_timer0                                          0     0      0       0
 ---------------------------------------------------------------------------------
 (3) _clcd_putch                                           2     1      1     275
                                              9 COMMON     1     0      1
                                              0 BANK0      1     1      0
                            ___lwdiv (ARG)
                            ___lwmod (ARG)
                         _clcd_write
 ---------------------------------------------------------------------------------
 (4) _clcd_print                                           3     0      3     413
                                              6 COMMON     3     0      3
                         _clcd_write
 ---------------------------------------------------------------------------------
 (5) _clcd_write                                           4     3      1     161
                                              2 COMMON     4     3      1
 ---------------------------------------------------------------------------------
 (3) ___lwmod                                              5     1      4     179
                                              2 COMMON     5     1      4
 ---------------------------------------------------------------------------------
 (3) ___lwdiv                                              7     3      4     172
                                              2 COMMON     7     3      4
 ---------------------------------------------------------------------------------
 (3) _read_digital_keypad                                  2     2      0      29
                                              2 COMMON     2     2      0
 ---------------------------------------------------------------------------------
 Estimated maximum stack depth 8
 ---------------------------------------------------------------------------------
 (Depth) Function   	        Calls       Base Space   Used Autos Params    Refs
 ---------------------------------------------------------------------------------
 (9) _isr                                                  2     2      0       0
                                              0 COMMON     2     2      0
 ---------------------------------------------------------------------------------
 Estimated maximum stack depth 9
 ---------------------------------------------------------------------------------

 Call Graph Graphs:

 _main (ROOT)
   _auth_user
     _clcd_print
       _clcd_write
     _clcd_putch
       ___lwdiv (ARG)
       ___lwmod (ARG)
       _clcd_write (ARG)
     _read_digital_keypad
     _run_delay
       ___lwdiv
       ___lwmod
       _clcd_print
       _clcd_putch
       _init_timer0
   _dashboard
     ___fldiv
       ___xxtofl (ARG)
     ___fltol
       ___fldiv (ARG)
       ___xxtofl (ARG)
     ___lwdiv
     ___lwmod
     ___xxtofl
     _clcd_print
     _display_time
       _clcd_print
     _get_time
       _read_ds1307
         _i2c_read
           _i2c_wait_for_idle
         _i2c_rep_start
           _i2c_start
             _i2c_wait_for_idle
           _i2c_stop
             _i2c_wait_for_idle
         _i2c_start
         _i2c_stop
         _i2c_write
           _i2c_wait_for_idle
     _read_adc
     _write_event
       ___lwmod
       _write_external_eeprom
         _i2c_start
         _i2c_stop
         _i2c_write
   _init_config
     _init_adc
     _init_clcd
       _init_display_controller
         _clcd_write
     _init_digital_keypad
     _init_ds1307
       _read_ds1307
       _write_ds1307
         _i2c_start
         _i2c_stop
         _i2c_write
     _init_i2c
       ___lldiv
     _init_uart
       ___lldiv
   _main_menu
     _clcd_print
     _clear_log
       _clcd_print
     _clear_screen
       _clcd_write
     _download_log
       _clcd_print
       _put_char
       _put_s
         _put_char
       _read_and_format_log
         ___wmul
         _read_event
           ___wmul (ARG)
           _read_external_eeprom (ARG)
             _i2c_read
             _i2c_rep_start
             _i2c_start
             _i2c_stop
             _i2c_write
     _print_star
       _clcd_print
     _read_digital_keypad
     _set_time
       ___lwdiv
       ___lwmod
       ___wmul
       _clcd_print
       _clcd_putch
       _display_indicator
         _clcd_print
       _read_digital_keypad
     _view_log
       _clcd_print
       _read_and_format_log
       _read_digital_keypad
   _read_digital_keypad

 _isr (ROOT)

Address spaces:
Name               Size   Autos  Total    Usage
BANK3               96      0       0      0.0%
BITBANK3            96      0       0      0.0%
BANK2               96      0       0      0.0%
BITBANK2            96      0       0      0.0%
BANK1               80      0      62     77.5%
BITBANK1            80      0       0      0.0%
BANK0               80     47      78     97.5%
BITBANK0            80      0       0      0.0%
COMMON              14     10      12     85.7%
BITCOMMON           14      0       0      0.0%
DATA                 0      0     153      0.0%
STACK                0      0       0      0.0%


Microchip Technology PIC Macro Assembler V3.10 build 20250813170317 
Symbol Table                                                                                   Thu Jul  2 13:47:29 2026

                   ___fldiv@aexp 003F                     ___fldiv@bexp 003E                                pc 0002  
                   ___fldiv@sign 0037            _write_external_eeprom 093E                   clcd_print@addr 0078  
                             l50 16AC                               l27 0A03                               l56 08B8  
                             l80 0C8B                               l83 16F7                               l92 093D  
                             l77 0A39                               l86 07FC                               l95 16BB  
                             _GO 00FA                               fsr 0004              ___wmul@multiplicand 0074  
                            l200 176E                              l130 170F                              l203 177C  
                            l124 09CF                              l133 16CC                              l142 17D7  
                            l127 1703                              l143 17DA                              l144 17DC  
                            l136 16E1                              l400 096D                              l139 0808  
                            l147 16EC                              l171 08E3                              l403 090E  
                            l180 0B74                              l420 099D                              l260 17FF  
                            l174 173F                              l430 16FD                              l431 1701  
                            l319 0719                              l168 1721                              l432 1702  
                            l336 0DEE                              l360 0C28                              l177 17BB  
                            l273 07E7                              l265 0725                              l354 179B  
                            l197 16B3                              l293 0A6F                              l349 0E83  
                            l630 0CF1                              l438 0866                              l382 03BD  
                            l288 0644                              l368 0AE0                              l482 0BCD  
                            l474 0FFF                              l493 16D6                              l594 0828  
                            l596 0840                              l951 0095                              l953 0209  
                            l874 0B22                              l795 0D52                              l884 0AA7  
                            l788 0D67                              l973 01F5                              l798 0D67  
                            l975 0201                              l967 0183                              _GIE 005F  
                            _RE1 0049                              _RE2 004A                              _PEN 048A  
                            _SEN 0488                              _PSA 040B                    ?_display_time 0079  
                            _isr 0867                   clcd_putch@addr 0079                              _pos 007A  
                            fsr0 0004                   clcd_putch@data 0020                              indf 0000  
             print_star@position 0020                     ___fltol@exp1 0049                             l1041 0EE7  
                           l1035 0EA8                             l1036 0EB9                             l1037 0F39  
                           l2110 081C                             l1048 0F03                             l3000 16D7  
                           l2120 083C                             l2112 081E                             l1049 0F0F  
                           l3010 17D3                             l3002 17BD                             l2114 0822  
                           l2132 089A                             l2124 0890                             l3012 17DB  
                           l3004 17C2                             l3020 16EC                             l3100 08BA  
                           l2108 16F9                             l2116 082F                             l2134 08A5  
                           l2126 0895                             l2310 0A82                             l2302 0A70  
                           l3030 0A13                             l3006 17CA                             l3102 08E2  
                           l3110 095B                             l2230 0841                             l2118 0836  
                           l2136 08AA                             l2144 08AC                             l2312 0A86  
                           l2304 0A76                             l2320 0AA3                             l3040 0A2D  
                           l3032 0A18                             l3024 0A05                             l3008 17CE  
                           l3016 16E3                             l3112 095F                             l3200 09CC  
                           l2232 0842            ??_read_digital_keypad 0072                             l2146 08B5  
                           l2314 0A90                             l2306 0A79                             l3042 0A30  
                           l3034 0A1B                             l3026 0A0F                             l3050 090F  
                           l2250 16CD                             l3018 16E8                             l3106 1723  
                           l3202 1710                             l3210 0972                             l2234 0850  
                           l3130 0DA0                             l3114 0D6B                             l2148 08B7  
                           l2316 0A96                             l2308 0A80                             l3036 0A27  
                           l3028 0A12                             l3052 0917                             l3220 0B50  
                           l3108 093F                             l2324 16AD                             l3204 1717  
                           l3300 177D                             l3212 16B4                             l2236 0856  
                           l3044 08E5                             l3140 0DC2                             l3132 0DA7  
                           l3124 0D8B                             l3116 0D87                             l2318 0A9D  
                           l3038 0A28                             l3054 0927                             l3222 0B68  
                           l3214 179C                             l2334 16A7                             l3206 1719  
                           l3302 1781                             l3046 090D                             l3070 17FE  
                           l3150 0DEB                             l3142 0DC9                             l3134 0DAE  
                           l3126 0D91                             l3118 0D89                             l3310 0BED  
                           l2280 0AE9                             l3056 092D                             l2600 0077  
                           l3400 0D22                             l3224 0B69                             l3216 0B23  
                           l3240 0736                             l3080 0C48                             l3208 096E  
                           l3304 178C                             l3064 17E1                             l3144 0DD6  
                           l3136 0DB4                             l3128 0D99                             l3312 0BF2  
                           l3320 0C1E                             l3160 0ACE                             l3152 0AA8  
                           l2290 0B0A                             l2282 0AEC                             l2610 008B  
                           l2602 0078                             l3410 0D30                             l3402 0D24  
                           l3218 0B3A                             l2370 1772                             l3250 0778  
                           l3242 0744                             l3234 0727                             l3226 071A  
                           l3090 0C6A                             l3082 0C4D                             l3074 0C29  
                           l3170 0CAC                             l3066 17ED                             l3058 17DD  
                           l3138 0DBB                             l3146 0DDC                             l3314 0C01  
                           l3162 0AD5                             l3154 0AB0                             l3330 0297  
                           l3322 020A                             l2292 0B10                             l2284 0AF3  
                           l2276 0AE1                             l2700 01E8                             l2604 007D  
                           l2612 008D                             l3420 0D57                             l3404 0D28  
                           l3412 0D40                             l3260 07D0                             l3252 0780  
                           l3236 072E                             l3244 074C                             l3228 0723  
                           l3092 0C6F                             l3084 0C54                             l3076 0C31  
                           l3180 0CDA                             l3172 0CB0                             l3164 0C8C  
                           l3068 17F5                             l3148 0DE2                             l3316 0C07  
                           l3308 0BCE                             l3156 0ABC                             l3340 02EF  
                           l3332 02AF                             l3324 0272                             l3500 0672  
                           l2294 0B11                             l2286 0AF5                             l2278 0AE3  
                           l2710 01FF                             l2702 01EC                             l2630 00D4  
                           l2614 009D                             l2622 00B4                             l2606 0082  
                           l3422 0D5C                             l2366 175F                             l3254 07B0  
                           l3246 0752                             l3094 0C7F                             l3086 0C57  
                           l3078 0C38                             l3190 16F0                             l3182 0CE3  
                           l3174 0CB9                             l3166 0C9E                             l3430 09DF  
                           l3318 0C16                             l3262 0A3A                             l3158 0AC2  
                           l3350 0339                             l3342 0307                             l3334 02B7  
                           l3326 0274                             l3270 0DF3                             l3510 069D  
                           l3502 0687                             l2296 0B18                             l2288 0AF9  
                           l2704 01F4                             l2640 00F3                             l2632 00DC  
                           l2624 00B9                             l2616 00A9                             l2608 008A  
                           l2720 0E90                             l2368 176D                             l3256 07B8  
                           l3248 075B                             l3440 0546                             l3096 0C86  
                           l3088 0C5E                             l3192 16F1                             l3176 0CCB  
                           l3168 0CA1                             l3184 0CE9                             l3432 09EE  
                           l3424 09D0                             l3264 0A42                             l3360 037A  
                           l3352 033F                             l3344 031F                             l3336 02CF  
                           l3328 027F                             l3280 0E3C                             l3272 0DF9  
                           l3520 06B8                             l3512 06A3                             l3504 0690  
                           l2298 0B1E                             l3098 07EB                             l3610 0FEF  
                           l2706 01F9                             l2650 0125                             l2642 0105  
                           l2634 00E4                             l2618 00AB                             l3418 0D47  
                           l2730 0EC7                             l2722 0EA0                             l3258 07C8  
                           l3450 0568                             l3442 054D                             l3194 16F2  
                           l3178 0CD9                             l3434 09F3                             l3426 09D5  
                           l3266 0A59                             l3370 03B7                             l3354 0356  
                           l3362 0392                             l3346 032A                             l3338 02E7  
                           l3290 0E5D                             l3282 0E43                             l3274 0E01  
                           l3530 06DA                             l3522 06C1                             l3506 0696  
                           l3514 06AA                             l3380 0BA9                             l3612 0FF6  
                           l3604 0FE6                             l2708 01FD                             l2660 0144  
                           l2652 0126                             l2644 0109                             l2636 00EC  
                           l2628 00C2                             l2580 004E                             l2572 0040  
                           l2740 0EF9                             l2732 0ECE                             l2724 0EB0  
                           l2716 0E87                             l3452 0575                             l3444 0554  
                           l3188 16ED                             l3196 099E                             l3436 0A02  
                           l3428 09DA                             l3364 0398                             l3356 035C  
                           l3348 0333                             l3292 0E6F                             l3284 0E49  
                           l3276 0E18                             l3268 0DEF                             l3540 06FB  
                           l3532 06E2                             l3516 06B0                             l3524 06C8  
                           l3508 069B                             l3620 03C6                             l3382 0BC1  
                           l3374 0B75                             l3614 0FFB                             l3606 0FE7  
                           l2670 015D                             l2662 0146                             l2654 0134  
                           l2646 010A                             l2638 00EE                             l2590 0062  
                           l2582 004F                             l2574 0044                             l3390 0CFD  
                           l2750 0F2C                             l2742 0EFD                             l2734 0ED0  
                           l2718 0E8C                             l3470 05A9                             l3462 058F  
                           l3454 057B                             l3446 055C                             l3438 053B  
                           l3198 09A1                             l3366 03B0                             l3358 0373  
                           l3294 0E75                             l3286 0E4F                             l3278 0E2E  
                           l3550 0714                             l3542 0701                             l3534 06E8  
                           l3526 06CE                             l3518 06B5                             l3630 03E3  
                           l3622 03CF                             l3384 0BC9                             l3376 0B7B  
                           l3608 0FED                             l3560 0F58                             l2680 0180  
                           l2664 014F                             l2672 0163                             l2648 0113  
                           l2656 0136                             l2584 0054                             l2592 0064  
                           l2576 0046                             l2752 0F30                             l2744 0F07  
                           l2736 0EDE                             l2728 0EBC                             l3480 0607  
                           l3464 059C                             l3448 0563                             l3456 0581  
                           l3296 0E7C                             l3288 0E56                             l3544 0708  
                           l3536 06EE                             l3528 06D5                             l3640 03F7  
                           l3632 03E8                             l3624 03D5                             l3616 03BE  
                           l3378 0B91                             l3570 0F7D                             l3562 0F61  
                           l3554 0F3A                             l2690 019F                             l2674 0167  
                           l2666 0153                             l2658 013C                             l2594 006C  
                           l2586 0059                             l2578 004A                             l3394 0D06  
                           l2754 0F31                             l2746 0F11                             l2738 0EEE  
                           l3490 0639                             l3482 060E                             l3458 0587  
                           l3474 05AE                             l3538 06F4                             l3634 03ED  
                           l3626 03D7                             l3618 03C3                             l3580 0FA1  
                           l3572 0F83                             l3564 0F67                             l3556 0F45  
                           l2692 01B8                             l2684 0188                             l2676 0168  
                           l2668 0154                             l2596 006F                             l2588 0061  
                           l3396 0D19                             l3388 0CF2                             l2748 0F27  
                           l3484 0614                             l3476 05C3                             l3468 05A3  
                           l3548 070E                             l3492 0645                             l3636 03F2  
                           l3628 03DC                             l3590 0FB3                             l3574 0F89  
                           l3566 0F6D                             l3558 0F4D                             l2686 018D  
                           l2694 01BE                             l2678 016C                             l2598 0073  
                           l3398 0D1A                             l3486 0626                             l3478 05CF  
                           l3494 064A                             l3638 03F5                             l3592 0FC2  
                           l3576 0F8F                             l3568 0F73                             l2696 01CB  
                           l2688 019B                             l3488 0638                             l3496 064F  
                           l3594 0FC9                             l3586 0FA3                             l3578 0F98  
                           l2698 01D9                             l3498 065D                             l3596 0FCB  
                           l3598 0FD6                             l2990 1709                             l2992 16C4  
                           l2994 16C9                             l2988 1703                             l2996 0800  
                           l2998 0805                             _ADFM 04FF                             ?_isr 0070  
                           _ADON 00F8                             STR_1 0532                             STR_2 052F  
                           STR_3 0523                             STR_4 0526                             STR_5 0529  
                           STR_6 052C                             STR_7 0535                             STR_8 0520  
                           STR_9 04B7                             _CREN 00C4                             _T0CS 040D  
                           u2000 0AE9                             u2001 0AE8                             u2020 0AF9  
                           u2100 0A90                             u2021 0AF8                             u2101 0A8F  
                           u2015 0AED                             u2040 0B0A                             u2120 0AA3  
                           u2041 0B09                             u2121 0AA2                             u2105 0A8C  
                           u2035 0AFA                             u2115 0A97                             u2060 0B1E  
                           u2061 0B1D                             u2045 0B06                             u2070 0A76  
                           u2055 0B12                             u2071 0A75                             u4000 06B5  
                           u4001 06B4                             u2090 0A86                             u4010 06C1  
                           u2091 0A85                             u4011 06C0                             u3300 0A0C  
                           u4100 0F83                             u2500 004E                             u4020 06CE  
                           u2085 0A7A                             u3301 0A08                             u4101 0F82  
                           u2501 004D                             u4021 06CD                             u4110 0FA1  
                           u2510 0054                             u2190 1772                             u4030 06E2  
                           u4111 0FA0                             u2511 0053                             u2191 1771  
                           u4031 06E1                             u1800 08B5                             u4120 0FB2  
                           u2520 0059                             u1720 1701                             u3400 0DBB  
                           u4040 06EE                             u1801 08B4                             u4121 0FB1  
                           u2521 0058                             u2185 1762                             u1721 1700  
                           u3401 0DBA                             u4041 06ED                             u3314 0A0F  
                           u3330 093D                             u4130 0FC2                             u2610 0109  
                           u2530 0077                             u1730 0822                             u3410 0DC2  
                           u4050 06FB                             u3331 093C                             u4131 0FC1  
                           u2611 0108                             u2531 0076                             u1731 0821  
                           u3411 0DC1                             u4051 06FA                             u4140 0FC9  
                           u2700 016C                             u2540 007D                             u3500 0CCB  
                           u3340 17FE                             u3420 0DEB                             u4060 0708  
                           u3325 0A1F                             u4141 0FC8                             u2701 016B  
                           u2605 00FE                             u2541 007C                             u3501 0CCA  
                           u3341 17FD                             u3421 0DEA                             u4061 0707  
                           u4150 0FF6                             u2710 0180                             u2630 0125  
                           u2550 0082                             u3270 1709                             u3350 096D  
                           u3430 0AB0                             u4070 0714                             u4151 0FF5  
                           u2711 017F                             u2631 0124                             u2551 0081  
                           u3271 1708                             u3351 096C                             u4207 0C0F  
                           u3431 0AAF                             u4071 0713                             u4080 0F4D  
                           u2720 0187                             u2640 013C                             u2560 009D  
                           u2800 0E90                             u3280 170F                             u3600 0735  
                           u3520 0CE9                             u1760 083C                             u3360 0D91  
                           u3440 0AC2                             u4160 03D5                             u4081 0F4C  
                           u2721 0186                             u2641 013B                             u2625 010C  
                           u2561 009C                             u2801 0E8F                             u3281 170E  
                           u3601 0734                             u3521 0CE8                             u3505 0CC7  
                           u4217 1794                             u1761 083B                             u1745 0829  
                           u3361 0D90                             u3441 0AC1                             u4161 03D4  
                           u1770 0895                             u4090 0F67                             u2730 018D  
                           u2650 0144                             u2570 00B9                             u2810 0EB0  
                           u3290 17D3                             u3610 075B                             u3530 09AF  
                           u3370 0DA0                             u3450 0AD5                             u4170 03DC  
          ?_read_external_eeprom 0070                             u1771 0894                             u4307 0A15  
                           u4091 0F66                             u2731 018C                             u2651 0143  
                           u2635 0121                             u2571 00B8                             u2811 0EAF  
                           u3291 17D2                             u3611 075A                             u4227 0C2D  
                           u3515 0CDB                             u1755 0830                             u3371 0D9F  
                           u3451 0AD4                             u4171 03DB                             u1780 08A5  
                           u2740 019F                             u2580 00F3                             u2900 0F1C  
                           u3460 0C9E                             u3540 0980                             u3380 0DA7  
                           u3620 0A42                             u3700 0339                             u4180 03E8  
                           u1781 08A4                             u4317 0A2A                             u2741 019E  
                           u2581 00F2                             u4237 0C3C                             u3461 0C9D  
                           u3381 0DA6                             u3621 0A41                             u3701 0338  
                           u4181 03E7                             u1790 08AA                             u2750 01AE  
                           u2670 0153                             u2910 0F2C                             u2830 0ECD  
                           u3390 0DB4                             u3710 033F                             u3630 0E01  
                           u4190 03ED                             u1791 08A9                             u4327 0A34  
                           u2671 0152                             u2911 0F2B                             u2831 0ECC  
                           u4247 0C4A                             u3535 09AA                             u3391 0DB3  
                           u3711 033E                             u3631 0E00                             u4191 03EC  
                           u2760 01CB                             u3800 0D28                             u2920 0F30  
                           u3480 0CB0                             u3720 035C                             u3640 0E43  
                           u2761 01CA                             u2665 0148                             u3801 0D27  
                           u2921 0F2F                             u2905 0F17                             u2825 0EBF  
                           u4257 0C60                             u3481 0CAF                             u3545 097B  
                           u3721 035B                             u3641 0E42                             u2770 01E8  
                           u2690 0167                             u3810 0D2F                             u2850 0EED  
                           u1890 0866                             u3730 037A                             u3650 0E49  
                           u2771 01E7                             u2755 01A9                             u2691 0166  
                           u2595 00F5                             u3811 0D2E                             u2851 0EEC  
                           u3555 0B2B                             u4267 0C6C                             u3475 0CA3  
                           u1891 0865                             u3731 0379                             u3651 0E48  
                           u2780 01FD                             u3580 0723                             u3900 0575  
                           u3740 0398                             u3660 0E5D                             u2781 01FC  
                           u2765 01C7                             u2685 0156                             u2845 0EDF  
                           u3565 0B41                             u3581 0722                             u3901 0574  
                           u4277 0C7A                             u3741 0397                             u3661 0E5C  
                           u3830 0D3F                             u2870 0EFD                             u2790 0E8C  
                           u3590 072E                             u3910 0587                             u3750 03B6  
                           u3670 0E6F                             u2775 01E4                             u3831 0D3E  
                           u2871 0EFC                             u2791 0E8B                             u3575 0B58  
                           u3591 072D                             u3911 0586                             u4287 0C88  
                           u3495 0CB2                             u3751 03B5                             u3671 0E6E  
                           u3840 0D46                             u2880 0F03                             u3920 058E  
                           u3760 03BD                             u3680 0E83                             u4297 0FDE  
                           u3841 0D45                             u3825 0D31                             u2881 0F02  
                           u2865 0EF2                             u3921 058D                             u3905 0571  
                           u3761 03BC                             u3681 0E82                             u3770 0BC9  
                           u2890 0F07                             u3930 059C                             u3690 0C28  
                           u3771 0BC8                             u2891 0F06                             u3931 059B  
                           u3691 0C27                             u3675 0E6B                             u3860 0D57  
                           u3780 0CFD                             u3940 05A9                             _RCEN 048B  
                           _RCIF 0065                             u3861 0D56                             u3781 0CFC  
                           u3941 05A8                             u3870 0D5C                             u3790 0D14  
                           u3950 060E                             u3871 0D5B                             u3855 0D49  
                           u3951 060D                             u3935 0598                             u3695 0C24  
                           u3880 055C                             u3960 0696                             u3881 055B  
                           u3961 0695                             u3890 0563                             u3970 069B  
                           u3795 0D0F                             u3891 0562                             u3971 069A  
                           u3980 06A3                             u3981 06A2                             u3990 06B0  
                           u3991 06AF                             _TMR0 0001                             _SPEN 00C7  
                           _TXIF 0064                             _R_nW 04A2                             _main 03BE  
                           _logs 00A4                             _time 005C                             btemp 007E  
                           start 000C                  ___fldiv@new_exp 0038                   clcd_write@byte 0075  
                 clcd_write@mode 0072                    _i2c_rep_start 16D7                            ??_isr 0070  
                   ?_init_ds1307 0070                    ___fltol@sign1 0048                            ?_main 0070  
                   ?_read_ds1307 0070                            _ACKEN 048C                            _ACKDT 048D  
                 ??_display_time 0020                  __end_of___fldiv 020A                            STR_10 04C6  
                          STR_11 04E4                            STR_20 0502                            STR_12 04A8  
                          STR_21 0478                            STR_13 04D5                            STR_14 0467  
                          STR_22 0456                            STR_30 0434                            STR_15 051D  
                          STR_23 050C                            STR_31 0412                            STR_16 0420  
                          STR_24 04F3                            STR_32 0489                            STR_17 051D  
                          STR_33 0423                            STR_25 0400                            STR_26 0420  
                          STR_18 0420                            STR_34 0499                            STR_27 0420  
                          STR_19 0515                            STR_28 0420                            STR_29 0445  
                __end_of___fltol 0D68                  __end_of___lldiv 0CF2                      i2c_read@ack 0072  
                __end_of___lwdiv 0B23                  __end_of___lwmod 0AA8                            i1l508 0888  
                   ?_init_config 0070                            _RCREG 001A                            _SPBRG 0099  
                          _PORTB 0006                            _PORTD 0008                            _SSPM3 00A3  
                          _TRISB 0086                            _TRISD 0088                            _SSPEN 00A5  
                          _TXREG 0019                     ?_init_timer0 0070                      _write_event 071A  
                          _nDONE 00FA        write_external_eeprom@data 0073             __end_of_clear_screen 16BC  
      write_external_eeprom@wait 0075                            _delay 006B                            _index 0053  
                          _event 00C0                            _speed 0065                            btemp0 007E  
                          btemp1 007F                            _put_s 0841                            pclath 000A  
                          status 0003            _user_entered_password 00A0                            wtemp0 007E  
               init_ds1307@dummy 0076                  __initialization 000F                   ?_i2c_rep_start 0070  
         ?_write_external_eeprom 0073                     __end_of_main 0400                 __end_of_i2c_read 17DD  
               __end_of_i2c_stop 0809                    ?_download_log 0070                           ??_main 007A  
                   put_char@data 0072                           _ADCON0 001F           ??_read_external_eeprom 0074  
                         _ADRESH 001E                           _ADRESL 009E                           ?_put_s 0073  
                   i2c_read@data 0073                           i1l2980 086B                           i1l2982 087F  
                         i1l2984 0881                           i1l2986 0887                           i1l2978 0867  
                         u325_20 086B                           u325_21 086A                           u326_20 087F  
                         u326_21 087E                     _write_ds1307 1722                           _TMR0IE 005D  
                         _TMR0IF 005A                           _SSPADD 0093                           _TRISE1 0449  
                         _TRISE2 044A                           _SSPBUF 0013                 __end_of___xxtofl 0F3A  
    __end_of_init_digital_keypad 16AD                 __end_of_get_time 17BC          _init_display_controller 0C29  
                         _access 005B                           ___wmul 081C                        ??___fldiv 002E  
                      ??___fltol 0044                        ??___lldiv 0020                        ??___lwdiv 0076  
                      ??___lwmod 0076                 __end_of_init_i2c 09D0                 __end_of_init_adc 16B4  
               __end_of_read_adc 177D                   ??_download_log 002A                    main@operation 004E  
                   main_menu@key 0032                 __end_of_set_time 03BE                           ltemp0a 0080  
                         saved_w 007E                 __end_of_view_log 0E84                 __end_of_put_char 1703  
                         put_s@s 0073                           ttemp0a 007F                      read_event@i 0020  
                         wtemp0a 007F                     ___xxtofl@arg 0022                     ___xxtofl@exp 0021  
                   ___xxtofl@val 0072                     auth_user@key 0024          __end_of__initialization 003C  
           __end_of_display_time 0B75                       ___fltol@f1 0040                  ??_i2c_rep_start 0072  
                 __pcstackCOMMON 0070                     __pidataBANK0 07FD                     __pidataBANK1 1740  
                  __end_of_put_s 0867                __end_of_i2c_start 16CD                __end_of_i2c_write 16ED  
              _i2c_wait_for_idle 1703                          ??_put_s 0075               ?_i2c_wait_for_idle 0070  
                     __pbssBANK0 004F                       __pbssBANK1 00A0                        ?_i2c_read 0070  
                      ?_i2c_stop 0070        ??_init_display_controller 0076                       _clcd_print 090F  
            ??_i2c_wait_for_idle 0072                       _clcd_putch 07E8                       _clcd_write 0A04  
   write_external_eeprom@address 0074                       __pmaintext 03BE                  read_ds1307@addr 0074  
                read_ds1307@data 0075                     _clear_screen 16B4                          ?___wmul 0072  
                     __pintentry 0004                          _ACKSTAT 048E      __end_of_read_digital_keypad 08B9  
                      ?___xxtofl 0072        __end_of_i2c_wait_for_idle 1710                     ?_write_event 0070  
                   init_i2c@baud 0026                          _SSPCON2 0091                        ?_get_time 0076  
                     __stringtab 1000                       ??_i2c_read 0072                __end_of_dashboard 0645  
                     ??_i2c_stop 0072                        ?_init_i2c 0026             __end_of_download_log 0C29  
                      ?_init_adc 0070                        ?_read_adc 0072                __end_of_clear_log 179C  
                     _attempt_no 0051          ??_write_external_eeprom 0074                        ?_set_time 0070  
                        ___fldiv 0040                        ?_view_log 0070                          ___fltol 0CF2  
                        ___lldiv 0C8C                        ?_put_char 0070                          _adc_val 0059  
                        ___lwdiv 0AE1                          ___lwmod 0A70                __end_of_main_menu 071A  
              __end_of_auth_user 1000                       _read_event 17DD                          __ptext1 0645  
                        __ptext2 0DEF                          __ptext3 020A                          __ptext4 0AA8  
                        __ptext5 0A3A                          __ptext6 0BCE                          __ptext7 0D68  
                        __ptext8 17DD                          __ptext9 08E4  __end_of_init_display_controller 0C8C  
              __end_of_init_clcd 16F8                       ??___xxtofl 0076                __end_of_init_uart 099E  
         read_and_format_log@col 0025           read_and_format_log@log 0024                          main@key 004D  
                        clrloop0 16BD                       ??_get_time 0077             end_of_initialization 003C  
                  main_menu@star 0033                      set_time@key 002C                      set_time@min 0028  
                    set_time@sec 002A                       ??_init_i2c 002A                       ??_init_adc 0072  
                     ??_read_adc 0074                      ?_clcd_print 0076                      ?_clcd_putch 0079  
                ___lldiv@divisor 0072                      ?_clcd_write 0072                  ___lldiv@counter 0025  
                     ??_set_time 0022                       ??_view_log 002A                __end_of_run_delay 0BCE  
                     ??_put_char 0072                     __pstringtext 0400                _original_password 00DA  
                read_adc@channel 0077                     _display_time 0B23                       _print_star 0A3A  
                  i2c_write@data 0072                    ___xxtofl@sign 0020                      ___fldiv@grs 003A  
                    ___fldiv@rem 0033                    clcd_print@str 0076         read_external_eeprom@data 0075  
                   write_event@i 0077                   __end_of___wmul 0841                      ?_read_event 0078  
                    view_log@key 002C                       auth_user@i 0025              start_initialization 000F  
                      _i2c_start 16C4                      __end_of_isr 088F                        _i2c_write 16E2  
            _read_and_format_log 0D68            __end_of_i2c_rep_start 16E2             ?_read_and_format_log 0070  
                       ??___wmul 0076                       init_fetch0 0809                    ??_init_ds1307 0076  
                    __pdataBANK0 006B                      __pdataBANK1 00C0                    ??_read_ds1307 0074  
                   _download_log 0BCE                    ??_init_config 007A                        ___fldiv@a 0026  
                      ___fldiv@b 002A                      ?_print_star 0020                    ??_init_timer0 0072  
                    __pbssCOMMON 007A                        ___latbits 0002                    __pcstackBANK0 0020  
                     ?_i2c_start 0070                       ?_i2c_write 0070                        _dashboard 0538  
               ___lwdiv@dividend 0074    __end_of_write_external_eeprom 096E                        _clear_log 177D  
          ??_read_and_format_log 0022                         ?___fldiv 0026                         ?___fltol 0040  
                       ?___lldiv 0072                         ?___lwdiv 0072                        _clock_reg 0068  
                       ?___lwmod 0072              main_menu@menu_index 0036                        __pstrings 1000  
                      _main_menu 0645              __end_of_init_ds1307 1722                        _auth_user 0F3A  
                   _menu_options 00D0              read_adc@adc_reg_val 0075              __end_of_read_ds1307 08E4  
               ___lwdiv@quotient 0076                        _init_clcd 16ED              __end_of_init_config 0A04  
              _display_indicator 0AA8                        _init_uart 096E           main_menu@selected_menu 0034  
                  ?_write_ds1307 0073              __end_of_init_timer0 16D7         ?_init_display_controller 0070  
             ?_display_indicator 0020                interrupt_function 0004                   ___wmul@product 0076  
       read_and_format_log@index 0027      read_external_eeprom@address 0074                        clear_ram0 16BC  
                   ??_clcd_print 0079                     ??_clcd_putch 007A                     ??_clcd_write 0073  
                     ?_dashboard 0070              ??_display_indicator 0079                       ?_clear_log 0070  
                   dashboard@key 004C                 view_log@curr_log 002E                    download_log@i 002D  
                    __stringbase 1012                ___wmul@multiplier 0072                        _run_delay 0B75  
                     ?_main_menu 0070                       ?_auth_user 0070        __end_of_display_indicator 0AE1  
                    ??_i2c_start 0072               __end_of_clcd_print 093E                      ??_i2c_write 0072  
             __end_of_clcd_putch 07FD               __end_of_clcd_write 0A3A                       ?_init_clcd 0070  
                     ?_init_uart 0026                   ??_write_ds1307 0074              _init_digital_keypad 16A7  
                       _i2c_read 17BC                         _i2c_stop 0800                get_time@clock_reg 0076  
             write_event@address 0055     __end_of_read_external_eeprom 090F                set_time@indicator 002D  
                read_event@event 00B5             ?_init_digital_keypad 0070                      _init_ds1307 1710  
                    _event_count 0057                     ??_read_event 007A               __end_of__stringtab 1012  
                    _read_ds1307 08B9                       ?_run_delay 0070                      _init_config 09D0  
                       ___xxtofl 0E84                      _init_timer0 16CD                  ___lwdiv@divisor 0072  
                ___lwdiv@counter 0078                         __ptext10 081C                         __ptext11 0841  
                       __ptext20 1722                         __ptext12 16F8                         __ptext21 16A7  
                       __ptext13 16B4                         __ptext30 08B9                         __ptext22 16ED  
                       __ptext14 177D                         __ptext31 16E2                         __ptext23 0C29  
                       __ptext15 09D0                         __ptext40 0040                         __ptext32 16D7  
                       __ptext24 16AD                         __ptext16 096E                         __ptext41 0F3A  
                       __ptext33 0800                         __ptext25 0538                         __ptext17 099E  
                       __ptext50 0867                         __ptext42 0B75                         __ptext34 16C4  
                       __ptext26 071A                         __ptext18 0C8C                         __ptext43 16CD  
                       __ptext35 17BC                         __ptext27 093E                         __ptext19 1710  
                       __ptext44 07E8                         __ptext36 1703                         __ptext28 175E  
                       __ptext45 090F                         __ptext37 0B23                         __ptext29 179C  
                       __ptext46 0A04                         __ptext38 0E84                         __ptext47 0A70  
                       __ptext39 0CF2                         __ptext48 0AE1                         __ptext49 088F  
                       _get_time 179C                         _init_i2c 099E                         _init_adc 16AD  
                       _read_adc 175E          read_digital_keypad@mode 0073          read_digital_keypad@once 006D  
           read_and_format_log@i 0028               __end_of_read_event 1800                      ??_dashboard 004A  
          display_time@clock_reg 0079                      ??_clear_log 0020                    ?_clear_screen 0070  
                       _set_time 020A                         _view_log 0DEF            ??_init_digital_keypad 0072  
                       _put_char 16F8             display_indicator@pos 0020                     ??_print_star 0079  
                    ??_main_menu 0030                      ??_auth_user 0021                    ??_write_event 0020  
                       isr@count 004F                     set_time@hour 0026                         init_ram0 080D  
                 read_event@addr 0078                      ??_init_clcd 0078                      ??_init_uart 002A  
                       intlevel1 0000                    init_uart@baud 0026                 ___lwmod@dividend 0074  
               ___lldiv@dividend 0076                        stringcode 100A                   ??_clear_screen 0076  
             __end_of_print_star 0A70             __end_of_write_ds1307 1740              _read_digital_keypad 088F  
                    ??_run_delay 007A                 ___lldiv@quotient 0021                  ___lwmod@divisor 0072  
                ___lwmod@counter 0076                         stringtab 1000             ?_read_digital_keypad 0070  
               write_ds1307@addr 0074                 write_ds1307@data 0073              __end_of_write_event 07E8  
           _read_external_eeprom 08E4      __end_of_read_and_format_log 0DEF  
