

Microchip MPLAB XC8 Assembler V3.10 build 20250813170317 
                                                                                               Thu Jul  2 01:04:14 2026

Microchip MPLAB XC8 C Compiler v3.10 (Free license) build 20250813170317 Og1 
     1                           	processor	16F877A
     2                           	pagewidth 120
     3                           	opt	flic
     4                           	psect	idataBANK0,global,class=CODE,space=0,delta=2,noexec
     5                           	psect	idataBANK1,global,class=CODE,space=0,delta=2,noexec
     6                           	psect	strings,global,class=STRING,space=0,delta=2,noexec
     7                           	psect	stringtext,global,reloc=256,class=STRCODE,space=0,delta=2,noexec
     8                           	psect	cinit,global,class=CODE,space=0,merge=1,delta=2
     9                           	psect	bssCOMMON,global,class=COMMON,space=1,delta=1,noexec
    10                           	psect	bssBANK0,global,class=BANK0,space=1,delta=1,noexec
    11                           	psect	dataBANK0,global,class=BANK0,space=1,delta=1,noexec
    12                           	psect	bssBANK1,global,class=BANK1,space=1,delta=1,noexec
    13                           	psect	dataBANK1,global,class=BANK1,space=1,delta=1,noexec
    14                           	psect	inittext,global,class=CODE,space=0,delta=2
    15                           	psect	clrtext,global,class=CODE,space=0,delta=2
    16                           	psect	cstackBANK1,global,class=BANK1,space=1,delta=1,noexec
    17                           	psect	cstackCOMMON,global,class=COMMON,space=1,delta=1,noexec
    18                           	psect	cstackBANK0,global,class=BANK0,space=1,delta=1,noexec
    19                           	psect	maintext,global,class=CODE,space=0,split=1,delta=2
    20                           	psect	text1,local,class=CODE,space=0,merge=1,delta=2
    21                           	psect	text2,local,class=CODE,space=0,merge=1,delta=2
    22                           	psect	text3,local,class=CODE,space=0,merge=1,delta=2
    23                           	psect	text4,local,class=CODE,space=0,merge=1,delta=2
    24                           	psect	text5,local,class=CODE,space=0,merge=1,delta=2
    25                           	psect	text6,local,class=CODE,space=0,merge=1,delta=2
    26                           	psect	text7,local,class=CODE,space=0,merge=1,delta=2
    27                           	psect	text8,local,class=CODE,space=0,merge=1,delta=2
    28                           	psect	text9,local,class=CODE,space=0,merge=1,delta=2
    29                           	psect	text10,local,class=CODE,space=0,merge=1,delta=2,group=1
    30                           	psect	text11,local,class=CODE,space=0,merge=1,delta=2
    31                           	psect	text12,local,class=CODE,space=0,merge=1,delta=2
    32                           	psect	text13,local,class=CODE,space=0,merge=1,delta=2
    33                           	psect	text14,local,class=CODE,space=0,merge=1,delta=2
    34                           	psect	text15,local,class=CODE,space=0,merge=1,delta=2
    35                           	psect	text16,local,class=CODE,space=0,merge=1,delta=2
    36                           	psect	text17,local,class=CODE,space=0,merge=1,delta=2
    37                           	psect	text18,local,class=CODE,space=0,merge=1,delta=2,group=1
    38                           	psect	text19,local,class=CODE,space=0,merge=1,delta=2
    39                           	psect	text20,local,class=CODE,space=0,merge=1,delta=2
    40                           	psect	text21,local,class=CODE,space=0,merge=1,delta=2
    41                           	psect	text22,local,class=CODE,space=0,merge=1,delta=2
    42                           	psect	text23,local,class=CODE,space=0,merge=1,delta=2
    43                           	psect	text24,local,class=CODE,space=0,merge=1,delta=2
    44                           	psect	text25,local,class=CODE,space=0,merge=1,delta=2
    45                           	psect	text26,local,class=CODE,space=0,merge=1,delta=2
    46                           	psect	text27,local,class=CODE,space=0,merge=1,delta=2
    47                           	psect	text28,local,class=CODE,space=0,merge=1,delta=2
    48                           	psect	text29,local,class=CODE,space=0,merge=1,delta=2
    49                           	psect	text30,local,class=CODE,space=0,merge=1,delta=2
    50                           	psect	text31,local,class=CODE,space=0,merge=1,delta=2
    51                           	psect	text32,local,class=CODE,space=0,merge=1,delta=2
    52                           	psect	text33,local,class=CODE,space=0,merge=1,delta=2
    53                           	psect	text34,local,class=CODE,space=0,merge=1,delta=2
    54                           	psect	text35,local,class=CODE,space=0,merge=1,delta=2
    55                           	psect	text36,local,class=CODE,space=0,merge=1,delta=2
    56                           	psect	text37,local,class=CODE,space=0,merge=1,delta=2
    57                           	psect	text38,local,class=CODE,space=0,merge=1,delta=2,group=1
    58                           	psect	text39,local,class=CODE,space=0,merge=1,delta=2,group=1
    59                           	psect	text40,local,class=CODE,space=0,merge=1,delta=2,group=1
    60                           	psect	text41,local,class=CODE,space=0,merge=1,delta=2
    61                           	psect	text42,local,class=CODE,space=0,merge=1,delta=2
    62                           	psect	text43,local,class=CODE,space=0,merge=1,delta=2
    63                           	psect	text44,local,class=CODE,space=0,merge=1,delta=2
    64                           	psect	text45,local,class=CODE,space=0,merge=1,delta=2
    65                           	psect	text46,local,class=CODE,space=0,merge=1,delta=2
    66                           	psect	text47,local,class=CODE,space=0,merge=1,delta=2,group=1
    67                           	psect	text48,local,class=CODE,space=0,merge=1,delta=2,group=1
    68                           	psect	text49,local,class=CODE,space=0,merge=1,delta=2
    69                           	psect	text50,local,class=CODE,space=0,merge=1,delta=2
    70                           	psect	intentry,global,class=CODE,space=0,delta=2
    71                           	psect	idloc,global,abs,ovrld,class=IDLOC,space=5,delta=2,noexec
    72                           	psect	config,global,abs,ovrld,class=CONFIG,space=4,delta=2,noexec
    73                           	dabs	1,0x7E,2
    74     0000                     
    75                           ; Version 2.20
    76                           ; Generated 12/02/2020 GMT
    77                           ; 
    78                           ; Copyright © 2020, Microchip Technology Inc. and its subsidiaries ("Microchip")
    79                           ; All rights reserved.
    80                           ; 
    81                           ; This software is developed by Microchip Technology Inc. and its subsidiaries ("Microch
      +                          ip").
    82                           ; 
    83                           ; Redistribution and use in source and binary forms, with or without modification, are
    84                           ; permitted provided that the following conditions are met:
    85                           ; 
    86                           ;     1. Redistributions of source code must retain the above copyright notice, this lis
      +                          t of
    87                           ;        conditions and the following disclaimer.
    88                           ; 
    89                           ;     2. Redistributions in binary form must reproduce the above copyright notice, this 
      +                          list
    90                           ;        of conditions and the following disclaimer in the documentation and/or other
    91                           ;        materials provided with the distribution.
    92                           ; 
    93                           ;     3. Microchip's name may not be used to endorse or promote products derived from th
      +                          is
    94                           ;        software without specific prior written permission.
    95                           ; 
    96                           ; THIS SOFTWARE IS PROVIDED BY MICROCHIP "AS IS" AND ANY EXPRESS OR IMPLIED WARRANTIES,
    97                           ; INCLUDING, BUT NOT LIMITED TO, THE IMPLIED WARRANTIES OF MERCHANTABILITY AND FITNESS F
      +                          OR
    98                           ; PURPOSE ARE DISCLAIMED.  IN NO EVENT SHALL MICROCHIP BE LIABLE FOR ANY DIRECT, INDIREC
      +                          T,
    99                           ; INCIDENTAL, SPECIAL, EXEMPLARY, OR CONSEQUENTIAL DAMAGES (INCLUDING BUT NOT LIMITED TO
   100                           ; PROCUREMENT OF SUBSTITUTE GOODS OR SERVICES; LOSS OF USE, DATA OR PROFITS; OR BUSINESS
   101                           ; INTERRUPTION) HOWSOEVER CAUSED AND ON ANY THEORY OF LIABILITY, WHETHER IN CONTRACT, ST
      +                          RICT
   102                           ; LIABILITY, OR TORT (INCLUDING NEGLIGENCE OR OTHERWISE) ARISING IN ANY WAY OUT OF THE U
      +                          SE OF
   103                           ; THIS SOFTWARE, EVEN IF ADVISED OF THE POSSIBILITY OF SUCH DAMAGE.
   104                           ; 
   105                           ; 
   106                           ; Code-generator required, PIC16F877A Definitions
   107                           ; 
   108                           ; SFR Addresses
   109     0004                     fsr             equ	4
   110     0004                     fsr0            equ	4
   111     0000                     indf            equ	0
   112     0000                     indf0           equ	0
   113     0002                     pc              equ	2
   114     0002                     pcl             equ	2
   115     000A                     pclath          equ	10
   116     0003                     status          equ	3
   117     0000                     INDF            equ	0	;# 
   118     0001                     TMR0            equ	1	;# 
   119     0002                     PCL             equ	2	;# 
   120     0003                     STATUS          equ	3	;# 
   121     0004                     FSR             equ	4	;# 
   122     0005                     PORTA           equ	5	;# 
   123     0006                     PORTB           equ	6	;# 
   124     0007                     PORTC           equ	7	;# 
   125     0008                     PORTD           equ	8	;# 
   126     0009                     PORTE           equ	9	;# 
   127     000A                     PCLATH          equ	10	;# 
   128     000B                     INTCON          equ	11	;# 
   129     000C                     PIR1            equ	12	;# 
   130     000D                     PIR2            equ	13	;# 
   131     000E                     TMR1            equ	14	;# 
   132     000E                     TMR1L           equ	14	;# 
   133     000F                     TMR1H           equ	15	;# 
   134     0010                     T1CON           equ	16	;# 
   135     0011                     TMR2            equ	17	;# 
   136     0012                     T2CON           equ	18	;# 
   137     0013                     SSPBUF          equ	19	;# 
   138     0014                     SSPCON          equ	20	;# 
   139     0015                     CCPR1           equ	21	;# 
   140     0015                     CCPR1L          equ	21	;# 
   141     0016                     CCPR1H          equ	22	;# 
   142     0017                     CCP1CON         equ	23	;# 
   143     0018                     RCSTA           equ	24	;# 
   144     0019                     TXREG           equ	25	;# 
   145     001A                     RCREG           equ	26	;# 
   146     001B                     CCPR2           equ	27	;# 
   147     001B                     CCPR2L          equ	27	;# 
   148     001C                     CCPR2H          equ	28	;# 
   149     001D                     CCP2CON         equ	29	;# 
   150     001E                     ADRESH          equ	30	;# 
   151     001F                     ADCON0          equ	31	;# 
   152     0081                     OPTION_REG      equ	129	;# 
   153     0085                     TRISA           equ	133	;# 
   154     0086                     TRISB           equ	134	;# 
   155     0087                     TRISC           equ	135	;# 
   156     0088                     TRISD           equ	136	;# 
   157     0089                     TRISE           equ	137	;# 
   158     008C                     PIE1            equ	140	;# 
   159     008D                     PIE2            equ	141	;# 
   160     008E                     PCON            equ	142	;# 
   161     0091                     SSPCON2         equ	145	;# 
   162     0092                     PR2             equ	146	;# 
   163     0093                     SSPADD          equ	147	;# 
   164     0094                     SSPSTAT         equ	148	;# 
   165     0098                     TXSTA           equ	152	;# 
   166     0099                     SPBRG           equ	153	;# 
   167     009C                     CMCON           equ	156	;# 
   168     009D                     CVRCON          equ	157	;# 
   169     009E                     ADRESL          equ	158	;# 
   170     009F                     ADCON1          equ	159	;# 
   171     010C                     EEDATA          equ	268	;# 
   172     010D                     EEADR           equ	269	;# 
   173     010E                     EEDATH          equ	270	;# 
   174     010F                     EEADRH          equ	271	;# 
   175     018C                     EECON1          equ	396	;# 
   176     018D                     EECON2          equ	397	;# 
   177     0000                     INDF            equ	0	;# 
   178     0001                     TMR0            equ	1	;# 
   179     0002                     PCL             equ	2	;# 
   180     0003                     STATUS          equ	3	;# 
   181     0004                     FSR             equ	4	;# 
   182     0005                     PORTA           equ	5	;# 
   183     0006                     PORTB           equ	6	;# 
   184     0007                     PORTC           equ	7	;# 
   185     0008                     PORTD           equ	8	;# 
   186     0009                     PORTE           equ	9	;# 
   187     000A                     PCLATH          equ	10	;# 
   188     000B                     INTCON          equ	11	;# 
   189     000C                     PIR1            equ	12	;# 
   190     000D                     PIR2            equ	13	;# 
   191     000E                     TMR1            equ	14	;# 
   192     000E                     TMR1L           equ	14	;# 
   193     000F                     TMR1H           equ	15	;# 
   194     0010                     T1CON           equ	16	;# 
   195     0011                     TMR2            equ	17	;# 
   196     0012                     T2CON           equ	18	;# 
   197     0013                     SSPBUF          equ	19	;# 
   198     0014                     SSPCON          equ	20	;# 
   199     0015                     CCPR1           equ	21	;# 
   200     0015                     CCPR1L          equ	21	;# 
   201     0016                     CCPR1H          equ	22	;# 
   202     0017                     CCP1CON         equ	23	;# 
   203     0018                     RCSTA           equ	24	;# 
   204     0019                     TXREG           equ	25	;# 
   205     001A                     RCREG           equ	26	;# 
   206     001B                     CCPR2           equ	27	;# 
   207     001B                     CCPR2L          equ	27	;# 
   208     001C                     CCPR2H          equ	28	;# 
   209     001D                     CCP2CON         equ	29	;# 
   210     001E                     ADRESH          equ	30	;# 
   211     001F                     ADCON0          equ	31	;# 
   212     0081                     OPTION_REG      equ	129	;# 
   213     0085                     TRISA           equ	133	;# 
   214     0086                     TRISB           equ	134	;# 
   215     0087                     TRISC           equ	135	;# 
   216     0088                     TRISD           equ	136	;# 
   217     0089                     TRISE           equ	137	;# 
   218     008C                     PIE1            equ	140	;# 
   219     008D                     PIE2            equ	141	;# 
   220     008E                     PCON            equ	142	;# 
   221     0091                     SSPCON2         equ	145	;# 
   222     0092                     PR2             equ	146	;# 
   223     0093                     SSPADD          equ	147	;# 
   224     0094                     SSPSTAT         equ	148	;# 
   225     0098                     TXSTA           equ	152	;# 
   226     0099                     SPBRG           equ	153	;# 
   227     009C                     CMCON           equ	156	;# 
   228     009D                     CVRCON          equ	157	;# 
   229     009E                     ADRESL          equ	158	;# 
   230     009F                     ADCON1          equ	159	;# 
   231     010C                     EEDATA          equ	268	;# 
   232     010D                     EEADR           equ	269	;# 
   233     010E                     EEDATH          equ	270	;# 
   234     010F                     EEADRH          equ	271	;# 
   235     018C                     EECON1          equ	396	;# 
   236     018D                     EECON2          equ	397	;# 
   237     0000                     INDF            equ	0	;# 
   238     0001                     TMR0            equ	1	;# 
   239     0002                     PCL             equ	2	;# 
   240     0003                     STATUS          equ	3	;# 
   241     0004                     FSR             equ	4	;# 
   242     0005                     PORTA           equ	5	;# 
   243     0006                     PORTB           equ	6	;# 
   244     0007                     PORTC           equ	7	;# 
   245     0008                     PORTD           equ	8	;# 
   246     0009                     PORTE           equ	9	;# 
   247     000A                     PCLATH          equ	10	;# 
   248     000B                     INTCON          equ	11	;# 
   249     000C                     PIR1            equ	12	;# 
   250     000D                     PIR2            equ	13	;# 
   251     000E                     TMR1            equ	14	;# 
   252     000E                     TMR1L           equ	14	;# 
   253     000F                     TMR1H           equ	15	;# 
   254     0010                     T1CON           equ	16	;# 
   255     0011                     TMR2            equ	17	;# 
   256     0012                     T2CON           equ	18	;# 
   257     0013                     SSPBUF          equ	19	;# 
   258     0014                     SSPCON          equ	20	;# 
   259     0015                     CCPR1           equ	21	;# 
   260     0015                     CCPR1L          equ	21	;# 
   261     0016                     CCPR1H          equ	22	;# 
   262     0017                     CCP1CON         equ	23	;# 
   263     0018                     RCSTA           equ	24	;# 
   264     0019                     TXREG           equ	25	;# 
   265     001A                     RCREG           equ	26	;# 
   266     001B                     CCPR2           equ	27	;# 
   267     001B                     CCPR2L          equ	27	;# 
   268     001C                     CCPR2H          equ	28	;# 
   269     001D                     CCP2CON         equ	29	;# 
   270     001E                     ADRESH          equ	30	;# 
   271     001F                     ADCON0          equ	31	;# 
   272     0081                     OPTION_REG      equ	129	;# 
   273     0085                     TRISA           equ	133	;# 
   274     0086                     TRISB           equ	134	;# 
   275     0087                     TRISC           equ	135	;# 
   276     0088                     TRISD           equ	136	;# 
   277     0089                     TRISE           equ	137	;# 
   278     008C                     PIE1            equ	140	;# 
   279     008D                     PIE2            equ	141	;# 
   280     008E                     PCON            equ	142	;# 
   281     0091                     SSPCON2         equ	145	;# 
   282     0092                     PR2             equ	146	;# 
   283     0093                     SSPADD          equ	147	;# 
   284     0094                     SSPSTAT         equ	148	;# 
   285     0098                     TXSTA           equ	152	;# 
   286     0099                     SPBRG           equ	153	;# 
   287     009C                     CMCON           equ	156	;# 
   288     009D                     CVRCON          equ	157	;# 
   289     009E                     ADRESL          equ	158	;# 
   290     009F                     ADCON1          equ	159	;# 
   291     010C                     EEDATA          equ	268	;# 
   292     010D                     EEADR           equ	269	;# 
   293     010E                     EEDATH          equ	270	;# 
   294     010F                     EEADRH          equ	271	;# 
   295     018C                     EECON1          equ	396	;# 
   296     018D                     EECON2          equ	397	;# 
   297     0000                     INDF            equ	0	;# 
   298     0001                     TMR0            equ	1	;# 
   299     0002                     PCL             equ	2	;# 
   300     0003                     STATUS          equ	3	;# 
   301     0004                     FSR             equ	4	;# 
   302     0005                     PORTA           equ	5	;# 
   303     0006                     PORTB           equ	6	;# 
   304     0007                     PORTC           equ	7	;# 
   305     0008                     PORTD           equ	8	;# 
   306     0009                     PORTE           equ	9	;# 
   307     000A                     PCLATH          equ	10	;# 
   308     000B                     INTCON          equ	11	;# 
   309     000C                     PIR1            equ	12	;# 
   310     000D                     PIR2            equ	13	;# 
   311     000E                     TMR1            equ	14	;# 
   312     000E                     TMR1L           equ	14	;# 
   313     000F                     TMR1H           equ	15	;# 
   314     0010                     T1CON           equ	16	;# 
   315     0011                     TMR2            equ	17	;# 
   316     0012                     T2CON           equ	18	;# 
   317     0013                     SSPBUF          equ	19	;# 
   318     0014                     SSPCON          equ	20	;# 
   319     0015                     CCPR1           equ	21	;# 
   320     0015                     CCPR1L          equ	21	;# 
   321     0016                     CCPR1H          equ	22	;# 
   322     0017                     CCP1CON         equ	23	;# 
   323     0018                     RCSTA           equ	24	;# 
   324     0019                     TXREG           equ	25	;# 
   325     001A                     RCREG           equ	26	;# 
   326     001B                     CCPR2           equ	27	;# 
   327     001B                     CCPR2L          equ	27	;# 
   328     001C                     CCPR2H          equ	28	;# 
   329     001D                     CCP2CON         equ	29	;# 
   330     001E                     ADRESH          equ	30	;# 
   331     001F                     ADCON0          equ	31	;# 
   332     0081                     OPTION_REG      equ	129	;# 
   333     0085                     TRISA           equ	133	;# 
   334     0086                     TRISB           equ	134	;# 
   335     0087                     TRISC           equ	135	;# 
   336     0088                     TRISD           equ	136	;# 
   337     0089                     TRISE           equ	137	;# 
   338     008C                     PIE1            equ	140	;# 
   339     008D                     PIE2            equ	141	;# 
   340     008E                     PCON            equ	142	;# 
   341     0091                     SSPCON2         equ	145	;# 
   342     0092                     PR2             equ	146	;# 
   343     0093                     SSPADD          equ	147	;# 
   344     0094                     SSPSTAT         equ	148	;# 
   345     0098                     TXSTA           equ	152	;# 
   346     0099                     SPBRG           equ	153	;# 
   347     009C                     CMCON           equ	156	;# 
   348     009D                     CVRCON          equ	157	;# 
   349     009E                     ADRESL          equ	158	;# 
   350     009F                     ADCON1          equ	159	;# 
   351     010C                     EEDATA          equ	268	;# 
   352     010D                     EEADR           equ	269	;# 
   353     010E                     EEDATH          equ	270	;# 
   354     010F                     EEADRH          equ	271	;# 
   355     018C                     EECON1          equ	396	;# 
   356     018D                     EECON2          equ	397	;# 
   357     0000                     INDF            equ	0	;# 
   358     0001                     TMR0            equ	1	;# 
   359     0002                     PCL             equ	2	;# 
   360     0003                     STATUS          equ	3	;# 
   361     0004                     FSR             equ	4	;# 
   362     0005                     PORTA           equ	5	;# 
   363     0006                     PORTB           equ	6	;# 
   364     0007                     PORTC           equ	7	;# 
   365     0008                     PORTD           equ	8	;# 
   366     0009                     PORTE           equ	9	;# 
   367     000A                     PCLATH          equ	10	;# 
   368     000B                     INTCON          equ	11	;# 
   369     000C                     PIR1            equ	12	;# 
   370     000D                     PIR2            equ	13	;# 
   371     000E                     TMR1            equ	14	;# 
   372     000E                     TMR1L           equ	14	;# 
   373     000F                     TMR1H           equ	15	;# 
   374     0010                     T1CON           equ	16	;# 
   375     0011                     TMR2            equ	17	;# 
   376     0012                     T2CON           equ	18	;# 
   377     0013                     SSPBUF          equ	19	;# 
   378     0014                     SSPCON          equ	20	;# 
   379     0015                     CCPR1           equ	21	;# 
   380     0015                     CCPR1L          equ	21	;# 
   381     0016                     CCPR1H          equ	22	;# 
   382     0017                     CCP1CON         equ	23	;# 
   383     0018                     RCSTA           equ	24	;# 
   384     0019                     TXREG           equ	25	;# 
   385     001A                     RCREG           equ	26	;# 
   386     001B                     CCPR2           equ	27	;# 
   387     001B                     CCPR2L          equ	27	;# 
   388     001C                     CCPR2H          equ	28	;# 
   389     001D                     CCP2CON         equ	29	;# 
   390     001E                     ADRESH          equ	30	;# 
   391     001F                     ADCON0          equ	31	;# 
   392     0081                     OPTION_REG      equ	129	;# 
   393     0085                     TRISA           equ	133	;# 
   394     0086                     TRISB           equ	134	;# 
   395     0087                     TRISC           equ	135	;# 
   396     0088                     TRISD           equ	136	;# 
   397     0089                     TRISE           equ	137	;# 
   398     008C                     PIE1            equ	140	;# 
   399     008D                     PIE2            equ	141	;# 
   400     008E                     PCON            equ	142	;# 
   401     0091                     SSPCON2         equ	145	;# 
   402     0092                     PR2             equ	146	;# 
   403     0093                     SSPADD          equ	147	;# 
   404     0094                     SSPSTAT         equ	148	;# 
   405     0098                     TXSTA           equ	152	;# 
   406     0099                     SPBRG           equ	153	;# 
   407     009C                     CMCON           equ	156	;# 
   408     009D                     CVRCON          equ	157	;# 
   409     009E                     ADRESL          equ	158	;# 
   410     009F                     ADCON1          equ	159	;# 
   411     010C                     EEDATA          equ	268	;# 
   412     010D                     EEADR           equ	269	;# 
   413     010E                     EEDATH          equ	270	;# 
   414     010F                     EEADRH          equ	271	;# 
   415     018C                     EECON1          equ	396	;# 
   416     018D                     EECON2          equ	397	;# 
   417     0000                     INDF            equ	0	;# 
   418     0001                     TMR0            equ	1	;# 
   419     0002                     PCL             equ	2	;# 
   420     0003                     STATUS          equ	3	;# 
   421     0004                     FSR             equ	4	;# 
   422     0005                     PORTA           equ	5	;# 
   423     0006                     PORTB           equ	6	;# 
   424     0007                     PORTC           equ	7	;# 
   425     0008                     PORTD           equ	8	;# 
   426     0009                     PORTE           equ	9	;# 
   427     000A                     PCLATH          equ	10	;# 
   428     000B                     INTCON          equ	11	;# 
   429     000C                     PIR1            equ	12	;# 
   430     000D                     PIR2            equ	13	;# 
   431     000E                     TMR1            equ	14	;# 
   432     000E                     TMR1L           equ	14	;# 
   433     000F                     TMR1H           equ	15	;# 
   434     0010                     T1CON           equ	16	;# 
   435     0011                     TMR2            equ	17	;# 
   436     0012                     T2CON           equ	18	;# 
   437     0013                     SSPBUF          equ	19	;# 
   438     0014                     SSPCON          equ	20	;# 
   439     0015                     CCPR1           equ	21	;# 
   440     0015                     CCPR1L          equ	21	;# 
   441     0016                     CCPR1H          equ	22	;# 
   442     0017                     CCP1CON         equ	23	;# 
   443     0018                     RCSTA           equ	24	;# 
   444     0019                     TXREG           equ	25	;# 
   445     001A                     RCREG           equ	26	;# 
   446     001B                     CCPR2           equ	27	;# 
   447     001B                     CCPR2L          equ	27	;# 
   448     001C                     CCPR2H          equ	28	;# 
   449     001D                     CCP2CON         equ	29	;# 
   450     001E                     ADRESH          equ	30	;# 
   451     001F                     ADCON0          equ	31	;# 
   452     0081                     OPTION_REG      equ	129	;# 
   453     0085                     TRISA           equ	133	;# 
   454     0086                     TRISB           equ	134	;# 
   455     0087                     TRISC           equ	135	;# 
   456     0088                     TRISD           equ	136	;# 
   457     0089                     TRISE           equ	137	;# 
   458     008C                     PIE1            equ	140	;# 
   459     008D                     PIE2            equ	141	;# 
   460     008E                     PCON            equ	142	;# 
   461     0091                     SSPCON2         equ	145	;# 
   462     0092                     PR2             equ	146	;# 
   463     0093                     SSPADD          equ	147	;# 
   464     0094                     SSPSTAT         equ	148	;# 
   465     0098                     TXSTA           equ	152	;# 
   466     0099                     SPBRG           equ	153	;# 
   467     009C                     CMCON           equ	156	;# 
   468     009D                     CVRCON          equ	157	;# 
   469     009E                     ADRESL          equ	158	;# 
   470     009F                     ADCON1          equ	159	;# 
   471     010C                     EEDATA          equ	268	;# 
   472     010D                     EEADR           equ	269	;# 
   473     010E                     EEDATH          equ	270	;# 
   474     010F                     EEADRH          equ	271	;# 
   475     018C                     EECON1          equ	396	;# 
   476     018D                     EECON2          equ	397	;# 
   477     0000                     INDF            equ	0	;# 
   478     0001                     TMR0            equ	1	;# 
   479     0002                     PCL             equ	2	;# 
   480     0003                     STATUS          equ	3	;# 
   481     0004                     FSR             equ	4	;# 
   482     0005                     PORTA           equ	5	;# 
   483     0006                     PORTB           equ	6	;# 
   484     0007                     PORTC           equ	7	;# 
   485     0008                     PORTD           equ	8	;# 
   486     0009                     PORTE           equ	9	;# 
   487     000A                     PCLATH          equ	10	;# 
   488     000B                     INTCON          equ	11	;# 
   489     000C                     PIR1            equ	12	;# 
   490     000D                     PIR2            equ	13	;# 
   491     000E                     TMR1            equ	14	;# 
   492     000E                     TMR1L           equ	14	;# 
   493     000F                     TMR1H           equ	15	;# 
   494     0010                     T1CON           equ	16	;# 
   495     0011                     TMR2            equ	17	;# 
   496     0012                     T2CON           equ	18	;# 
   497     0013                     SSPBUF          equ	19	;# 
   498     0014                     SSPCON          equ	20	;# 
   499     0015                     CCPR1           equ	21	;# 
   500     0015                     CCPR1L          equ	21	;# 
   501     0016                     CCPR1H          equ	22	;# 
   502     0017                     CCP1CON         equ	23	;# 
   503     0018                     RCSTA           equ	24	;# 
   504     0019                     TXREG           equ	25	;# 
   505     001A                     RCREG           equ	26	;# 
   506     001B                     CCPR2           equ	27	;# 
   507     001B                     CCPR2L          equ	27	;# 
   508     001C                     CCPR2H          equ	28	;# 
   509     001D                     CCP2CON         equ	29	;# 
   510     001E                     ADRESH          equ	30	;# 
   511     001F                     ADCON0          equ	31	;# 
   512     0081                     OPTION_REG      equ	129	;# 
   513     0085                     TRISA           equ	133	;# 
   514     0086                     TRISB           equ	134	;# 
   515     0087                     TRISC           equ	135	;# 
   516     0088                     TRISD           equ	136	;# 
   517     0089                     TRISE           equ	137	;# 
   518     008C                     PIE1            equ	140	;# 
   519     008D                     PIE2            equ	141	;# 
   520     008E                     PCON            equ	142	;# 
   521     0091                     SSPCON2         equ	145	;# 
   522     0092                     PR2             equ	146	;# 
   523     0093                     SSPADD          equ	147	;# 
   524     0094                     SSPSTAT         equ	148	;# 
   525     0098                     TXSTA           equ	152	;# 
   526     0099                     SPBRG           equ	153	;# 
   527     009C                     CMCON           equ	156	;# 
   528     009D                     CVRCON          equ	157	;# 
   529     009E                     ADRESL          equ	158	;# 
   530     009F                     ADCON1          equ	159	;# 
   531     010C                     EEDATA          equ	268	;# 
   532     010D                     EEADR           equ	269	;# 
   533     010E                     EEDATH          equ	270	;# 
   534     010F                     EEADRH          equ	271	;# 
   535     018C                     EECON1          equ	396	;# 
   536     018D                     EECON2          equ	397	;# 
   537     0000                     INDF            equ	0	;# 
   538     0001                     TMR0            equ	1	;# 
   539     0002                     PCL             equ	2	;# 
   540     0003                     STATUS          equ	3	;# 
   541     0004                     FSR             equ	4	;# 
   542     0005                     PORTA           equ	5	;# 
   543     0006                     PORTB           equ	6	;# 
   544     0007                     PORTC           equ	7	;# 
   545     0008                     PORTD           equ	8	;# 
   546     0009                     PORTE           equ	9	;# 
   547     000A                     PCLATH          equ	10	;# 
   548     000B                     INTCON          equ	11	;# 
   549     000C                     PIR1            equ	12	;# 
   550     000D                     PIR2            equ	13	;# 
   551     000E                     TMR1            equ	14	;# 
   552     000E                     TMR1L           equ	14	;# 
   553     000F                     TMR1H           equ	15	;# 
   554     0010                     T1CON           equ	16	;# 
   555     0011                     TMR2            equ	17	;# 
   556     0012                     T2CON           equ	18	;# 
   557     0013                     SSPBUF          equ	19	;# 
   558     0014                     SSPCON          equ	20	;# 
   559     0015                     CCPR1           equ	21	;# 
   560     0015                     CCPR1L          equ	21	;# 
   561     0016                     CCPR1H          equ	22	;# 
   562     0017                     CCP1CON         equ	23	;# 
   563     0018                     RCSTA           equ	24	;# 
   564     0019                     TXREG           equ	25	;# 
   565     001A                     RCREG           equ	26	;# 
   566     001B                     CCPR2           equ	27	;# 
   567     001B                     CCPR2L          equ	27	;# 
   568     001C                     CCPR2H          equ	28	;# 
   569     001D                     CCP2CON         equ	29	;# 
   570     001E                     ADRESH          equ	30	;# 
   571     001F                     ADCON0          equ	31	;# 
   572     0081                     OPTION_REG      equ	129	;# 
   573     0085                     TRISA           equ	133	;# 
   574     0086                     TRISB           equ	134	;# 
   575     0087                     TRISC           equ	135	;# 
   576     0088                     TRISD           equ	136	;# 
   577     0089                     TRISE           equ	137	;# 
   578     008C                     PIE1            equ	140	;# 
   579     008D                     PIE2            equ	141	;# 
   580     008E                     PCON            equ	142	;# 
   581     0091                     SSPCON2         equ	145	;# 
   582     0092                     PR2             equ	146	;# 
   583     0093                     SSPADD          equ	147	;# 
   584     0094                     SSPSTAT         equ	148	;# 
   585     0098                     TXSTA           equ	152	;# 
   586     0099                     SPBRG           equ	153	;# 
   587     009C                     CMCON           equ	156	;# 
   588     009D                     CVRCON          equ	157	;# 
   589     009E                     ADRESL          equ	158	;# 
   590     009F                     ADCON1          equ	159	;# 
   591     010C                     EEDATA          equ	268	;# 
   592     010D                     EEADR           equ	269	;# 
   593     010E                     EEDATH          equ	270	;# 
   594     010F                     EEADRH          equ	271	;# 
   595     018C                     EECON1          equ	396	;# 
   596     018D                     EECON2          equ	397	;# 
   597     0000                     INDF            equ	0	;# 
   598     0001                     TMR0            equ	1	;# 
   599     0002                     PCL             equ	2	;# 
   600     0003                     STATUS          equ	3	;# 
   601     0004                     FSR             equ	4	;# 
   602     0005                     PORTA           equ	5	;# 
   603     0006                     PORTB           equ	6	;# 
   604     0007                     PORTC           equ	7	;# 
   605     0008                     PORTD           equ	8	;# 
   606     0009                     PORTE           equ	9	;# 
   607     000A                     PCLATH          equ	10	;# 
   608     000B                     INTCON          equ	11	;# 
   609     000C                     PIR1            equ	12	;# 
   610     000D                     PIR2            equ	13	;# 
   611     000E                     TMR1            equ	14	;# 
   612     000E                     TMR1L           equ	14	;# 
   613     000F                     TMR1H           equ	15	;# 
   614     0010                     T1CON           equ	16	;# 
   615     0011                     TMR2            equ	17	;# 
   616     0012                     T2CON           equ	18	;# 
   617     0013                     SSPBUF          equ	19	;# 
   618     0014                     SSPCON          equ	20	;# 
   619     0015                     CCPR1           equ	21	;# 
   620     0015                     CCPR1L          equ	21	;# 
   621     0016                     CCPR1H          equ	22	;# 
   622     0017                     CCP1CON         equ	23	;# 
   623     0018                     RCSTA           equ	24	;# 
   624     0019                     TXREG           equ	25	;# 
   625     001A                     RCREG           equ	26	;# 
   626     001B                     CCPR2           equ	27	;# 
   627     001B                     CCPR2L          equ	27	;# 
   628     001C                     CCPR2H          equ	28	;# 
   629     001D                     CCP2CON         equ	29	;# 
   630     001E                     ADRESH          equ	30	;# 
   631     001F                     ADCON0          equ	31	;# 
   632     0081                     OPTION_REG      equ	129	;# 
   633     0085                     TRISA           equ	133	;# 
   634     0086                     TRISB           equ	134	;# 
   635     0087                     TRISC           equ	135	;# 
   636     0088                     TRISD           equ	136	;# 
   637     0089                     TRISE           equ	137	;# 
   638     008C                     PIE1            equ	140	;# 
   639     008D                     PIE2            equ	141	;# 
   640     008E                     PCON            equ	142	;# 
   641     0091                     SSPCON2         equ	145	;# 
   642     0092                     PR2             equ	146	;# 
   643     0093                     SSPADD          equ	147	;# 
   644     0094                     SSPSTAT         equ	148	;# 
   645     0098                     TXSTA           equ	152	;# 
   646     0099                     SPBRG           equ	153	;# 
   647     009C                     CMCON           equ	156	;# 
   648     009D                     CVRCON          equ	157	;# 
   649     009E                     ADRESL          equ	158	;# 
   650     009F                     ADCON1          equ	159	;# 
   651     010C                     EEDATA          equ	268	;# 
   652     010D                     EEADR           equ	269	;# 
   653     010E                     EEDATH          equ	270	;# 
   654     010F                     EEADRH          equ	271	;# 
   655     018C                     EECON1          equ	396	;# 
   656     018D                     EECON2          equ	397	;# 
   657     0000                     INDF            equ	0	;# 
   658     0001                     TMR0            equ	1	;# 
   659     0002                     PCL             equ	2	;# 
   660     0003                     STATUS          equ	3	;# 
   661     0004                     FSR             equ	4	;# 
   662     0005                     PORTA           equ	5	;# 
   663     0006                     PORTB           equ	6	;# 
   664     0007                     PORTC           equ	7	;# 
   665     0008                     PORTD           equ	8	;# 
   666     0009                     PORTE           equ	9	;# 
   667     000A                     PCLATH          equ	10	;# 
   668     000B                     INTCON          equ	11	;# 
   669     000C                     PIR1            equ	12	;# 
   670     000D                     PIR2            equ	13	;# 
   671     000E                     TMR1            equ	14	;# 
   672     000E                     TMR1L           equ	14	;# 
   673     000F                     TMR1H           equ	15	;# 
   674     0010                     T1CON           equ	16	;# 
   675     0011                     TMR2            equ	17	;# 
   676     0012                     T2CON           equ	18	;# 
   677     0013                     SSPBUF          equ	19	;# 
   678     0014                     SSPCON          equ	20	;# 
   679     0015                     CCPR1           equ	21	;# 
   680     0015                     CCPR1L          equ	21	;# 
   681     0016                     CCPR1H          equ	22	;# 
   682     0017                     CCP1CON         equ	23	;# 
   683     0018                     RCSTA           equ	24	;# 
   684     0019                     TXREG           equ	25	;# 
   685     001A                     RCREG           equ	26	;# 
   686     001B                     CCPR2           equ	27	;# 
   687     001B                     CCPR2L          equ	27	;# 
   688     001C                     CCPR2H          equ	28	;# 
   689     001D                     CCP2CON         equ	29	;# 
   690     001E                     ADRESH          equ	30	;# 
   691     001F                     ADCON0          equ	31	;# 
   692     0081                     OPTION_REG      equ	129	;# 
   693     0085                     TRISA           equ	133	;# 
   694     0086                     TRISB           equ	134	;# 
   695     0087                     TRISC           equ	135	;# 
   696     0088                     TRISD           equ	136	;# 
   697     0089                     TRISE           equ	137	;# 
   698     008C                     PIE1            equ	140	;# 
   699     008D                     PIE2            equ	141	;# 
   700     008E                     PCON            equ	142	;# 
   701     0091                     SSPCON2         equ	145	;# 
   702     0092                     PR2             equ	146	;# 
   703     0093                     SSPADD          equ	147	;# 
   704     0094                     SSPSTAT         equ	148	;# 
   705     0098                     TXSTA           equ	152	;# 
   706     0099                     SPBRG           equ	153	;# 
   707     009C                     CMCON           equ	156	;# 
   708     009D                     CVRCON          equ	157	;# 
   709     009E                     ADRESL          equ	158	;# 
   710     009F                     ADCON1          equ	159	;# 
   711     010C                     EEDATA          equ	268	;# 
   712     010D                     EEADR           equ	269	;# 
   713     010E                     EEDATH          equ	270	;# 
   714     010F                     EEADRH          equ	271	;# 
   715     018C                     EECON1          equ	396	;# 
   716     018D                     EECON2          equ	397	;# 
   717     0000                     INDF            equ	0	;# 
   718     0001                     TMR0            equ	1	;# 
   719     0002                     PCL             equ	2	;# 
   720     0003                     STATUS          equ	3	;# 
   721     0004                     FSR             equ	4	;# 
   722     0005                     PORTA           equ	5	;# 
   723     0006                     PORTB           equ	6	;# 
   724     0007                     PORTC           equ	7	;# 
   725     0008                     PORTD           equ	8	;# 
   726     0009                     PORTE           equ	9	;# 
   727     000A                     PCLATH          equ	10	;# 
   728     000B                     INTCON          equ	11	;# 
   729     000C                     PIR1            equ	12	;# 
   730     000D                     PIR2            equ	13	;# 
   731     000E                     TMR1            equ	14	;# 
   732     000E                     TMR1L           equ	14	;# 
   733     000F                     TMR1H           equ	15	;# 
   734     0010                     T1CON           equ	16	;# 
   735     0011                     TMR2            equ	17	;# 
   736     0012                     T2CON           equ	18	;# 
   737     0013                     SSPBUF          equ	19	;# 
   738     0014                     SSPCON          equ	20	;# 
   739     0015                     CCPR1           equ	21	;# 
   740     0015                     CCPR1L          equ	21	;# 
   741     0016                     CCPR1H          equ	22	;# 
   742     0017                     CCP1CON         equ	23	;# 
   743     0018                     RCSTA           equ	24	;# 
   744     0019                     TXREG           equ	25	;# 
   745     001A                     RCREG           equ	26	;# 
   746     001B                     CCPR2           equ	27	;# 
   747     001B                     CCPR2L          equ	27	;# 
   748     001C                     CCPR2H          equ	28	;# 
   749     001D                     CCP2CON         equ	29	;# 
   750     001E                     ADRESH          equ	30	;# 
   751     001F                     ADCON0          equ	31	;# 
   752     0081                     OPTION_REG      equ	129	;# 
   753     0085                     TRISA           equ	133	;# 
   754     0086                     TRISB           equ	134	;# 
   755     0087                     TRISC           equ	135	;# 
   756     0088                     TRISD           equ	136	;# 
   757     0089                     TRISE           equ	137	;# 
   758     008C                     PIE1            equ	140	;# 
   759     008D                     PIE2            equ	141	;# 
   760     008E                     PCON            equ	142	;# 
   761     0091                     SSPCON2         equ	145	;# 
   762     0092                     PR2             equ	146	;# 
   763     0093                     SSPADD          equ	147	;# 
   764     0094                     SSPSTAT         equ	148	;# 
   765     0098                     TXSTA           equ	152	;# 
   766     0099                     SPBRG           equ	153	;# 
   767     009C                     CMCON           equ	156	;# 
   768     009D                     CVRCON          equ	157	;# 
   769     009E                     ADRESL          equ	158	;# 
   770     009F                     ADCON1          equ	159	;# 
   771     010C                     EEDATA          equ	268	;# 
   772     010D                     EEADR           equ	269	;# 
   773     010E                     EEDATH          equ	270	;# 
   774     010F                     EEADRH          equ	271	;# 
   775     018C                     EECON1          equ	396	;# 
   776     018D                     EECON2          equ	397	;# 
   777     0000                     INDF            equ	0	;# 
   778     0001                     TMR0            equ	1	;# 
   779     0002                     PCL             equ	2	;# 
   780     0003                     STATUS          equ	3	;# 
   781     0004                     FSR             equ	4	;# 
   782     0005                     PORTA           equ	5	;# 
   783     0006                     PORTB           equ	6	;# 
   784     0007                     PORTC           equ	7	;# 
   785     0008                     PORTD           equ	8	;# 
   786     0009                     PORTE           equ	9	;# 
   787     000A                     PCLATH          equ	10	;# 
   788     000B                     INTCON          equ	11	;# 
   789     000C                     PIR1            equ	12	;# 
   790     000D                     PIR2            equ	13	;# 
   791     000E                     TMR1            equ	14	;# 
   792     000E                     TMR1L           equ	14	;# 
   793     000F                     TMR1H           equ	15	;# 
   794     0010                     T1CON           equ	16	;# 
   795     0011                     TMR2            equ	17	;# 
   796     0012                     T2CON           equ	18	;# 
   797     0013                     SSPBUF          equ	19	;# 
   798     0014                     SSPCON          equ	20	;# 
   799     0015                     CCPR1           equ	21	;# 
   800     0015                     CCPR1L          equ	21	;# 
   801     0016                     CCPR1H          equ	22	;# 
   802     0017                     CCP1CON         equ	23	;# 
   803     0018                     RCSTA           equ	24	;# 
   804     0019                     TXREG           equ	25	;# 
   805     001A                     RCREG           equ	26	;# 
   806     001B                     CCPR2           equ	27	;# 
   807     001B                     CCPR2L          equ	27	;# 
   808     001C                     CCPR2H          equ	28	;# 
   809     001D                     CCP2CON         equ	29	;# 
   810     001E                     ADRESH          equ	30	;# 
   811     001F                     ADCON0          equ	31	;# 
   812     0081                     OPTION_REG      equ	129	;# 
   813     0085                     TRISA           equ	133	;# 
   814     0086                     TRISB           equ	134	;# 
   815     0087                     TRISC           equ	135	;# 
   816     0088                     TRISD           equ	136	;# 
   817     0089                     TRISE           equ	137	;# 
   818     008C                     PIE1            equ	140	;# 
   819     008D                     PIE2            equ	141	;# 
   820     008E                     PCON            equ	142	;# 
   821     0091                     SSPCON2         equ	145	;# 
   822     0092                     PR2             equ	146	;# 
   823     0093                     SSPADD          equ	147	;# 
   824     0094                     SSPSTAT         equ	148	;# 
   825     0098                     TXSTA           equ	152	;# 
   826     0099                     SPBRG           equ	153	;# 
   827     009C                     CMCON           equ	156	;# 
   828     009D                     CVRCON          equ	157	;# 
   829     009E                     ADRESL          equ	158	;# 
   830     009F                     ADCON1          equ	159	;# 
   831     010C                     EEDATA          equ	268	;# 
   832     010D                     EEADR           equ	269	;# 
   833     010E                     EEDATH          equ	270	;# 
   834     010F                     EEADRH          equ	271	;# 
   835     018C                     EECON1          equ	396	;# 
   836     018D                     EECON2          equ	397	;# 
   837     0000                     INDF            equ	0	;# 
   838     0001                     TMR0            equ	1	;# 
   839     0002                     PCL             equ	2	;# 
   840     0003                     STATUS          equ	3	;# 
   841     0004                     FSR             equ	4	;# 
   842     0005                     PORTA           equ	5	;# 
   843     0006                     PORTB           equ	6	;# 
   844     0007                     PORTC           equ	7	;# 
   845     0008                     PORTD           equ	8	;# 
   846     0009                     PORTE           equ	9	;# 
   847     000A                     PCLATH          equ	10	;# 
   848     000B                     INTCON          equ	11	;# 
   849     000C                     PIR1            equ	12	;# 
   850     000D                     PIR2            equ	13	;# 
   851     000E                     TMR1            equ	14	;# 
   852     000E                     TMR1L           equ	14	;# 
   853     000F                     TMR1H           equ	15	;# 
   854     0010                     T1CON           equ	16	;# 
   855     0011                     TMR2            equ	17	;# 
   856     0012                     T2CON           equ	18	;# 
   857     0013                     SSPBUF          equ	19	;# 
   858     0014                     SSPCON          equ	20	;# 
   859     0015                     CCPR1           equ	21	;# 
   860     0015                     CCPR1L          equ	21	;# 
   861     0016                     CCPR1H          equ	22	;# 
   862     0017                     CCP1CON         equ	23	;# 
   863     0018                     RCSTA           equ	24	;# 
   864     0019                     TXREG           equ	25	;# 
   865     001A                     RCREG           equ	26	;# 
   866     001B                     CCPR2           equ	27	;# 
   867     001B                     CCPR2L          equ	27	;# 
   868     001C                     CCPR2H          equ	28	;# 
   869     001D                     CCP2CON         equ	29	;# 
   870     001E                     ADRESH          equ	30	;# 
   871     001F                     ADCON0          equ	31	;# 
   872     0081                     OPTION_REG      equ	129	;# 
   873     0085                     TRISA           equ	133	;# 
   874     0086                     TRISB           equ	134	;# 
   875     0087                     TRISC           equ	135	;# 
   876     0088                     TRISD           equ	136	;# 
   877     0089                     TRISE           equ	137	;# 
   878     008C                     PIE1            equ	140	;# 
   879     008D                     PIE2            equ	141	;# 
   880     008E                     PCON            equ	142	;# 
   881     0091                     SSPCON2         equ	145	;# 
   882     0092                     PR2             equ	146	;# 
   883     0093                     SSPADD          equ	147	;# 
   884     0094                     SSPSTAT         equ	148	;# 
   885     0098                     TXSTA           equ	152	;# 
   886     0099                     SPBRG           equ	153	;# 
   887     009C                     CMCON           equ	156	;# 
   888     009D                     CVRCON          equ	157	;# 
   889     009E                     ADRESL          equ	158	;# 
   890     009F                     ADCON1          equ	159	;# 
   891     010C                     EEDATA          equ	268	;# 
   892     010D                     EEADR           equ	269	;# 
   893     010E                     EEDATH          equ	270	;# 
   894     010F                     EEADRH          equ	271	;# 
   895     018C                     EECON1          equ	396	;# 
   896     018D                     EECON2          equ	397	;# 
   897                           
   898                           	psect	idataBANK0
   899     07FD                     __pidataBANK0:
   900                           
   901                           ;initializer for _delay
   902     07FD  341E               	retlw	30
   903     07FE  3400               	retlw	0
   904                           
   905                           ;initializer for read_digital_keypad@once
   906     07FF  3401               	retlw	1
   907                           
   908                           	psect	idataBANK1
   909     1740                     __pidataBANK1:
   910                           
   911                           ;initializer for _event
   912     1740  3432               	retlw	low (STR_6| (0+32768))
   913     1741  3485               	retlw	high (STR_6| (0+32768))
   914     1742  342F               	retlw	low (STR_7| (0+32768))
   915     1743  3485               	retlw	high (STR_7| (0+32768))
   916     1744  3423               	retlw	low (STR_8| (0+32768))
   917     1745  3485               	retlw	high (STR_8| (0+32768))
   918     1746  3426               	retlw	low (STR_9| (0+32768))
   919     1747  3485               	retlw	high (STR_9| (0+32768))
   920     1748  3429               	retlw	low (STR_10| (0+32768))
   921     1749  3485               	retlw	high (STR_10| (0+32768))
   922     174A  342C               	retlw	low (STR_11| (0+32768))
   923     174B  3485               	retlw	high (STR_11| (0+32768))
   924     174C  3435               	retlw	low (STR_12| (0+32768))
   925     174D  3485               	retlw	high (STR_12| (0+32768))
   926     174E  3420               	retlw	low (STR_13| (0+32768))
   927     174F  3485               	retlw	high (STR_13| (0+32768))
   928                           
   929                           ;initializer for _menu_options
   930     1750  34A8               	retlw	low (STR_14| (0+32768))
   931     1751  3484               	retlw	high (STR_14| (0+32768))
   932     1752  34B7               	retlw	low (STR_15| (0+32768))
   933     1753  3484               	retlw	high (STR_15| (0+32768))
   934     1754  34D5               	retlw	low (STR_16| (0+32768))
   935     1755  3484               	retlw	high (STR_16| (0+32768))
   936     1756  3499               	retlw	low (STR_17| (0+32768))
   937     1757  3484               	retlw	high (STR_17| (0+32768))
   938     1758  34C6               	retlw	low (STR_18| (0+32768))
   939     1759  3484               	retlw	high (STR_18| (0+32768))
   940                           
   941                           ;initializer for _original_password
   942     175A  3430               	retlw	48
   943     175B  3431               	retlw	49
   944     175C  3430               	retlw	48
   945     175D  3431               	retlw	49
   946     0019                     _TXREG          set	25
   947     001A                     _RCREG          set	26
   948     0001                     _TMR0           set	1
   949     0013                     _SSPBUF         set	19
   950     0006                     _PORTB          set	6
   951     0008                     _PORTD          set	8
   952     001E                     _ADRESH         set	30
   953     001F                     _ADCON0         set	31
   954     0064                     _TXIF           set	100
   955     0065                     _RCIF           set	101
   956     00C4                     _CREN           set	196
   957     00C7                     _SPEN           set	199
   958     005D                     _TMR0IE         set	93
   959     005F                     _GIE            set	95
   960     005A                     _TMR0IF         set	90
   961     00A5                     _SSPEN          set	165
   962     00A3                     _SSPM3          set	163
   963     0049                     _RE1            set	73
   964     004A                     _RE2            set	74
   965     00FA                     _nDONE          set	250
   966     00FA                     _GO             set	250
   967     00F8                     _ADON           set	248
   968     0099                     _SPBRG          set	153
   969     0091                     _SSPCON2        set	145
   970     0093                     _SSPADD         set	147
   971     0086                     _TRISB          set	134
   972     0088                     _TRISD          set	136
   973     009E                     _ADRESL         set	158
   974     040B                     _PSA            set	1035
   975     040D                     _T0CS           set	1037
   976     048E                     _ACKSTAT        set	1166
   977     048C                     _ACKEN          set	1164
   978     048D                     _ACKDT          set	1165
   979     048B                     _RCEN           set	1163
   980     048A                     _PEN            set	1162
   981     0488                     _SEN            set	1160
   982     04A2                     _R_nW           set	1186
   983     0449                     _TRISE1         set	1097
   984     044A                     _TRISE2         set	1098
   985     04FF                     _ADFM           set	1279
   986                           
   987                           	psect	strings
   988     1000                     __pstrings:
   989     1000                     stringtab:
   990     1000                     __stringtab:
   991                           
   992                           ;	String table - string pointers are 2 bytes each
   993     1000  1BFF               	btfsc	btemp+1,7
   994     1001  280A               	ljmp	stringcode
   995     1002  1383               	bcf	3,7
   996     1003  187F               	btfsc	btemp+1,0
   997     1004  1783               	bsf	3,7
   998     1005  0800               	movf	0,w
   999     1006  0A84               	incf	4,f
  1000     1007  1903               	skipnz
  1001     1008  0AFF               	incf	btemp+1,f
  1002     1009  0008               	return
  1003     100A                     stringcode:
  1004     100A  087F               	movf	btemp+1,w
  1005     100B  397F               	andlw	127
  1006     100C  008A               	movwf	10
  1007     100D  0804               	movf	4,w
  1008     100E  0A84               	incf	4,f
  1009     100F  1903               	skipnz
  1010     1010  0AFF               	incf	btemp+1,f
  1011     1011  0082               	movwf	2
  1012     1012                     __stringbase:
  1013     1012                     __end_of__stringtab:
  1014                           
  1015                           	psect	stringtext
  1016     0400                     __pstringtext:
  1017     0400                     STR_30:
  1018     0400  3423               	retlw	35	;'#'
  1019     0401  3420               	retlw	32	;' '
  1020     0402  3454               	retlw	84	;'T'
  1021     0403  3449               	retlw	73	;'I'
  1022     0404  344D               	retlw	77	;'M'
  1023     0405  3445               	retlw	69	;'E'
  1024     0406  3420               	retlw	32	;' '
  1025     0407  3420               	retlw	32	;' '
  1026     0408  3420               	retlw	32	;' '
  1027     0409  3420               	retlw	32	;' '
  1028     040A  3420               	retlw	32	;' '
  1029     040B  3445               	retlw	69	;'E'
  1030     040C  3456               	retlw	86	;'V'
  1031     040D  3420               	retlw	32	;' '
  1032     040E  3453               	retlw	83	;'S'
  1033     040F  3450               	retlw	80	;'P'
  1034     0410  340A               	retlw	10
  1035     0411  3400               	retlw	0
  1036     0412                     STR_34:
  1037     0412  3420               	retlw	32	;' '
  1038     0413  3420               	retlw	32	;' '
  1039     0414  3420               	retlw	32	;' '
  1040     0415  3420               	retlw	32	;' '
  1041     0416  3448               	retlw	72	;'H'
  1042     0417  3448               	retlw	72	;'H'
  1043     0418  343A               	retlw	58	;':'
  1044     0419  344D               	retlw	77	;'M'
  1045     041A  344D               	retlw	77	;'M'
  1046     041B  343A               	retlw	58	;':'
  1047     041C  3453               	retlw	83	;'S'
  1048     041D  3453               	retlw	83	;'S'
  1049     041E  3420               	retlw	32	;' '
  1050     041F  3420               	retlw	32	;' '
  1051     0420  3420               	retlw	32	;' '
  1052     0421  3420               	retlw	32	;' '
  1053     0422  3400               	retlw	0
  1054     0423                     STR_27:
  1055     0423  3443               	retlw	67	;'C'
  1056     0424  346C               	retlw	108	;'l'
  1057     0425  3465               	retlw	101	;'e'
  1058     0426  3461               	retlw	97	;'a'
  1059     0427  3472               	retlw	114	;'r'
  1060     0428  3469               	retlw	105	;'i'
  1061     0429  346E               	retlw	110	;'n'
  1062     042A  3467               	retlw	103	;'g'
  1063     042B  3420               	retlw	32	;' '
  1064     042C  344C               	retlw	76	;'L'
  1065     042D  346F               	retlw	111	;'o'
  1066     042E  3467               	retlw	103	;'g'
  1067     042F  3473               	retlw	115	;'s'
  1068     0430  342E               	retlw	46	;'.'
  1069     0431  342E               	retlw	46	;'.'
  1070     0432  342E               	retlw	46	;'.'
  1071     0433  3400               	retlw	0
  1072     0434                     STR_19:
  1073     0434  3420               	retlw	32	;' '
  1074     0435  3454               	retlw	84	;'T'
  1075     0436  3449               	retlw	73	;'I'
  1076     0437  344D               	retlw	77	;'M'
  1077     0438  3445               	retlw	69	;'E'
  1078     0439  3420               	retlw	32	;' '
  1079     043A  3420               	retlw	32	;' '
  1080     043B  3420               	retlw	32	;' '
  1081     043C  3420               	retlw	32	;' '
  1082     043D  3420               	retlw	32	;' '
  1083     043E  3445               	retlw	69	;'E'
  1084     043F  3456               	retlw	86	;'V'
  1085     0440  3420               	retlw	32	;' '
  1086     0441  3420               	retlw	32	;' '
  1087     0442  3453               	retlw	83	;'S'
  1088     0443  3450               	retlw	80	;'P'
  1089     0444  3400               	retlw	0
  1090     0445                     STR_26:
  1091     0445  3423               	retlw	35	;'#'
  1092     0446  3420               	retlw	32	;' '
  1093     0447  3454               	retlw	84	;'T'
  1094     0448  3449               	retlw	73	;'I'
  1095     0449  344D               	retlw	77	;'M'
  1096     044A  3445               	retlw	69	;'E'
  1097     044B  3420               	retlw	32	;' '
  1098     044C  3420               	retlw	32	;' '
  1099     044D  3420               	retlw	32	;' '
  1100     044E  3420               	retlw	32	;' '
  1101     044F  3420               	retlw	32	;' '
  1102     0450  3445               	retlw	69	;'E'
  1103     0451  3456               	retlw	86	;'V'
  1104     0452  3420               	retlw	32	;' '
  1105     0453  3453               	retlw	83	;'S'
  1106     0454  3450               	retlw	80	;'P'
  1107     0455  3400               	retlw	0
  1108     0456                     STR_2:
  1109     0456  3420               	retlw	32	;' '
  1110     0457  3420               	retlw	32	;' '
  1111     0458  3420               	retlw	32	;' '
  1112     0459  3420               	retlw	32	;' '
  1113     045A  3420               	retlw	32	;' '
  1114     045B  3420               	retlw	32	;' '
  1115     045C  3420               	retlw	32	;' '
  1116     045D  3420               	retlw	32	;' '
  1117     045E  3420               	retlw	32	;' '
  1118     045F  3420               	retlw	32	;' '
  1119     0460  3420               	retlw	32	;' '
  1120     0461  3420               	retlw	32	;' '
  1121     0462  3420               	retlw	32	;' '
  1122     0463  3420               	retlw	32	;' '
  1123     0464  3420               	retlw	32	;' '
  1124     0465  3420               	retlw	32	;' '
  1125     0466  3400               	retlw	0
  1126     0467                     STR_4:
  1127     0467  3420               	retlw	32	;' '
  1128     0468  3445               	retlw	69	;'E'
  1129     0469  344E               	retlw	78	;'N'
  1130     046A  3454               	retlw	84	;'T'
  1131     046B  3445               	retlw	69	;'E'
  1132     046C  3452               	retlw	82	;'R'
  1133     046D  3449               	retlw	73	;'I'
  1134     046E  344E               	retlw	78	;'N'
  1135     046F  3447               	retlw	71	;'G'
  1136     0470  3420               	retlw	32	;' '
  1137     0471  3457               	retlw	87	;'W'
  1138     0472  3441               	retlw	65	;'A'
  1139     0473  3449               	retlw	73	;'I'
  1140     0474  3454               	retlw	84	;'T'
  1141     0475  3420               	retlw	32	;' '
  1142     0476  3420               	retlw	32	;' '
  1143     0477  3400               	retlw	0
  1144     0478                     STR_1:
  1145     0478  3420               	retlw	32	;' '
  1146     0479  3445               	retlw	69	;'E'
  1147     047A  344E               	retlw	78	;'N'
  1148     047B  3454               	retlw	84	;'T'
  1149     047C  3445               	retlw	69	;'E'
  1150     047D  3452               	retlw	82	;'R'
  1151     047E  3420               	retlw	32	;' '
  1152     047F  3450               	retlw	80	;'P'
  1153     0480  3441               	retlw	65	;'A'
  1154     0481  3453               	retlw	83	;'S'
  1155     0482  3453               	retlw	83	;'S'
  1156     0483  3457               	retlw	87	;'W'
  1157     0484  344F               	retlw	79	;'O'
  1158     0485  3452               	retlw	82	;'R'
  1159     0486  3444               	retlw	68	;'D'
  1160     0487  3420               	retlw	32	;' '
  1161     0488  3400               	retlw	0
  1162     0489                     STR_3:
  1163     0489  3441               	retlw	65	;'A'
  1164     048A  3463               	retlw	99	;'c'
  1165     048B  3463               	retlw	99	;'c'
  1166     048C  3465               	retlw	101	;'e'
  1167     048D  3473               	retlw	115	;'s'
  1168     048E  3473               	retlw	115	;'s'
  1169     048F  3420               	retlw	32	;' '
  1170     0490  3447               	retlw	71	;'G'
  1171     0491  3472               	retlw	114	;'r'
  1172     0492  3461               	retlw	97	;'a'
  1173     0493  346E               	retlw	110	;'n'
  1174     0494  3474               	retlw	116	;'t'
  1175     0495  3465               	retlw	101	;'e'
  1176     0496  3464               	retlw	100	;'d'
  1177     0497  342E               	retlw	46	;'.'
  1178     0498  3400               	retlw	0
  1179     0499                     STR_17:
  1180     0499  3453               	retlw	83	;'S'
  1181     049A  3465               	retlw	101	;'e'
  1182     049B  3474               	retlw	116	;'t'
  1183     049C  3420               	retlw	32	;' '
  1184     049D  3454               	retlw	84	;'T'
  1185     049E  3469               	retlw	105	;'i'
  1186     049F  346D               	retlw	109	;'m'
  1187     04A0  3465               	retlw	101	;'e'
  1188     04A1  3420               	retlw	32	;' '
  1189     04A2  3420               	retlw	32	;' '
  1190     04A3  3420               	retlw	32	;' '
  1191     04A4  3420               	retlw	32	;' '
  1192     04A5  3420               	retlw	32	;' '
  1193     04A6  3420               	retlw	32	;' '
  1194     04A7  3400               	retlw	0
  1195     04A8                     STR_14:
  1196     04A8  3456               	retlw	86	;'V'
  1197     04A9  3469               	retlw	105	;'i'
  1198     04AA  3465               	retlw	101	;'e'
  1199     04AB  3477               	retlw	119	;'w'
  1200     04AC  3420               	retlw	32	;' '
  1201     04AD  344C               	retlw	76	;'L'
  1202     04AE  346F               	retlw	111	;'o'
  1203     04AF  3467               	retlw	103	;'g'
  1204     04B0  3420               	retlw	32	;' '
  1205     04B1  3420               	retlw	32	;' '
  1206     04B2  3420               	retlw	32	;' '
  1207     04B3  3420               	retlw	32	;' '
  1208     04B4  3420               	retlw	32	;' '
  1209     04B5  3420               	retlw	32	;' '
  1210     04B6  3400               	retlw	0
  1211     04B7                     STR_15:
  1212     04B7  3443               	retlw	67	;'C'
  1213     04B8  346C               	retlw	108	;'l'
  1214     04B9  3465               	retlw	101	;'e'
  1215     04BA  3461               	retlw	97	;'a'
  1216     04BB  3472               	retlw	114	;'r'
  1217     04BC  3420               	retlw	32	;' '
  1218     04BD  344C               	retlw	76	;'L'
  1219     04BE  346F               	retlw	111	;'o'
  1220     04BF  3467               	retlw	103	;'g'
  1221     04C0  3420               	retlw	32	;' '
  1222     04C1  3420               	retlw	32	;' '
  1223     04C2  3420               	retlw	32	;' '
  1224     04C3  3420               	retlw	32	;' '
  1225     04C4  3420               	retlw	32	;' '
  1226     04C5  3400               	retlw	0
  1227     04C6                     STR_18:
  1228     04C6  3443               	retlw	67	;'C'
  1229     04C7  3468               	retlw	104	;'h'
  1230     04C8  3461               	retlw	97	;'a'
  1231     04C9  346E               	retlw	110	;'n'
  1232     04CA  3467               	retlw	103	;'g'
  1233     04CB  3465               	retlw	101	;'e'
  1234     04CC  3420               	retlw	32	;' '
  1235     04CD  3450               	retlw	80	;'P'
  1236     04CE  3461               	retlw	97	;'a'
  1237     04CF  3473               	retlw	115	;'s'
  1238     04D0  3473               	retlw	115	;'s'
  1239     04D1  3420               	retlw	32	;' '
  1240     04D2  3420               	retlw	32	;' '
  1241     04D3  3420               	retlw	32	;' '
  1242     04D4  3400               	retlw	0
  1243     04D5                     STR_16:
  1244     04D5  3444               	retlw	68	;'D'
  1245     04D6  346F               	retlw	111	;'o'
  1246     04D7  3477               	retlw	119	;'w'
  1247     04D8  346E               	retlw	110	;'n'
  1248     04D9  346C               	retlw	108	;'l'
  1249     04DA  346F               	retlw	111	;'o'
  1250     04DB  3461               	retlw	97	;'a'
  1251     04DC  3464               	retlw	100	;'d'
  1252     04DD  3420               	retlw	32	;' '
  1253     04DE  344C               	retlw	76	;'L'
  1254     04DF  346F               	retlw	111	;'o'
  1255     04E0  3467               	retlw	103	;'g'
  1256     04E1  3420               	retlw	32	;' '
  1257     04E2  3420               	retlw	32	;' '
  1258     04E3  3400               	retlw	0
  1259     04E4                     STR_29:
  1260     04E4  3444               	retlw	68	;'D'
  1261     04E5  346F               	retlw	111	;'o'
  1262     04E6  3477               	retlw	119	;'w'
  1263     04E7  346E               	retlw	110	;'n'
  1264     04E8  346C               	retlw	108	;'l'
  1265     04E9  346F               	retlw	111	;'o'
  1266     04EA  3461               	retlw	97	;'a'
  1267     04EB  3464               	retlw	100	;'d'
  1268     04EC  3469               	retlw	105	;'i'
  1269     04ED  346E               	retlw	110	;'n'
  1270     04EE  3467               	retlw	103	;'g'
  1271     04EF  342E               	retlw	46	;'.'
  1272     04F0  342E               	retlw	46	;'.'
  1273     04F1  342E               	retlw	46	;'.'
  1274     04F2  3400               	retlw	0
  1275     04F3                     STR_5:
  1276     04F3  3453               	retlw	83	;'S'
  1277     04F4  3465               	retlw	101	;'e'
  1278     04F5  3463               	retlw	99	;'c'
  1279     04F6  346F               	retlw	111	;'o'
  1280     04F7  346E               	retlw	110	;'n'
  1281     04F8  3464               	retlw	100	;'d'
  1282     04F9  3473               	retlw	115	;'s'
  1283     04FA  3420               	retlw	32	;' '
  1284     04FB  346C               	retlw	108	;'l'
  1285     04FC  3465               	retlw	101	;'e'
  1286     04FD  3466               	retlw	102	;'f'
  1287     04FE  3474               	retlw	116	;'t'
  1288     04FF  343A               	retlw	58	;':'
  1289     0500  3420               	retlw	32	;' '
  1290     0501  3400               	retlw	0
  1291     0502                     STR_25:
  1292     0502  3441               	retlw	65	;'A'
  1293     0503  3476               	retlw	118	;'v'
  1294     0504  3461               	retlw	97	;'a'
  1295     0505  3469               	retlw	105	;'i'
  1296     0506  346C               	retlw	108	;'l'
  1297     0507  3461               	retlw	97	;'a'
  1298     0508  3462               	retlw	98	;'b'
  1299     0509  346C               	retlw	108	;'l'
  1300     050A  3465               	retlw	101	;'e'
  1301     050B  3400               	retlw	0
  1302     050C                     STR_28:
  1303     050C  344C               	retlw	76	;'L'
  1304     050D  346F               	retlw	111	;'o'
  1305     050E  3467               	retlw	103	;'g'
  1306     050F  3473               	retlw	115	;'s'
  1307     0510  3420               	retlw	32	;' '
  1308     0511  3461               	retlw	97	;'a'
  1309     0512  3472               	retlw	114	;'r'
  1310     0513  3465               	retlw	101	;'e'
  1311     0514  3400               	retlw	0
  1312     0515                     STR_24:
  1313     0515  344E               	retlw	78	;'N'
  1314     0516  346F               	retlw	111	;'o'
  1315     0517  3420               	retlw	32	;' '
  1316     0518  344C               	retlw	76	;'L'
  1317     0519  346F               	retlw	111	;'o'
  1318     051A  3467               	retlw	103	;'g'
  1319     051B  3473               	retlw	115	;'s'
  1320     051C  3400               	retlw	0
  1321     051D                     STR_20:
  1322     051D  342A               	retlw	42	;'*'
  1323     051E  3420               	retlw	32	;' '
  1324     051F  3400               	retlw	0
  1325     0520                     STR_13:
  1326     0520  3443               	retlw	67	;'C'
  1327     0521  3420               	retlw	32	;' '
  1328     0522  3400               	retlw	0
  1329     0523                     STR_8:
  1330     0523  3447               	retlw	71	;'G'
  1331     0524  3431               	retlw	49	;'1'
  1332     0525  3400               	retlw	0
  1333     0526                     STR_9:
  1334     0526  3447               	retlw	71	;'G'
  1335     0527  3432               	retlw	50	;'2'
  1336     0528  3400               	retlw	0
  1337     0529                     STR_10:
  1338     0529  3447               	retlw	71	;'G'
  1339     052A  3433               	retlw	51	;'3'
  1340     052B  3400               	retlw	0
  1341     052C                     STR_11:
  1342     052C  3447               	retlw	71	;'G'
  1343     052D  3434               	retlw	52	;'4'
  1344     052E  3400               	retlw	0
  1345     052F                     STR_7:
  1346     052F  3447               	retlw	71	;'G'
  1347     0530  344E               	retlw	78	;'N'
  1348     0531  3400               	retlw	0
  1349     0532                     STR_6:
  1350     0532  344F               	retlw	79	;'O'
  1351     0533  344E               	retlw	78	;'N'
  1352     0534  3400               	retlw	0
  1353     0535                     STR_12:
  1354     0535  3447               	retlw	71	;'G'
  1355     0536  3452               	retlw	82	;'R'
  1356     0537  3400               	retlw	0
  1357     051D                     STR_22          equ	STR_20
  1358     0464                     STR_21          equ	STR_2+14
  1359     0464                     STR_23          equ	STR_2+14
  1360     0464                     STR_31          equ	STR_2+14
  1361     0464                     STR_32          equ	STR_2+14
  1362     0464                     STR_33          equ	STR_2+14
  1363                           
  1364                           	psect	cinit
  1365     000F                     start_initialization:	
  1366                           ; #config settings
  1367                           
  1368     000F                     __initialization:
  1369                           
  1370                           ; Initialize objects allocated to BANK1
  1371     000F  1383               	bcf	3,7	;select IRP bank0
  1372     0010  30BE               	movlw	low (__pdataBANK1+30)
  1373     0011  00FD               	movwf	btemp+-1
  1374     0012  3017               	movlw	high __pidataBANK1
  1375     0013  00FE               	movwf	btemp
  1376     0014  3040               	movlw	low __pidataBANK1
  1377     0015  00FF               	movwf	btemp+1
  1378     0016  30A0               	movlw	low __pdataBANK1
  1379     0017  0084               	movwf	4
  1380     0018  120A  158A  2009  120A  118A  	fcall	init_ram0
  1381                           
  1382                           ; Initialize objects allocated to BANK0
  1383     001D  3070               	movlw	low (__pdataBANK0+3)
  1384     001E  00FD               	movwf	btemp+-1
  1385     001F  3007               	movlw	high __pidataBANK0
  1386     0020  00FE               	movwf	btemp
  1387     0021  30FD               	movlw	low __pidataBANK0
  1388     0022  00FF               	movwf	btemp+1
  1389     0023  306D               	movlw	low __pdataBANK0
  1390     0024  0084               	movwf	4
  1391     0025  120A  158A  2009  120A  118A  	fcall	init_ram0
  1392                           
  1393                           ; Clear objects allocated to BANK1
  1394     002A  30BE               	movlw	low __pbssBANK1
  1395     002B  0084               	movwf	4
  1396     002C  30DA               	movlw	low (__pbssBANK1+28)
  1397     002D  160A  118A  26B3  120A  118A  	fcall	clear_ram0
  1398                           
  1399                           ; Clear objects allocated to BANK0
  1400     0032  304D               	movlw	low __pbssBANK0
  1401     0033  0084               	movwf	4
  1402     0034  306D               	movlw	low (__pbssBANK0+32)
  1403     0035  160A  118A  26B3  120A  118A  	fcall	clear_ram0
  1404                           
  1405                           ; Clear objects allocated to COMMON
  1406     003A  01FA               	clrf	__pbssCOMMON& (0+127)
  1407     003B  01FB               	clrf	(__pbssCOMMON+1)& (0+127)
  1408     003C                     end_of_initialization:	
  1409                           ;End of C runtime variable initialization code
  1410                           
  1411     003C                     __end_of__initialization:
  1412     003C  0183               	clrf	3
  1413     003D  120A  158A  2ADD   	ljmp	_main	;jump to C main() function
  1414                           
  1415                           	psect	bssCOMMON
  1416     007A                     __pbssCOMMON:
  1417     007A                     _pos:
  1418     007A                     	ds	2
  1419                           
  1420                           	psect	bssBANK0
  1421     004D                     __pbssBANK0:
  1422     004D                     _user_entered_password:
  1423     004D                     	ds	4
  1424     0051                     isr@count:
  1425     0051                     	ds	2
  1426     0053                     write_event@address:
  1427     0053                     	ds	2
  1428     0055                     _event_count:
  1429     0055                     	ds	2
  1430     0057                     _adc_val:
  1431     0057                     	ds	2
  1432     0059                     _attempt_no:
  1433     0059                     	ds	2
  1434     005B                     _index:
  1435     005B                     	ds	2
  1436     005D                     _access:
  1437     005D                     	ds	1
  1438     005E                     _time:
  1439     005E                     	ds	9
  1440     0067                     _speed:
  1441     0067                     	ds	3
  1442     006A                     _clock_reg:
  1443     006A                     	ds	3
  1444                           
  1445                           	psect	dataBANK0
  1446     006D                     __pdataBANK0:
  1447     006D                     _delay:
  1448     006D                     	ds	2
  1449     006F                     read_digital_keypad@once:
  1450     006F                     	ds	1
  1451                           
  1452                           	psect	bssBANK1
  1453     00BE                     __pbssBANK1:
  1454     00BE                     _logs:
  1455     00BE                     	ds	17
  1456     00CF                     read_event@event:
  1457     00CF                     	ds	11
  1458                           
  1459                           	psect	dataBANK1
  1460     00A0                     __pdataBANK1:
  1461     00A0                     _event:
  1462     00A0                     	ds	16
  1463     00B0                     _menu_options:
  1464     00B0                     	ds	10
  1465     00BA                     _original_password:
  1466     00BA                     	ds	4
  1467                           
  1468                           	psect	inittext
  1469     0805                     init_fetch0:	
  1470                           ;	Called with low address in FSR and high address in W
  1471                           
  1472     0805  087E               	movf	btemp,w
  1473     0806  008A               	movwf	10
  1474     0807  087F               	movf	btemp+1,w
  1475     0808  0082               	movwf	2
  1476     0809                     init_ram0:	
  1477                           ;Called with:
  1478                           ;	high address of idata address in btemp 
  1479                           ;	low address of idata address in btemp+1 
  1480                           ;	low address of data in FSR
  1481                           ;	high address + 1 of data in btemp-1
  1482                           
  1483     0809  120A  158A  2005  120A  158A  	fcall	init_fetch0
  1484     080E  0080               	movwf	0
  1485     080F  0A84               	incf	4,f
  1486     0810  0804               	movf	4,w
  1487     0811  067D               	xorwf	btemp+-1,w
  1488     0812  1903               	btfsc	3,2
  1489     0813  3400               	retlw	0
  1490     0814  0AFF               	incf	btemp+1,f
  1491     0815  1903               	btfsc	3,2
  1492     0816  0AFE               	incf	btemp,f
  1493     0817  2809               	goto	init_ram0
  1494                           
  1495                           	psect	clrtext
  1496     16B3                     clear_ram0:	
  1497                           ;	Called with FSR containing the base address, and
  1498                           ;	W with the last address+1
  1499                           
  1500     16B3  0064               	clrwdt	;clear the watchdog before getting into this loop
  1501     16B4                     clrloop0:
  1502     16B4  0180               	clrf	0	;clear RAM location pointed to by FSR
  1503     16B5  0A84               	incf	4,f	;increment pointer
  1504     16B6  0604               	xorwf	4,w	;XOR with final address
  1505     16B7  1903               	btfsc	3,2	;have we reached the end yet?
  1506     16B8  3400               	retlw	0	;all done for this memory range, return
  1507     16B9  0604               	xorwf	4,w	;XOR again to restore value
  1508     16BA  2EB4               	goto	clrloop0	;do the next byte
  1509                           
  1510                           	psect	cstackBANK1
  1511     00DA                     __pcstackBANK1:
  1512     00DA                     main@key:
  1513                           
  1514                           ; 1 bytes @ 0x0
  1515     00DA                     	ds	1
  1516     00DB                     main@operation:
  1517                           
  1518                           ; 1 bytes @ 0x1
  1519     00DB                     	ds	1
  1520                           
  1521                           	psect	cstackCOMMON
  1522     0070                     __pcstackCOMMON:
  1523     0070                     ?_read_digital_keypad:
  1524     0070                     ?_run_delay:	
  1525                           ; 1 bytes @ 0x0
  1526                           
  1527     0070                     ?_init_timer0:	
  1528                           ; 1 bytes @ 0x0
  1529                           
  1530     0070                     ?_read_external_eeprom:	
  1531                           ; 1 bytes @ 0x0
  1532                           
  1533     0070                     ?_view_log:	
  1534                           ; 1 bytes @ 0x0
  1535                           
  1536     0070                     ?_clear_log:	
  1537                           ; 1 bytes @ 0x0
  1538                           
  1539     0070                     ?_download_log:	
  1540                           ; 1 bytes @ 0x0
  1541                           
  1542     0070                     ?_set_time:	
  1543                           ; 1 bytes @ 0x0
  1544                           
  1545     0070                     ?_put_char:	
  1546                           ; 1 bytes @ 0x0
  1547                           
  1548     0070                     ?_read_ds1307:	
  1549                           ; 1 bytes @ 0x0
  1550                           
  1551     0070                     ?_i2c_start:	
  1552                           ; 1 bytes @ 0x0
  1553                           
  1554     0070                     ?_i2c_rep_start:	
  1555                           ; 1 bytes @ 0x0
  1556                           
  1557     0070                     ?_i2c_read:	
  1558                           ; 1 bytes @ 0x0
  1559                           
  1560     0070                     ?_i2c_stop:	
  1561                           ; 1 bytes @ 0x0
  1562                           
  1563     0070                     ?_init_adc:	
  1564                           ; 1 bytes @ 0x0
  1565                           
  1566     0070                     ?_auth_user:	
  1567                           ; 1 bytes @ 0x0
  1568                           
  1569     0070                     ?_init_display_controller:	
  1570                           ; 1 bytes @ 0x0
  1571                           
  1572     0070                     ?_init_clcd:	
  1573                           ; 1 bytes @ 0x0
  1574                           
  1575     0070                     ?_clear_screen:	
  1576                           ; 1 bytes @ 0x0
  1577                           
  1578     0070                     ?_write_event:	
  1579                           ; 1 bytes @ 0x0
  1580                           
  1581     0070                     ?_dashboard:	
  1582                           ; 1 bytes @ 0x0
  1583                           
  1584     0070                     ?_main_menu:	
  1585                           ; 1 bytes @ 0x0
  1586                           
  1587     0070                     ?_read_and_format_log:	
  1588                           ; 1 bytes @ 0x0
  1589                           
  1590     0070                     ?_init_digital_keypad:	
  1591                           ; 1 bytes @ 0x0
  1592                           
  1593     0070                     ?_init_ds1307:	
  1594                           ; 1 bytes @ 0x0
  1595                           
  1596     0070                     ?_i2c_wait_for_idle:	
  1597                           ; 1 bytes @ 0x0
  1598                           
  1599     0070                     ?_isr:	
  1600                           ; 1 bytes @ 0x0
  1601                           
  1602     0070                     ?_init_config:	
  1603                           ; 1 bytes @ 0x0
  1604                           
  1605     0070                     ?_main:	
  1606                           ; 1 bytes @ 0x0
  1607                           
  1608     0070                     ?_i2c_write:	
  1609                           ; 1 bytes @ 0x0
  1610                           
  1611     0070                     ??_isr:	
  1612                           ; 2 bytes @ 0x0
  1613                           
  1614                           
  1615                           ; 1 bytes @ 0x0
  1616     0070                     	ds	2
  1617     0072                     ?_clcd_write:
  1618     0072                     ?_read_adc:	
  1619                           ; 1 bytes @ 0x2
  1620                           
  1621     0072                     ?___wmul:	
  1622                           ; 2 bytes @ 0x2
  1623                           
  1624     0072                     ?___lwdiv:	
  1625                           ; 2 bytes @ 0x2
  1626                           
  1627     0072                     ?___lwmod:	
  1628                           ; 2 bytes @ 0x2
  1629                           
  1630     0072                     ?___lldiv:	
  1631                           ; 2 bytes @ 0x2
  1632                           
  1633     0072                     ?___xxtofl:	
  1634                           ; 4 bytes @ 0x2
  1635                           
  1636     0072                     clcd_write@mode:	
  1637                           ; 4 bytes @ 0x2
  1638                           
  1639     0072                     i2c_read@ack:	
  1640                           ; 1 bytes @ 0x2
  1641                           
  1642     0072                     i2c_write@data:	
  1643                           ; 1 bytes @ 0x2
  1644                           
  1645     0072                     put_char@data:	
  1646                           ; 1 bytes @ 0x2
  1647                           
  1648     0072                     ___wmul@multiplier:	
  1649                           ; 1 bytes @ 0x2
  1650                           
  1651     0072                     ___lwdiv@divisor:	
  1652                           ; 2 bytes @ 0x2
  1653                           
  1654     0072                     ___lwmod@divisor:	
  1655                           ; 2 bytes @ 0x2
  1656                           
  1657     0072                     ___lldiv@divisor:	
  1658                           ; 2 bytes @ 0x2
  1659                           
  1660     0072                     ___xxtofl@val:	
  1661                           ; 4 bytes @ 0x2
  1662                           
  1663     0072                     ??_read_digital_keypad:	
  1664                           ; 4 bytes @ 0x2
  1665                           
  1666     0072                     ??_init_timer0:	
  1667                           ; 1 bytes @ 0x2
  1668                           
  1669     0072                     ??_put_char:	
  1670                           ; 1 bytes @ 0x2
  1671                           
  1672     0072                     ??_i2c_start:	
  1673                           ; 1 bytes @ 0x2
  1674                           
  1675     0072                     ??_i2c_write:	
  1676                           ; 1 bytes @ 0x2
  1677                           
  1678     0072                     ??_i2c_rep_start:	
  1679                           ; 1 bytes @ 0x2
  1680                           
  1681     0072                     ??_i2c_read:	
  1682                           ; 1 bytes @ 0x2
  1683                           
  1684     0072                     ??_i2c_stop:	
  1685                           ; 1 bytes @ 0x2
  1686                           
  1687     0072                     ??_init_adc:	
  1688                           ; 1 bytes @ 0x2
  1689                           
  1690     0072                     ??_init_digital_keypad:	
  1691                           ; 1 bytes @ 0x2
  1692                           
  1693     0072                     ??_i2c_wait_for_idle:	
  1694                           ; 1 bytes @ 0x2
  1695                           
  1696                           
  1697                           ; 1 bytes @ 0x2
  1698     0072                     	ds	1
  1699     0073                     ?_write_external_eeprom:
  1700     0073                     ?_put_s:	
  1701                           ; 1 bytes @ 0x3
  1702                           
  1703     0073                     ?_write_ds1307:	
  1704                           ; 1 bytes @ 0x3
  1705                           
  1706     0073                     read_digital_keypad@mode:	
  1707                           ; 1 bytes @ 0x3
  1708                           
  1709     0073                     write_ds1307@data:	
  1710                           ; 1 bytes @ 0x3
  1711                           
  1712     0073                     write_external_eeprom@data:	
  1713                           ; 1 bytes @ 0x3
  1714                           
  1715     0073                     i2c_read@data:	
  1716                           ; 1 bytes @ 0x3
  1717                           
  1718     0073                     put_s@s:	
  1719                           ; 1 bytes @ 0x3
  1720                           
  1721     0073                     ??_clcd_write:	
  1722                           ; 2 bytes @ 0x3
  1723                           
  1724                           
  1725                           ; 1 bytes @ 0x3
  1726     0073                     	ds	1
  1727     0074                     read_ds1307@addr:
  1728     0074                     write_ds1307@addr:	
  1729                           ; 1 bytes @ 0x4
  1730                           
  1731     0074                     write_external_eeprom@address:	
  1732                           ; 1 bytes @ 0x4
  1733                           
  1734     0074                     read_external_eeprom@address:	
  1735                           ; 1 bytes @ 0x4
  1736                           
  1737     0074                     ___wmul@multiplicand:	
  1738                           ; 1 bytes @ 0x4
  1739                           
  1740     0074                     ___lwdiv@dividend:	
  1741                           ; 2 bytes @ 0x4
  1742                           
  1743     0074                     ___lwmod@dividend:	
  1744                           ; 2 bytes @ 0x4
  1745                           
  1746     0074                     ??_read_external_eeprom:	
  1747                           ; 2 bytes @ 0x4
  1748                           
  1749     0074                     ??_write_external_eeprom:	
  1750                           ; 1 bytes @ 0x4
  1751                           
  1752     0074                     ??_read_ds1307:	
  1753                           ; 1 bytes @ 0x4
  1754                           
  1755     0074                     ??_write_ds1307:	
  1756                           ; 1 bytes @ 0x4
  1757                           
  1758     0074                     ??_read_adc:	
  1759                           ; 1 bytes @ 0x4
  1760                           
  1761                           
  1762                           ; 1 bytes @ 0x4
  1763     0074                     	ds	1
  1764     0075                     read_adc@channel:
  1765     0075                     clcd_write@byte:	
  1766                           ; 1 bytes @ 0x5
  1767                           
  1768     0075                     read_ds1307@data:	
  1769                           ; 1 bytes @ 0x5
  1770                           
  1771     0075                     read_external_eeprom@data:	
  1772                           ; 1 bytes @ 0x5
  1773                           
  1774     0075                     write_external_eeprom@wait:	
  1775                           ; 1 bytes @ 0x5
  1776                           
  1777     0075                     ??_put_s:	
  1778                           ; 2 bytes @ 0x5
  1779                           
  1780                           
  1781                           ; 1 bytes @ 0x5
  1782     0075                     	ds	1
  1783     0076                     ?_clcd_print:
  1784     0076                     ?_get_time:	
  1785                           ; 1 bytes @ 0x6
  1786                           
  1787     0076                     init_ds1307@dummy:	
  1788                           ; 1 bytes @ 0x6
  1789                           
  1790     0076                     get_time@clock_reg:	
  1791                           ; 1 bytes @ 0x6
  1792                           
  1793     0076                     ___lwdiv@counter:	
  1794                           ; 1 bytes @ 0x6
  1795                           
  1796     0076                     ___lwmod@counter:	
  1797                           ; 1 bytes @ 0x6
  1798                           
  1799     0076                     read_adc@adc_reg_val:	
  1800                           ; 1 bytes @ 0x6
  1801                           
  1802     0076                     clcd_print@str:	
  1803                           ; 2 bytes @ 0x6
  1804                           
  1805     0076                     ___wmul@product:	
  1806                           ; 2 bytes @ 0x6
  1807                           
  1808     0076                     ___lldiv@dividend:	
  1809                           ; 2 bytes @ 0x6
  1810                           
  1811     0076                     ??_init_display_controller:	
  1812                           ; 4 bytes @ 0x6
  1813                           
  1814     0076                     ??_clear_screen:	
  1815                           ; 1 bytes @ 0x6
  1816                           
  1817     0076                     ??_init_ds1307:	
  1818                           ; 1 bytes @ 0x6
  1819                           
  1820     0076                     ??___wmul:	
  1821                           ; 1 bytes @ 0x6
  1822                           
  1823     0076                     ??___lwdiv:	
  1824                           ; 1 bytes @ 0x6
  1825                           
  1826     0076                     ??___lwmod:	
  1827                           ; 1 bytes @ 0x6
  1828                           
  1829     0076                     ??___xxtofl:	
  1830                           ; 1 bytes @ 0x6
  1831                           
  1832                           
  1833                           ; 1 bytes @ 0x6
  1834     0076                     	ds	1
  1835     0077                     write_event@i:
  1836     0077                     ___lwdiv@quotient:	
  1837                           ; 2 bytes @ 0x7
  1838                           
  1839     0077                     ??_get_time:	
  1840                           ; 2 bytes @ 0x7
  1841                           
  1842                           
  1843                           ; 1 bytes @ 0x7
  1844     0077                     	ds	1
  1845     0078                     ?_read_event:
  1846     0078                     clcd_print@addr:	
  1847                           ; 1 bytes @ 0x8
  1848                           
  1849     0078                     read_event@addr:	
  1850                           ; 1 bytes @ 0x8
  1851                           
  1852     0078                     ??_init_clcd:	
  1853                           ; 2 bytes @ 0x8
  1854                           
  1855                           
  1856                           ; 1 bytes @ 0x8
  1857     0078                     	ds	1
  1858     0079                     ?_clcd_putch:
  1859     0079                     ?_display_time:	
  1860                           ; 1 bytes @ 0x9
  1861                           
  1862     0079                     clcd_putch@addr:	
  1863                           ; 1 bytes @ 0x9
  1864                           
  1865     0079                     display_time@clock_reg:	
  1866                           ; 1 bytes @ 0x9
  1867                           
  1868     0079                     ??_clcd_print:	
  1869                           ; 1 bytes @ 0x9
  1870                           
  1871     0079                     ??_print_star:	
  1872                           ; 1 bytes @ 0x9
  1873                           
  1874     0079                     ??_display_indicator:	
  1875                           ; 1 bytes @ 0x9
  1876                           
  1877                           
  1878                           ; 1 bytes @ 0x9
  1879     0079                     	ds	1
  1880     007A                     ??_clcd_putch:
  1881     007A                     ??_run_delay:	
  1882                           ; 1 bytes @ 0xA
  1883                           
  1884     007A                     ??_read_event:	
  1885                           ; 1 bytes @ 0xA
  1886                           
  1887     007A                     ??_init_config:	
  1888                           ; 1 bytes @ 0xA
  1889                           
  1890     007A                     ??_main:	
  1891                           ; 1 bytes @ 0xA
  1892                           
  1893                           
  1894                           	psect	cstackBANK0
  1895     0020                     __pcstackBANK0:	
  1896                           ; 1 bytes @ 0xA
  1897                           
  1898     0020                     ?_print_star:
  1899     0020                     ?_display_indicator:	
  1900                           ; 1 bytes @ 0x0
  1901                           
  1902     0020                     clcd_putch@data:	
  1903                           ; 1 bytes @ 0x0
  1904                           
  1905     0020                     ___xxtofl@sign:	
  1906                           ; 1 bytes @ 0x0
  1907                           
  1908     0020                     read_event@i:	
  1909                           ; 1 bytes @ 0x0
  1910                           
  1911     0020                     print_star@position:	
  1912                           ; 2 bytes @ 0x0
  1913                           
  1914     0020                     display_indicator@pos:	
  1915                           ; 2 bytes @ 0x0
  1916                           
  1917     0020                     ??_display_time:	
  1918                           ; 2 bytes @ 0x0
  1919                           
  1920     0020                     ??_clear_log:	
  1921                           ; 1 bytes @ 0x0
  1922                           
  1923     0020                     ??_write_event:	
  1924                           ; 1 bytes @ 0x0
  1925                           
  1926     0020                     ??___lldiv:	
  1927                           ; 1 bytes @ 0x0
  1928                           
  1929                           
  1930                           ; 1 bytes @ 0x0
  1931     0020                     	ds	1
  1932     0021                     ___xxtofl@exp:
  1933     0021                     ___lldiv@quotient:	
  1934                           ; 1 bytes @ 0x1
  1935                           
  1936     0021                     ??_auth_user:	
  1937                           ; 4 bytes @ 0x1
  1938                           
  1939                           
  1940                           ; 1 bytes @ 0x1
  1941     0021                     	ds	1
  1942     0022                     ___xxtofl@arg:
  1943     0022                     ??_set_time:	
  1944                           ; 4 bytes @ 0x2
  1945                           
  1946     0022                     ??_read_and_format_log:	
  1947                           ; 1 bytes @ 0x2
  1948                           
  1949                           
  1950                           ; 1 bytes @ 0x2
  1951     0022                     	ds	2
  1952     0024                     auth_user@key:
  1953     0024                     read_and_format_log@log:	
  1954                           ; 1 bytes @ 0x4
  1955                           
  1956                           
  1957                           ; 1 bytes @ 0x4
  1958     0024                     	ds	1
  1959     0025                     ___lldiv@counter:
  1960     0025                     auth_user@i:	
  1961                           ; 1 bytes @ 0x5
  1962                           
  1963     0025                     read_and_format_log@col:	
  1964                           ; 2 bytes @ 0x5
  1965                           
  1966                           
  1967                           ; 2 bytes @ 0x5
  1968     0025                     	ds	1
  1969     0026                     ?_init_uart:
  1970     0026                     ?_init_i2c:	
  1971                           ; 1 bytes @ 0x6
  1972                           
  1973     0026                     ?___fldiv:	
  1974                           ; 1 bytes @ 0x6
  1975                           
  1976     0026                     set_time@hour:	
  1977                           ; 4 bytes @ 0x6
  1978                           
  1979     0026                     init_i2c@baud:	
  1980                           ; 2 bytes @ 0x6
  1981                           
  1982     0026                     init_uart@baud:	
  1983                           ; 4 bytes @ 0x6
  1984                           
  1985     0026                     ___fldiv@a:	
  1986                           ; 4 bytes @ 0x6
  1987                           
  1988                           
  1989                           ; 4 bytes @ 0x6
  1990     0026                     	ds	1
  1991     0027                     read_and_format_log@index:
  1992                           
  1993                           ; 1 bytes @ 0x7
  1994     0027                     	ds	1
  1995     0028                     read_and_format_log@i:
  1996     0028                     set_time@min:	
  1997                           ; 2 bytes @ 0x8
  1998                           
  1999                           
  2000                           ; 2 bytes @ 0x8
  2001     0028                     	ds	2
  2002     002A                     set_time@sec:
  2003     002A                     ___fldiv@b:	
  2004                           ; 2 bytes @ 0xA
  2005                           
  2006     002A                     ??_view_log:	
  2007                           ; 4 bytes @ 0xA
  2008                           
  2009     002A                     ??_download_log:	
  2010                           ; 1 bytes @ 0xA
  2011                           
  2012     002A                     ??_init_uart:	
  2013                           ; 1 bytes @ 0xA
  2014                           
  2015     002A                     ??_init_i2c:	
  2016                           ; 1 bytes @ 0xA
  2017                           
  2018                           
  2019                           ; 1 bytes @ 0xA
  2020     002A                     	ds	2
  2021     002C                     set_time@key:
  2022     002C                     view_log@key:	
  2023                           ; 1 bytes @ 0xC
  2024                           
  2025                           
  2026                           ; 2 bytes @ 0xC
  2027     002C                     	ds	1
  2028     002D                     download_log@i:
  2029     002D                     set_time@indicator:	
  2030                           ; 2 bytes @ 0xD
  2031                           
  2032                           
  2033                           ; 2 bytes @ 0xD
  2034     002D                     	ds	1
  2035     002E                     view_log@curr_log:
  2036     002E                     ??___fldiv:	
  2037                           ; 2 bytes @ 0xE
  2038                           
  2039                           
  2040                           ; 1 bytes @ 0xE
  2041     002E                     	ds	2
  2042     0030                     ??_main_menu:
  2043                           
  2044                           ; 1 bytes @ 0x10
  2045     0030                     	ds	2
  2046     0032                     main_menu@key:
  2047                           
  2048                           ; 1 bytes @ 0x12
  2049     0032                     	ds	1
  2050     0033                     main_menu@star:
  2051     0033                     ___fldiv@rem:	
  2052                           ; 1 bytes @ 0x13
  2053                           
  2054                           
  2055                           ; 4 bytes @ 0x13
  2056     0033                     	ds	1
  2057     0034                     main_menu@selected_menu:
  2058                           
  2059                           ; 2 bytes @ 0x14
  2060     0034                     	ds	2
  2061     0036                     main_menu@menu_index:
  2062                           
  2063                           ; 2 bytes @ 0x16
  2064     0036                     	ds	1
  2065     0037                     ___fldiv@sign:
  2066                           
  2067                           ; 1 bytes @ 0x17
  2068     0037                     	ds	1
  2069     0038                     ___fldiv@new_exp:
  2070                           
  2071                           ; 2 bytes @ 0x18
  2072     0038                     	ds	2
  2073     003A                     ___fldiv@grs:
  2074                           
  2075                           ; 4 bytes @ 0x1A
  2076     003A                     	ds	4
  2077     003E                     ___fldiv@bexp:
  2078                           
  2079                           ; 1 bytes @ 0x1E
  2080     003E                     	ds	1
  2081     003F                     ___fldiv@aexp:
  2082                           
  2083                           ; 1 bytes @ 0x1F
  2084     003F                     	ds	1
  2085     0040                     ?___fltol:
  2086     0040                     ___fltol@f1:	
  2087                           ; 4 bytes @ 0x20
  2088                           
  2089                           
  2090                           ; 4 bytes @ 0x20
  2091     0040                     	ds	4
  2092     0044                     ??___fltol:
  2093                           
  2094                           ; 1 bytes @ 0x24
  2095     0044                     	ds	4
  2096     0048                     ___fltol@sign1:
  2097                           
  2098                           ; 1 bytes @ 0x28
  2099     0048                     	ds	1
  2100     0049                     ___fltol@exp1:
  2101                           
  2102                           ; 1 bytes @ 0x29
  2103     0049                     	ds	1
  2104     004A                     ??_dashboard:
  2105                           
  2106                           ; 1 bytes @ 0x2A
  2107     004A                     	ds	2
  2108     004C                     dashboard@key:
  2109                           
  2110                           ; 1 bytes @ 0x2C
  2111     004C                     	ds	1
  2112                           
  2113                           	psect	maintext
  2114     0ADD                     __pmaintext:	
  2115 ;;
  2116 ;;Main: autosize = 0, tempsize = 0, incstack = 0, save=0
  2117 ;;
  2118 ;; *************** function _main *****************
  2119 ;; Defined at:
  2120 ;;		line 31 in file "/home/santhoshtk/Desktop/EMERTXE/MC/25014_Car_Black__Box.X/25014_Car_Black_Box.X/main.c"
  2121 ;; Parameters:    Size  Location     Type
  2122 ;;		None
  2123 ;; Auto vars:     Size  Location     Type
  2124 ;;  operation       1    1[BANK1 ] unsigned char 
  2125 ;;  key             1    0[BANK1 ] unsigned char 
  2126 ;; Return value:  Size  Location     Type
  2127 ;;                  1    wreg      void 
  2128 ;; Registers used:
  2129 ;;		wreg, fsr0l, fsr0h, status,2, status,0, pclath, btemp1, cstack
  2130 ;; Tracked objects:
  2131 ;;		On entry : B00/0
  2132 ;;		On exit  : 0/0
  2133 ;;		Unchanged: 0/0
  2134 ;; Data sizes:     COMMON   BANK0   BANK1   BANK3   BANK2
  2135 ;;      Params:         0       0       0       0       0
  2136 ;;      Locals:         0       0       2       0       0
  2137 ;;      Temps:          0       0       0       0       0
  2138 ;;      Totals:         0       0       2       0       0
  2139 ;;Total ram usage:        2 bytes
  2140 ;; Hardware stack levels required when called: 7
  2141 ;; This function calls:
  2142 ;;		_auth_user
  2143 ;;		_dashboard
  2144 ;;		_init_config
  2145 ;;		_main_menu
  2146 ;;		_read_digital_keypad
  2147 ;; This function is called by:
  2148 ;;		Startup code after reset
  2149 ;; This function uses a non-reentrant model
  2150 ;;
  2151                           
  2152     0ADD                     _main:	
  2153                           ;psect for function _main
  2154                           
  2155     0ADD                     l3926:	
  2156                           ;incstack = 0
  2157                           ; Regs used in _main: [wreg-fsr0h+status,2+status,0+pclath+btemp1+cstack]
  2158                           
  2159                           
  2160                           ;/home/santhoshtk/Desktop/EMERTXE/MC/25014_Car_Black__Box.X/25014_Car_Black_Box.X/main.c
      +                          : 34:     init_config();
  2161     0ADD  120A  158A  21CC  120A  158A  	fcall	_init_config
  2162     0AE2                     l3928:
  2163                           
  2164                           ;/home/santhoshtk/Desktop/EMERTXE/MC/25014_Car_Black__Box.X/25014_Car_Black_Box.X/main.c
      +                          : 36:     unsigned char key, operation = 0;
  2165     0AE2  1683               	bsf	3,5	;RP0=1, select bank1
  2166     0AE3  1303               	bcf	3,6	;RP1=0, select bank1
  2167     0AE4  01DB               	clrf	main@operation^(0+128)
  2168     0AE5                     l3930:
  2169                           
  2170                           ;/home/santhoshtk/Desktop/EMERTXE/MC/25014_Car_Black__Box.X/25014_Car_Black_Box.X/main.c
      +                          : 39:     {;/home/santhoshtk/Desktop/EMERTXE/MC/25014_Car_Black__Box.X/25014_Car_Black_B
      +                          ox.X/main.c: 42:         key = read_digital_keypad(1);
  2171     0AE5  3001               	movlw	1
  2172     0AE6  120A  158A  208B  120A  158A  	fcall	_read_digital_keypad
  2173     0AEB  1683               	bsf	3,5	;RP0=1, select bank1
  2174     0AEC  1303               	bcf	3,6	;RP1=0, select bank1
  2175     0AED  00DA               	movwf	main@key^(0+128)
  2176     0AEE                     l3932:
  2177                           
  2178                           ;/home/santhoshtk/Desktop/EMERTXE/MC/25014_Car_Black__Box.X/25014_Car_Black_Box.X/main.c
      +                          : 44:         if(key == 0x37)
  2179     0AEE  3037               	movlw	55
  2180     0AEF  065A               	xorwf	main@key^(0+128),w
  2181     0AF0  1D03               	btfss	3,2
  2182     0AF1  2AF3               	goto	u4851
  2183     0AF2  2AF4               	goto	u4850
  2184     0AF3                     u4851:
  2185     0AF3  2AF6               	goto	l3936
  2186     0AF4                     u4850:
  2187     0AF4                     l3934:
  2188                           
  2189                           ;/home/santhoshtk/Desktop/EMERTXE/MC/25014_Car_Black__Box.X/25014_Car_Black_Box.X/main.c
      +                          : 45:         {;/home/santhoshtk/Desktop/EMERTXE/MC/25014_Car_Black__Box.X/25014_Car_Bla
      +                          ck_Box.X/main.c: 46:             operation = 1;
  2190     0AF4  3001               	movlw	1
  2191     0AF5  00DB               	movwf	main@operation^(0+128)
  2192     0AF6                     l3936:
  2193                           
  2194                           ;/home/santhoshtk/Desktop/EMERTXE/MC/25014_Car_Black__Box.X/25014_Car_Black_Box.X/main.c
      +                          : 50:         if(operation == 0)
  2195     0AF6  085B               	movf	main@operation^(0+128),w
  2196     0AF7  1D03               	btfss	3,2
  2197     0AF8  2AFA               	goto	u4861
  2198     0AF9  2AFB               	goto	u4860
  2199     0AFA                     u4861:
  2200     0AFA  2B02               	goto	l3940
  2201     0AFB                     u4860:
  2202     0AFB                     l3938:
  2203                           
  2204                           ;/home/santhoshtk/Desktop/EMERTXE/MC/25014_Car_Black__Box.X/25014_Car_Black_Box.X/main.c
      +                          : 51:         {;/home/santhoshtk/Desktop/EMERTXE/MC/25014_Car_Black__Box.X/25014_Car_Bla
      +                          ck_Box.X/main.c: 52:             dashboard(key);
  2205     0AFB  085A               	movf	main@key^(0+128),w
  2206     0AFC  120A  118A  2538  120A  158A  	fcall	_dashboard
  2207                           
  2208                           ;/home/santhoshtk/Desktop/EMERTXE/MC/25014_Car_Black__Box.X/25014_Car_Black_Box.X/main.c
      +                          : 53:         }
  2209     0B01  2AE5               	goto	l3930
  2210     0B02                     l3940:
  2211     0B02  035B               	decf	main@operation^(0+128),w
  2212     0B03  1D03               	btfss	3,2
  2213     0B04  2B06               	goto	u4871
  2214     0B05  2B07               	goto	u4870
  2215     0B06                     u4871:
  2216     0B06  2AE5               	goto	l3930
  2217     0B07                     u4870:
  2218     0B07                     l3942:
  2219                           
  2220                           ;/home/santhoshtk/Desktop/EMERTXE/MC/25014_Car_Black__Box.X/25014_Car_Black_Box.X/main.c
      +                          : 55:         {;/home/santhoshtk/Desktop/EMERTXE/MC/25014_Car_Black__Box.X/25014_Car_Bla
      +                          ck_Box.X/main.c: 56:             if(access == 1) {
  2221     0B07  1283               	bcf	3,5	;RP0=0, select bank0
  2222     0B08  1303               	bcf	3,6	;RP1=0, select bank0
  2223     0B09  035D               	decf	_access,w
  2224     0B0A  1D03               	btfss	3,2
  2225     0B0B  2B0D               	goto	u4881
  2226     0B0C  2B0E               	goto	u4880
  2227     0B0D                     u4881:
  2228     0B0D  2B1A               	goto	l3950
  2229     0B0E                     u4880:
  2230     0B0E                     l3944:
  2231                           
  2232                           ;/home/santhoshtk/Desktop/EMERTXE/MC/25014_Car_Black__Box.X/25014_Car_Black_Box.X/main.c
      +                          : 57:                 main_menu();
  2233     0B0E  120A  118A  2645  120A  158A  	fcall	_main_menu
  2234     0B13                     l3946:
  2235                           
  2236                           ;/home/santhoshtk/Desktop/EMERTXE/MC/25014_Car_Black__Box.X/25014_Car_Black_Box.X/main.c
      +                          : 58:                 operation = 0;
  2237     0B13  1683               	bsf	3,5	;RP0=1, select bank1
  2238     0B14  1303               	bcf	3,6	;RP1=0, select bank1
  2239     0B15  01DB               	clrf	main@operation^(0+128)
  2240     0B16                     l3948:
  2241                           
  2242                           ;/home/santhoshtk/Desktop/EMERTXE/MC/25014_Car_Black__Box.X/25014_Car_Black_Box.X/main.c
      +                          : 59:                 access = 0;
  2243     0B16  1283               	bcf	3,5	;RP0=0, select bank0
  2244     0B17  1303               	bcf	3,6	;RP1=0, select bank0
  2245     0B18  01DD               	clrf	_access
  2246                           
  2247                           ;/home/santhoshtk/Desktop/EMERTXE/MC/25014_Car_Black__Box.X/25014_Car_Black_Box.X/main.c
      +                          : 60:             }
  2248     0B19  2AE5               	goto	l3930
  2249     0B1A                     l3950:
  2250     0B1A  120A  158A  273A  120A  158A  	fcall	_auth_user
  2251     0B1F  2AE5               	goto	l3930
  2252     0B20  120A  118A  280C   	ljmp	start
  2253     0B23                     __end_of_main:
  2254                           
  2255                           	psect	text1
  2256     0645                     __ptext1:	
  2257 ;; *************** function _main_menu *****************
  2258 ;; Defined at:
  2259 ;;		line 162 in file "/home/santhoshtk/Desktop/EMERTXE/MC/25014_Car_Black__Box.X/25014_Car_Black_Box.X/dashboard.c"
  2260 ;; Parameters:    Size  Location     Type
  2261 ;;		None
  2262 ;; Auto vars:     Size  Location     Type
  2263 ;;  selected_men    2   20[BANK0 ] unsigned int 
  2264 ;;  menu_index      2   22[BANK0 ] unsigned int 
  2265 ;;  star            1   19[BANK0 ] unsigned char 
  2266 ;;  key             1   18[BANK0 ] unsigned char 
  2267 ;; Return value:  Size  Location     Type
  2268 ;;                  1    wreg      void 
  2269 ;; Registers used:
  2270 ;;		wreg, fsr0l, fsr0h, status,2, status,0, pclath, btemp1, cstack
  2271 ;; Tracked objects:
  2272 ;;		On entry : 0/0
  2273 ;;		On exit  : 0/0
  2274 ;;		Unchanged: 0/0
  2275 ;; Data sizes:     COMMON   BANK0   BANK1   BANK3   BANK2
  2276 ;;      Params:         0       0       0       0       0
  2277 ;;      Locals:         0       6       0       0       0
  2278 ;;      Temps:          0       2       0       0       0
  2279 ;;      Totals:         0       8       0       0       0
  2280 ;;Total ram usage:        8 bytes
  2281 ;; Hardware stack levels used: 1
  2282 ;; Hardware stack levels required when called: 6
  2283 ;; This function calls:
  2284 ;;		_clcd_print
  2285 ;;		_clear_log
  2286 ;;		_clear_screen
  2287 ;;		_download_log
  2288 ;;		_print_star
  2289 ;;		_read_digital_keypad
  2290 ;;		_set_time
  2291 ;;		_view_log
  2292 ;; This function is called by:
  2293 ;;		_main
  2294 ;; This function uses a non-reentrant model
  2295 ;;
  2296                           
  2297     0645                     _main_menu:	
  2298                           ;psect for function _main_menu
  2299                           
  2300     0645                     l3850:	
  2301                           ;incstack = 0
  2302                           ; Regs used in _main_menu: [wreg-fsr0h+status,2+status,0+pclath+btemp1+cstack]
  2303                           
  2304                           
  2305                           ;/home/santhoshtk/Desktop/EMERTXE/MC/25014_Car_Black__Box.X/25014_Car_Black_Box.X/dashbo
      +                          ard.c: 164:  unsigned int menu_index = 0;
  2306     0645  1283               	bcf	3,5	;RP0=0, select bank0
  2307     0646  1303               	bcf	3,6	;RP1=0, select bank0
  2308     0647  01B6               	clrf	main_menu@menu_index
  2309     0648  01B7               	clrf	main_menu@menu_index+1
  2310                           
  2311                           ;/home/santhoshtk/Desktop/EMERTXE/MC/25014_Car_Black__Box.X/25014_Car_Black_Box.X/dashbo
      +                          ard.c: 165:  unsigned char star = 0;
  2312     0649  01B3               	clrf	main_menu@star
  2313     064A                     l3852:
  2314                           
  2315                           ;/home/santhoshtk/Desktop/EMERTXE/MC/25014_Car_Black__Box.X/25014_Car_Black_Box.X/dashbo
      +                          ard.c: 166:  unsigned char key;;/home/santhoshtk/Desktop/EMERTXE/MC/25014_Car_Black__Box
      +                          .X/25014_Car_Black_Box.X/dashboard.c: 168:  clear_screen();
  2316     064A  160A  118A  26AB  120A  118A  	fcall	_clear_screen
  2317     064F                     l3854:
  2318                           
  2319                           ;/home/santhoshtk/Desktop/EMERTXE/MC/25014_Car_Black__Box.X/25014_Car_Black_Box.X/dashbo
      +                          ard.c: 172:   print_star(star);
  2320     064F  1283               	bcf	3,5	;RP0=0, select bank0
  2321     0650  1303               	bcf	3,6	;RP1=0, select bank0
  2322     0651  0833               	movf	main_menu@star,w
  2323     0652  00B0               	movwf	??_main_menu
  2324     0653  01B1               	clrf	??_main_menu+1
  2325     0654  0830               	movf	??_main_menu,w
  2326     0655  00A0               	movwf	print_star@position
  2327     0656  0831               	movf	??_main_menu+1,w
  2328     0657  00A1               	movwf	print_star@position+1
  2329     0658  120A  158A  2236  120A  118A  	fcall	_print_star
  2330     065D                     l3856:
  2331                           
  2332                           ;/home/santhoshtk/Desktop/EMERTXE/MC/25014_Car_Black__Box.X/25014_Car_Black_Box.X/dashbo
      +                          ard.c: 173:   clcd_print(menu_options[menu_index], (0x80 + 2));
  2333     065D  1283               	bcf	3,5	;RP0=0, select bank0
  2334     065E  1303               	bcf	3,6	;RP1=0, select bank0
  2335     065F  0836               	movf	main_menu@menu_index,w
  2336     0660  00B0               	movwf	??_main_menu
  2337     0661  0730               	addwf	??_main_menu,w
  2338     0662  3EB0               	addlw	(low (_menu_options| 0))& (0+255)
  2339     0663  0084               	movwf	4
  2340     0664  1383               	bcf	3,7	;select IRP bank1
  2341     0665  0800               	movf	0,w
  2342     0666  00F6               	movwf	clcd_print@str
  2343     0667  0A84               	incf	4,f
  2344     0668  0800               	movf	0,w
  2345     0669  0384               	decf	4,f
  2346     066A  00F7               	movwf	clcd_print@str+1
  2347     066B  3082               	movlw	130
  2348     066C  00F8               	movwf	clcd_print@addr
  2349     066D  120A  158A  210B  120A  118A  	fcall	_clcd_print
  2350     0672                     l3858:
  2351                           
  2352                           ;/home/santhoshtk/Desktop/EMERTXE/MC/25014_Car_Black__Box.X/25014_Car_Black_Box.X/dashbo
      +                          ard.c: 174:   clcd_print(menu_options[menu_index + 1], (0xC0 + 2));
  2353     0672  1283               	bcf	3,5	;RP0=0, select bank0
  2354     0673  1303               	bcf	3,6	;RP1=0, select bank0
  2355     0674  0836               	movf	main_menu@menu_index,w
  2356     0675  00B0               	movwf	??_main_menu
  2357     0676  0730               	addwf	??_main_menu,w
  2358     0677  3EB2               	addlw	(low ((_menu_options| 0+2)))& (0+255)
  2359     0678  0084               	movwf	4
  2360     0679  1383               	bcf	3,7	;select IRP bank1
  2361     067A  0800               	movf	0,w
  2362     067B  00F6               	movwf	clcd_print@str
  2363     067C  0A84               	incf	4,f
  2364     067D  0800               	movf	0,w
  2365     067E  0384               	decf	4,f
  2366     067F  00F7               	movwf	clcd_print@str+1
  2367     0680  30C2               	movlw	194
  2368     0681  00F8               	movwf	clcd_print@addr
  2369     0682  120A  158A  210B  120A  118A  	fcall	_clcd_print
  2370     0687                     l3860:
  2371                           
  2372                           ;/home/santhoshtk/Desktop/EMERTXE/MC/25014_Car_Black__Box.X/25014_Car_Black_Box.X/dashbo
      +                          ard.c: 176:   key = read_digital_keypad(1);
  2373     0687  3001               	movlw	1
  2374     0688  120A  158A  208B  120A  118A  	fcall	_read_digital_keypad
  2375     068D  1283               	bcf	3,5	;RP0=0, select bank0
  2376     068E  1303               	bcf	3,6	;RP1=0, select bank0
  2377     068F  00B2               	movwf	main_menu@key
  2378     0690                     l3862:
  2379                           
  2380                           ;/home/santhoshtk/Desktop/EMERTXE/MC/25014_Car_Black__Box.X/25014_Car_Black_Box.X/dashbo
      +                          ard.c: 178:   if(key == 0x3E){
  2381     0690  303E               	movlw	62
  2382     0691  0632               	xorwf	main_menu@key,w
  2383     0692  1D03               	btfss	3,2
  2384     0693  2E95               	goto	u4731
  2385     0694  2E96               	goto	u4730
  2386     0695                     u4731:
  2387     0695  2EAA               	goto	l3872
  2388     0696                     u4730:
  2389     0696                     l3864:
  2390                           
  2391                           ;/home/santhoshtk/Desktop/EMERTXE/MC/25014_Car_Black__Box.X/25014_Car_Black_Box.X/dashbo
      +                          ard.c: 179:    if(star == 1){
  2392     0696  0333               	decf	main_menu@star,w
  2393     0697  1D03               	btfss	3,2
  2394     0698  2E9A               	goto	u4741
  2395     0699  2E9B               	goto	u4740
  2396     069A                     u4741:
  2397     069A  2E9D               	goto	l3868
  2398     069B                     u4740:
  2399     069B                     l3866:
  2400                           
  2401                           ;/home/santhoshtk/Desktop/EMERTXE/MC/25014_Car_Black__Box.X/25014_Car_Black_Box.X/dashbo
      +                          ard.c: 180:     star = 0;
  2402     069B  01B3               	clrf	main_menu@star
  2403                           
  2404                           ;/home/santhoshtk/Desktop/EMERTXE/MC/25014_Car_Black__Box.X/25014_Car_Black_Box.X/dashbo
      +                          ard.c: 181:    }
  2405     069C  2E4F               	goto	l3854
  2406     069D                     l3868:
  2407     069D  0836               	movf	main_menu@menu_index,w
  2408     069E  0437               	iorwf	main_menu@menu_index+1,w
  2409     069F  1903               	btfsc	3,2
  2410     06A0  2EA2               	goto	u4751
  2411     06A1  2EA3               	goto	u4750
  2412     06A2                     u4751:
  2413     06A2  2E4F               	goto	l3854
  2414     06A3                     u4750:
  2415     06A3                     l3870:
  2416     06A3  3001               	movlw	1
  2417     06A4  02B6               	subwf	main_menu@menu_index,f
  2418     06A5  3000               	movlw	0
  2419     06A6  1C03               	skipc
  2420     06A7  03B7               	decf	main_menu@menu_index+1,f
  2421     06A8  02B7               	subwf	main_menu@menu_index+1,f
  2422     06A9  2E4F               	goto	l3854
  2423     06AA                     l3872:
  2424     06AA  303D               	movlw	61
  2425     06AB  0632               	xorwf	main_menu@key,w
  2426     06AC  1D03               	btfss	3,2
  2427     06AD  2EAF               	goto	u4761
  2428     06AE  2EB0               	goto	u4760
  2429     06AF                     u4761:
  2430     06AF  2EC8               	goto	l3882
  2431     06B0                     u4760:
  2432     06B0                     l3874:
  2433                           
  2434                           ;/home/santhoshtk/Desktop/EMERTXE/MC/25014_Car_Black__Box.X/25014_Car_Black_Box.X/dashbo
      +                          ard.c: 187:    if(star == 0){
  2435     06B0  0833               	movf	main_menu@star,w
  2436     06B1  1D03               	btfss	3,2
  2437     06B2  2EB4               	goto	u4771
  2438     06B3  2EB5               	goto	u4770
  2439     06B4                     u4771:
  2440     06B4  2EB8               	goto	l3878
  2441     06B5                     u4770:
  2442     06B5                     l3876:
  2443                           
  2444                           ;/home/santhoshtk/Desktop/EMERTXE/MC/25014_Car_Black__Box.X/25014_Car_Black_Box.X/dashbo
      +                          ard.c: 188:     star = 1;
  2445     06B5  3001               	movlw	1
  2446     06B6  00B3               	movwf	main_menu@star
  2447                           
  2448                           ;/home/santhoshtk/Desktop/EMERTXE/MC/25014_Car_Black__Box.X/25014_Car_Black_Box.X/dashbo
      +                          ard.c: 189:    }
  2449     06B7  2E4F               	goto	l3854
  2450     06B8                     l3878:
  2451     06B8  3000               	movlw	0
  2452     06B9  0237               	subwf	main_menu@menu_index+1,w
  2453     06BA  3003               	movlw	3
  2454     06BB  1903               	skipnz
  2455     06BC  0236               	subwf	main_menu@menu_index,w
  2456     06BD  1803               	skipnc
  2457     06BE  2EC0               	goto	u4781
  2458     06BF  2EC1               	goto	u4780
  2459     06C0                     u4781:
  2460     06C0  2E4F               	goto	l3854
  2461     06C1                     u4780:
  2462     06C1                     l3880:
  2463     06C1  3001               	movlw	1
  2464     06C2  07B6               	addwf	main_menu@menu_index,f
  2465     06C3  1803               	skipnc
  2466     06C4  0AB7               	incf	main_menu@menu_index+1,f
  2467     06C5  3000               	movlw	0
  2468     06C6  07B7               	addwf	main_menu@menu_index+1,f
  2469     06C7  2E4F               	goto	l3854
  2470     06C8                     l3882:
  2471     06C8  3037               	movlw	55
  2472     06C9  0632               	xorwf	main_menu@key,w
  2473     06CA  1D03               	btfss	3,2
  2474     06CB  2ECD               	goto	u4791
  2475     06CC  2ECE               	goto	u4790
  2476     06CD                     u4791:
  2477     06CD  2F0E               	goto	l3906
  2478     06CE                     u4790:
  2479     06CE                     l3884:
  2480                           
  2481                           ;/home/santhoshtk/Desktop/EMERTXE/MC/25014_Car_Black__Box.X/25014_Car_Black_Box.X/dashbo
      +                          ard.c: 196:    unsigned int selected_menu = menu_index + star;
  2482     06CE  0833               	movf	main_menu@star,w
  2483     06CF  0736               	addwf	main_menu@menu_index,w
  2484     06D0  00B4               	movwf	main_menu@selected_menu
  2485     06D1  0837               	movf	main_menu@menu_index+1,w
  2486     06D2  1803               	skipnc
  2487     06D3  0A37               	incf	main_menu@menu_index+1,w
  2488     06D4  00B5               	movwf	main_menu@selected_menu+1
  2489     06D5                     l3886:
  2490                           
  2491                           ;/home/santhoshtk/Desktop/EMERTXE/MC/25014_Car_Black__Box.X/25014_Car_Black_Box.X/dashbo
      +                          ard.c: 197:    clear_screen();
  2492     06D5  160A  118A  26AB  120A  118A  	fcall	_clear_screen
  2493     06DA                     l3888:
  2494                           
  2495                           ;/home/santhoshtk/Desktop/EMERTXE/MC/25014_Car_Black__Box.X/25014_Car_Black_Box.X/dashbo
      +                          ard.c: 199:    if(selected_menu == 0){
  2496     06DA  1283               	bcf	3,5	;RP0=0, select bank0
  2497     06DB  1303               	bcf	3,6	;RP1=0, select bank0
  2498     06DC  0834               	movf	main_menu@selected_menu,w
  2499     06DD  0435               	iorwf	main_menu@selected_menu+1,w
  2500     06DE  1D03               	btfss	3,2
  2501     06DF  2EE1               	goto	u4801
  2502     06E0  2EE2               	goto	u4800
  2503     06E1                     u4801:
  2504     06E1  2EE8               	goto	l3892
  2505     06E2                     u4800:
  2506     06E2                     l3890:
  2507                           
  2508                           ;/home/santhoshtk/Desktop/EMERTXE/MC/25014_Car_Black__Box.X/25014_Car_Black_Box.X/dashbo
      +                          ard.c: 200:     view_log();
  2509     06E2  120A  158A  25EF  120A  118A  	fcall	_view_log
  2510                           
  2511                           ;/home/santhoshtk/Desktop/EMERTXE/MC/25014_Car_Black__Box.X/25014_Car_Black_Box.X/dashbo
      +                          ard.c: 201:    }
  2512     06E7  2E4F               	goto	l3854
  2513     06E8                     l3892:
  2514     06E8  0334               	decf	main_menu@selected_menu,w
  2515     06E9  0435               	iorwf	main_menu@selected_menu+1,w
  2516     06EA  1D03               	btfss	3,2
  2517     06EB  2EED               	goto	u4811
  2518     06EC  2EEE               	goto	u4810
  2519     06ED                     u4811:
  2520     06ED  2EF4               	goto	l3896
  2521     06EE                     u4810:
  2522     06EE                     l3894:
  2523                           
  2524                           ;/home/santhoshtk/Desktop/EMERTXE/MC/25014_Car_Black__Box.X/25014_Car_Black_Box.X/dashbo
      +                          ard.c: 203:     clear_log();
  2525     06EE  160A  118A  277D  120A  118A  	fcall	_clear_log
  2526                           
  2527                           ;/home/santhoshtk/Desktop/EMERTXE/MC/25014_Car_Black__Box.X/25014_Car_Black_Box.X/dashbo
      +                          ard.c: 204:    }
  2528     06F3  2E4F               	goto	l3854
  2529     06F4                     l3896:
  2530     06F4  3002               	movlw	2
  2531     06F5  0634               	xorwf	main_menu@selected_menu,w
  2532     06F6  0435               	iorwf	main_menu@selected_menu+1,w
  2533     06F7  1D03               	btfss	3,2
  2534     06F8  2EFA               	goto	u4821
  2535     06F9  2EFB               	goto	u4820
  2536     06FA                     u4821:
  2537     06FA  2F01               	goto	l3900
  2538     06FB                     u4820:
  2539     06FB                     l3898:
  2540                           
  2541                           ;/home/santhoshtk/Desktop/EMERTXE/MC/25014_Car_Black__Box.X/25014_Car_Black_Box.X/dashbo
      +                          ard.c: 206:     download_log();
  2542     06FB  120A  158A  23CE  120A  118A  	fcall	_download_log
  2543                           
  2544                           ;/home/santhoshtk/Desktop/EMERTXE/MC/25014_Car_Black__Box.X/25014_Car_Black_Box.X/dashbo
      +                          ard.c: 207:    }
  2545     0700  2E4F               	goto	l3854
  2546     0701                     l3900:
  2547     0701  3003               	movlw	3
  2548     0702  0634               	xorwf	main_menu@selected_menu,w
  2549     0703  0435               	iorwf	main_menu@selected_menu+1,w
  2550     0704  1D03               	btfss	3,2
  2551     0705  2F07               	goto	u4831
  2552     0706  2F08               	goto	u4830
  2553     0707                     u4831:
  2554     0707  2E4F               	goto	l3854
  2555     0708                     u4830:
  2556     0708                     l3902:
  2557                           
  2558                           ;/home/santhoshtk/Desktop/EMERTXE/MC/25014_Car_Black__Box.X/25014_Car_Black_Box.X/dashbo
      +                          ard.c: 209:     set_time();
  2559     0708  120A  118A  220A  120A  118A  	fcall	_set_time
  2560                           
  2561                           ;/home/santhoshtk/Desktop/EMERTXE/MC/25014_Car_Black__Box.X/25014_Car_Black_Box.X/dashbo
      +                          ard.c: 210:    }
  2562     070D  2E4F               	goto	l3854
  2563     070E                     l3906:
  2564     070E  302F               	movlw	47
  2565     070F  0632               	xorwf	main_menu@key,w
  2566     0710  1D03               	btfss	3,2
  2567     0711  2F13               	goto	u4841
  2568     0712  2F14               	goto	u4840
  2569     0713                     u4841:
  2570     0713  2E4F               	goto	l3854
  2571     0714                     u4840:
  2572     0714                     l3908:
  2573                           
  2574                           ;/home/santhoshtk/Desktop/EMERTXE/MC/25014_Car_Black__Box.X/25014_Car_Black_Box.X/dashbo
      +                          ard.c: 218:    clear_screen();
  2575     0714  160A  118A  26AB  120A  118A  	fcall	_clear_screen
  2576     0719                     l218:
  2577     0719  0008               	return
  2578     071A                     __end_of_main_menu:
  2579                           
  2580                           	psect	text2
  2581     0DEF                     __ptext2:	
  2582 ;; *************** function _view_log *****************
  2583 ;; Defined at:
  2584 ;;		line 247 in file "/home/santhoshtk/Desktop/EMERTXE/MC/25014_Car_Black__Box.X/25014_Car_Black_Box.X/dashboard.c"
  2585 ;; Parameters:    Size  Location     Type
  2586 ;;		None
  2587 ;; Auto vars:     Size  Location     Type
  2588 ;;  curr_log        2   14[BANK0 ] unsigned int 
  2589 ;;  key             2   12[BANK0 ] unsigned int 
  2590 ;;  log             2    0        PTR unsigned char 
  2591 ;; Return value:  Size  Location     Type
  2592 ;;                  1    wreg      void 
  2593 ;; Registers used:
  2594 ;;		wreg, fsr0l, fsr0h, status,2, status,0, pclath, btemp1, cstack
  2595 ;; Tracked objects:
  2596 ;;		On entry : 0/0
  2597 ;;		On exit  : 0/0
  2598 ;;		Unchanged: 0/0
  2599 ;; Data sizes:     COMMON   BANK0   BANK1   BANK3   BANK2
  2600 ;;      Params:         0       0       0       0       0
  2601 ;;      Locals:         0       4       0       0       0
  2602 ;;      Temps:          0       2       0       0       0
  2603 ;;      Totals:         0       6       0       0       0
  2604 ;;Total ram usage:        6 bytes
  2605 ;; Hardware stack levels used: 1
  2606 ;; Hardware stack levels required when called: 2
  2607 ;; This function calls:
  2608 ;;		_clcd_print
  2609 ;;		_read_and_format_log
  2610 ;;		_read_digital_keypad
  2611 ;; This function is called by:
  2612 ;;		_main_menu
  2613 ;; This function uses a non-reentrant model
  2614 ;;
  2615                           
  2616     0DEF                     _view_log:	
  2617                           ;psect for function _view_log
  2618                           
  2619     0DEF                     l3388:	
  2620                           ;incstack = 0
  2621                           ; Regs used in _view_log: [wreg-fsr0h+status,2+status,0+pclath+btemp1+cstack]
  2622                           
  2623                           
  2624                           ;/home/santhoshtk/Desktop/EMERTXE/MC/25014_Car_Black__Box.X/25014_Car_Black_Box.X/dashbo
      +                          ard.c: 250:  char *log;;/home/santhoshtk/Desktop/EMERTXE/MC/25014_Car_Black__Box.X/25014
      +                          _Car_Black_Box.X/dashboard.c: 251:  unsigned int curr_log = 0;
  2625     0DEF  1283               	bcf	3,5	;RP0=0, select bank0
  2626     0DF0  1303               	bcf	3,6	;RP1=0, select bank0
  2627     0DF1  01AE               	clrf	view_log@curr_log
  2628     0DF2  01AF               	clrf	view_log@curr_log+1
  2629     0DF3                     l3390:
  2630                           
  2631                           ;/home/santhoshtk/Desktop/EMERTXE/MC/25014_Car_Black__Box.X/25014_Car_Black_Box.X/dashbo
      +                          ard.c: 252:  unsigned int key;;/home/santhoshtk/Desktop/EMERTXE/MC/25014_Car_Black__Box.
      +                          X/25014_Car_Black_Box.X/dashboard.c: 255:  read_and_format_log(curr_log);
  2632     0DF3  3000               	movlw	0
  2633     0DF4  120A  158A  2568  120A  158A  	fcall	_read_and_format_log
  2634     0DF9                     l3392:
  2635                           
  2636                           ;/home/santhoshtk/Desktop/EMERTXE/MC/25014_Car_Black__Box.X/25014_Car_Black_Box.X/dashbo
      +                          ard.c: 260:   if(event_count == 0){
  2637     0DF9  1283               	bcf	3,5	;RP0=0, select bank0
  2638     0DFA  1303               	bcf	3,6	;RP1=0, select bank0
  2639     0DFB  0855               	movf	_event_count,w
  2640     0DFC  0456               	iorwf	_event_count+1,w
  2641     0DFD  1D03               	btfss	3,2
  2642     0DFE  2E00               	goto	u3881
  2643     0DFF  2E01               	goto	u3880
  2644     0E00                     u3881:
  2645     0E00  2E18               	goto	l3396
  2646     0E01                     u3880:
  2647     0E01                     l3394:
  2648                           
  2649                           ;/home/santhoshtk/Desktop/EMERTXE/MC/25014_Car_Black__Box.X/25014_Car_Black_Box.X/dashbo
      +                          ard.c: 261:    clcd_print("No Logs", (0x80 + 0));
  2650     0E01  3015               	movlw	low (STR_24| (0+32768))
  2651     0E02  00F6               	movwf	clcd_print@str
  2652     0E03  3085               	movlw	high (STR_24| (0+32768))
  2653     0E04  00F7               	movwf	clcd_print@str+1
  2654     0E05  3080               	movlw	128
  2655     0E06  00F8               	movwf	clcd_print@addr
  2656     0E07  120A  158A  210B  120A  158A  	fcall	_clcd_print
  2657                           
  2658                           ;/home/santhoshtk/Desktop/EMERTXE/MC/25014_Car_Black__Box.X/25014_Car_Black_Box.X/dashbo
      +                          ard.c: 262:    clcd_print("Available", (0xC0 + 0));
  2659     0E0C  3002               	movlw	low (STR_25| (0+32768))
  2660     0E0D  00F6               	movwf	clcd_print@str
  2661     0E0E  3085               	movlw	high (STR_25| (0+32768))
  2662     0E0F  00F7               	movwf	clcd_print@str+1
  2663     0E10  30C0               	movlw	192
  2664     0E11  00F8               	movwf	clcd_print@addr
  2665     0E12  120A  158A  210B  120A  158A  	fcall	_clcd_print
  2666                           
  2667                           ;/home/santhoshtk/Desktop/EMERTXE/MC/25014_Car_Black__Box.X/25014_Car_Black_Box.X/dashbo
      +                          ard.c: 263:   }
  2668     0E17  2E2E               	goto	l3398
  2669     0E18                     l3396:
  2670                           
  2671                           ;/home/santhoshtk/Desktop/EMERTXE/MC/25014_Car_Black__Box.X/25014_Car_Black_Box.X/dashbo
      +                          ard.c: 266:    clcd_print("# TIME     EV SP", (0x80 + 0));
  2672     0E18  3045               	movlw	low (STR_26| (0+32768))
  2673     0E19  00F6               	movwf	clcd_print@str
  2674     0E1A  3084               	movlw	high (STR_26| (0+32768))
  2675     0E1B  00F7               	movwf	clcd_print@str+1
  2676     0E1C  3080               	movlw	128
  2677     0E1D  00F8               	movwf	clcd_print@addr
  2678     0E1E  120A  158A  210B  120A  158A  	fcall	_clcd_print
  2679                           
  2680                           ;/home/santhoshtk/Desktop/EMERTXE/MC/25014_Car_Black__Box.X/25014_Car_Black_Box.X/dashbo
      +                          ard.c: 267:    clcd_print(logs, (0xC0 + 0));
  2681     0E23  30BE               	movlw	(low (_logs| 0))& (0+255)
  2682     0E24  00F6               	movwf	clcd_print@str
  2683     0E25  3000               	movlw	0
  2684     0E26  00F7               	movwf	clcd_print@str+1
  2685     0E27  30C0               	movlw	192
  2686     0E28  00F8               	movwf	clcd_print@addr
  2687     0E29  120A  158A  210B  120A  158A  	fcall	_clcd_print
  2688     0E2E                     l3398:
  2689                           
  2690                           ;/home/santhoshtk/Desktop/EMERTXE/MC/25014_Car_Black__Box.X/25014_Car_Black_Box.X/dashbo
      +                          ard.c: 271:   key = read_digital_keypad(1);
  2691     0E2E  3001               	movlw	1
  2692     0E2F  120A  158A  208B  120A  158A  	fcall	_read_digital_keypad
  2693     0E34  1283               	bcf	3,5	;RP0=0, select bank0
  2694     0E35  1303               	bcf	3,6	;RP1=0, select bank0
  2695     0E36  00AA               	movwf	??_view_log
  2696     0E37  01AB               	clrf	??_view_log+1
  2697     0E38  082A               	movf	??_view_log,w
  2698     0E39  00AC               	movwf	view_log@key
  2699     0E3A  082B               	movf	??_view_log+1,w
  2700     0E3B  00AD               	movwf	view_log@key+1
  2701     0E3C                     l3400:
  2702                           
  2703                           ;/home/santhoshtk/Desktop/EMERTXE/MC/25014_Car_Black__Box.X/25014_Car_Black_Box.X/dashbo
      +                          ard.c: 273:   if(key == 0x3E){
  2704     0E3C  303E               	movlw	62
  2705     0E3D  062C               	xorwf	view_log@key,w
  2706     0E3E  042D               	iorwf	view_log@key+1,w
  2707     0E3F  1D03               	btfss	3,2
  2708     0E40  2E42               	goto	u3891
  2709     0E41  2E43               	goto	u3890
  2710     0E42                     u3891:
  2711     0E42  2E56               	goto	l3408
  2712     0E43                     u3890:
  2713     0E43                     l3402:
  2714                           
  2715                           ;/home/santhoshtk/Desktop/EMERTXE/MC/25014_Car_Black__Box.X/25014_Car_Black_Box.X/dashbo
      +                          ard.c: 274:    if(curr_log > 0) curr_log--;
  2716     0E43  082E               	movf	view_log@curr_log,w
  2717     0E44  042F               	iorwf	view_log@curr_log+1,w
  2718     0E45  1903               	btfsc	3,2
  2719     0E46  2E48               	goto	u3901
  2720     0E47  2E49               	goto	u3900
  2721     0E48                     u3901:
  2722     0E48  2E4F               	goto	l3406
  2723     0E49                     u3900:
  2724     0E49                     l3404:
  2725     0E49  3001               	movlw	1
  2726     0E4A  02AE               	subwf	view_log@curr_log,f
  2727     0E4B  3000               	movlw	0
  2728     0E4C  1C03               	skipc
  2729     0E4D  03AF               	decf	view_log@curr_log+1,f
  2730     0E4E  02AF               	subwf	view_log@curr_log+1,f
  2731     0E4F                     l3406:
  2732                           
  2733                           ;/home/santhoshtk/Desktop/EMERTXE/MC/25014_Car_Black__Box.X/25014_Car_Black_Box.X/dashbo
      +                          ard.c: 275:    read_and_format_log(curr_log);
  2734     0E4F  082E               	movf	view_log@curr_log,w
  2735     0E50  120A  158A  2568  120A  158A  	fcall	_read_and_format_log
  2736                           
  2737                           ;/home/santhoshtk/Desktop/EMERTXE/MC/25014_Car_Black__Box.X/25014_Car_Black_Box.X/dashbo
      +                          ard.c: 276:   }
  2738     0E55  2DF9               	goto	l3392
  2739     0E56                     l3408:
  2740     0E56  303D               	movlw	61
  2741     0E57  062C               	xorwf	view_log@key,w
  2742     0E58  042D               	iorwf	view_log@key+1,w
  2743     0E59  1D03               	btfss	3,2
  2744     0E5A  2E5C               	goto	u3911
  2745     0E5B  2E5D               	goto	u3910
  2746     0E5C                     u3911:
  2747     0E5C  2E7C               	goto	l3416
  2748     0E5D                     u3910:
  2749     0E5D                     l3410:
  2750                           
  2751                           ;/home/santhoshtk/Desktop/EMERTXE/MC/25014_Car_Black__Box.X/25014_Car_Black_Box.X/dashbo
      +                          ard.c: 279:    if(curr_log < event_count - 1) curr_log++;
  2752     0E5D  0855               	movf	_event_count,w
  2753     0E5E  3EFF               	addlw	255
  2754     0E5F  00AA               	movwf	??_view_log
  2755     0E60  0856               	movf	_event_count+1,w
  2756     0E61  1803               	skipnc
  2757     0E62  3E01               	addlw	1
  2758     0E63  3EFF               	addlw	255
  2759     0E64  00AB               	movwf	??_view_log+1
  2760     0E65  082B               	movf	??_view_log+1,w
  2761     0E66  022F               	subwf	view_log@curr_log+1,w
  2762     0E67  1D03               	skipz
  2763     0E68  2E6B               	goto	u3925
  2764     0E69  082A               	movf	??_view_log,w
  2765     0E6A  022E               	subwf	view_log@curr_log,w
  2766     0E6B                     u3925:
  2767     0E6B  1803               	skipnc
  2768     0E6C  2E6E               	goto	u3921
  2769     0E6D  2E6F               	goto	u3920
  2770     0E6E                     u3921:
  2771     0E6E  2E75               	goto	l3414
  2772     0E6F                     u3920:
  2773     0E6F                     l3412:
  2774     0E6F  3001               	movlw	1
  2775     0E70  07AE               	addwf	view_log@curr_log,f
  2776     0E71  1803               	skipnc
  2777     0E72  0AAF               	incf	view_log@curr_log+1,f
  2778     0E73  3000               	movlw	0
  2779     0E74  07AF               	addwf	view_log@curr_log+1,f
  2780     0E75                     l3414:
  2781                           
  2782                           ;/home/santhoshtk/Desktop/EMERTXE/MC/25014_Car_Black__Box.X/25014_Car_Black_Box.X/dashbo
      +                          ard.c: 280:    read_and_format_log(curr_log);
  2783     0E75  082E               	movf	view_log@curr_log,w
  2784     0E76  120A  158A  2568  120A  158A  	fcall	_read_and_format_log
  2785                           
  2786                           ;/home/santhoshtk/Desktop/EMERTXE/MC/25014_Car_Black__Box.X/25014_Car_Black_Box.X/dashbo
      +                          ard.c: 281:   }
  2787     0E7B  2DF9               	goto	l3392
  2788     0E7C                     l3416:
  2789     0E7C  302F               	movlw	47
  2790     0E7D  062C               	xorwf	view_log@key,w
  2791     0E7E  042D               	iorwf	view_log@key+1,w
  2792     0E7F  1D03               	btfss	3,2
  2793     0E80  2E82               	goto	u3931
  2794     0E81  2E83               	goto	u3930
  2795     0E82                     u3931:
  2796     0E82  2DF9               	goto	l3392
  2797     0E83                     u3930:
  2798     0E83                     l248:
  2799     0E83  0008               	return
  2800     0E84                     __end_of_view_log:
  2801                           
  2802                           	psect	text3
  2803     020A                     __ptext3:	
  2804 ;; *************** function _set_time *****************
  2805 ;; Defined at:
  2806 ;;		line 335 in file "/home/santhoshtk/Desktop/EMERTXE/MC/25014_Car_Black__Box.X/25014_Car_Black_Box.X/dashboard.c"
  2807 ;; Parameters:    Size  Location     Type
  2808 ;;		None
  2809 ;; Auto vars:     Size  Location     Type
  2810 ;;  indicator       2   13[BANK0 ] unsigned int 
  2811 ;;  sec             2   10[BANK0 ] unsigned int 
  2812 ;;  min             2    8[BANK0 ] unsigned int 
  2813 ;;  hour            2    6[BANK0 ] unsigned int 
  2814 ;;  key             1   12[BANK0 ] unsigned char 
  2815 ;; Return value:  Size  Location     Type
  2816 ;;                  1    wreg      void 
  2817 ;; Registers used:
  2818 ;;		wreg, fsr0l, fsr0h, status,2, status,0, pclath, btemp1, cstack
  2819 ;; Tracked objects:
  2820 ;;		On entry : 0/0
  2821 ;;		On exit  : 0/0
  2822 ;;		Unchanged: 0/0
  2823 ;; Data sizes:     COMMON   BANK0   BANK1   BANK3   BANK2
  2824 ;;      Params:         0       0       0       0       0
  2825 ;;      Locals:         0       9       0       0       0
  2826 ;;      Temps:          0       4       0       0       0
  2827 ;;      Totals:         0      13       0       0       0
  2828 ;;Total ram usage:       13 bytes
  2829 ;; Hardware stack levels used: 1
  2830 ;; Hardware stack levels required when called: 3
  2831 ;; This function calls:
  2832 ;;		___lwdiv
  2833 ;;		___lwmod
  2834 ;;		___wmul
  2835 ;;		_clcd_print
  2836 ;;		_clcd_putch
  2837 ;;		_display_indicator
  2838 ;;		_read_digital_keypad
  2839 ;; This function is called by:
  2840 ;;		_main_menu
  2841 ;; This function uses a non-reentrant model
  2842 ;;
  2843                           
  2844     020A                     _set_time:	
  2845                           ;psect for function _set_time
  2846                           
  2847     020A                     l3442:	
  2848                           ;incstack = 0
  2849                           ; Regs used in _set_time: [wreg-fsr0h+status,2+status,0+pclath+btemp1+cstack]
  2850                           
  2851                           
  2852                           ;/home/santhoshtk/Desktop/EMERTXE/MC/25014_Car_Black__Box.X/25014_Car_Black_Box.X/dashbo
      +                          ard.c: 338:  unsigned int hour = ((time[0] - '0') * 10) + (time[1] - '0');;
  2853     020A  1283               	bcf	3,5	;RP0=0, select bank0
  2854     020B  1303               	bcf	3,6	;RP1=0, select bank0
  2855     020C  085E               	movf	_time,w
  2856     020D  00A2               	movwf	??_set_time
  2857     020E  01A3               	clrf	??_set_time+1
  2858     020F  0822               	movf	??_set_time,w
  2859     0210  00F2               	movwf	___wmul@multiplier
  2860     0211  0823               	movf	??_set_time+1,w
  2861     0212  00F3               	movwf	___wmul@multiplier+1
  2862     0213  300A               	movlw	10
  2863     0214  00F4               	movwf	___wmul@multiplicand
  2864     0215  3000               	movlw	0
  2865     0216  00F5               	movwf	___wmul@multiplicand+1
  2866     0217  120A  158A  2018  120A  118A  	fcall	___wmul
  2867     021C  1283               	bcf	3,5	;RP0=0, select bank0
  2868     021D  1303               	bcf	3,6	;RP1=0, select bank0
  2869     021E  085F               	movf	_time+1,w
  2870     021F  0772               	addwf	?___wmul,w
  2871     0220  00A4               	movwf	??_set_time+2
  2872     0221  3000               	movlw	0
  2873     0222  1803               	skipnc
  2874     0223  3001               	movlw	1
  2875     0224  0773               	addwf	?___wmul+1,w
  2876     0225  00A5               	movwf	??_set_time+3
  2877     0226  0824               	movf	??_set_time+2,w
  2878     0227  3EF0               	addlw	240
  2879     0228  00A6               	movwf	set_time@hour
  2880     0229  0825               	movf	??_set_time+3,w
  2881     022A  1803               	skipnc
  2882     022B  3E01               	addlw	1
  2883     022C  3EFD               	addlw	253
  2884     022D  00A7               	movwf	set_time@hour+1
  2885                           
  2886                           ;/home/santhoshtk/Desktop/EMERTXE/MC/25014_Car_Black__Box.X/25014_Car_Black_Box.X/dashbo
      +                          ard.c: 339:  unsigned int min = ((time[3] - '0') * 10) + (time[4] - '0');;
  2887     022E  0861               	movf	_time+3,w
  2888     022F  00A2               	movwf	??_set_time
  2889     0230  01A3               	clrf	??_set_time+1
  2890     0231  0822               	movf	??_set_time,w
  2891     0232  00F2               	movwf	___wmul@multiplier
  2892     0233  0823               	movf	??_set_time+1,w
  2893     0234  00F3               	movwf	___wmul@multiplier+1
  2894     0235  300A               	movlw	10
  2895     0236  00F4               	movwf	___wmul@multiplicand
  2896     0237  3000               	movlw	0
  2897     0238  00F5               	movwf	___wmul@multiplicand+1
  2898     0239  120A  158A  2018  120A  118A  	fcall	___wmul
  2899     023E  1283               	bcf	3,5	;RP0=0, select bank0
  2900     023F  1303               	bcf	3,6	;RP1=0, select bank0
  2901     0240  0862               	movf	_time+4,w
  2902     0241  0772               	addwf	?___wmul,w
  2903     0242  00A4               	movwf	??_set_time+2
  2904     0243  3000               	movlw	0
  2905     0244  1803               	skipnc
  2906     0245  3001               	movlw	1
  2907     0246  0773               	addwf	?___wmul+1,w
  2908     0247  00A5               	movwf	??_set_time+3
  2909     0248  0824               	movf	??_set_time+2,w
  2910     0249  3EF0               	addlw	240
  2911     024A  00A8               	movwf	set_time@min
  2912     024B  0825               	movf	??_set_time+3,w
  2913     024C  1803               	skipnc
  2914     024D  3E01               	addlw	1
  2915     024E  3EFD               	addlw	253
  2916     024F  00A9               	movwf	set_time@min+1
  2917                           
  2918                           ;/home/santhoshtk/Desktop/EMERTXE/MC/25014_Car_Black__Box.X/25014_Car_Black_Box.X/dashbo
      +                          ard.c: 340:  unsigned int sec = ((time[6] - '0') * 10) + (time[7] - '0');;
  2919     0250  0864               	movf	_time+6,w
  2920     0251  00A2               	movwf	??_set_time
  2921     0252  01A3               	clrf	??_set_time+1
  2922     0253  0822               	movf	??_set_time,w
  2923     0254  00F2               	movwf	___wmul@multiplier
  2924     0255  0823               	movf	??_set_time+1,w
  2925     0256  00F3               	movwf	___wmul@multiplier+1
  2926     0257  300A               	movlw	10
  2927     0258  00F4               	movwf	___wmul@multiplicand
  2928     0259  3000               	movlw	0
  2929     025A  00F5               	movwf	___wmul@multiplicand+1
  2930     025B  120A  158A  2018  120A  118A  	fcall	___wmul
  2931     0260  1283               	bcf	3,5	;RP0=0, select bank0
  2932     0261  1303               	bcf	3,6	;RP1=0, select bank0
  2933     0262  0865               	movf	_time+7,w
  2934     0263  0772               	addwf	?___wmul,w
  2935     0264  00A4               	movwf	??_set_time+2
  2936     0265  3000               	movlw	0
  2937     0266  1803               	skipnc
  2938     0267  3001               	movlw	1
  2939     0268  0773               	addwf	?___wmul+1,w
  2940     0269  00A5               	movwf	??_set_time+3
  2941     026A  0824               	movf	??_set_time+2,w
  2942     026B  3EF0               	addlw	240
  2943     026C  00AA               	movwf	set_time@sec
  2944     026D  0825               	movf	??_set_time+3,w
  2945     026E  1803               	skipnc
  2946     026F  3E01               	addlw	1
  2947     0270  3EFD               	addlw	253
  2948     0271  00AB               	movwf	set_time@sec+1
  2949     0272                     l3444:
  2950                           
  2951                           ;/home/santhoshtk/Desktop/EMERTXE/MC/25014_Car_Black__Box.X/25014_Car_Black_Box.X/dashbo
      +                          ard.c: 341:  unsigned int indicator = 0;
  2952     0272  01AD               	clrf	set_time@indicator
  2953     0273  01AE               	clrf	set_time@indicator+1
  2954     0274                     l3446:
  2955                           
  2956                           ;/home/santhoshtk/Desktop/EMERTXE/MC/25014_Car_Black__Box.X/25014_Car_Black_Box.X/dashbo
      +                          ard.c: 342:  unsigned char key;;/home/santhoshtk/Desktop/EMERTXE/MC/25014_Car_Black__Box
      +                          .X/25014_Car_Black_Box.X/dashboard.c: 344:  clcd_print("    HH:MM:SS    ", (0x80 + 0));
  2957     0274  3012               	movlw	low (STR_34| (0+32768))
  2958     0275  00F6               	movwf	clcd_print@str
  2959     0276  3084               	movlw	high (STR_34| (0+32768))
  2960     0277  00F7               	movwf	clcd_print@str+1
  2961     0278  3080               	movlw	128
  2962     0279  00F8               	movwf	clcd_print@addr
  2963     027A  120A  158A  210B  120A  118A  	fcall	_clcd_print
  2964     027F                     l3448:
  2965                           
  2966                           ;/home/santhoshtk/Desktop/EMERTXE/MC/25014_Car_Black__Box.X/25014_Car_Black_Box.X/dashbo
      +                          ard.c: 349:   clcd_putch((hour / 10) + '0', (0xC0 + 4));
  2967     027F  30C4               	movlw	196
  2968     0280  00F9               	movwf	clcd_putch@addr
  2969     0281  300A               	movlw	10
  2970     0282  00F2               	movwf	___lwdiv@divisor
  2971     0283  3000               	movlw	0
  2972     0284  00F3               	movwf	___lwdiv@divisor+1
  2973     0285  1283               	bcf	3,5	;RP0=0, select bank0
  2974     0286  1303               	bcf	3,6	;RP1=0, select bank0
  2975     0287  0827               	movf	set_time@hour+1,w
  2976     0288  00F5               	movwf	___lwdiv@dividend+1
  2977     0289  0826               	movf	set_time@hour,w
  2978     028A  00F4               	movwf	___lwdiv@dividend
  2979     028B  120A  118A  23BE  120A  118A  	fcall	___lwdiv
  2980     0290  0872               	movf	?___lwdiv,w
  2981     0291  3E30               	addlw	48
  2982     0292  120A  118A  27E8  120A  118A  	fcall	_clcd_putch
  2983     0297                     l3450:
  2984                           
  2985                           ;/home/santhoshtk/Desktop/EMERTXE/MC/25014_Car_Black__Box.X/25014_Car_Black_Box.X/dashbo
      +                          ard.c: 350:   clcd_putch((hour % 10) + '0', (0xC0 + 5));
  2986     0297  30C5               	movlw	197
  2987     0298  00F9               	movwf	clcd_putch@addr
  2988     0299  300A               	movlw	10
  2989     029A  00F2               	movwf	___lwmod@divisor
  2990     029B  3000               	movlw	0
  2991     029C  00F3               	movwf	___lwmod@divisor+1
  2992     029D  1283               	bcf	3,5	;RP0=0, select bank0
  2993     029E  1303               	bcf	3,6	;RP1=0, select bank0
  2994     029F  0827               	movf	set_time@hour+1,w
  2995     02A0  00F5               	movwf	___lwmod@dividend+1
  2996     02A1  0826               	movf	set_time@hour,w
  2997     02A2  00F4               	movwf	___lwmod@dividend
  2998     02A3  120A  158A  226C  120A  118A  	fcall	___lwmod
  2999     02A8  0872               	movf	?___lwmod,w
  3000     02A9  3E30               	addlw	48
  3001     02AA  120A  118A  27E8  120A  118A  	fcall	_clcd_putch
  3002     02AF                     l3452:
  3003                           
  3004                           ;/home/santhoshtk/Desktop/EMERTXE/MC/25014_Car_Black__Box.X/25014_Car_Black_Box.X/dashbo
      +                          ard.c: 351:   clcd_putch(':', (0xC0 + 6));
  3005     02AF  30C6               	movlw	198
  3006     02B0  00F9               	movwf	clcd_putch@addr
  3007     02B1  303A               	movlw	58
  3008     02B2  120A  118A  27E8  120A  118A  	fcall	_clcd_putch
  3009     02B7                     l3454:
  3010                           
  3011                           ;/home/santhoshtk/Desktop/EMERTXE/MC/25014_Car_Black__Box.X/25014_Car_Black_Box.X/dashbo
      +                          ard.c: 354:   clcd_putch((min / 10) + '0', (0xC0 + 7));
  3012     02B7  30C7               	movlw	199
  3013     02B8  00F9               	movwf	clcd_putch@addr
  3014     02B9  300A               	movlw	10
  3015     02BA  00F2               	movwf	___lwdiv@divisor
  3016     02BB  3000               	movlw	0
  3017     02BC  00F3               	movwf	___lwdiv@divisor+1
  3018     02BD  1283               	bcf	3,5	;RP0=0, select bank0
  3019     02BE  1303               	bcf	3,6	;RP1=0, select bank0
  3020     02BF  0829               	movf	set_time@min+1,w
  3021     02C0  00F5               	movwf	___lwdiv@dividend+1
  3022     02C1  0828               	movf	set_time@min,w
  3023     02C2  00F4               	movwf	___lwdiv@dividend
  3024     02C3  120A  118A  23BE  120A  118A  	fcall	___lwdiv
  3025     02C8  0872               	movf	?___lwdiv,w
  3026     02C9  3E30               	addlw	48
  3027     02CA  120A  118A  27E8  120A  118A  	fcall	_clcd_putch
  3028     02CF                     l3456:
  3029                           
  3030                           ;/home/santhoshtk/Desktop/EMERTXE/MC/25014_Car_Black__Box.X/25014_Car_Black_Box.X/dashbo
      +                          ard.c: 355:   clcd_putch((min % 10) + '0', (0xC0 + 8));
  3031     02CF  30C8               	movlw	200
  3032     02D0  00F9               	movwf	clcd_putch@addr
  3033     02D1  300A               	movlw	10
  3034     02D2  00F2               	movwf	___lwmod@divisor
  3035     02D3  3000               	movlw	0
  3036     02D4  00F3               	movwf	___lwmod@divisor+1
  3037     02D5  1283               	bcf	3,5	;RP0=0, select bank0
  3038     02D6  1303               	bcf	3,6	;RP1=0, select bank0
  3039     02D7  0829               	movf	set_time@min+1,w
  3040     02D8  00F5               	movwf	___lwmod@dividend+1
  3041     02D9  0828               	movf	set_time@min,w
  3042     02DA  00F4               	movwf	___lwmod@dividend
  3043     02DB  120A  158A  226C  120A  118A  	fcall	___lwmod
  3044     02E0  0872               	movf	?___lwmod,w
  3045     02E1  3E30               	addlw	48
  3046     02E2  120A  118A  27E8  120A  118A  	fcall	_clcd_putch
  3047     02E7                     l3458:
  3048                           
  3049                           ;/home/santhoshtk/Desktop/EMERTXE/MC/25014_Car_Black__Box.X/25014_Car_Black_Box.X/dashbo
      +                          ard.c: 356:   clcd_putch(':', (0xC0 + 9));
  3050     02E7  30C9               	movlw	201
  3051     02E8  00F9               	movwf	clcd_putch@addr
  3052     02E9  303A               	movlw	58
  3053     02EA  120A  118A  27E8  120A  118A  	fcall	_clcd_putch
  3054     02EF                     l3460:
  3055                           
  3056                           ;/home/santhoshtk/Desktop/EMERTXE/MC/25014_Car_Black__Box.X/25014_Car_Black_Box.X/dashbo
      +                          ard.c: 359:   clcd_putch((sec / 10) + '0', (0xC0 + 10));
  3057     02EF  30CA               	movlw	202
  3058     02F0  00F9               	movwf	clcd_putch@addr
  3059     02F1  300A               	movlw	10
  3060     02F2  00F2               	movwf	___lwdiv@divisor
  3061     02F3  3000               	movlw	0
  3062     02F4  00F3               	movwf	___lwdiv@divisor+1
  3063     02F5  1283               	bcf	3,5	;RP0=0, select bank0
  3064     02F6  1303               	bcf	3,6	;RP1=0, select bank0
  3065     02F7  082B               	movf	set_time@sec+1,w
  3066     02F8  00F5               	movwf	___lwdiv@dividend+1
  3067     02F9  082A               	movf	set_time@sec,w
  3068     02FA  00F4               	movwf	___lwdiv@dividend
  3069     02FB  120A  118A  23BE  120A  118A  	fcall	___lwdiv
  3070     0300  0872               	movf	?___lwdiv,w
  3071     0301  3E30               	addlw	48
  3072     0302  120A  118A  27E8  120A  118A  	fcall	_clcd_putch
  3073     0307                     l3462:
  3074                           
  3075                           ;/home/santhoshtk/Desktop/EMERTXE/MC/25014_Car_Black__Box.X/25014_Car_Black_Box.X/dashbo
      +                          ard.c: 360:   clcd_putch((sec % 10) + '0', (0xC0 + 11));
  3076     0307  30CB               	movlw	203
  3077     0308  00F9               	movwf	clcd_putch@addr
  3078     0309  300A               	movlw	10
  3079     030A  00F2               	movwf	___lwmod@divisor
  3080     030B  3000               	movlw	0
  3081     030C  00F3               	movwf	___lwmod@divisor+1
  3082     030D  1283               	bcf	3,5	;RP0=0, select bank0
  3083     030E  1303               	bcf	3,6	;RP1=0, select bank0
  3084     030F  082B               	movf	set_time@sec+1,w
  3085     0310  00F5               	movwf	___lwmod@dividend+1
  3086     0311  082A               	movf	set_time@sec,w
  3087     0312  00F4               	movwf	___lwmod@dividend
  3088     0313  120A  158A  226C  120A  118A  	fcall	___lwmod
  3089     0318  0872               	movf	?___lwmod,w
  3090     0319  3E30               	addlw	48
  3091     031A  120A  118A  27E8  120A  118A  	fcall	_clcd_putch
  3092     031F                     l3464:
  3093                           
  3094                           ;/home/santhoshtk/Desktop/EMERTXE/MC/25014_Car_Black__Box.X/25014_Car_Black_Box.X/dashbo
      +                          ard.c: 362:   display_indicator(indicator);
  3095     031F  1283               	bcf	3,5	;RP0=0, select bank0
  3096     0320  1303               	bcf	3,6	;RP1=0, select bank0
  3097     0321  082E               	movf	set_time@indicator+1,w
  3098     0322  00A1               	movwf	display_indicator@pos+1
  3099     0323  082D               	movf	set_time@indicator,w
  3100     0324  00A0               	movwf	display_indicator@pos
  3101     0325  120A  158A  22A4  120A  118A  	fcall	_display_indicator
  3102     032A                     l3466:
  3103                           
  3104                           ;/home/santhoshtk/Desktop/EMERTXE/MC/25014_Car_Black__Box.X/25014_Car_Black_Box.X/dashbo
      +                          ard.c: 366:   key = read_digital_keypad(1);
  3105     032A  3001               	movlw	1
  3106     032B  120A  158A  208B  120A  118A  	fcall	_read_digital_keypad
  3107     0330  1283               	bcf	3,5	;RP0=0, select bank0
  3108     0331  1303               	bcf	3,6	;RP1=0, select bank0
  3109     0332  00AC               	movwf	set_time@key
  3110     0333                     l3468:
  3111                           
  3112                           ;/home/santhoshtk/Desktop/EMERTXE/MC/25014_Car_Black__Box.X/25014_Car_Black_Box.X/dashbo
      +                          ard.c: 368:   if(key == 0x3E){
  3113     0333  303E               	movlw	62
  3114     0334  062C               	xorwf	set_time@key,w
  3115     0335  1D03               	btfss	3,2
  3116     0336  2B38               	goto	u3951
  3117     0337  2B39               	goto	u3950
  3118     0338                     u3951:
  3119     0338  2B92               	goto	l3482
  3120     0339                     u3950:
  3121     0339                     l3470:
  3122                           
  3123                           ;/home/santhoshtk/Desktop/EMERTXE/MC/25014_Car_Black__Box.X/25014_Car_Black_Box.X/dashbo
      +                          ard.c: 369:    if(indicator == 0) hour = (hour + 1) % 24;
  3124     0339  082D               	movf	set_time@indicator,w
  3125     033A  042E               	iorwf	set_time@indicator+1,w
  3126     033B  1D03               	btfss	3,2
  3127     033C  2B3E               	goto	u3961
  3128     033D  2B3F               	goto	u3960
  3129     033E                     u3961:
  3130     033E  2B56               	goto	l3474
  3131     033F                     u3960:
  3132     033F                     l3472:
  3133     033F  3018               	movlw	24
  3134     0340  00F2               	movwf	___lwmod@divisor
  3135     0341  3000               	movlw	0
  3136     0342  00F3               	movwf	___lwmod@divisor+1
  3137     0343  0826               	movf	set_time@hour,w
  3138     0344  3E01               	addlw	1
  3139     0345  00F4               	movwf	___lwmod@dividend
  3140     0346  0827               	movf	set_time@hour+1,w
  3141     0347  1803               	skipnc
  3142     0348  3E01               	addlw	1
  3143     0349  3E00               	addlw	0
  3144     034A  00F5               	movwf	___lwmod@dividend+1
  3145     034B  120A  158A  226C  120A  118A  	fcall	___lwmod
  3146     0350  0873               	movf	?___lwmod+1,w
  3147     0351  1283               	bcf	3,5	;RP0=0, select bank0
  3148     0352  1303               	bcf	3,6	;RP1=0, select bank0
  3149     0353  00A7               	movwf	set_time@hour+1
  3150     0354  0872               	movf	?___lwmod,w
  3151     0355  00A6               	movwf	set_time@hour
  3152     0356                     l3474:
  3153                           
  3154                           ;/home/santhoshtk/Desktop/EMERTXE/MC/25014_Car_Black__Box.X/25014_Car_Black_Box.X/dashbo
      +                          ard.c: 371:    if(indicator == 1) min = (min + 1) % 60;
  3155     0356  032D               	decf	set_time@indicator,w
  3156     0357  042E               	iorwf	set_time@indicator+1,w
  3157     0358  1D03               	btfss	3,2
  3158     0359  2B5B               	goto	u3971
  3159     035A  2B5C               	goto	u3970
  3160     035B                     u3971:
  3161     035B  2B73               	goto	l3478
  3162     035C                     u3970:
  3163     035C                     l3476:
  3164     035C  303C               	movlw	60
  3165     035D  00F2               	movwf	___lwmod@divisor
  3166     035E  3000               	movlw	0
  3167     035F  00F3               	movwf	___lwmod@divisor+1
  3168     0360  0828               	movf	set_time@min,w
  3169     0361  3E01               	addlw	1
  3170     0362  00F4               	movwf	___lwmod@dividend
  3171     0363  0829               	movf	set_time@min+1,w
  3172     0364  1803               	skipnc
  3173     0365  3E01               	addlw	1
  3174     0366  3E00               	addlw	0
  3175     0367  00F5               	movwf	___lwmod@dividend+1
  3176     0368  120A  158A  226C  120A  118A  	fcall	___lwmod
  3177     036D  0873               	movf	?___lwmod+1,w
  3178     036E  1283               	bcf	3,5	;RP0=0, select bank0
  3179     036F  1303               	bcf	3,6	;RP1=0, select bank0
  3180     0370  00A9               	movwf	set_time@min+1
  3181     0371  0872               	movf	?___lwmod,w
  3182     0372  00A8               	movwf	set_time@min
  3183     0373                     l3478:
  3184                           
  3185                           ;/home/santhoshtk/Desktop/EMERTXE/MC/25014_Car_Black__Box.X/25014_Car_Black_Box.X/dashbo
      +                          ard.c: 373:    if(indicator == 2) sec = (sec + 1) % 60;
  3186     0373  3002               	movlw	2
  3187     0374  062D               	xorwf	set_time@indicator,w
  3188     0375  042E               	iorwf	set_time@indicator+1,w
  3189     0376  1D03               	btfss	3,2
  3190     0377  2B79               	goto	u3981
  3191     0378  2B7A               	goto	u3980
  3192     0379                     u3981:
  3193     0379  2A7F               	goto	l3448
  3194     037A                     u3980:
  3195     037A                     l3480:
  3196     037A  303C               	movlw	60
  3197     037B  00F2               	movwf	___lwmod@divisor
  3198     037C  3000               	movlw	0
  3199     037D  00F3               	movwf	___lwmod@divisor+1
  3200     037E  082A               	movf	set_time@sec,w
  3201     037F  3E01               	addlw	1
  3202     0380  00F4               	movwf	___lwmod@dividend
  3203     0381  082B               	movf	set_time@sec+1,w
  3204     0382  1803               	skipnc
  3205     0383  3E01               	addlw	1
  3206     0384  3E00               	addlw	0
  3207     0385  00F5               	movwf	___lwmod@dividend+1
  3208     0386  120A  158A  226C  120A  118A  	fcall	___lwmod
  3209     038B  0873               	movf	?___lwmod+1,w
  3210     038C  1283               	bcf	3,5	;RP0=0, select bank0
  3211     038D  1303               	bcf	3,6	;RP1=0, select bank0
  3212     038E  00AB               	movwf	set_time@sec+1
  3213     038F  0872               	movf	?___lwmod,w
  3214     0390  00AA               	movwf	set_time@sec
  3215     0391  2A7F               	goto	l3448
  3216     0392                     l3482:
  3217     0392  303D               	movlw	61
  3218     0393  062C               	xorwf	set_time@key,w
  3219     0394  1D03               	btfss	3,2
  3220     0395  2B97               	goto	u3991
  3221     0396  2B98               	goto	u3990
  3222     0397                     u3991:
  3223     0397  2BB0               	goto	l3486
  3224     0398                     u3990:
  3225     0398                     l3484:
  3226                           
  3227                           ;/home/santhoshtk/Desktop/EMERTXE/MC/25014_Car_Black__Box.X/25014_Car_Black_Box.X/dashbo
      +                          ard.c: 377:    indicator = (indicator + 1) % 3;
  3228     0398  3003               	movlw	3
  3229     0399  00F2               	movwf	___lwmod@divisor
  3230     039A  3000               	movlw	0
  3231     039B  00F3               	movwf	___lwmod@divisor+1
  3232     039C  082D               	movf	set_time@indicator,w
  3233     039D  3E01               	addlw	1
  3234     039E  00F4               	movwf	___lwmod@dividend
  3235     039F  082E               	movf	set_time@indicator+1,w
  3236     03A0  1803               	skipnc
  3237     03A1  3E01               	addlw	1
  3238     03A2  3E00               	addlw	0
  3239     03A3  00F5               	movwf	___lwmod@dividend+1
  3240     03A4  120A  158A  226C  120A  118A  	fcall	___lwmod
  3241     03A9  0873               	movf	?___lwmod+1,w
  3242     03AA  1283               	bcf	3,5	;RP0=0, select bank0
  3243     03AB  1303               	bcf	3,6	;RP1=0, select bank0
  3244     03AC  00AE               	movwf	set_time@indicator+1
  3245     03AD  0872               	movf	?___lwmod,w
  3246     03AE  00AD               	movwf	set_time@indicator
  3247                           
  3248                           ;/home/santhoshtk/Desktop/EMERTXE/MC/25014_Car_Black__Box.X/25014_Car_Black_Box.X/dashbo
      +                          ard.c: 378:   }
  3249     03AF  2A7F               	goto	l3448
  3250     03B0                     l3486:
  3251     03B0  3037               	movlw	55
  3252     03B1  062C               	xorwf	set_time@key,w
  3253     03B2  1D03               	btfss	3,2
  3254     03B3  2BB5               	goto	u4001
  3255     03B4  2BB6               	goto	u4000
  3256     03B5                     u4001:
  3257     03B5  2BB7               	goto	l3490
  3258     03B6                     u4000:
  3259     03B6  2A7F               	goto	l3448
  3260     03B7                     l3490:
  3261     03B7  302F               	movlw	47
  3262     03B8  062C               	xorwf	set_time@key,w
  3263     03B9  1D03               	btfss	3,2
  3264     03BA  2BBC               	goto	u4011
  3265     03BB  2BBD               	goto	u4010
  3266     03BC                     u4011:
  3267     03BC  2A7F               	goto	l3448
  3268     03BD                     u4010:
  3269     03BD                     l281:
  3270     03BD  0008               	return
  3271     03BE                     __end_of_set_time:
  3272                           
  3273                           	psect	text4
  3274     0AA4                     __ptext4:	
  3275 ;; *************** function _display_indicator *****************
  3276 ;; Defined at:
  3277 ;;		line 320 in file "/home/santhoshtk/Desktop/EMERTXE/MC/25014_Car_Black__Box.X/25014_Car_Black_Box.X/dashboard.c"
  3278 ;; Parameters:    Size  Location     Type
  3279 ;;  pos             2    0[BANK0 ] unsigned int 
  3280 ;; Auto vars:     Size  Location     Type
  3281 ;;		None
  3282 ;; Return value:  Size  Location     Type
  3283 ;;                  1    wreg      void 
  3284 ;; Registers used:
  3285 ;;		wreg, fsr0l, fsr0h, status,2, status,0, pclath, btemp1, cstack
  3286 ;; Tracked objects:
  3287 ;;		On entry : 0/0
  3288 ;;		On exit  : 0/0
  3289 ;;		Unchanged: 0/0
  3290 ;; Data sizes:     COMMON   BANK0   BANK1   BANK3   BANK2
  3291 ;;      Params:         0       2       0       0       0
  3292 ;;      Locals:         0       0       0       0       0
  3293 ;;      Temps:          0       0       0       0       0
  3294 ;;      Totals:         0       2       0       0       0
  3295 ;;Total ram usage:        2 bytes
  3296 ;; Hardware stack levels used: 1
  3297 ;; Hardware stack levels required when called: 2
  3298 ;; This function calls:
  3299 ;;		_clcd_print
  3300 ;; This function is called by:
  3301 ;;		_set_time
  3302 ;; This function uses a non-reentrant model
  3303 ;;
  3304                           
  3305     0AA4                     _display_indicator:	
  3306                           ;psect for function _display_indicator
  3307                           
  3308     0AA4                     l3208:	
  3309                           ;incstack = 0
  3310                           ; Regs used in _display_indicator: [wreg-fsr0h+status,2+status,0+pclath+btemp1+cstack]
  3311                           
  3312                           
  3313                           ;/home/santhoshtk/Desktop/EMERTXE/MC/25014_Car_Black__Box.X/25014_Car_Black_Box.X/dashbo
      +                          ard.c: 321:  if(pos == 0){
  3314     0AA4  1283               	bcf	3,5	;RP0=0, select bank0
  3315     0AA5  1303               	bcf	3,6	;RP1=0, select bank0
  3316     0AA6  0820               	movf	display_indicator@pos,w
  3317     0AA7  0421               	iorwf	display_indicator@pos+1,w
  3318     0AA8  1D03               	btfss	3,2
  3319     0AA9  2AAB               	goto	u3541
  3320     0AAA  2AAC               	goto	u3540
  3321     0AAB                     u3541:
  3322     0AAB  2AB8               	goto	l3212
  3323     0AAC                     u3540:
  3324     0AAC                     l3210:
  3325                           
  3326                           ;/home/santhoshtk/Desktop/EMERTXE/MC/25014_Car_Black__Box.X/25014_Car_Black_Box.X/dashbo
      +                          ard.c: 323:   clcd_print("  ", (0xC0 + 4));
  3327     0AAC  3064               	movlw	low ((STR_2+14)| (0+32768))
  3328     0AAD  00F6               	movwf	clcd_print@str
  3329     0AAE  3084               	movlw	high ((STR_2+14)| (0+32768))
  3330     0AAF  00F7               	movwf	clcd_print@str+1
  3331     0AB0  30C4               	movlw	196
  3332     0AB1  00F8               	movwf	clcd_print@addr
  3333     0AB2  120A  158A  210B  120A  158A  	fcall	_clcd_print
  3334                           
  3335                           ;/home/santhoshtk/Desktop/EMERTXE/MC/25014_Car_Black__Box.X/25014_Car_Black_Box.X/dashbo
      +                          ard.c: 324:  }
  3336     0AB7  2ADC               	goto	l267
  3337     0AB8                     l3212:
  3338     0AB8  0320               	decf	display_indicator@pos,w
  3339     0AB9  0421               	iorwf	display_indicator@pos+1,w
  3340     0ABA  1D03               	btfss	3,2
  3341     0ABB  2ABD               	goto	u3551
  3342     0ABC  2ABE               	goto	u3550
  3343     0ABD                     u3551:
  3344     0ABD  2ACA               	goto	l3216
  3345     0ABE                     u3550:
  3346     0ABE                     l3214:
  3347                           
  3348                           ;/home/santhoshtk/Desktop/EMERTXE/MC/25014_Car_Black__Box.X/25014_Car_Black_Box.X/dashbo
      +                          ard.c: 327:   clcd_print("  ", (0xC0 + 7));
  3349     0ABE  3064               	movlw	low ((STR_2+14)| (0+32768))
  3350     0ABF  00F6               	movwf	clcd_print@str
  3351     0AC0  3084               	movlw	high ((STR_2+14)| (0+32768))
  3352     0AC1  00F7               	movwf	clcd_print@str+1
  3353     0AC2  30C7               	movlw	199
  3354     0AC3  00F8               	movwf	clcd_print@addr
  3355     0AC4  120A  158A  210B  120A  158A  	fcall	_clcd_print
  3356                           
  3357                           ;/home/santhoshtk/Desktop/EMERTXE/MC/25014_Car_Black__Box.X/25014_Car_Black_Box.X/dashbo
      +                          ard.c: 328:  }
  3358     0AC9  2ADC               	goto	l267
  3359     0ACA                     l3216:
  3360     0ACA  3002               	movlw	2
  3361     0ACB  0620               	xorwf	display_indicator@pos,w
  3362     0ACC  0421               	iorwf	display_indicator@pos+1,w
  3363     0ACD  1D03               	btfss	3,2
  3364     0ACE  2AD0               	goto	u3561
  3365     0ACF  2AD1               	goto	u3560
  3366     0AD0                     u3561:
  3367     0AD0  2ADC               	goto	l267
  3368     0AD1                     u3560:
  3369     0AD1                     l3218:
  3370                           
  3371                           ;/home/santhoshtk/Desktop/EMERTXE/MC/25014_Car_Black__Box.X/25014_Car_Black_Box.X/dashbo
      +                          ard.c: 331:   clcd_print("  ", (0xC0 + 10));
  3372     0AD1  3064               	movlw	low ((STR_2+14)| (0+32768))
  3373     0AD2  00F6               	movwf	clcd_print@str
  3374     0AD3  3084               	movlw	high ((STR_2+14)| (0+32768))
  3375     0AD4  00F7               	movwf	clcd_print@str+1
  3376     0AD5  30CA               	movlw	202
  3377     0AD6  00F8               	movwf	clcd_print@addr
  3378     0AD7  120A  158A  210B  120A  158A  	fcall	_clcd_print
  3379     0ADC                     l267:
  3380     0ADC  0008               	return
  3381     0ADD                     __end_of_display_indicator:
  3382                           
  3383                           	psect	text5
  3384     0A36                     __ptext5:	
  3385 ;; *************** function _print_star *****************
  3386 ;; Defined at:
  3387 ;;		line 150 in file "/home/santhoshtk/Desktop/EMERTXE/MC/25014_Car_Black__Box.X/25014_Car_Black_Box.X/dashboard.c"
  3388 ;; Parameters:    Size  Location     Type
  3389 ;;  position        2    0[BANK0 ] unsigned int 
  3390 ;; Auto vars:     Size  Location     Type
  3391 ;;		None
  3392 ;; Return value:  Size  Location     Type
  3393 ;;                  1    wreg      void 
  3394 ;; Registers used:
  3395 ;;		wreg, fsr0l, fsr0h, status,2, status,0, pclath, btemp1, cstack
  3396 ;; Tracked objects:
  3397 ;;		On entry : 0/0
  3398 ;;		On exit  : 0/0
  3399 ;;		Unchanged: 0/0
  3400 ;; Data sizes:     COMMON   BANK0   BANK1   BANK3   BANK2
  3401 ;;      Params:         0       2       0       0       0
  3402 ;;      Locals:         0       0       0       0       0
  3403 ;;      Temps:          0       0       0       0       0
  3404 ;;      Totals:         0       2       0       0       0
  3405 ;;Total ram usage:        2 bytes
  3406 ;; Hardware stack levels used: 1
  3407 ;; Hardware stack levels required when called: 2
  3408 ;; This function calls:
  3409 ;;		_clcd_print
  3410 ;; This function is called by:
  3411 ;;		_main_menu
  3412 ;; This function uses a non-reentrant model
  3413 ;;
  3414                           
  3415     0A36                     _print_star:	
  3416                           ;psect for function _print_star
  3417                           
  3418     0A36                     l3382:	
  3419                           ;incstack = 0
  3420                           ; Regs used in _print_star: [wreg-fsr0h+status,2+status,0+pclath+btemp1+cstack]
  3421                           
  3422                           
  3423                           ;/home/santhoshtk/Desktop/EMERTXE/MC/25014_Car_Black__Box.X/25014_Car_Black_Box.X/dashbo
      +                          ard.c: 151:  if(position == 0){
  3424     0A36  1283               	bcf	3,5	;RP0=0, select bank0
  3425     0A37  1303               	bcf	3,6	;RP1=0, select bank0
  3426     0A38  0820               	movf	print_star@position,w
  3427     0A39  0421               	iorwf	print_star@position+1,w
  3428     0A3A  1D03               	btfss	3,2
  3429     0A3B  2A3D               	goto	u3871
  3430     0A3C  2A3E               	goto	u3870
  3431     0A3D                     u3871:
  3432     0A3D  2A55               	goto	l3386
  3433     0A3E                     u3870:
  3434     0A3E                     l3384:
  3435                           
  3436                           ;/home/santhoshtk/Desktop/EMERTXE/MC/25014_Car_Black__Box.X/25014_Car_Black_Box.X/dashbo
      +                          ard.c: 152:   clcd_print("* ", (0x80 + 0));
  3437     0A3E  301D               	movlw	low (STR_20| (0+32768))
  3438     0A3F  00F6               	movwf	clcd_print@str
  3439     0A40  3085               	movlw	high (STR_20| (0+32768))
  3440     0A41  00F7               	movwf	clcd_print@str+1
  3441     0A42  3080               	movlw	128
  3442     0A43  00F8               	movwf	clcd_print@addr
  3443     0A44  120A  158A  210B  120A  158A  	fcall	_clcd_print
  3444                           
  3445                           ;/home/santhoshtk/Desktop/EMERTXE/MC/25014_Car_Black__Box.X/25014_Car_Black_Box.X/dashbo
      +                          ard.c: 153:   clcd_print("  ", (0xC0 + 0));
  3446     0A49  3064               	movlw	low ((STR_2+14)| (0+32768))
  3447     0A4A  00F6               	movwf	clcd_print@str
  3448     0A4B  3084               	movlw	high ((STR_2+14)| (0+32768))
  3449     0A4C  00F7               	movwf	clcd_print@str+1
  3450     0A4D  30C0               	movlw	192
  3451     0A4E  00F8               	movwf	clcd_print@addr
  3452     0A4F  120A  158A  210B  120A  158A  	fcall	_clcd_print
  3453                           
  3454                           ;/home/santhoshtk/Desktop/EMERTXE/MC/25014_Car_Black__Box.X/25014_Car_Black_Box.X/dashbo
      +                          ard.c: 154:  }
  3455     0A54  2A6B               	goto	l192
  3456     0A55                     l3386:
  3457                           
  3458                           ;/home/santhoshtk/Desktop/EMERTXE/MC/25014_Car_Black__Box.X/25014_Car_Black_Box.X/dashbo
      +                          ard.c: 156:   clcd_print("* ", (0xC0 + 0));
  3459     0A55  301D               	movlw	low (STR_20| (0+32768))
  3460     0A56  00F6               	movwf	clcd_print@str
  3461     0A57  3085               	movlw	high (STR_20| (0+32768))
  3462     0A58  00F7               	movwf	clcd_print@str+1
  3463     0A59  30C0               	movlw	192
  3464     0A5A  00F8               	movwf	clcd_print@addr
  3465     0A5B  120A  158A  210B  120A  158A  	fcall	_clcd_print
  3466                           
  3467                           ;/home/santhoshtk/Desktop/EMERTXE/MC/25014_Car_Black__Box.X/25014_Car_Black_Box.X/dashbo
      +                          ard.c: 157:   clcd_print("  ", (0x80 + 0));
  3468     0A60  3064               	movlw	low ((STR_2+14)| (0+32768))
  3469     0A61  00F6               	movwf	clcd_print@str
  3470     0A62  3084               	movlw	high ((STR_2+14)| (0+32768))
  3471     0A63  00F7               	movwf	clcd_print@str+1
  3472     0A64  3080               	movlw	128
  3473     0A65  00F8               	movwf	clcd_print@addr
  3474     0A66  120A  158A  210B  120A  158A  	fcall	_clcd_print
  3475     0A6B                     l192:
  3476     0A6B  0008               	return
  3477     0A6C                     __end_of_print_star:
  3478                           
  3479                           	psect	text6
  3480     0BCE                     __ptext6:	
  3481 ;; *************** function _download_log *****************
  3482 ;; Defined at:
  3483 ;;		line 300 in file "/home/santhoshtk/Desktop/EMERTXE/MC/25014_Car_Black__Box.X/25014_Car_Black_Box.X/dashboard.c"
  3484 ;; Parameters:    Size  Location     Type
  3485 ;;		None
  3486 ;; Auto vars:     Size  Location     Type
  3487 ;;  i               2   13[BANK0 ] unsigned int 
  3488 ;; Return value:  Size  Location     Type
  3489 ;;                  1    wreg      void 
  3490 ;; Registers used:
  3491 ;;		wreg, fsr0l, fsr0h, status,2, status,0, pclath, btemp1, cstack
  3492 ;; Tracked objects:
  3493 ;;		On entry : 0/0
  3494 ;;		On exit  : 0/0
  3495 ;;		Unchanged: 0/0
  3496 ;; Data sizes:     COMMON   BANK0   BANK1   BANK3   BANK2
  3497 ;;      Params:         0       0       0       0       0
  3498 ;;      Locals:         0       2       0       0       0
  3499 ;;      Temps:          0       3       0       0       0
  3500 ;;      Totals:         0       5       0       0       0
  3501 ;;Total ram usage:        5 bytes
  3502 ;; Hardware stack levels used: 1
  3503 ;; Hardware stack levels required when called: 5
  3504 ;; This function calls:
  3505 ;;		_clcd_print
  3506 ;;		_put_char
  3507 ;;		_put_s
  3508 ;;		_read_and_format_log
  3509 ;; This function is called by:
  3510 ;;		_main_menu
  3511 ;; This function uses a non-reentrant model
  3512 ;;
  3513                           
  3514     0BCE                     _download_log:	
  3515                           ;psect for function _download_log
  3516                           
  3517     0BCE                     l3428:	
  3518                           ;incstack = 0
  3519                           ; Regs used in _download_log: [wreg-fsr0h+status,2+status,0+pclath+btemp1+cstack]
  3520                           
  3521                           
  3522                           ;/home/santhoshtk/Desktop/EMERTXE/MC/25014_Car_Black__Box.X/25014_Car_Black_Box.X/dashbo
      +                          ard.c: 302:  clcd_print("Logs are", (0x80 + 0));
  3523     0BCE  300C               	movlw	low (STR_28| (0+32768))
  3524     0BCF  00F6               	movwf	clcd_print@str
  3525     0BD0  3085               	movlw	high (STR_28| (0+32768))
  3526     0BD1  00F7               	movwf	clcd_print@str+1
  3527     0BD2  3080               	movlw	128
  3528     0BD3  00F8               	movwf	clcd_print@addr
  3529     0BD4  120A  158A  210B  120A  158A  	fcall	_clcd_print
  3530                           
  3531                           ;/home/santhoshtk/Desktop/EMERTXE/MC/25014_Car_Black__Box.X/25014_Car_Black_Box.X/dashbo
      +                          ard.c: 303:  clcd_print("Downloading...", (0xC0 + 0));
  3532     0BD9  30E4               	movlw	low (STR_29| (0+32768))
  3533     0BDA  00F6               	movwf	clcd_print@str
  3534     0BDB  3084               	movlw	high (STR_29| (0+32768))
  3535     0BDC  00F7               	movwf	clcd_print@str+1
  3536     0BDD  30C0               	movlw	192
  3537     0BDE  00F8               	movwf	clcd_print@addr
  3538     0BDF  120A  158A  210B  120A  158A  	fcall	_clcd_print
  3539                           
  3540                           ;/home/santhoshtk/Desktop/EMERTXE/MC/25014_Car_Black__Box.X/25014_Car_Black_Box.X/dashbo
      +                          ard.c: 306:  put_s("# TIME     EV SP\n");
  3541     0BE4  3000               	movlw	low (STR_30| (0+32768))
  3542     0BE5  00F3               	movwf	put_s@s
  3543     0BE6  3084               	movlw	high (STR_30| (0+32768))
  3544     0BE7  00F4               	movwf	put_s@s+1
  3545     0BE8  120A  158A  203D  120A  158A  	fcall	_put_s
  3546     0BED                     l3430:
  3547                           
  3548                           ;/home/santhoshtk/Desktop/EMERTXE/MC/25014_Car_Black__Box.X/25014_Car_Black_Box.X/dashbo
      +                          ard.c: 309:  for(unsigned int i = 0; i < event_count; i++){
  3549     0BED  1283               	bcf	3,5	;RP0=0, select bank0
  3550     0BEE  1303               	bcf	3,6	;RP1=0, select bank0
  3551     0BEF  01AD               	clrf	download_log@i
  3552     0BF0  01AE               	clrf	download_log@i+1
  3553     0BF1  2C1E               	goto	l3440
  3554     0BF2                     l3432:
  3555                           
  3556                           ;/home/santhoshtk/Desktop/EMERTXE/MC/25014_Car_Black__Box.X/25014_Car_Black_Box.X/dashbo
      +                          ard.c: 310:   read_and_format_log(i);
  3557     0BF2  082D               	movf	download_log@i,w
  3558     0BF3  120A  158A  2568  120A  158A  	fcall	_read_and_format_log
  3559                           
  3560                           ;/home/santhoshtk/Desktop/EMERTXE/MC/25014_Car_Black__Box.X/25014_Car_Black_Box.X/dashbo
      +                          ard.c: 311:   put_s(logs);
  3561     0BF8  30BE               	movlw	(low (_logs| 0))& (0+255)
  3562     0BF9  00F3               	movwf	put_s@s
  3563     0BFA  3000               	movlw	0
  3564     0BFB  00F4               	movwf	put_s@s+1
  3565     0BFC  120A  158A  203D  120A  158A  	fcall	_put_s
  3566     0C01                     l3434:
  3567                           
  3568                           ;/home/santhoshtk/Desktop/EMERTXE/MC/25014_Car_Black__Box.X/25014_Car_Black_Box.X/dashbo
      +                          ard.c: 312:   put_char('\n');
  3569     0C01  300A               	movlw	10
  3570     0C02  160A  118A  26F8  120A  158A  	fcall	_put_char
  3571     0C07                     l3436:
  3572                           
  3573                           ;/home/santhoshtk/Desktop/EMERTXE/MC/25014_Car_Black__Box.X/25014_Car_Black_Box.X/dashbo
      +                          ard.c: 314:   _delay((unsigned long)((500)*(20000000/4000.0)));
  3574     0C07  300D               	movlw	13
  3575     0C08  1283               	bcf	3,5	;RP0=0, select bank0
  3576     0C09  1303               	bcf	3,6	;RP1=0, select bank0
  3577     0C0A  00AC               	movwf	??_download_log+2
  3578     0C0B  30AF               	movlw	175
  3579     0C0C  00AB               	movwf	??_download_log+1
  3580     0C0D  30B5               	movlw	181
  3581     0C0E  00AA               	movwf	??_download_log
  3582     0C0F                     u4897:
  3583     0C0F  0BAA               	decfsz	??_download_log,f
  3584     0C10  2C0F               	goto	u4897
  3585     0C11  0BAB               	decfsz	??_download_log+1,f
  3586     0C12  2C0F               	goto	u4897
  3587     0C13  0BAC               	decfsz	??_download_log+2,f
  3588     0C14  2C0F               	goto	u4897
  3589     0C15  2C16               	nop2
  3590     0C16                     l3438:
  3591                           
  3592                           ;/home/santhoshtk/Desktop/EMERTXE/MC/25014_Car_Black__Box.X/25014_Car_Black_Box.X/dashbo
      +                          ard.c: 315:  }
  3593     0C16  3001               	movlw	1
  3594     0C17  1283               	bcf	3,5	;RP0=0, select bank0
  3595     0C18  1303               	bcf	3,6	;RP1=0, select bank0
  3596     0C19  07AD               	addwf	download_log@i,f
  3597     0C1A  1803               	skipnc
  3598     0C1B  0AAE               	incf	download_log@i+1,f
  3599     0C1C  3000               	movlw	0
  3600     0C1D  07AE               	addwf	download_log@i+1,f
  3601     0C1E                     l3440:
  3602     0C1E  0856               	movf	_event_count+1,w
  3603     0C1F  022E               	subwf	download_log@i+1,w
  3604     0C20  1D03               	skipz
  3605     0C21  2C24               	goto	u3945
  3606     0C22  0855               	movf	_event_count,w
  3607     0C23  022D               	subwf	download_log@i,w
  3608     0C24                     u3945:
  3609     0C24  1C03               	skipc
  3610     0C25  2C27               	goto	u3941
  3611     0C26  2C28               	goto	u3940
  3612     0C27                     u3941:
  3613     0C27  2BF2               	goto	l3432
  3614     0C28                     u3940:
  3615     0C28                     l259:
  3616     0C28  0008               	return
  3617     0C29                     __end_of_download_log:
  3618                           
  3619                           	psect	text7
  3620     0D68                     __ptext7:	
  3621 ;; *************** function _read_and_format_log *****************
  3622 ;; Defined at:
  3623 ;;		line 225 in file "/home/santhoshtk/Desktop/EMERTXE/MC/25014_Car_Black__Box.X/25014_Car_Black_Box.X/dashboard.c"
  3624 ;; Parameters:    Size  Location     Type
  3625 ;;  index           1    wreg     unsigned char 
  3626 ;; Auto vars:     Size  Location     Type
  3627 ;;  index           1    7[BANK0 ] unsigned char 
  3628 ;;  i               2    8[BANK0 ] unsigned int 
  3629 ;;  col             2    5[BANK0 ] unsigned int 
  3630 ;;  log             1    4[BANK0 ] PTR unsigned char 
  3631 ;;		 -> read_event@event(11), 
  3632 ;; Return value:  Size  Location     Type
  3633 ;;                  1    wreg      void 
  3634 ;; Registers used:
  3635 ;;		wreg, fsr0l, fsr0h, status,2, status,0, pclath, btemp1, cstack
  3636 ;; Tracked objects:
  3637 ;;		On entry : 0/0
  3638 ;;		On exit  : 0/0
  3639 ;;		Unchanged: 0/0
  3640 ;; Data sizes:     COMMON   BANK0   BANK1   BANK3   BANK2
  3641 ;;      Params:         0       0       0       0       0
  3642 ;;      Locals:         0       6       0       0       0
  3643 ;;      Temps:          0       2       0       0       0
  3644 ;;      Totals:         0       8       0       0       0
  3645 ;;Total ram usage:        8 bytes
  3646 ;; Hardware stack levels used: 1
  3647 ;; Hardware stack levels required when called: 1
  3648 ;; This function calls:
  3649 ;;		___wmul
  3650 ;;		_read_event
  3651 ;; This function is called by:
  3652 ;;		_view_log
  3653 ;;		_download_log
  3654 ;; This function uses a non-reentrant model
  3655 ;;
  3656                           
  3657     0D68                     _read_and_format_log:	
  3658                           ;psect for function _read_and_format_log
  3659                           
  3660                           
  3661                           ;incstack = 0
  3662                           ; Regs used in _read_and_format_log: [wreg-fsr0h+status,2+status,0+pclath+btemp1+cstack]
  3663                           ;read_and_format_log@index stored from wreg
  3664     0D68  1283               	bcf	3,5	;RP0=0, select bank0
  3665     0D69  1303               	bcf	3,6	;RP1=0, select bank0
  3666     0D6A  00A7               	movwf	read_and_format_log@index
  3667     0D6B                     l3162:
  3668                           
  3669                           ;/home/santhoshtk/Desktop/EMERTXE/MC/25014_Car_Black__Box.X/25014_Car_Black_Box.X/dashbo
      +                          ard.c: 227:  char *log = read_event(index * 10);
  3670     0D6B  0827               	movf	read_and_format_log@index,w
  3671     0D6C  00A2               	movwf	??_read_and_format_log
  3672     0D6D  01A3               	clrf	??_read_and_format_log+1
  3673     0D6E  0822               	movf	??_read_and_format_log,w
  3674     0D6F  00F2               	movwf	___wmul@multiplier
  3675     0D70  0823               	movf	??_read_and_format_log+1,w
  3676     0D71  00F3               	movwf	___wmul@multiplier+1
  3677     0D72  300A               	movlw	10
  3678     0D73  00F4               	movwf	___wmul@multiplicand
  3679     0D74  3000               	movlw	0
  3680     0D75  00F5               	movwf	___wmul@multiplicand+1
  3681     0D76  120A  158A  2018  120A  158A  	fcall	___wmul
  3682     0D7B  0873               	movf	?___wmul+1,w
  3683     0D7C  00F9               	movwf	read_event@addr+1
  3684     0D7D  0872               	movf	?___wmul,w
  3685     0D7E  00F8               	movwf	read_event@addr
  3686     0D7F  160A  118A  27DD  120A  158A  	fcall	_read_event
  3687     0D84  1283               	bcf	3,5	;RP0=0, select bank0
  3688     0D85  1303               	bcf	3,6	;RP1=0, select bank0
  3689     0D86  00A4               	movwf	read_and_format_log@log
  3690     0D87                     l3164:
  3691                           
  3692                           ;/home/santhoshtk/Desktop/EMERTXE/MC/25014_Car_Black__Box.X/25014_Car_Black_Box.X/dashbo
      +                          ard.c: 228:  unsigned int col = 0;
  3693     0D87  01A5               	clrf	read_and_format_log@col
  3694     0D88  01A6               	clrf	read_and_format_log@col+1
  3695     0D89                     l3166:
  3696                           
  3697                           ;/home/santhoshtk/Desktop/EMERTXE/MC/25014_Car_Black__Box.X/25014_Car_Black_Box.X/dashbo
      +                          ard.c: 230:  for(unsigned int i = 0; i < 16; i++){
  3698     0D89  01A8               	clrf	read_and_format_log@i
  3699     0D8A  01A9               	clrf	read_and_format_log@i+1
  3700     0D8B                     l3172:
  3701                           
  3702                           ;/home/santhoshtk/Desktop/EMERTXE/MC/25014_Car_Black__Box.X/25014_Car_Black_Box.X/dashbo
      +                          ard.c: 232:   if(i == 0) logs[i] = index + '0';
  3703     0D8B  0828               	movf	read_and_format_log@i,w
  3704     0D8C  0429               	iorwf	read_and_format_log@i+1,w
  3705     0D8D  1D03               	btfss	3,2
  3706     0D8E  2D90               	goto	u3461
  3707     0D8F  2D91               	goto	u3460
  3708     0D90                     u3461:
  3709     0D90  2D99               	goto	l3176
  3710     0D91                     u3460:
  3711     0D91                     l3174:
  3712     0D91  0828               	movf	read_and_format_log@i,w
  3713     0D92  3EBE               	addlw	(low (_logs| 0))& (0+255)
  3714     0D93  0084               	movwf	4
  3715     0D94  0827               	movf	read_and_format_log@index,w
  3716     0D95  3E30               	addlw	48
  3717     0D96  1383               	bcf	3,7	;select IRP bank1
  3718     0D97  0080               	movwf	0
  3719     0D98  2DDC               	goto	l3194
  3720     0D99                     l3176:
  3721     0D99  3004               	movlw	4
  3722     0D9A  0628               	xorwf	read_and_format_log@i,w
  3723     0D9B  0429               	iorwf	read_and_format_log@i+1,w
  3724     0D9C  1903               	btfsc	3,2
  3725     0D9D  2D9F               	goto	u3471
  3726     0D9E  2DA0               	goto	u3470
  3727     0D9F                     u3471:
  3728     0D9F  2DA7               	goto	l3180
  3729     0DA0                     u3470:
  3730     0DA0                     l3178:
  3731     0DA0  3007               	movlw	7
  3732     0DA1  0628               	xorwf	read_and_format_log@i,w
  3733     0DA2  0429               	iorwf	read_and_format_log@i+1,w
  3734     0DA3  1D03               	btfss	3,2
  3735     0DA4  2DA6               	goto	u3481
  3736     0DA5  2DA7               	goto	u3480
  3737     0DA6                     u3481:
  3738     0DA6  2DAE               	goto	l3182
  3739     0DA7                     u3480:
  3740     0DA7                     l3180:
  3741     0DA7  0828               	movf	read_and_format_log@i,w
  3742     0DA8  3EBE               	addlw	(low (_logs| 0))& (0+255)
  3743     0DA9  0084               	movwf	4
  3744     0DAA  303A               	movlw	58
  3745     0DAB  1383               	bcf	3,7	;select IRP bank1
  3746     0DAC  0080               	movwf	0
  3747     0DAD  2DDC               	goto	l3194
  3748     0DAE                     l3182:
  3749     0DAE  0328               	decf	read_and_format_log@i,w
  3750     0DAF  0429               	iorwf	read_and_format_log@i+1,w
  3751     0DB0  1903               	btfsc	3,2
  3752     0DB1  2DB3               	goto	u3491
  3753     0DB2  2DB4               	goto	u3490
  3754     0DB3                     u3491:
  3755     0DB3  2DC2               	goto	l3188
  3756     0DB4                     u3490:
  3757     0DB4                     l3184:
  3758     0DB4  300A               	movlw	10
  3759     0DB5  0628               	xorwf	read_and_format_log@i,w
  3760     0DB6  0429               	iorwf	read_and_format_log@i+1,w
  3761     0DB7  1903               	btfsc	3,2
  3762     0DB8  2DBA               	goto	u3501
  3763     0DB9  2DBB               	goto	u3500
  3764     0DBA                     u3501:
  3765     0DBA  2DC2               	goto	l3188
  3766     0DBB                     u3500:
  3767     0DBB                     l3186:
  3768     0DBB  300D               	movlw	13
  3769     0DBC  0628               	xorwf	read_and_format_log@i,w
  3770     0DBD  0429               	iorwf	read_and_format_log@i+1,w
  3771     0DBE  1D03               	btfss	3,2
  3772     0DBF  2DC1               	goto	u3511
  3773     0DC0  2DC2               	goto	u3510
  3774     0DC1                     u3511:
  3775     0DC1  2DC9               	goto	l3190
  3776     0DC2                     u3510:
  3777     0DC2                     l3188:
  3778     0DC2  0828               	movf	read_and_format_log@i,w
  3779     0DC3  3EBE               	addlw	(low (_logs| 0))& (0+255)
  3780     0DC4  0084               	movwf	4
  3781     0DC5  3020               	movlw	32
  3782     0DC6  1383               	bcf	3,7	;select IRP bank1
  3783     0DC7  0080               	movwf	0
  3784     0DC8  2DDC               	goto	l3194
  3785     0DC9                     l3190:
  3786                           
  3787                           ;/home/santhoshtk/Desktop/EMERTXE/MC/25014_Car_Black__Box.X/25014_Car_Black_Box.X/dashbo
      +                          ard.c: 239:    logs[i] = log[col++];
  3788     0DC9  0825               	movf	read_and_format_log@col,w
  3789     0DCA  0724               	addwf	read_and_format_log@log,w
  3790     0DCB  00A2               	movwf	??_read_and_format_log
  3791     0DCC  0822               	movf	??_read_and_format_log,w
  3792     0DCD  0084               	movwf	4
  3793     0DCE  1383               	bcf	3,7	;select IRP bank0
  3794     0DCF  0800               	movf	0,w
  3795     0DD0  00FF               	movwf	btemp1
  3796     0DD1  0828               	movf	read_and_format_log@i,w
  3797     0DD2  3EBE               	addlw	(low (_logs| 0))& (0+255)
  3798     0DD3  0084               	movwf	4
  3799     0DD4  087F               	movf	btemp1,w
  3800     0DD5  0080               	movwf	0
  3801     0DD6                     l3192:
  3802     0DD6  3001               	movlw	1
  3803     0DD7  07A5               	addwf	read_and_format_log@col,f
  3804     0DD8  1803               	skipnc
  3805     0DD9  0AA6               	incf	read_and_format_log@col+1,f
  3806     0DDA  3000               	movlw	0
  3807     0DDB  07A6               	addwf	read_and_format_log@col+1,f
  3808     0DDC                     l3194:
  3809                           
  3810                           ;/home/santhoshtk/Desktop/EMERTXE/MC/25014_Car_Black__Box.X/25014_Car_Black_Box.X/dashbo
      +                          ard.c: 241:  }
  3811     0DDC  3001               	movlw	1
  3812     0DDD  07A8               	addwf	read_and_format_log@i,f
  3813     0DDE  1803               	skipnc
  3814     0DDF  0AA9               	incf	read_and_format_log@i+1,f
  3815     0DE0  3000               	movlw	0
  3816     0DE1  07A9               	addwf	read_and_format_log@i+1,f
  3817     0DE2                     l3196:
  3818     0DE2  3000               	movlw	0
  3819     0DE3  0229               	subwf	read_and_format_log@i+1,w
  3820     0DE4  3010               	movlw	16
  3821     0DE5  1903               	skipnz
  3822     0DE6  0228               	subwf	read_and_format_log@i,w
  3823     0DE7  1C03               	skipc
  3824     0DE8  2DEA               	goto	u3521
  3825     0DE9  2DEB               	goto	u3520
  3826     0DEA                     u3521:
  3827     0DEA  2D8B               	goto	l3172
  3828     0DEB                     u3520:
  3829     0DEB                     l3198:
  3830                           
  3831                           ;/home/santhoshtk/Desktop/EMERTXE/MC/25014_Car_Black__Box.X/25014_Car_Black_Box.X/dashbo
      +                          ard.c: 243:  logs[16] = '\0';
  3832     0DEB  1683               	bsf	3,5	;RP0=1, select bank1
  3833     0DEC  1303               	bcf	3,6	;RP1=0, select bank1
  3834     0DED  01CE               	clrf	(_logs^(0+128)+16)
  3835     0DEE                     l235:
  3836     0DEE  0008               	return
  3837     0DEF                     __end_of_read_and_format_log:
  3838                           
  3839                           	psect	text8
  3840     17DD                     __ptext8:	
  3841 ;; *************** function _read_event *****************
  3842 ;; Defined at:
  3843 ;;		line 49 in file "/home/santhoshtk/Desktop/EMERTXE/MC/25014_Car_Black__Box.X/25014_Car_Black_Box.X/dashboard.c"
  3844 ;; Parameters:    Size  Location     Type
  3845 ;;  addr            2    8[COMMON] unsigned int 
  3846 ;; Auto vars:     Size  Location     Type
  3847 ;;  i               2    0[BANK0 ] unsigned int 
  3848 ;; Return value:  Size  Location     Type
  3849 ;;                  1    8[COMMON] PTR unsigned char 
  3850 ;; Registers used:
  3851 ;;		wreg, fsr0l, fsr0h, status,2, status,0, pclath, cstack
  3852 ;; Tracked objects:
  3853 ;;		On entry : 0/0
  3854 ;;		On exit  : 0/0
  3855 ;;		Unchanged: 0/0
  3856 ;; Data sizes:     COMMON   BANK0   BANK1   BANK3   BANK2
  3857 ;;      Params:         2       0       0       0       0
  3858 ;;      Locals:         0       2       0       0       0
  3859 ;;      Temps:          0       0       0       0       0
  3860 ;;      Totals:         2       2       0       0       0
  3861 ;;Total ram usage:        4 bytes
  3862 ;; Hardware stack levels used: 1
  3863 ;; Hardware stack levels required when called: 3
  3864 ;; This function calls:
  3865 ;;		_read_external_eeprom
  3866 ;; This function is called by:
  3867 ;;		_read_and_format_log
  3868 ;; This function uses a non-reentrant model
  3869 ;;
  3870                           
  3871     17DD                     _read_event:	
  3872                           ;psect for function _read_event
  3873                           
  3874     17DD                     l3068:	
  3875                           ;incstack = 0
  3876                           ; Regs used in _read_event: [wreg-fsr0h+status,2+status,0+pclath+cstack]
  3877                           
  3878                           
  3879                           ;/home/santhoshtk/Desktop/EMERTXE/MC/25014_Car_Black__Box.X/25014_Car_Black_Box.X/dashbo
      +                          ard.c: 50:  static char event[11];;/home/santhoshtk/Desktop/EMERTXE/MC/25014_Car_Black__
      +                          Box.X/25014_Car_Black_Box.X/dashboard.c: 52:  for(unsigned int i = 0; i < 10; i++){
  3880     17DD  1283               	bcf	3,5	;RP0=0, select bank0
  3881     17DE  1303               	bcf	3,6	;RP1=0, select bank0
  3882     17DF  01A0               	clrf	read_event@i
  3883     17E0  01A1               	clrf	read_event@i+1
  3884     17E1                     l3074:
  3885                           
  3886                           ;/home/santhoshtk/Desktop/EMERTXE/MC/25014_Car_Black__Box.X/25014_Car_Black_Box.X/dashbo
      +                          ard.c: 53:   event[i] = read_external_eeprom(addr + i);
  3887     17E1  0820               	movf	read_event@i,w
  3888     17E2  3ECF               	addlw	(low (read_event@event| 0))& (0+255)
  3889     17E3  0084               	movwf	4
  3890     17E4  0820               	movf	read_event@i,w
  3891     17E5  0778               	addwf	read_event@addr,w
  3892     17E6  120A  158A  20E0  160A  118A  	fcall	_read_external_eeprom
  3893     17EB  1383               	bcf	3,7	;select IRP bank1
  3894     17EC  0080               	movwf	0
  3895     17ED                     l3076:
  3896                           
  3897                           ;/home/santhoshtk/Desktop/EMERTXE/MC/25014_Car_Black__Box.X/25014_Car_Black_Box.X/dashbo
      +                          ard.c: 54:  }
  3898     17ED  3001               	movlw	1
  3899     17EE  1283               	bcf	3,5	;RP0=0, select bank0
  3900     17EF  1303               	bcf	3,6	;RP1=0, select bank0
  3901     17F0  07A0               	addwf	read_event@i,f
  3902     17F1  1803               	skipnc
  3903     17F2  0AA1               	incf	read_event@i+1,f
  3904     17F3  3000               	movlw	0
  3905     17F4  07A1               	addwf	read_event@i+1,f
  3906     17F5                     l3078:
  3907     17F5  3000               	movlw	0
  3908     17F6  0221               	subwf	read_event@i+1,w
  3909     17F7  300A               	movlw	10
  3910     17F8  1903               	skipnz
  3911     17F9  0220               	subwf	read_event@i,w
  3912     17FA  1C03               	skipc
  3913     17FB  2FFD               	goto	u3351
  3914     17FC  2FFE               	goto	u3350
  3915     17FD                     u3351:
  3916     17FD  2FE1               	goto	l3074
  3917     17FE                     u3350:
  3918     17FE                     l3080:
  3919                           
  3920                           ;/home/santhoshtk/Desktop/EMERTXE/MC/25014_Car_Black__Box.X/25014_Car_Black_Box.X/dashbo
      +                          ard.c: 56:  return event;
  3921     17FE  30CF               	movlw	(low (read_event@event| 0))& (0+255)
  3922     17FF                     l159:
  3923     17FF  0008               	return
  3924     1800                     __end_of_read_event:
  3925                           
  3926                           	psect	text9
  3927     08E0                     __ptext9:	
  3928 ;; *************** function _read_external_eeprom *****************
  3929 ;; Defined at:
  3930 ;;		line 16 in file "/home/santhoshtk/Desktop/EMERTXE/MC/25014_Car_Black__Box.X/25014_Car_Black_Box.X/external_eeprom.c"
  3931 ;; Parameters:    Size  Location     Type
  3932 ;;  address         1    wreg     unsigned char 
  3933 ;; Auto vars:     Size  Location     Type
  3934 ;;  address         1    4[COMMON] unsigned char 
  3935 ;;  data            1    5[COMMON] unsigned char 
  3936 ;; Return value:  Size  Location     Type
  3937 ;;                  1    wreg      unsigned char 
  3938 ;; Registers used:
  3939 ;;		wreg, status,2, status,0, pclath, cstack
  3940 ;; Tracked objects:
  3941 ;;		On entry : 0/0
  3942 ;;		On exit  : 0/0
  3943 ;;		Unchanged: 0/0
  3944 ;; Data sizes:     COMMON   BANK0   BANK1   BANK3   BANK2
  3945 ;;      Params:         0       0       0       0       0
  3946 ;;      Locals:         2       0       0       0       0
  3947 ;;      Temps:          0       0       0       0       0
  3948 ;;      Totals:         2       0       0       0       0
  3949 ;;Total ram usage:        2 bytes
  3950 ;; Hardware stack levels used: 1
  3951 ;; Hardware stack levels required when called: 2
  3952 ;; This function calls:
  3953 ;;		_i2c_read
  3954 ;;		_i2c_rep_start
  3955 ;;		_i2c_start
  3956 ;;		_i2c_stop
  3957 ;;		_i2c_write
  3958 ;; This function is called by:
  3959 ;;		_read_event
  3960 ;; This function uses a non-reentrant model
  3961 ;;
  3962                           
  3963     08E0                     _read_external_eeprom:	
  3964                           ;psect for function _read_external_eeprom
  3965                           
  3966                           
  3967                           ;incstack = 0
  3968                           ; Regs used in _read_external_eeprom: [wreg+status,2+status,0+pclath+cstack]
  3969                           ;read_external_eeprom@address stored from wreg
  3970     08E0  00F4               	movwf	read_external_eeprom@address
  3971     08E1                     l3054:
  3972                           
  3973                           ;/home/santhoshtk/Desktop/EMERTXE/MC/25014_Car_Black__Box.X/25014_Car_Black_Box.X/extern
      +                          al_eeprom.c: 16: unsigned char read_external_eeprom(unsigned char address);/home/santhos
      +                          htk/Desktop/EMERTXE/MC/25014_Car_Black__Box.X/25014_Car_Black_Box.X/external_eeprom.c: 1
      +                          7: {;/home/santhoshtk/Desktop/EMERTXE/MC/25014_Car_Black__Box.X/25014_Car_Black_Box.X/ex
      +                          ternal_eeprom.c: 18:     unsigned char data;;/home/santhoshtk/Desktop/EMERTXE/MC/25014_C
      +                          ar_Black__Box.X/25014_Car_Black_Box.X/external_eeprom.c: 20:     i2c_start();
  3974     08E1  160A  118A  26BB  120A  158A  	fcall	_i2c_start
  3975                           
  3976                           ;/home/santhoshtk/Desktop/EMERTXE/MC/25014_Car_Black__Box.X/25014_Car_Black_Box.X/extern
      +                          al_eeprom.c: 21:     i2c_write(0xA0);
  3977     08E6  30A0               	movlw	160
  3978     08E7  160A  118A  26E2  120A  158A  	fcall	_i2c_write
  3979                           
  3980                           ;/home/santhoshtk/Desktop/EMERTXE/MC/25014_Car_Black__Box.X/25014_Car_Black_Box.X/extern
      +                          al_eeprom.c: 22:     i2c_write(address);
  3981     08EC  0874               	movf	read_external_eeprom@address,w
  3982     08ED  160A  118A  26E2  120A  158A  	fcall	_i2c_write
  3983                           
  3984                           ;/home/santhoshtk/Desktop/EMERTXE/MC/25014_Car_Black__Box.X/25014_Car_Black_Box.X/extern
      +                          al_eeprom.c: 23:     i2c_rep_start();
  3985     08F2  160A  118A  26D7  120A  158A  	fcall	_i2c_rep_start
  3986                           
  3987                           ;/home/santhoshtk/Desktop/EMERTXE/MC/25014_Car_Black__Box.X/25014_Car_Black_Box.X/extern
      +                          al_eeprom.c: 24:     i2c_write(0xA1);
  3988     08F7  30A1               	movlw	161
  3989     08F8  160A  118A  26E2  120A  158A  	fcall	_i2c_write
  3990                           
  3991                           ;/home/santhoshtk/Desktop/EMERTXE/MC/25014_Car_Black__Box.X/25014_Car_Black_Box.X/extern
      +                          al_eeprom.c: 25:     data = i2c_read(0);
  3992     08FD  3000               	movlw	0
  3993     08FE  160A  118A  27BC  120A  158A  	fcall	_i2c_read
  3994     0903  00F5               	movwf	read_external_eeprom@data
  3995                           
  3996                           ;/home/santhoshtk/Desktop/EMERTXE/MC/25014_Car_Black__Box.X/25014_Car_Black_Box.X/extern
      +                          al_eeprom.c: 26:     i2c_stop();
  3997     0904  160A  118A  26C4  120A  158A  	fcall	_i2c_stop
  3998     0909                     l3056:
  3999                           
  4000                           ;/home/santhoshtk/Desktop/EMERTXE/MC/25014_Car_Black__Box.X/25014_Car_Black_Box.X/extern
      +                          al_eeprom.c: 28:     return data;
  4001     0909  0875               	movf	read_external_eeprom@data,w
  4002     090A                     l352:
  4003     090A  0008               	return
  4004     090B                     __end_of_read_external_eeprom:
  4005                           
  4006                           	psect	text10
  4007     0818                     __ptext10:	
  4008 ;; *************** function ___wmul *****************
  4009 ;; Defined at:
  4010 ;;		line 15 in file "/opt/microchip/xc8/v3.10/pic/sources/c99/common/Umul16.c"
  4011 ;; Parameters:    Size  Location     Type
  4012 ;;  multiplier      2    2[COMMON] unsigned int 
  4013 ;;  multiplicand    2    4[COMMON] unsigned int 
  4014 ;; Auto vars:     Size  Location     Type
  4015 ;;  product         2    6[COMMON] unsigned int 
  4016 ;; Return value:  Size  Location     Type
  4017 ;;                  2    2[COMMON] unsigned int 
  4018 ;; Registers used:
  4019 ;;		wreg, status,2, status,0
  4020 ;; Tracked objects:
  4021 ;;		On entry : 0/0
  4022 ;;		On exit  : 0/0
  4023 ;;		Unchanged: 0/0
  4024 ;; Data sizes:     COMMON   BANK0   BANK1   BANK3   BANK2
  4025 ;;      Params:         4       0       0       0       0
  4026 ;;      Locals:         2       0       0       0       0
  4027 ;;      Temps:          0       0       0       0       0
  4028 ;;      Totals:         6       0       0       0       0
  4029 ;;Total ram usage:        6 bytes
  4030 ;; Hardware stack levels used: 1
  4031 ;; Hardware stack levels required when called: 1
  4032 ;; This function calls:
  4033 ;;		Nothing
  4034 ;; This function is called by:
  4035 ;;		_read_and_format_log
  4036 ;;		_set_time
  4037 ;; This function uses a non-reentrant model
  4038 ;;
  4039                           
  4040     0818                     ___wmul:	
  4041                           ;psect for function ___wmul
  4042                           
  4043     0818                     l3086:	
  4044                           ;incstack = 0
  4045                           ; Regs used in ___wmul: [wreg+status,2+status,0]
  4046                           
  4047     0818  01F6               	clrf	___wmul@product
  4048     0819  01F7               	clrf	___wmul@product+1
  4049     081A                     l3088:
  4050     081A  1C72               	btfss	___wmul@multiplier,0
  4051     081B  281D               	goto	u3371
  4052     081C  281E               	goto	u3370
  4053     081D                     u3371:
  4054     081D  2824               	goto	l594
  4055     081E                     u3370:
  4056     081E                     l3090:
  4057     081E  0874               	movf	___wmul@multiplicand,w
  4058     081F  07F6               	addwf	___wmul@product,f
  4059     0820  1803               	skipnc
  4060     0821  0AF7               	incf	___wmul@product+1,f
  4061     0822  0875               	movf	___wmul@multiplicand+1,w
  4062     0823  07F7               	addwf	___wmul@product+1,f
  4063     0824                     l594:
  4064     0824  3001               	movlw	1
  4065     0825                     u3385:
  4066     0825  1003               	clrc
  4067     0826  0DF4               	rlf	___wmul@multiplicand,f
  4068     0827  0DF5               	rlf	___wmul@multiplicand+1,f
  4069     0828  3EFF               	addlw	-1
  4070     0829  1D03               	skipz
  4071     082A  2825               	goto	u3385
  4072     082B                     l3092:
  4073     082B  3001               	movlw	1
  4074     082C                     u3395:
  4075     082C  1003               	clrc
  4076     082D  0CF3               	rrf	___wmul@multiplier+1,f
  4077     082E  0CF2               	rrf	___wmul@multiplier,f
  4078     082F  3EFF               	addlw	-1
  4079     0830  1D03               	skipz
  4080     0831  282C               	goto	u3395
  4081     0832                     l3094:
  4082     0832  0872               	movf	___wmul@multiplier,w
  4083     0833  0473               	iorwf	___wmul@multiplier+1,w
  4084     0834  1D03               	btfss	3,2
  4085     0835  2837               	goto	u3401
  4086     0836  2838               	goto	u3400
  4087     0837                     u3401:
  4088     0837  281A               	goto	l3088
  4089     0838                     u3400:
  4090     0838                     l3096:
  4091     0838  0877               	movf	___wmul@product+1,w
  4092     0839  00F3               	movwf	?___wmul+1
  4093     083A  0876               	movf	___wmul@product,w
  4094     083B  00F2               	movwf	?___wmul
  4095     083C                     l596:
  4096     083C  0008               	return
  4097     083D                     __end_of___wmul:
  4098                           
  4099                           	psect	text11
  4100     083D                     __ptext11:	
  4101 ;; *************** function _put_s *****************
  4102 ;; Defined at:
  4103 ;;		line 46 in file "/home/santhoshtk/Desktop/EMERTXE/MC/25014_Car_Black__Box.X/25014_Car_Black_Box.X/uart.c"
  4104 ;; Parameters:    Size  Location     Type
  4105 ;;  s               2    3[COMMON] PTR const unsigned char 
  4106 ;;		 -> STR_30(18), logs(17), 
  4107 ;; Auto vars:     Size  Location     Type
  4108 ;;		None
  4109 ;; Return value:  Size  Location     Type
  4110 ;;                  1    wreg      void 
  4111 ;; Registers used:
  4112 ;;		wreg, fsr0l, fsr0h, status,2, status,0, pclath, btemp1, cstack
  4113 ;; Tracked objects:
  4114 ;;		On entry : 0/0
  4115 ;;		On exit  : 0/0
  4116 ;;		Unchanged: 0/0
  4117 ;; Data sizes:     COMMON   BANK0   BANK1   BANK3   BANK2
  4118 ;;      Params:         2       0       0       0       0
  4119 ;;      Locals:         0       0       0       0       0
  4120 ;;      Temps:          0       0       0       0       0
  4121 ;;      Totals:         2       0       0       0       0
  4122 ;;Total ram usage:        2 bytes
  4123 ;; Hardware stack levels used: 1
  4124 ;; Hardware stack levels required when called: 2
  4125 ;; This function calls:
  4126 ;;		_put_char
  4127 ;; This function is called by:
  4128 ;;		_download_log
  4129 ;; This function uses a non-reentrant model
  4130 ;;
  4131                           
  4132     083D                     _put_s:	
  4133                           ;psect for function _put_s
  4134                           
  4135     083D                     l3200:	
  4136                           ;incstack = 0
  4137                           ; Regs used in _put_s: [wreg-fsr0h+status,2+status,0+pclath+btemp1+cstack]
  4138                           
  4139                           
  4140                           ;/home/santhoshtk/Desktop/EMERTXE/MC/25014_Car_Black__Box.X/25014_Car_Black_Box.X/uart.c
      +                          : 46: void put_s(const char *s);/home/santhoshtk/Desktop/EMERTXE/MC/25014_Car_Black__Box
      +                          .X/25014_Car_Black_Box.X/uart.c: 47: {;/home/santhoshtk/Desktop/EMERTXE/MC/25014_Car_Bla
      +                          ck__Box.X/25014_Car_Black_Box.X/uart.c: 48:     while (*s)
  4141     083D  2852               	goto	l3206
  4142     083E                     l3202:
  4143                           
  4144                           ;/home/santhoshtk/Desktop/EMERTXE/MC/25014_Car_Black__Box.X/25014_Car_Black_Box.X/uart.c
      +                          : 49:     {;/home/santhoshtk/Desktop/EMERTXE/MC/25014_Car_Black__Box.X/25014_Car_Black_B
      +                          ox.X/uart.c: 50:         put_char(*s++);
  4145     083E  0874               	movf	put_s@s+1,w
  4146     083F  00FF               	movwf	btemp1
  4147     0840  0873               	movf	put_s@s,w
  4148     0841  0084               	movwf	4
  4149     0842  160A  118A  2000  120A  158A  	fcall	stringtab
  4150     0847  160A  118A  26F8  120A  158A  	fcall	_put_char
  4151     084C                     l3204:
  4152     084C  3001               	movlw	1
  4153     084D  07F3               	addwf	put_s@s,f
  4154     084E  1803               	skipnc
  4155     084F  0AF4               	incf	put_s@s+1,f
  4156     0850  3000               	movlw	0
  4157     0851  07F4               	addwf	put_s@s+1,f
  4158     0852                     l3206:
  4159                           
  4160                           ;/home/santhoshtk/Desktop/EMERTXE/MC/25014_Car_Black__Box.X/25014_Car_Black_Box.X/uart.c
      +                          : 48:     while (*s)
  4161     0852  0874               	movf	put_s@s+1,w
  4162     0853  1283               	bcf	3,5	;RP0=0, select bank0
  4163     0854  1303               	bcf	3,6	;RP1=0, select bank0
  4164     0855  00FF               	movwf	btemp1
  4165     0856  0873               	movf	put_s@s,w
  4166     0857  0084               	movwf	4
  4167     0858  160A  118A  2000  120A  158A  	fcall	stringtab
  4168     085D  3A00               	xorlw	0
  4169     085E  1D03               	skipz
  4170     085F  2861               	goto	u3531
  4171     0860  2862               	goto	u3530
  4172     0861                     u3531:
  4173     0861  283E               	goto	l3202
  4174     0862                     u3530:
  4175     0862                     l508:
  4176     0862  0008               	return
  4177     0863                     __end_of_put_s:
  4178                           
  4179                           	psect	text12
  4180     16F8                     __ptext12:	
  4181 ;; *************** function _put_char *****************
  4182 ;; Defined at:
  4183 ;;		line 31 in file "/home/santhoshtk/Desktop/EMERTXE/MC/25014_Car_Black__Box.X/25014_Car_Black_Box.X/uart.c"
  4184 ;; Parameters:    Size  Location     Type
  4185 ;;  data            1    wreg     unsigned char 
  4186 ;; Auto vars:     Size  Location     Type
  4187 ;;  data            1    2[COMMON] unsigned char 
  4188 ;; Return value:  Size  Location     Type
  4189 ;;                  1    wreg      void 
  4190 ;; Registers used:
  4191 ;;		wreg
  4192 ;; Tracked objects:
  4193 ;;		On entry : 0/0
  4194 ;;		On exit  : 0/0
  4195 ;;		Unchanged: 0/0
  4196 ;; Data sizes:     COMMON   BANK0   BANK1   BANK3   BANK2
  4197 ;;      Params:         0       0       0       0       0
  4198 ;;      Locals:         1       0       0       0       0
  4199 ;;      Temps:          0       0       0       0       0
  4200 ;;      Totals:         1       0       0       0       0
  4201 ;;Total ram usage:        1 bytes
  4202 ;; Hardware stack levels used: 1
  4203 ;; Hardware stack levels required when called: 1
  4204 ;; This function calls:
  4205 ;;		Nothing
  4206 ;; This function is called by:
  4207 ;;		_download_log
  4208 ;;		_put_s
  4209 ;; This function uses a non-reentrant model
  4210 ;;
  4211                           
  4212     16F8                     _put_char:	
  4213                           ;psect for function _put_char
  4214                           
  4215                           
  4216                           ;incstack = 0
  4217                           ; Regs used in _put_char: [wreg]
  4218                           ;put_char@data stored from wreg
  4219     16F8  00F2               	movwf	put_char@data
  4220     16F9                     l3084:
  4221                           
  4222                           ;/home/santhoshtk/Desktop/EMERTXE/MC/25014_Car_Black__Box.X/25014_Car_Black_Box.X/uart.c
      +                          : 31: void put_char(unsigned char data);/home/santhoshtk/Desktop/EMERTXE/MC/25014_Car_Bl
      +                          ack__Box.X/25014_Car_Black_Box.X/uart.c: 32: {;/home/santhoshtk/Desktop/EMERTXE/MC/25014
      +                          _Car_Black__Box.X/25014_Car_Black_Box.X/uart.c: 34:     TXREG = data;
  4223     16F9  0872               	movf	put_char@data,w
  4224     16FA  1283               	bcf	3,5	;RP0=0, select bank0
  4225     16FB  1303               	bcf	3,6	;RP1=0, select bank0
  4226     16FC  0099               	movwf	25	;volatile
  4227     16FD                     l500:	
  4228                           ;/home/santhoshtk/Desktop/EMERTXE/MC/25014_Car_Black__Box.X/25014_Car_Black_Box.X/uart.c
      +                          : 40:     } while (TXIF != 1);
  4229                           
  4230     16FD  1E0C               	btfss	12,4	;volatile
  4231     16FE  2F00               	goto	u3361
  4232     16FF  2F01               	goto	u3360
  4233     1700                     u3361:
  4234     1700  2EFD               	goto	l500
  4235     1701                     u3360:
  4236     1701                     l501:
  4237                           
  4238                           ;/home/santhoshtk/Desktop/EMERTXE/MC/25014_Car_Black__Box.X/25014_Car_Black_Box.X/uart.c
      +                          : 43:     TXIF = 0;
  4239     1701  120C               	bcf	12,4	;volatile
  4240     1702                     l502:
  4241     1702  0008               	return
  4242     1703                     __end_of_put_char:
  4243                           
  4244                           	psect	text13
  4245     16AB                     __ptext13:	
  4246 ;; *************** function _clear_screen *****************
  4247 ;; Defined at:
  4248 ;;		line 75 in file "/home/santhoshtk/Desktop/EMERTXE/MC/25014_Car_Black__Box.X/25014_Car_Black_Box.X/clcd.c"
  4249 ;; Parameters:    Size  Location     Type
  4250 ;;		None
  4251 ;; Auto vars:     Size  Location     Type
  4252 ;;		None
  4253 ;; Return value:  Size  Location     Type
  4254 ;;                  1    wreg      void 
  4255 ;; Registers used:
  4256 ;;		wreg, status,2, status,0, pclath, cstack
  4257 ;; Tracked objects:
  4258 ;;		On entry : 0/0
  4259 ;;		On exit  : 0/0
  4260 ;;		Unchanged: 0/0
  4261 ;; Data sizes:     COMMON   BANK0   BANK1   BANK3   BANK2
  4262 ;;      Params:         0       0       0       0       0
  4263 ;;      Locals:         0       0       0       0       0
  4264 ;;      Temps:          0       0       0       0       0
  4265 ;;      Totals:         0       0       0       0       0
  4266 ;;Total ram usage:        0 bytes
  4267 ;; Hardware stack levels used: 1
  4268 ;; Hardware stack levels required when called: 2
  4269 ;; This function calls:
  4270 ;;		_clcd_write
  4271 ;; This function is called by:
  4272 ;;		_main_menu
  4273 ;; This function uses a non-reentrant model
  4274 ;;
  4275                           
  4276     16AB                     _clear_screen:	
  4277                           ;psect for function _clear_screen
  4278                           
  4279     16AB                     l3332:	
  4280                           ;incstack = 0
  4281                           ; Regs used in _clear_screen: [wreg+status,2+status,0+pclath+cstack]
  4282                           
  4283                           
  4284                           ;/home/santhoshtk/Desktop/EMERTXE/MC/25014_Car_Black__Box.X/25014_Car_Black_Box.X/clcd.c
      +                          : 76:     clcd_write(0x01, 0);
  4285     16AB  01F2               	clrf	clcd_write@mode
  4286     16AC  3001               	movlw	1
  4287     16AD  120A  158A  2200  160A  118A  	fcall	_clcd_write
  4288     16B2                     l102:
  4289     16B2  0008               	return
  4290     16B3                     __end_of_clear_screen:
  4291                           
  4292                           	psect	text14
  4293     177D                     __ptext14:	
  4294 ;; *************** function _clear_log *****************
  4295 ;; Defined at:
  4296 ;;		line 292 in file "/home/santhoshtk/Desktop/EMERTXE/MC/25014_Car_Black__Box.X/25014_Car_Black_Box.X/dashboard.c"
  4297 ;; Parameters:    Size  Location     Type
  4298 ;;		None
  4299 ;; Auto vars:     Size  Location     Type
  4300 ;;		None
  4301 ;; Return value:  Size  Location     Type
  4302 ;;                  1    wreg      void 
  4303 ;; Registers used:
  4304 ;;		wreg, fsr0l, fsr0h, status,2, status,0, pclath, btemp1, cstack
  4305 ;; Tracked objects:
  4306 ;;		On entry : 0/0
  4307 ;;		On exit  : 0/0
  4308 ;;		Unchanged: 0/0
  4309 ;; Data sizes:     COMMON   BANK0   BANK1   BANK3   BANK2
  4310 ;;      Params:         0       0       0       0       0
  4311 ;;      Locals:         0       0       0       0       0
  4312 ;;      Temps:          0       3       0       0       0
  4313 ;;      Totals:         0       3       0       0       0
  4314 ;;Total ram usage:        3 bytes
  4315 ;; Hardware stack levels used: 1
  4316 ;; Hardware stack levels required when called: 2
  4317 ;; This function calls:
  4318 ;;		_clcd_print
  4319 ;; This function is called by:
  4320 ;;		_main_menu
  4321 ;; This function uses a non-reentrant model
  4322 ;;
  4323                           
  4324     177D                     _clear_log:	
  4325                           ;psect for function _clear_log
  4326                           
  4327     177D                     l3420:	
  4328                           ;incstack = 0
  4329                           ; Regs used in _clear_log: [wreg-fsr0h+status,2+status,0+pclath+btemp1+cstack]
  4330                           
  4331                           
  4332                           ;/home/santhoshtk/Desktop/EMERTXE/MC/25014_Car_Black__Box.X/25014_Car_Black_Box.X/dashbo
      +                          ard.c: 293:  event_count = 0;
  4333     177D  1283               	bcf	3,5	;RP0=0, select bank0
  4334     177E  1303               	bcf	3,6	;RP1=0, select bank0
  4335     177F  01D5               	clrf	_event_count
  4336     1780  01D6               	clrf	_event_count+1
  4337     1781                     l3422:
  4338                           
  4339                           ;/home/santhoshtk/Desktop/EMERTXE/MC/25014_Car_Black__Box.X/25014_Car_Black_Box.X/dashbo
      +                          ard.c: 294:  clcd_print("Clearing Logs...", (0x80 + 0));
  4340     1781  3023               	movlw	low (STR_27| (0+32768))
  4341     1782  00F6               	movwf	clcd_print@str
  4342     1783  3084               	movlw	high (STR_27| (0+32768))
  4343     1784  00F7               	movwf	clcd_print@str+1
  4344     1785  3080               	movlw	128
  4345     1786  00F8               	movwf	clcd_print@addr
  4346     1787  120A  158A  210B  160A  118A  	fcall	_clcd_print
  4347     178C                     l3424:
  4348                           
  4349                           ;/home/santhoshtk/Desktop/EMERTXE/MC/25014_Car_Black__Box.X/25014_Car_Black_Box.X/dashbo
      +                          ard.c: 295:  _delay((unsigned long)((500)*(20000000/4000.0)));
  4350     178C  300D               	movlw	13
  4351     178D  1283               	bcf	3,5	;RP0=0, select bank0
  4352     178E  1303               	bcf	3,6	;RP1=0, select bank0
  4353     178F  00A2               	movwf	??_clear_log+2
  4354     1790  30AF               	movlw	175
  4355     1791  00A1               	movwf	??_clear_log+1
  4356     1792  30B5               	movlw	181
  4357     1793  00A0               	movwf	??_clear_log
  4358     1794                     u4907:
  4359     1794  0BA0               	decfsz	??_clear_log,f
  4360     1795  2F94               	goto	u4907
  4361     1796  0BA1               	decfsz	??_clear_log+1,f
  4362     1797  2F94               	goto	u4907
  4363     1798  0BA2               	decfsz	??_clear_log+2,f
  4364     1799  2F94               	goto	u4907
  4365     179A  2F9B               	nop2
  4366     179B                     l253:
  4367     179B  0008               	return
  4368     179C                     __end_of_clear_log:
  4369                           
  4370                           	psect	text15
  4371     09CC                     __ptext15:	
  4372 ;; *************** function _init_config *****************
  4373 ;; Defined at:
  4374 ;;		line 19 in file "/home/santhoshtk/Desktop/EMERTXE/MC/25014_Car_Black__Box.X/25014_Car_Black_Box.X/main.c"
  4375 ;; Parameters:    Size  Location     Type
  4376 ;;		None
  4377 ;; Auto vars:     Size  Location     Type
  4378 ;;		None
  4379 ;; Return value:  Size  Location     Type
  4380 ;;                  1    wreg      void 
  4381 ;; Registers used:
  4382 ;;		wreg, status,2, status,0, pclath, cstack
  4383 ;; Tracked objects:
  4384 ;;		On entry : 0/0
  4385 ;;		On exit  : 0/0
  4386 ;;		Unchanged: 0/0
  4387 ;; Data sizes:     COMMON   BANK0   BANK1   BANK3   BANK2
  4388 ;;      Params:         0       0       0       0       0
  4389 ;;      Locals:         0       0       0       0       0
  4390 ;;      Temps:          0       0       0       0       0
  4391 ;;      Totals:         0       0       0       0       0
  4392 ;;Total ram usage:        0 bytes
  4393 ;; Hardware stack levels used: 1
  4394 ;; Hardware stack levels required when called: 4
  4395 ;; This function calls:
  4396 ;;		_init_adc
  4397 ;;		_init_clcd
  4398 ;;		_init_digital_keypad
  4399 ;;		_init_ds1307
  4400 ;;		_init_i2c
  4401 ;;		_init_uart
  4402 ;; This function is called by:
  4403 ;;		_main
  4404 ;; This function uses a non-reentrant model
  4405 ;;
  4406                           
  4407     09CC                     _init_config:	
  4408                           ;psect for function _init_config
  4409                           
  4410     09CC                     l3912:	
  4411                           ;incstack = 0
  4412                           ; Regs used in _init_config: [wreg+status,2+status,0+pclath+cstack]
  4413                           
  4414                           
  4415                           ;/home/santhoshtk/Desktop/EMERTXE/MC/25014_Car_Black__Box.X/25014_Car_Black_Box.X/main.c
      +                          : 21:     init_adc();
  4416     09CC  160A  118A  26A4  120A  158A  	fcall	_init_adc
  4417     09D1                     l3914:
  4418                           
  4419                           ;/home/santhoshtk/Desktop/EMERTXE/MC/25014_Car_Black__Box.X/25014_Car_Black_Box.X/main.c
      +                          : 22:     init_clcd();
  4420     09D1  160A  118A  26ED  120A  158A  	fcall	_init_clcd
  4421     09D6                     l3916:
  4422                           
  4423                           ;/home/santhoshtk/Desktop/EMERTXE/MC/25014_Car_Black__Box.X/25014_Car_Black_Box.X/main.c
      +                          : 23:     init_digital_keypad();
  4424     09D6  160A  118A  269E  120A  158A  	fcall	_init_digital_keypad
  4425     09DB                     l3918:
  4426                           
  4427                           ;/home/santhoshtk/Desktop/EMERTXE/MC/25014_Car_Black__Box.X/25014_Car_Black_Box.X/main.c
      +                          : 24:     init_i2c(100000);
  4428     09DB  3000               	movlw	0
  4429     09DC  1283               	bcf	3,5	;RP0=0, select bank0
  4430     09DD  1303               	bcf	3,6	;RP1=0, select bank0
  4431     09DE  00A9               	movwf	init_i2c@baud+3
  4432     09DF  3001               	movlw	1
  4433     09E0  00A8               	movwf	init_i2c@baud+2
  4434     09E1  3086               	movlw	134
  4435     09E2  00A7               	movwf	init_i2c@baud+1
  4436     09E3  30A0               	movlw	160
  4437     09E4  00A6               	movwf	init_i2c@baud
  4438     09E5  120A  158A  219A  120A  158A  	fcall	_init_i2c
  4439     09EA                     l3920:
  4440                           
  4441                           ;/home/santhoshtk/Desktop/EMERTXE/MC/25014_Car_Black__Box.X/25014_Car_Black_Box.X/main.c
      +                          : 25:     init_ds1307();
  4442     09EA  160A  118A  2710  120A  158A  	fcall	_init_ds1307
  4443     09EF                     l3922:
  4444                           
  4445                           ;/home/santhoshtk/Desktop/EMERTXE/MC/25014_Car_Black__Box.X/25014_Car_Black_Box.X/main.c
      +                          : 26:     init_uart(9600);
  4446     09EF  3000               	movlw	0
  4447     09F0  1283               	bcf	3,5	;RP0=0, select bank0
  4448     09F1  1303               	bcf	3,6	;RP1=0, select bank0
  4449     09F2  00A9               	movwf	init_uart@baud+3
  4450     09F3  3000               	movlw	0
  4451     09F4  00A8               	movwf	init_uart@baud+2
  4452     09F5  3025               	movlw	37
  4453     09F6  00A7               	movwf	init_uart@baud+1
  4454     09F7  3080               	movlw	128
  4455     09F8  00A6               	movwf	init_uart@baud
  4456     09F9  120A  158A  216A  120A  158A  	fcall	_init_uart
  4457     09FE                     l3924:
  4458                           
  4459                           ;/home/santhoshtk/Desktop/EMERTXE/MC/25014_Car_Black__Box.X/25014_Car_Black_Box.X/main.c
      +                          : 28:     GIE = 1;
  4460     09FE  178B               	bsf	11,7	;volatile
  4461     09FF                     l446:
  4462     09FF  0008               	return
  4463     0A00                     __end_of_init_config:
  4464                           
  4465                           	psect	text16
  4466     096A                     __ptext16:	
  4467 ;; *************** function _init_uart *****************
  4468 ;; Defined at:
  4469 ;;		line 4 in file "/home/santhoshtk/Desktop/EMERTXE/MC/25014_Car_Black__Box.X/25014_Car_Black_Box.X/uart.c"
  4470 ;; Parameters:    Size  Location     Type
  4471 ;;  baud            4    6[BANK0 ] unsigned long 
  4472 ;; Auto vars:     Size  Location     Type
  4473 ;;		None
  4474 ;; Return value:  Size  Location     Type
  4475 ;;                  1    wreg      void 
  4476 ;; Registers used:
  4477 ;;		wreg, status,2, status,0, pclath, cstack
  4478 ;; Tracked objects:
  4479 ;;		On entry : 0/0
  4480 ;;		On exit  : 0/0
  4481 ;;		Unchanged: 0/0
  4482 ;; Data sizes:     COMMON   BANK0   BANK1   BANK3   BANK2
  4483 ;;      Params:         0       4       0       0       0
  4484 ;;      Locals:         0       0       0       0       0
  4485 ;;      Temps:          0       4       0       0       0
  4486 ;;      Totals:         0       8       0       0       0
  4487 ;;Total ram usage:        8 bytes
  4488 ;; Hardware stack levels used: 1
  4489 ;; Hardware stack levels required when called: 2
  4490 ;; This function calls:
  4491 ;;		___lldiv
  4492 ;; This function is called by:
  4493 ;;		_init_config
  4494 ;; This function uses a non-reentrant model
  4495 ;;
  4496                           
  4497     096A                     _init_uart:	
  4498                           ;psect for function _init_uart
  4499                           
  4500     096A                     l3508:	
  4501                           ;incstack = 0
  4502                           ; Regs used in _init_uart: [wreg+status,2+status,0+pclath+cstack]
  4503                           
  4504                           
  4505                           ;/home/santhoshtk/Desktop/EMERTXE/MC/25014_Car_Black__Box.X/25014_Car_Black_Box.X/uart.c
      +                          : 4: void init_uart(unsigned long baud);/home/santhoshtk/Desktop/EMERTXE/MC/25014_Car_Bl
      +                          ack__Box.X/25014_Car_Black_Box.X/uart.c: 5: {;/home/santhoshtk/Desktop/EMERTXE/MC/25014_
      +                          Car_Black__Box.X/25014_Car_Black_Box.X/uart.c: 7:     SPEN = 1;
  4506     096A  1283               	bcf	3,5	;RP0=0, select bank0
  4507     096B  1303               	bcf	3,6	;RP1=0, select bank0
  4508     096C  1798               	bsf	24,7	;volatile
  4509                           
  4510                           ;/home/santhoshtk/Desktop/EMERTXE/MC/25014_Car_Black__Box.X/25014_Car_Black_Box.X/uart.c
      +                          : 10:     CREN = 1;
  4511     096D  1618               	bsf	24,4	;volatile
  4512     096E                     l3510:
  4513                           
  4514                           ;/home/santhoshtk/Desktop/EMERTXE/MC/25014_Car_Black__Box.X/25014_Car_Black_Box.X/uart.c
      +                          : 13:     SPBRG = (20000000 / (16 * baud)) - 1;
  4515     096E  0826               	movf	init_uart@baud,w
  4516     096F  00AA               	movwf	??_init_uart
  4517     0970  0827               	movf	init_uart@baud+1,w
  4518     0971  00AB               	movwf	??_init_uart+1
  4519     0972  0828               	movf	init_uart@baud+2,w
  4520     0973  00AC               	movwf	??_init_uart+2
  4521     0974  0829               	movf	init_uart@baud+3,w
  4522     0975  00AD               	movwf	??_init_uart+3
  4523     0976  3004               	movlw	4
  4524     0977                     u4035:
  4525     0977  1003               	clrc
  4526     0978  0DAA               	rlf	??_init_uart,f
  4527     0979  0DAB               	rlf	??_init_uart+1,f
  4528     097A  0DAC               	rlf	??_init_uart+2,f
  4529     097B  0DAD               	rlf	??_init_uart+3,f
  4530     097C                     u4030:
  4531     097C  3EFF               	addlw	-1
  4532     097D  1D03               	skipz
  4533     097E  2977               	goto	u4035
  4534     097F  082D               	movf	??_init_uart+3,w
  4535     0980  00F5               	movwf	___lldiv@divisor+3
  4536     0981  082C               	movf	??_init_uart+2,w
  4537     0982  00F4               	movwf	___lldiv@divisor+2
  4538     0983  082B               	movf	??_init_uart+1,w
  4539     0984  00F3               	movwf	___lldiv@divisor+1
  4540     0985  082A               	movf	??_init_uart,w
  4541     0986  00F2               	movwf	___lldiv@divisor
  4542     0987  3001               	movlw	1
  4543     0988  00F9               	movwf	___lldiv@dividend+3
  4544     0989  3031               	movlw	49
  4545     098A  00F8               	movwf	___lldiv@dividend+2
  4546     098B  302D               	movlw	45
  4547     098C  00F7               	movwf	___lldiv@dividend+1
  4548     098D  3000               	movlw	0
  4549     098E  00F6               	movwf	___lldiv@dividend
  4550     098F  120A  158A  248C  120A  158A  	fcall	___lldiv
  4551     0994  0872               	movf	?___lldiv,w
  4552     0995  3EFF               	addlw	255
  4553     0996  1683               	bsf	3,5	;RP0=1, select bank1
  4554     0997  1303               	bcf	3,6	;RP1=0, select bank1
  4555     0998  0099               	movwf	25	;volatile
  4556     0999                     l490:
  4557     0999  0008               	return
  4558     099A                     __end_of_init_uart:
  4559                           
  4560                           	psect	text17
  4561     099A                     __ptext17:	
  4562 ;; *************** function _init_i2c *****************
  4563 ;; Defined at:
  4564 ;;		line 4 in file "/home/santhoshtk/Desktop/EMERTXE/MC/25014_Car_Black__Box.X/25014_Car_Black_Box.X/i2c.c"
  4565 ;; Parameters:    Size  Location     Type
  4566 ;;  baud            4    6[BANK0 ] unsigned long 
  4567 ;; Auto vars:     Size  Location     Type
  4568 ;;		None
  4569 ;; Return value:  Size  Location     Type
  4570 ;;                  1    wreg      void 
  4571 ;; Registers used:
  4572 ;;		wreg, status,2, status,0, pclath, cstack
  4573 ;; Tracked objects:
  4574 ;;		On entry : 0/0
  4575 ;;		On exit  : 0/0
  4576 ;;		Unchanged: 0/0
  4577 ;; Data sizes:     COMMON   BANK0   BANK1   BANK3   BANK2
  4578 ;;      Params:         0       4       0       0       0
  4579 ;;      Locals:         0       0       0       0       0
  4580 ;;      Temps:          0       4       0       0       0
  4581 ;;      Totals:         0       8       0       0       0
  4582 ;;Total ram usage:        8 bytes
  4583 ;; Hardware stack levels used: 1
  4584 ;; Hardware stack levels required when called: 2
  4585 ;; This function calls:
  4586 ;;		___lldiv
  4587 ;; This function is called by:
  4588 ;;		_init_config
  4589 ;; This function uses a non-reentrant model
  4590 ;;
  4591                           
  4592     099A                     _init_i2c:	
  4593                           ;psect for function _init_i2c
  4594                           
  4595     099A                     l3502:	
  4596                           ;incstack = 0
  4597                           ; Regs used in _init_i2c: [wreg+status,2+status,0+pclath+cstack]
  4598                           
  4599                           
  4600                           ;/home/santhoshtk/Desktop/EMERTXE/MC/25014_Car_Black__Box.X/25014_Car_Black_Box.X/i2c.c:
      +                           4: void init_i2c(unsigned long baud);/home/santhoshtk/Desktop/EMERTXE/MC/25014_Car_Blac
      +                          k__Box.X/25014_Car_Black_Box.X/i2c.c: 5: {;/home/santhoshtk/Desktop/EMERTXE/MC/25014_Car
      +                          _Black__Box.X/25014_Car_Black_Box.X/i2c.c: 7:     SSPM3 = 1;
  4601     099A  1283               	bcf	3,5	;RP0=0, select bank0
  4602     099B  1303               	bcf	3,6	;RP1=0, select bank0
  4603     099C  1594               	bsf	20,3	;volatile
  4604     099D                     l3504:
  4605                           
  4606                           ;/home/santhoshtk/Desktop/EMERTXE/MC/25014_Car_Black__Box.X/25014_Car_Black_Box.X/i2c.c:
      +                           10:     SSPADD = (unsigned char)(20000000 / (4 * baud)) - 1;
  4607     099D  0826               	movf	init_i2c@baud,w
  4608     099E  00AA               	movwf	??_init_i2c
  4609     099F  0827               	movf	init_i2c@baud+1,w
  4610     09A0  00AB               	movwf	??_init_i2c+1
  4611     09A1  0828               	movf	init_i2c@baud+2,w
  4612     09A2  00AC               	movwf	??_init_i2c+2
  4613     09A3  0829               	movf	init_i2c@baud+3,w
  4614     09A4  00AD               	movwf	??_init_i2c+3
  4615     09A5  3002               	movlw	2
  4616     09A6                     u4025:
  4617     09A6  1003               	clrc
  4618     09A7  0DAA               	rlf	??_init_i2c,f
  4619     09A8  0DAB               	rlf	??_init_i2c+1,f
  4620     09A9  0DAC               	rlf	??_init_i2c+2,f
  4621     09AA  0DAD               	rlf	??_init_i2c+3,f
  4622     09AB                     u4020:
  4623     09AB  3EFF               	addlw	-1
  4624     09AC  1D03               	skipz
  4625     09AD  29A6               	goto	u4025
  4626     09AE  082D               	movf	??_init_i2c+3,w
  4627     09AF  00F5               	movwf	___lldiv@divisor+3
  4628     09B0  082C               	movf	??_init_i2c+2,w
  4629     09B1  00F4               	movwf	___lldiv@divisor+2
  4630     09B2  082B               	movf	??_init_i2c+1,w
  4631     09B3  00F3               	movwf	___lldiv@divisor+1
  4632     09B4  082A               	movf	??_init_i2c,w
  4633     09B5  00F2               	movwf	___lldiv@divisor
  4634     09B6  3001               	movlw	1
  4635     09B7  00F9               	movwf	___lldiv@dividend+3
  4636     09B8  3031               	movlw	49
  4637     09B9  00F8               	movwf	___lldiv@dividend+2
  4638     09BA  302D               	movlw	45
  4639     09BB  00F7               	movwf	___lldiv@dividend+1
  4640     09BC  3000               	movlw	0
  4641     09BD  00F6               	movwf	___lldiv@dividend
  4642     09BE  120A  158A  248C  120A  158A  	fcall	___lldiv
  4643     09C3  0872               	movf	?___lldiv,w
  4644     09C4  3EFF               	addlw	255
  4645     09C5  1683               	bsf	3,5	;RP0=1, select bank1
  4646     09C6  1303               	bcf	3,6	;RP1=0, select bank1
  4647     09C7  0093               	movwf	19	;volatile
  4648     09C8                     l3506:
  4649                           
  4650                           ;/home/santhoshtk/Desktop/EMERTXE/MC/25014_Car_Black__Box.X/25014_Car_Black_Box.X/i2c.c:
      +                           13:     SSPEN = 1;
  4651     09C8  1283               	bcf	3,5	;RP0=0, select bank0
  4652     09C9  1303               	bcf	3,6	;RP1=0, select bank0
  4653     09CA  1694               	bsf	20,5	;volatile
  4654     09CB                     l381:
  4655     09CB  0008               	return
  4656     09CC                     __end_of_init_i2c:
  4657                           
  4658                           	psect	text18
  4659     0C8C                     __ptext18:	
  4660 ;; *************** function ___lldiv *****************
  4661 ;; Defined at:
  4662 ;;		line 5 in file "/opt/microchip/xc8/v3.10/pic/sources/c99/common/__lldiv.c"
  4663 ;; Parameters:    Size  Location     Type
  4664 ;;  divisor         4    2[COMMON] unsigned long 
  4665 ;;  dividend        4    6[COMMON] unsigned long 
  4666 ;; Auto vars:     Size  Location     Type
  4667 ;;  quotient        4    1[BANK0 ] unsigned long 
  4668 ;;  counter         1    5[BANK0 ] unsigned char 
  4669 ;; Return value:  Size  Location     Type
  4670 ;;                  4    2[COMMON] unsigned long 
  4671 ;; Registers used:
  4672 ;;		wreg, status,2, status,0
  4673 ;; Tracked objects:
  4674 ;;		On entry : 0/0
  4675 ;;		On exit  : 0/0
  4676 ;;		Unchanged: 0/0
  4677 ;; Data sizes:     COMMON   BANK0   BANK1   BANK3   BANK2
  4678 ;;      Params:         8       0       0       0       0
  4679 ;;      Locals:         0       5       0       0       0
  4680 ;;      Temps:          0       1       0       0       0
  4681 ;;      Totals:         8       6       0       0       0
  4682 ;;Total ram usage:       14 bytes
  4683 ;; Hardware stack levels used: 1
  4684 ;; Hardware stack levels required when called: 1
  4685 ;; This function calls:
  4686 ;;		Nothing
  4687 ;; This function is called by:
  4688 ;;		_init_i2c
  4689 ;;		_init_uart
  4690 ;; This function uses a non-reentrant model
  4691 ;;
  4692                           
  4693     0C8C                     ___lldiv:	
  4694                           ;psect for function ___lldiv
  4695                           
  4696     0C8C                     l3228:	
  4697                           ;incstack = 0
  4698                           ; Regs used in ___lldiv: [wreg+status,2+status,0]
  4699                           
  4700     0C8C  3000               	movlw	0
  4701     0C8D  1283               	bcf	3,5	;RP0=0, select bank0
  4702     0C8E  1303               	bcf	3,6	;RP1=0, select bank0
  4703     0C8F  00A4               	movwf	___lldiv@quotient+3
  4704     0C90  3000               	movlw	0
  4705     0C91  00A3               	movwf	___lldiv@quotient+2
  4706     0C92  3000               	movlw	0
  4707     0C93  00A2               	movwf	___lldiv@quotient+1
  4708     0C94  3000               	movlw	0
  4709     0C95  00A1               	movwf	___lldiv@quotient
  4710     0C96  0875               	movf	___lldiv@divisor+3,w
  4711     0C97  0474               	iorwf	___lldiv@divisor+2,w
  4712     0C98  0473               	iorwf	___lldiv@divisor+1,w
  4713     0C99  0472               	iorwf	___lldiv@divisor,w
  4714     0C9A  1903               	skipnz
  4715     0C9B  2C9D               	goto	u3571
  4716     0C9C  2C9E               	goto	u3570
  4717     0C9D                     u3571:
  4718     0C9D  2CE9               	goto	l3248
  4719     0C9E                     u3570:
  4720     0C9E                     l3230:
  4721     0C9E  3001               	movlw	1
  4722     0C9F  00A5               	movwf	___lldiv@counter
  4723     0CA0  2CAC               	goto	l3234
  4724     0CA1                     l3232:
  4725     0CA1  3001               	movlw	1
  4726     0CA2  00A0               	movwf	??___lldiv
  4727     0CA3                     u3585:
  4728     0CA3  1003               	clrc
  4729     0CA4  0DF2               	rlf	___lldiv@divisor,f
  4730     0CA5  0DF3               	rlf	___lldiv@divisor+1,f
  4731     0CA6  0DF4               	rlf	___lldiv@divisor+2,f
  4732     0CA7  0DF5               	rlf	___lldiv@divisor+3,f
  4733     0CA8  0BA0               	decfsz	??___lldiv,f
  4734     0CA9  2CA3               	goto	u3585
  4735     0CAA  3001               	movlw	1
  4736     0CAB  07A5               	addwf	___lldiv@counter,f
  4737     0CAC                     l3234:
  4738     0CAC  1FF5               	btfss	___lldiv@divisor+3,7
  4739     0CAD  2CAF               	goto	u3591
  4740     0CAE  2CB0               	goto	u3590
  4741     0CAF                     u3591:
  4742     0CAF  2CA1               	goto	l3232
  4743     0CB0                     u3590:
  4744     0CB0                     l3236:
  4745     0CB0  3001               	movlw	1
  4746     0CB1  00A0               	movwf	??___lldiv
  4747     0CB2                     u3605:
  4748     0CB2  1003               	clrc
  4749     0CB3  0DA1               	rlf	___lldiv@quotient,f
  4750     0CB4  0DA2               	rlf	___lldiv@quotient+1,f
  4751     0CB5  0DA3               	rlf	___lldiv@quotient+2,f
  4752     0CB6  0DA4               	rlf	___lldiv@quotient+3,f
  4753     0CB7  0BA0               	decfsz	??___lldiv,f
  4754     0CB8  2CB2               	goto	u3605
  4755     0CB9                     l3238:
  4756     0CB9  0875               	movf	___lldiv@divisor+3,w
  4757     0CBA  0279               	subwf	___lldiv@dividend+3,w
  4758     0CBB  1D03               	skipz
  4759     0CBC  2CC7               	goto	u3615
  4760     0CBD  0874               	movf	___lldiv@divisor+2,w
  4761     0CBE  0278               	subwf	___lldiv@dividend+2,w
  4762     0CBF  1D03               	skipz
  4763     0CC0  2CC7               	goto	u3615
  4764     0CC1  0873               	movf	___lldiv@divisor+1,w
  4765     0CC2  0277               	subwf	___lldiv@dividend+1,w
  4766     0CC3  1D03               	skipz
  4767     0CC4  2CC7               	goto	u3615
  4768     0CC5  0872               	movf	___lldiv@divisor,w
  4769     0CC6  0276               	subwf	___lldiv@dividend,w
  4770     0CC7                     u3615:
  4771     0CC7  1C03               	skipc
  4772     0CC8  2CCA               	goto	u3611
  4773     0CC9  2CCB               	goto	u3610
  4774     0CCA                     u3611:
  4775     0CCA  2CDA               	goto	l3244
  4776     0CCB                     u3610:
  4777     0CCB                     l3240:
  4778     0CCB  0872               	movf	___lldiv@divisor,w
  4779     0CCC  02F6               	subwf	___lldiv@dividend,f
  4780     0CCD  0873               	movf	___lldiv@divisor+1,w
  4781     0CCE  1C03               	skipc
  4782     0CCF  0F73               	incfsz	___lldiv@divisor+1,w
  4783     0CD0  02F7               	subwf	___lldiv@dividend+1,f
  4784     0CD1  0874               	movf	___lldiv@divisor+2,w
  4785     0CD2  1C03               	skipc
  4786     0CD3  0F74               	incfsz	___lldiv@divisor+2,w
  4787     0CD4  02F8               	subwf	___lldiv@dividend+2,f
  4788     0CD5  0875               	movf	___lldiv@divisor+3,w
  4789     0CD6  1C03               	skipc
  4790     0CD7  0F75               	incfsz	___lldiv@divisor+3,w
  4791     0CD8  02F9               	subwf	___lldiv@dividend+3,f
  4792     0CD9                     l3242:
  4793     0CD9  1421               	bsf	___lldiv@quotient,0
  4794     0CDA                     l3244:
  4795     0CDA  3001               	movlw	1
  4796     0CDB                     u3625:
  4797     0CDB  1003               	clrc
  4798     0CDC  0CF5               	rrf	___lldiv@divisor+3,f
  4799     0CDD  0CF4               	rrf	___lldiv@divisor+2,f
  4800     0CDE  0CF3               	rrf	___lldiv@divisor+1,f
  4801     0CDF  0CF2               	rrf	___lldiv@divisor,f
  4802     0CE0  3EFF               	addlw	-1
  4803     0CE1  1D03               	skipz
  4804     0CE2  2CDB               	goto	u3625
  4805     0CE3                     l3246:
  4806     0CE3  3001               	movlw	1
  4807     0CE4  02A5               	subwf	___lldiv@counter,f
  4808     0CE5  1D03               	btfss	3,2
  4809     0CE6  2CE8               	goto	u3631
  4810     0CE7  2CE9               	goto	u3630
  4811     0CE8                     u3631:
  4812     0CE8  2CB0               	goto	l3236
  4813     0CE9                     u3630:
  4814     0CE9                     l3248:
  4815     0CE9  0824               	movf	___lldiv@quotient+3,w
  4816     0CEA  00F5               	movwf	?___lldiv+3
  4817     0CEB  0823               	movf	___lldiv@quotient+2,w
  4818     0CEC  00F4               	movwf	?___lldiv+2
  4819     0CED  0822               	movf	___lldiv@quotient+1,w
  4820     0CEE  00F3               	movwf	?___lldiv+1
  4821     0CEF  0821               	movf	___lldiv@quotient,w
  4822     0CF0  00F2               	movwf	?___lldiv
  4823     0CF1                     l630:
  4824     0CF1  0008               	return
  4825     0CF2                     __end_of___lldiv:
  4826                           
  4827                           	psect	text19
  4828     1710                     __ptext19:	
  4829 ;; *************** function _init_ds1307 *****************
  4830 ;; Defined at:
  4831 ;;		line 8 in file "/home/santhoshtk/Desktop/EMERTXE/MC/25014_Car_Black__Box.X/25014_Car_Black_Box.X/ds1307.c"
  4832 ;; Parameters:    Size  Location     Type
  4833 ;;		None
  4834 ;; Auto vars:     Size  Location     Type
  4835 ;;  dummy           1    6[COMMON] unsigned char 
  4836 ;; Return value:  Size  Location     Type
  4837 ;;                  1    wreg      void 
  4838 ;; Registers used:
  4839 ;;		wreg, status,2, status,0, pclath, cstack
  4840 ;; Tracked objects:
  4841 ;;		On entry : 0/0
  4842 ;;		On exit  : 0/0
  4843 ;;		Unchanged: 0/0
  4844 ;; Data sizes:     COMMON   BANK0   BANK1   BANK3   BANK2
  4845 ;;      Params:         0       0       0       0       0
  4846 ;;      Locals:         1       0       0       0       0
  4847 ;;      Temps:          0       0       0       0       0
  4848 ;;      Totals:         1       0       0       0       0
  4849 ;;Total ram usage:        1 bytes
  4850 ;; Hardware stack levels used: 1
  4851 ;; Hardware stack levels required when called: 3
  4852 ;; This function calls:
  4853 ;;		_read_ds1307
  4854 ;;		_write_ds1307
  4855 ;; This function is called by:
  4856 ;;		_init_config
  4857 ;; This function uses a non-reentrant model
  4858 ;;
  4859                           
  4860     1710                     _init_ds1307:	
  4861                           ;psect for function _init_ds1307
  4862                           
  4863     1710                     l3496:	
  4864                           ;incstack = 0
  4865                           ; Regs used in _init_ds1307: [wreg+status,2+status,0+pclath+cstack]
  4866                           
  4867                           
  4868                           ;/home/santhoshtk/Desktop/EMERTXE/MC/25014_Car_Black__Box.X/25014_Car_Black_Box.X/ds1307
      +                          .c: 10:     unsigned char dummy;;/home/santhoshtk/Desktop/EMERTXE/MC/25014_Car_Black__Bo
      +                          x.X/25014_Car_Black_Box.X/ds1307.c: 12:     dummy = read_ds1307(0x00);
  4869     1710  3000               	movlw	0
  4870     1711  120A  158A  20B5  160A  118A  	fcall	_read_ds1307
  4871     1716  00F6               	movwf	init_ds1307@dummy
  4872     1717                     l3498:
  4873                           
  4874                           ;/home/santhoshtk/Desktop/EMERTXE/MC/25014_Car_Black__Box.X/25014_Car_Black_Box.X/ds1307
      +                          .c: 13:     dummy = dummy & 0x7F;
  4875     1717  307F               	movlw	127
  4876     1718  05F6               	andwf	init_ds1307@dummy,f
  4877     1719                     l3500:
  4878                           
  4879                           ;/home/santhoshtk/Desktop/EMERTXE/MC/25014_Car_Black__Box.X/25014_Car_Black_Box.X/ds1307
      +                          .c: 14:     write_ds1307(0x00, dummy);
  4880     1719  0876               	movf	init_ds1307@dummy,w
  4881     171A  00F3               	movwf	write_ds1307@data
  4882     171B  3000               	movlw	0
  4883     171C  160A  118A  2722  160A  118A  	fcall	_write_ds1307
  4884     1721                     l321:
  4885     1721  0008               	return
  4886     1722                     __end_of_init_ds1307:
  4887                           
  4888                           	psect	text20
  4889     1722                     __ptext20:	
  4890 ;; *************** function _write_ds1307 *****************
  4891 ;; Defined at:
  4892 ;;		line 32 in file "/home/santhoshtk/Desktop/EMERTXE/MC/25014_Car_Black__Box.X/25014_Car_Black_Box.X/ds1307.c"
  4893 ;; Parameters:    Size  Location     Type
  4894 ;;  addr            1    wreg     unsigned char 
  4895 ;;  data            1    3[COMMON] unsigned char 
  4896 ;; Auto vars:     Size  Location     Type
  4897 ;;  addr            1    4[COMMON] unsigned char 
  4898 ;; Return value:  Size  Location     Type
  4899 ;;                  1    wreg      void 
  4900 ;; Registers used:
  4901 ;;		wreg, status,2, status,0, pclath, cstack
  4902 ;; Tracked objects:
  4903 ;;		On entry : 0/0
  4904 ;;		On exit  : 0/0
  4905 ;;		Unchanged: 0/0
  4906 ;; Data sizes:     COMMON   BANK0   BANK1   BANK3   BANK2
  4907 ;;      Params:         1       0       0       0       0
  4908 ;;      Locals:         1       0       0       0       0
  4909 ;;      Temps:          0       0       0       0       0
  4910 ;;      Totals:         2       0       0       0       0
  4911 ;;Total ram usage:        2 bytes
  4912 ;; Hardware stack levels used: 1
  4913 ;; Hardware stack levels required when called: 2
  4914 ;; This function calls:
  4915 ;;		_i2c_start
  4916 ;;		_i2c_stop
  4917 ;;		_i2c_write
  4918 ;; This function is called by:
  4919 ;;		_init_ds1307
  4920 ;; This function uses a non-reentrant model
  4921 ;;
  4922                           
  4923     1722                     _write_ds1307:	
  4924                           ;psect for function _write_ds1307
  4925                           
  4926                           
  4927                           ;incstack = 0
  4928                           ; Regs used in _write_ds1307: [wreg+status,2+status,0+pclath+cstack]
  4929                           ;write_ds1307@addr stored from wreg
  4930     1722  00F4               	movwf	write_ds1307@addr
  4931     1723                     l3226:
  4932                           
  4933                           ;/home/santhoshtk/Desktop/EMERTXE/MC/25014_Car_Black__Box.X/25014_Car_Black_Box.X/ds1307
      +                          .c: 32: void write_ds1307(unsigned char addr, unsigned char data);/home/santhoshtk/Deskt
      +                          op/EMERTXE/MC/25014_Car_Black__Box.X/25014_Car_Black_Box.X/ds1307.c: 33: {;/home/santhos
      +                          htk/Desktop/EMERTXE/MC/25014_Car_Black__Box.X/25014_Car_Black_Box.X/ds1307.c: 34:     i2
      +                          c_start();
  4934     1723  160A  118A  26BB  160A  118A  	fcall	_i2c_start
  4935                           
  4936                           ;/home/santhoshtk/Desktop/EMERTXE/MC/25014_Car_Black__Box.X/25014_Car_Black_Box.X/ds1307
      +                          .c: 35:     i2c_write(0b11010000);
  4937     1728  30D0               	movlw	208
  4938     1729  160A  118A  26E2  160A  118A  	fcall	_i2c_write
  4939                           
  4940                           ;/home/santhoshtk/Desktop/EMERTXE/MC/25014_Car_Black__Box.X/25014_Car_Black_Box.X/ds1307
      +                          .c: 36:     i2c_write(addr);
  4941     172E  0874               	movf	write_ds1307@addr,w
  4942     172F  160A  118A  26E2  160A  118A  	fcall	_i2c_write
  4943                           
  4944                           ;/home/santhoshtk/Desktop/EMERTXE/MC/25014_Car_Black__Box.X/25014_Car_Black_Box.X/ds1307
      +                          .c: 37:     i2c_write(data);
  4945     1734  0873               	movf	write_ds1307@data,w
  4946     1735  160A  118A  26E2  160A  118A  	fcall	_i2c_write
  4947                           
  4948                           ;/home/santhoshtk/Desktop/EMERTXE/MC/25014_Car_Black__Box.X/25014_Car_Black_Box.X/ds1307
      +                          .c: 38:     i2c_stop();
  4949     173A  160A  118A  26C4  160A  118A  	fcall	_i2c_stop
  4950     173F                     l327:
  4951     173F  0008               	return
  4952     1740                     __end_of_write_ds1307:
  4953                           
  4954                           	psect	text21
  4955     169E                     __ptext21:	
  4956 ;; *************** function _init_digital_keypad *****************
  4957 ;; Defined at:
  4958 ;;		line 4 in file "/home/santhoshtk/Desktop/EMERTXE/MC/25014_Car_Black__Box.X/25014_Car_Black_Box.X/digital_keypad.c"
  4959 ;; Parameters:    Size  Location     Type
  4960 ;;		None
  4961 ;; Auto vars:     Size  Location     Type
  4962 ;;		None
  4963 ;; Return value:  Size  Location     Type
  4964 ;;                  1    wreg      void 
  4965 ;; Registers used:
  4966 ;;		wreg, status,2
  4967 ;; Tracked objects:
  4968 ;;		On entry : 0/0
  4969 ;;		On exit  : 0/0
  4970 ;;		Unchanged: 0/0
  4971 ;; Data sizes:     COMMON   BANK0   BANK1   BANK3   BANK2
  4972 ;;      Params:         0       0       0       0       0
  4973 ;;      Locals:         0       0       0       0       0
  4974 ;;      Temps:          0       0       0       0       0
  4975 ;;      Totals:         0       0       0       0       0
  4976 ;;Total ram usage:        0 bytes
  4977 ;; Hardware stack levels used: 1
  4978 ;; Hardware stack levels required when called: 1
  4979 ;; This function calls:
  4980 ;;		Nothing
  4981 ;; This function is called by:
  4982 ;;		_init_config
  4983 ;; This function uses a non-reentrant model
  4984 ;;
  4985                           
  4986     169E                     _init_digital_keypad:	
  4987                           ;psect for function _init_digital_keypad
  4988                           
  4989     169E                     l3494:	
  4990                           ;incstack = 0
  4991                           ; Regs used in _init_digital_keypad: [wreg+status,2]
  4992                           
  4993                           
  4994                           ;/home/santhoshtk/Desktop/EMERTXE/MC/25014_Car_Black__Box.X/25014_Car_Black_Box.X/digita
      +                          l_keypad.c: 7:     TRISB = TRISB | 0x3F;
  4995     169E  1683               	bsf	3,5	;RP0=1, select bank1
  4996     169F  1303               	bcf	3,6	;RP1=0, select bank1
  4997     16A0  0806               	movf	6,w	;volatile
  4998     16A1  383F               	iorlw	63
  4999     16A2  0086               	movwf	6	;volatile
  5000     16A3                     l290:
  5001     16A3  0008               	return
  5002     16A4                     __end_of_init_digital_keypad:
  5003                           
  5004                           	psect	text22
  5005     16ED                     __ptext22:	
  5006 ;; *************** function _init_clcd *****************
  5007 ;; Defined at:
  5008 ;;		line 45 in file "/home/santhoshtk/Desktop/EMERTXE/MC/25014_Car_Black__Box.X/25014_Car_Black_Box.X/clcd.c"
  5009 ;; Parameters:    Size  Location     Type
  5010 ;;		None
  5011 ;; Auto vars:     Size  Location     Type
  5012 ;;		None
  5013 ;; Return value:  Size  Location     Type
  5014 ;;                  1    wreg      void 
  5015 ;; Registers used:
  5016 ;;		wreg, status,2, status,0, pclath, cstack
  5017 ;; Tracked objects:
  5018 ;;		On entry : 0/0
  5019 ;;		On exit  : 0/0
  5020 ;;		Unchanged: 0/0
  5021 ;; Data sizes:     COMMON   BANK0   BANK1   BANK3   BANK2
  5022 ;;      Params:         0       0       0       0       0
  5023 ;;      Locals:         0       0       0       0       0
  5024 ;;      Temps:          0       0       0       0       0
  5025 ;;      Totals:         0       0       0       0       0
  5026 ;;Total ram usage:        0 bytes
  5027 ;; Hardware stack levels used: 1
  5028 ;; Hardware stack levels required when called: 3
  5029 ;; This function calls:
  5030 ;;		_init_display_controller
  5031 ;; This function is called by:
  5032 ;;		_init_config
  5033 ;; This function uses a non-reentrant model
  5034 ;;
  5035                           
  5036     16ED                     _init_clcd:	
  5037                           ;psect for function _init_clcd
  5038                           
  5039     16ED                     l3324:	
  5040                           ;incstack = 0
  5041                           ; Regs used in _init_clcd: [wreg+status,2+status,0+pclath+cstack]
  5042                           
  5043                           
  5044                           ;/home/santhoshtk/Desktop/EMERTXE/MC/25014_Car_Black__Box.X/25014_Car_Black_Box.X/clcd.c
      +                          : 48:     TRISD = 0x00;
  5045     16ED  1683               	bsf	3,5	;RP0=1, select bank1
  5046     16EE  1303               	bcf	3,6	;RP1=0, select bank1
  5047     16EF  0188               	clrf	8	;volatile
  5048     16F0                     l3326:
  5049                           
  5050                           ;/home/santhoshtk/Desktop/EMERTXE/MC/25014_Car_Black__Box.X/25014_Car_Black_Box.X/clcd.c
      +                          : 51:     TRISE2 = 0;
  5051     16F0  1109               	bcf	9,2	;volatile
  5052     16F1                     l3328:
  5053                           
  5054                           ;/home/santhoshtk/Desktop/EMERTXE/MC/25014_Car_Black__Box.X/25014_Car_Black_Box.X/clcd.c
      +                          : 52:     TRISE1 = 0;
  5055     16F1  1089               	bcf	9,1	;volatile
  5056     16F2                     l3330:
  5057                           
  5058                           ;/home/santhoshtk/Desktop/EMERTXE/MC/25014_Car_Black__Box.X/25014_Car_Black_Box.X/clcd.c
      +                          : 54:     init_display_controller();
  5059     16F2  120A  158A  2429  160A  118A  	fcall	_init_display_controller
  5060     16F7                     l90:
  5061     16F7  0008               	return
  5062     16F8                     __end_of_init_clcd:
  5063                           
  5064                           	psect	text23
  5065     0C29                     __ptext23:	
  5066 ;; *************** function _init_display_controller *****************
  5067 ;; Defined at:
  5068 ;;		line 22 in file "/home/santhoshtk/Desktop/EMERTXE/MC/25014_Car_Black__Box.X/25014_Car_Black_Box.X/clcd.c"
  5069 ;; Parameters:    Size  Location     Type
  5070 ;;		None
  5071 ;; Auto vars:     Size  Location     Type
  5072 ;;		None
  5073 ;; Return value:  Size  Location     Type
  5074 ;;                  1    wreg      void 
  5075 ;; Registers used:
  5076 ;;		wreg, status,2, status,0, pclath, cstack
  5077 ;; Tracked objects:
  5078 ;;		On entry : 0/0
  5079 ;;		On exit  : 0/0
  5080 ;;		Unchanged: 0/0
  5081 ;; Data sizes:     COMMON   BANK0   BANK1   BANK3   BANK2
  5082 ;;      Params:         0       0       0       0       0
  5083 ;;      Locals:         0       0       0       0       0
  5084 ;;      Temps:          2       0       0       0       0
  5085 ;;      Totals:         2       0       0       0       0
  5086 ;;Total ram usage:        2 bytes
  5087 ;; Hardware stack levels used: 1
  5088 ;; Hardware stack levels required when called: 2
  5089 ;; This function calls:
  5090 ;;		_clcd_write
  5091 ;; This function is called by:
  5092 ;;		_init_clcd
  5093 ;; This function uses a non-reentrant model
  5094 ;;
  5095                           
  5096     0C29                     _init_display_controller:	
  5097                           ;psect for function _init_display_controller
  5098                           
  5099     0C29                     l3132:	
  5100                           ;incstack = 0
  5101                           ; Regs used in _init_display_controller: [wreg+status,2+status,0+pclath+cstack]
  5102                           
  5103                           
  5104                           ;/home/santhoshtk/Desktop/EMERTXE/MC/25014_Car_Black__Box.X/25014_Car_Black_Box.X/clcd.c
      +                          : 25:     _delay((unsigned long)((30)*(20000000/4000.0)));
  5105     0C29  30C3               	movlw	195
  5106     0C2A  00F7               	movwf	??_init_display_controller+1
  5107     0C2B  30CD               	movlw	205
  5108     0C2C  00F6               	movwf	??_init_display_controller
  5109     0C2D                     u4917:
  5110     0C2D  0BF6               	decfsz	??_init_display_controller,f
  5111     0C2E  2C2D               	goto	u4917
  5112     0C2F  0BF7               	decfsz	??_init_display_controller+1,f
  5113     0C30  2C2D               	goto	u4917
  5114     0C31                     l3134:
  5115                           
  5116                           ;/home/santhoshtk/Desktop/EMERTXE/MC/25014_Car_Black__Box.X/25014_Car_Black_Box.X/clcd.c
      +                          : 28:     clcd_write(0x33, 0);
  5117     0C31  01F2               	clrf	clcd_write@mode
  5118     0C32  3033               	movlw	51
  5119     0C33  120A  158A  2200  120A  158A  	fcall	_clcd_write
  5120     0C38                     l3136:
  5121                           
  5122                           ;/home/santhoshtk/Desktop/EMERTXE/MC/25014_Car_Black__Box.X/25014_Car_Black_Box.X/clcd.c
      +                          : 29:     _delay((unsigned long)((4100)*(20000000/4000000.0)));
  5123     0C38  301B               	movlw	27
  5124     0C39  00F7               	movwf	??_init_display_controller+1
  5125     0C3A  309E               	movlw	158
  5126     0C3B  00F6               	movwf	??_init_display_controller
  5127     0C3C                     u4927:
  5128     0C3C  0BF6               	decfsz	??_init_display_controller,f
  5129     0C3D  2C3C               	goto	u4927
  5130     0C3E  0BF7               	decfsz	??_init_display_controller+1,f
  5131     0C3F  2C3C               	goto	u4927
  5132     0C40  0000               	nop
  5133                           
  5134                           ;/home/santhoshtk/Desktop/EMERTXE/MC/25014_Car_Black__Box.X/25014_Car_Black_Box.X/clcd.c
      +                          : 30:     clcd_write(0x33, 0);
  5135     0C41  01F2               	clrf	clcd_write@mode
  5136     0C42  3033               	movlw	51
  5137     0C43  120A  158A  2200  120A  158A  	fcall	_clcd_write
  5138     0C48                     l3138:
  5139                           
  5140                           ;/home/santhoshtk/Desktop/EMERTXE/MC/25014_Car_Black__Box.X/25014_Car_Black_Box.X/clcd.c
      +                          : 31:     _delay((unsigned long)((100)*(20000000/4000000.0)));
  5141     0C48  30A6               	movlw	166
  5142     0C49  00F6               	movwf	??_init_display_controller
  5143     0C4A                     u4937:
  5144     0C4A  0BF6               	decfsz	??_init_display_controller,f
  5145     0C4B  2C4A               	goto	u4937
  5146     0C4C  0000               	nop
  5147     0C4D                     l3140:
  5148                           
  5149                           ;/home/santhoshtk/Desktop/EMERTXE/MC/25014_Car_Black__Box.X/25014_Car_Black_Box.X/clcd.c
      +                          : 32:     clcd_write(0x33, 0);
  5150     0C4D  01F2               	clrf	clcd_write@mode
  5151     0C4E  3033               	movlw	51
  5152     0C4F  120A  158A  2200  120A  158A  	fcall	_clcd_write
  5153     0C54                     l3142:
  5154                           
  5155                           ;/home/santhoshtk/Desktop/EMERTXE/MC/25014_Car_Black__Box.X/25014_Car_Black_Box.X/clcd.c
      +                          : 33:     _delay((unsigned long)((1)*(20000000/4000000.0)));
  5156     0C54  2C55               	nop2	;2 cycle nop
  5157     0C55  2C56               	nop2	;2 cycle nop
  5158     0C56  0000               	nop
  5159     0C57                     l3144:
  5160                           
  5161                           ;/home/santhoshtk/Desktop/EMERTXE/MC/25014_Car_Black__Box.X/25014_Car_Black_Box.X/clcd.c
      +                          : 35:     clcd_write(0x02, 0);
  5162     0C57  01F2               	clrf	clcd_write@mode
  5163     0C58  3002               	movlw	2
  5164     0C59  120A  158A  2200  120A  158A  	fcall	_clcd_write
  5165     0C5E                     l3146:
  5166                           
  5167                           ;/home/santhoshtk/Desktop/EMERTXE/MC/25014_Car_Black__Box.X/25014_Car_Black_Box.X/clcd.c
      +                          : 36:     _delay((unsigned long)((100)*(20000000/4000000.0)));
  5168     0C5E  30A6               	movlw	166
  5169     0C5F  00F6               	movwf	??_init_display_controller
  5170     0C60                     u4947:
  5171     0C60  0BF6               	decfsz	??_init_display_controller,f
  5172     0C61  2C60               	goto	u4947
  5173     0C62  0000               	nop
  5174                           
  5175                           ;/home/santhoshtk/Desktop/EMERTXE/MC/25014_Car_Black__Box.X/25014_Car_Black_Box.X/clcd.c
      +                          : 37:     clcd_write(0x28, 0);
  5176     0C63  01F2               	clrf	clcd_write@mode
  5177     0C64  3028               	movlw	40
  5178     0C65  120A  158A  2200  120A  158A  	fcall	_clcd_write
  5179     0C6A                     l3148:
  5180                           
  5181                           ;/home/santhoshtk/Desktop/EMERTXE/MC/25014_Car_Black__Box.X/25014_Car_Black_Box.X/clcd.c
      +                          : 38:     _delay((unsigned long)((100)*(20000000/4000000.0)));
  5182     0C6A  30A6               	movlw	166
  5183     0C6B  00F6               	movwf	??_init_display_controller
  5184     0C6C                     u4957:
  5185     0C6C  0BF6               	decfsz	??_init_display_controller,f
  5186     0C6D  2C6C               	goto	u4957
  5187     0C6E  0000               	nop
  5188     0C6F                     l3150:
  5189                           
  5190                           ;/home/santhoshtk/Desktop/EMERTXE/MC/25014_Car_Black__Box.X/25014_Car_Black_Box.X/clcd.c
      +                          : 39:     clcd_write(0x01, 0);
  5191     0C6F  01F2               	clrf	clcd_write@mode
  5192     0C70  3001               	movlw	1
  5193     0C71  120A  158A  2200  120A  158A  	fcall	_clcd_write
  5194                           
  5195                           ;/home/santhoshtk/Desktop/EMERTXE/MC/25014_Car_Black__Box.X/25014_Car_Black_Box.X/clcd.c
      +                          : 40:     _delay((unsigned long)((500)*(20000000/4000000.0)));
  5196     0C76  3004               	movlw	4
  5197     0C77  00F7               	movwf	??_init_display_controller+1
  5198     0C78  303D               	movlw	61
  5199     0C79  00F6               	movwf	??_init_display_controller
  5200     0C7A                     u4967:
  5201     0C7A  0BF6               	decfsz	??_init_display_controller,f
  5202     0C7B  2C7A               	goto	u4967
  5203     0C7C  0BF7               	decfsz	??_init_display_controller+1,f
  5204     0C7D  2C7A               	goto	u4967
  5205     0C7E  2C7F               	nop2
  5206     0C7F                     l3152:
  5207                           
  5208                           ;/home/santhoshtk/Desktop/EMERTXE/MC/25014_Car_Black__Box.X/25014_Car_Black_Box.X/clcd.c
      +                          : 41:     clcd_write(0x0C, 0);
  5209     0C7F  01F2               	clrf	clcd_write@mode
  5210     0C80  300C               	movlw	12
  5211     0C81  120A  158A  2200  120A  158A  	fcall	_clcd_write
  5212     0C86                     l3154:
  5213                           
  5214                           ;/home/santhoshtk/Desktop/EMERTXE/MC/25014_Car_Black__Box.X/25014_Car_Black_Box.X/clcd.c
      +                          : 42:     _delay((unsigned long)((100)*(20000000/4000000.0)));
  5215     0C86  30A6               	movlw	166
  5216     0C87  00F6               	movwf	??_init_display_controller
  5217     0C88                     u4977:
  5218     0C88  0BF6               	decfsz	??_init_display_controller,f
  5219     0C89  2C88               	goto	u4977
  5220     0C8A  0000               	nop
  5221     0C8B                     l87:
  5222     0C8B  0008               	return
  5223     0C8C                     __end_of_init_display_controller:
  5224                           
  5225                           	psect	text24
  5226     16A4                     __ptext24:	
  5227 ;; *************** function _init_adc *****************
  5228 ;; Defined at:
  5229 ;;		line 4 in file "/home/santhoshtk/Desktop/EMERTXE/MC/25014_Car_Black__Box.X/25014_Car_Black_Box.X/adc.c"
  5230 ;; Parameters:    Size  Location     Type
  5231 ;;		None
  5232 ;; Auto vars:     Size  Location     Type
  5233 ;;		None
  5234 ;; Return value:  Size  Location     Type
  5235 ;;                  1    wreg      void 
  5236 ;; Registers used:
  5237 ;;		None
  5238 ;; Tracked objects:
  5239 ;;		On entry : 0/0
  5240 ;;		On exit  : 0/0
  5241 ;;		Unchanged: 0/0
  5242 ;; Data sizes:     COMMON   BANK0   BANK1   BANK3   BANK2
  5243 ;;      Params:         0       0       0       0       0
  5244 ;;      Locals:         0       0       0       0       0
  5245 ;;      Temps:          0       0       0       0       0
  5246 ;;      Totals:         0       0       0       0       0
  5247 ;;Total ram usage:        0 bytes
  5248 ;; Hardware stack levels used: 1
  5249 ;; Hardware stack levels required when called: 1
  5250 ;; This function calls:
  5251 ;;		Nothing
  5252 ;; This function is called by:
  5253 ;;		_init_config
  5254 ;; This function uses a non-reentrant model
  5255 ;;
  5256                           
  5257     16A4                     _init_adc:	
  5258                           ;psect for function _init_adc
  5259                           
  5260     16A4                     l3300:	
  5261                           ;incstack = 0
  5262                           ; Regs used in _init_adc: []
  5263                           
  5264                           
  5265                           ;/home/santhoshtk/Desktop/EMERTXE/MC/25014_Car_Black__Box.X/25014_Car_Black_Box.X/adc.c:
      +                           7:     ADFM = 1;
  5266     16A4  1683               	bsf	3,5	;RP0=1, select bank1
  5267     16A5  1303               	bcf	3,6	;RP1=0, select bank1
  5268     16A6  179F               	bsf	31,7	;volatile
  5269                           
  5270                           ;/home/santhoshtk/Desktop/EMERTXE/MC/25014_Car_Black__Box.X/25014_Car_Black_Box.X/adc.c:
      +                           10:     ADON = 1;
  5271     16A7  1283               	bcf	3,5	;RP0=0, select bank0
  5272     16A8  1303               	bcf	3,6	;RP1=0, select bank0
  5273     16A9  141F               	bsf	31,0	;volatile
  5274     16AA                     l17:
  5275     16AA  0008               	return
  5276     16AB                     __end_of_init_adc:
  5277                           
  5278                           	psect	text25
  5279     0538                     __ptext25:	
  5280 ;; *************** function _dashboard *****************
  5281 ;; Defined at:
  5282 ;;		line 89 in file "/home/santhoshtk/Desktop/EMERTXE/MC/25014_Car_Black__Box.X/25014_Car_Black_Box.X/dashboard.c"
  5283 ;; Parameters:    Size  Location     Type
  5284 ;;  key             1    wreg     unsigned char 
  5285 ;; Auto vars:     Size  Location     Type
  5286 ;;  key             1   44[BANK0 ] unsigned char 
  5287 ;; Return value:  Size  Location     Type
  5288 ;;                  1    wreg      void 
  5289 ;; Registers used:
  5290 ;;		wreg, fsr0l, fsr0h, status,2, status,0, pclath, btemp1, cstack
  5291 ;; Tracked objects:
  5292 ;;		On entry : 0/0
  5293 ;;		On exit  : 0/0
  5294 ;;		Unchanged: 0/0
  5295 ;; Data sizes:     COMMON   BANK0   BANK1   BANK3   BANK2
  5296 ;;      Params:         0       0       0       0       0
  5297 ;;      Locals:         0       1       0       0       0
  5298 ;;      Temps:          0       2       0       0       0
  5299 ;;      Totals:         0       3       0       0       0
  5300 ;;Total ram usage:        3 bytes
  5301 ;; Hardware stack levels used: 1
  5302 ;; Hardware stack levels required when called: 6
  5303 ;; This function calls:
  5304 ;;		___fldiv
  5305 ;;		___fltol
  5306 ;;		___lwdiv
  5307 ;;		___lwmod
  5308 ;;		___xxtofl
  5309 ;;		_clcd_print
  5310 ;;		_display_time
  5311 ;;		_get_time
  5312 ;;		_read_adc
  5313 ;;		_write_event
  5314 ;; This function is called by:
  5315 ;;		_main
  5316 ;; This function uses a non-reentrant model
  5317 ;;
  5318                           
  5319     0538                     _dashboard:	
  5320                           ;psect for function _dashboard
  5321                           
  5322                           
  5323                           ;incstack = 0
  5324                           ; Regs used in _dashboard: [wreg-fsr0h+status,2+status,0+pclath+btemp1+cstack]
  5325                           ;dashboard@key stored from wreg
  5326     0538  1283               	bcf	3,5	;RP0=0, select bank0
  5327     0539  1303               	bcf	3,6	;RP1=0, select bank0
  5328     053A  00CC               	movwf	dashboard@key
  5329     053B                     l3796:
  5330                           
  5331                           ;/home/santhoshtk/Desktop/EMERTXE/MC/25014_Car_Black__Box.X/25014_Car_Black_Box.X/dashbo
      +                          ard.c: 91:  clcd_print(" TIME     EV  SP", (0x80 + 0));
  5332     053B  3034               	movlw	low (STR_19| (0+32768))
  5333     053C  00F6               	movwf	clcd_print@str
  5334     053D  3084               	movlw	high (STR_19| (0+32768))
  5335     053E  00F7               	movwf	clcd_print@str+1
  5336     053F  3080               	movlw	128
  5337     0540  00F8               	movwf	clcd_print@addr
  5338     0541  120A  158A  210B  120A  118A  	fcall	_clcd_print
  5339     0546                     l3798:
  5340                           
  5341                           ;/home/santhoshtk/Desktop/EMERTXE/MC/25014_Car_Black__Box.X/25014_Car_Black_Box.X/dashbo
      +                          ard.c: 95:  get_time(clock_reg);
  5342     0546  306A               	movlw	(low (_clock_reg| 0))& (0+255)
  5343     0547  00F6               	movwf	get_time@clock_reg
  5344     0548  160A  118A  279C  120A  118A  	fcall	_get_time
  5345     054D                     l3800:
  5346                           
  5347                           ;/home/santhoshtk/Desktop/EMERTXE/MC/25014_Car_Black__Box.X/25014_Car_Black_Box.X/dashbo
      +                          ard.c: 96:  display_time(clock_reg);
  5348     054D  306A               	movlw	(low (_clock_reg| 0))& (0+255)
  5349     054E  00F9               	movwf	display_time@clock_reg
  5350     054F  120A  158A  2323  120A  118A  	fcall	_display_time
  5351     0554                     l3802:
  5352                           
  5353                           ;/home/santhoshtk/Desktop/EMERTXE/MC/25014_Car_Black__Box.X/25014_Car_Black_Box.X/dashbo
      +                          ard.c: 100:  if(key == 0x3E){
  5354     0554  303E               	movlw	62
  5355     0555  1283               	bcf	3,5	;RP0=0, select bank0
  5356     0556  1303               	bcf	3,6	;RP1=0, select bank0
  5357     0557  064C               	xorwf	dashboard@key,w
  5358     0558  1D03               	btfss	3,2
  5359     0559  2D5B               	goto	u4651
  5360     055A  2D5C               	goto	u4650
  5361     055B                     u4651:
  5362     055B  2D81               	goto	l3814
  5363     055C                     u4650:
  5364     055C                     l3804:
  5365                           
  5366                           ;/home/santhoshtk/Desktop/EMERTXE/MC/25014_Car_Black__Box.X/25014_Car_Black_Box.X/dashbo
      +                          ard.c: 103:   if(pos == 7){
  5367     055C  3007               	movlw	7
  5368     055D  067A               	xorwf	_pos,w
  5369     055E  047B               	iorwf	_pos+1,w
  5370     055F  1D03               	btfss	3,2
  5371     0560  2D62               	goto	u4661
  5372     0561  2D63               	goto	u4660
  5373     0562                     u4661:
  5374     0562  2D68               	goto	l3808
  5375     0563                     u4660:
  5376     0563                     l3806:
  5377                           
  5378                           ;/home/santhoshtk/Desktop/EMERTXE/MC/25014_Car_Black__Box.X/25014_Car_Black_Box.X/dashbo
      +                          ard.c: 104:    pos = 1;
  5379     0563  3001               	movlw	1
  5380     0564  00FA               	movwf	_pos
  5381     0565  3000               	movlw	0
  5382     0566  00FB               	movwf	_pos+1
  5383                           
  5384                           ;/home/santhoshtk/Desktop/EMERTXE/MC/25014_Car_Black__Box.X/25014_Car_Black_Box.X/dashbo
      +                          ard.c: 105:   }
  5385     0567  2DAE               	goto	l3832
  5386     0568                     l3808:
  5387     0568  087B               	movf	_pos+1,w
  5388     0569  3A80               	xorlw	128
  5389     056A  00FF               	movwf	btemp1
  5390     056B  3080               	movlw	128
  5391     056C  027F               	subwf	btemp1,w
  5392     056D  1D03               	skipz
  5393     056E  2D71               	goto	u4675
  5394     056F  3006               	movlw	6
  5395     0570  027A               	subwf	_pos,w
  5396     0571                     u4675:
  5397     0571  1803               	skipnc
  5398     0572  2D74               	goto	u4671
  5399     0573  2D75               	goto	u4670
  5400     0574                     u4671:
  5401     0574  2DAE               	goto	l3832
  5402     0575                     u4670:
  5403     0575                     l3810:
  5404                           
  5405                           ;/home/santhoshtk/Desktop/EMERTXE/MC/25014_Car_Black__Box.X/25014_Car_Black_Box.X/dashbo
      +                          ard.c: 107:    pos++;
  5406     0575  3001               	movlw	1
  5407     0576  07FA               	addwf	_pos,f
  5408     0577  1803               	skipnc
  5409     0578  0AFB               	incf	_pos+1,f
  5410     0579  3000               	movlw	0
  5411     057A  07FB               	addwf	_pos+1,f
  5412     057B                     l3812:
  5413                           
  5414                           ;/home/santhoshtk/Desktop/EMERTXE/MC/25014_Car_Black__Box.X/25014_Car_Black_Box.X/dashbo
      +                          ard.c: 108:    write_event();
  5415     057B  120A  118A  271A  120A  118A  	fcall	_write_event
  5416     0580  2DAE               	goto	l3832
  5417     0581                     l3814:
  5418     0581  303D               	movlw	61
  5419     0582  064C               	xorwf	dashboard@key,w
  5420     0583  1D03               	btfss	3,2
  5421     0584  2D86               	goto	u4681
  5422     0585  2D87               	goto	u4680
  5423     0586                     u4681:
  5424     0586  2DA3               	goto	l3826
  5425     0587                     u4680:
  5426     0587                     l3816:
  5427                           
  5428                           ;/home/santhoshtk/Desktop/EMERTXE/MC/25014_Car_Black__Box.X/25014_Car_Black_Box.X/dashbo
      +                          ard.c: 114:   if(pos == 7){
  5429     0587  3007               	movlw	7
  5430     0588  067A               	xorwf	_pos,w
  5431     0589  047B               	iorwf	_pos+1,w
  5432     058A  1D03               	btfss	3,2
  5433     058B  2D8D               	goto	u4691
  5434     058C  2D8E               	goto	u4690
  5435     058D                     u4691:
  5436     058D  2D8F               	goto	l3820
  5437     058E                     u4690:
  5438     058E  2D63               	goto	l3806
  5439     058F                     l3820:
  5440     058F  087B               	movf	_pos+1,w
  5441     0590  3A80               	xorlw	128
  5442     0591  00FF               	movwf	btemp1
  5443     0592  3080               	movlw	128
  5444     0593  027F               	subwf	btemp1,w
  5445     0594  1D03               	skipz
  5446     0595  2D98               	goto	u4705
  5447     0596  3002               	movlw	2
  5448     0597  027A               	subwf	_pos,w
  5449     0598                     u4705:
  5450     0598  1C03               	skipc
  5451     0599  2D9B               	goto	u4701
  5452     059A  2D9C               	goto	u4700
  5453     059B                     u4701:
  5454     059B  2DAE               	goto	l3832
  5455     059C                     u4700:
  5456     059C                     l3822:
  5457                           
  5458                           ;/home/santhoshtk/Desktop/EMERTXE/MC/25014_Car_Black__Box.X/25014_Car_Black_Box.X/dashbo
      +                          ard.c: 118:    pos--;
  5459     059C  30FF               	movlw	255
  5460     059D  07FA               	addwf	_pos,f
  5461     059E  1803               	skipnc
  5462     059F  0AFB               	incf	_pos+1,f
  5463     05A0  30FF               	movlw	255
  5464     05A1  07FB               	addwf	_pos+1,f
  5465     05A2  2D7B               	goto	l3812
  5466     05A3                     l3826:
  5467     05A3  303B               	movlw	59
  5468     05A4  064C               	xorwf	dashboard@key,w
  5469     05A5  1D03               	btfss	3,2
  5470     05A6  2DA8               	goto	u4711
  5471     05A7  2DA9               	goto	u4710
  5472     05A8                     u4711:
  5473     05A8  2DAE               	goto	l3832
  5474     05A9                     u4710:
  5475     05A9                     l3828:
  5476                           
  5477                           ;/home/santhoshtk/Desktop/EMERTXE/MC/25014_Car_Black__Box.X/25014_Car_Black_Box.X/dashbo
      +                          ard.c: 125:   pos = 7;
  5478     05A9  3007               	movlw	7
  5479     05AA  00FA               	movwf	_pos
  5480     05AB  3000               	movlw	0
  5481     05AC  00FB               	movwf	_pos+1
  5482     05AD  2D7B               	goto	l3812
  5483     05AE                     l3832:
  5484                           
  5485                           ;/home/santhoshtk/Desktop/EMERTXE/MC/25014_Car_Black__Box.X/25014_Car_Black_Box.X/dashbo
      +                          ard.c: 130:  clcd_print(event[pos], (0xC0 + 10));
  5486     05AE  087A               	movf	_pos,w
  5487     05AF  1283               	bcf	3,5	;RP0=0, select bank0
  5488     05B0  1303               	bcf	3,6	;RP1=0, select bank0
  5489     05B1  00CA               	movwf	??_dashboard
  5490     05B2  074A               	addwf	??_dashboard,w
  5491     05B3  3EA0               	addlw	(low (_event| 0))& (0+255)
  5492     05B4  0084               	movwf	4
  5493     05B5  1383               	bcf	3,7	;select IRP bank1
  5494     05B6  0800               	movf	0,w
  5495     05B7  00F6               	movwf	clcd_print@str
  5496     05B8  0A84               	incf	4,f
  5497     05B9  0800               	movf	0,w
  5498     05BA  0384               	decf	4,f
  5499     05BB  00F7               	movwf	clcd_print@str+1
  5500     05BC  30CA               	movlw	202
  5501     05BD  00F8               	movwf	clcd_print@addr
  5502     05BE  120A  158A  210B  120A  118A  	fcall	_clcd_print
  5503     05C3                     l3834:
  5504                           
  5505                           ;/home/santhoshtk/Desktop/EMERTXE/MC/25014_Car_Black__Box.X/25014_Car_Black_Box.X/dashbo
      +                          ard.c: 134:  adc_val = read_adc(0x00);
  5506     05C3  3000               	movlw	0
  5507     05C4  160A  118A  275E  120A  118A  	fcall	_read_adc
  5508     05C9  0873               	movf	?_read_adc+1,w
  5509     05CA  1283               	bcf	3,5	;RP0=0, select bank0
  5510     05CB  1303               	bcf	3,6	;RP1=0, select bank0
  5511     05CC  00D8               	movwf	_adc_val+1
  5512     05CD  0872               	movf	?_read_adc,w
  5513     05CE  00D7               	movwf	_adc_val
  5514     05CF                     l3836:
  5515                           
  5516                           ;/home/santhoshtk/Desktop/EMERTXE/MC/25014_Car_Black__Box.X/25014_Car_Black_Box.X/dashbo
      +                          ard.c: 137:  adc_val = adc_val / 10.23;
  5517     05CF  0857               	movf	_adc_val,w
  5518     05D0  00F2               	movwf	___xxtofl@val
  5519     05D1  0858               	movf	_adc_val+1,w
  5520     05D2  00F3               	movwf	___xxtofl@val+1
  5521     05D3  01F4               	clrf	___xxtofl@val+2
  5522     05D4  01F5               	clrf	___xxtofl@val+3
  5523     05D5  3000               	movlw	0
  5524     05D6  120A  158A  2684  120A  118A  	fcall	___xxtofl
  5525     05DB  0875               	movf	?___xxtofl+3,w
  5526     05DC  1283               	bcf	3,5	;RP0=0, select bank0
  5527     05DD  1303               	bcf	3,6	;RP1=0, select bank0
  5528     05DE  00AD               	movwf	___fldiv@b+3
  5529     05DF  0874               	movf	?___xxtofl+2,w
  5530     05E0  00AC               	movwf	___fldiv@b+2
  5531     05E1  0873               	movf	?___xxtofl+1,w
  5532     05E2  00AB               	movwf	___fldiv@b+1
  5533     05E3  0872               	movf	?___xxtofl,w
  5534     05E4  00AA               	movwf	___fldiv@b
  5535     05E5  3041               	movlw	65
  5536     05E6  00A9               	movwf	___fldiv@a+3
  5537     05E7  3023               	movlw	35
  5538     05E8  00A8               	movwf	___fldiv@a+2
  5539     05E9  30AE               	movlw	174
  5540     05EA  00A7               	movwf	___fldiv@a+1
  5541     05EB  3014               	movlw	20
  5542     05EC  00A6               	movwf	___fldiv@a
  5543     05ED  120A  118A  2040  120A  118A  	fcall	___fldiv
  5544     05F2  1283               	bcf	3,5	;RP0=0, select bank0
  5545     05F3  1303               	bcf	3,6	;RP1=0, select bank0
  5546     05F4  0829               	movf	?___fldiv+3,w
  5547     05F5  00C3               	movwf	___fltol@f1+3
  5548     05F6  0828               	movf	?___fldiv+2,w
  5549     05F7  00C2               	movwf	___fltol@f1+2
  5550     05F8  0827               	movf	?___fldiv+1,w
  5551     05F9  00C1               	movwf	___fltol@f1+1
  5552     05FA  0826               	movf	?___fldiv,w
  5553     05FB  00C0               	movwf	___fltol@f1
  5554     05FC  120A  158A  24F2  120A  118A  	fcall	___fltol
  5555     0601  1283               	bcf	3,5	;RP0=0, select bank0
  5556     0602  1303               	bcf	3,6	;RP1=0, select bank0
  5557     0603  0841               	movf	?___fltol+1,w
  5558     0604  00D8               	movwf	_adc_val+1
  5559     0605  0840               	movf	?___fltol,w
  5560     0606  00D7               	movwf	_adc_val
  5561     0607                     l3838:
  5562                           
  5563                           ;/home/santhoshtk/Desktop/EMERTXE/MC/25014_Car_Black__Box.X/25014_Car_Black_Box.X/dashbo
      +                          ard.c: 140:  if(adc_val == 100) adc_val--;
  5564     0607  3064               	movlw	100
  5565     0608  0657               	xorwf	_adc_val,w
  5566     0609  0458               	iorwf	_adc_val+1,w
  5567     060A  1D03               	btfss	3,2
  5568     060B  2E0D               	goto	u4721
  5569     060C  2E0E               	goto	u4720
  5570     060D                     u4721:
  5571     060D  2E14               	goto	l3842
  5572     060E                     u4720:
  5573     060E                     l3840:
  5574     060E  3001               	movlw	1
  5575     060F  02D7               	subwf	_adc_val,f
  5576     0610  3000               	movlw	0
  5577     0611  1C03               	skipc
  5578     0612  03D8               	decf	_adc_val+1,f
  5579     0613  02D8               	subwf	_adc_val+1,f
  5580     0614                     l3842:
  5581                           
  5582                           ;/home/santhoshtk/Desktop/EMERTXE/MC/25014_Car_Black__Box.X/25014_Car_Black_Box.X/dashbo
      +                          ard.c: 142:  speed[0] = (adc_val / 10) + '0';
  5583     0614  300A               	movlw	10
  5584     0615  00F2               	movwf	___lwdiv@divisor
  5585     0616  3000               	movlw	0
  5586     0617  00F3               	movwf	___lwdiv@divisor+1
  5587     0618  0858               	movf	_adc_val+1,w
  5588     0619  00F5               	movwf	___lwdiv@dividend+1
  5589     061A  0857               	movf	_adc_val,w
  5590     061B  00F4               	movwf	___lwdiv@dividend
  5591     061C  120A  118A  23BE  120A  118A  	fcall	___lwdiv
  5592     0621  0872               	movf	?___lwdiv,w
  5593     0622  3E30               	addlw	48
  5594     0623  1283               	bcf	3,5	;RP0=0, select bank0
  5595     0624  1303               	bcf	3,6	;RP1=0, select bank0
  5596     0625  00E7               	movwf	_speed
  5597     0626                     l3844:
  5598                           
  5599                           ;/home/santhoshtk/Desktop/EMERTXE/MC/25014_Car_Black__Box.X/25014_Car_Black_Box.X/dashbo
      +                          ard.c: 143:  speed[1] = (adc_val % 10) + '0';
  5600     0626  300A               	movlw	10
  5601     0627  00F2               	movwf	___lwmod@divisor
  5602     0628  3000               	movlw	0
  5603     0629  00F3               	movwf	___lwmod@divisor+1
  5604     062A  0858               	movf	_adc_val+1,w
  5605     062B  00F5               	movwf	___lwmod@dividend+1
  5606     062C  0857               	movf	_adc_val,w
  5607     062D  00F4               	movwf	___lwmod@dividend
  5608     062E  120A  158A  226C  120A  118A  	fcall	___lwmod
  5609     0633  0872               	movf	?___lwmod,w
  5610     0634  3E30               	addlw	48
  5611     0635  1283               	bcf	3,5	;RP0=0, select bank0
  5612     0636  1303               	bcf	3,6	;RP1=0, select bank0
  5613     0637  00E8               	movwf	_speed+1
  5614     0638                     l3846:
  5615                           
  5616                           ;/home/santhoshtk/Desktop/EMERTXE/MC/25014_Car_Black__Box.X/25014_Car_Black_Box.X/dashbo
      +                          ard.c: 144:  speed[2] = '\0';
  5617     0638  01E9               	clrf	_speed+2
  5618     0639                     l3848:
  5619                           
  5620                           ;/home/santhoshtk/Desktop/EMERTXE/MC/25014_Car_Black__Box.X/25014_Car_Black_Box.X/dashbo
      +                          ard.c: 146:  clcd_print(speed, (0xC0 + 14));
  5621     0639  3067               	movlw	(low (_speed| 0))& (0+255)
  5622     063A  00F6               	movwf	clcd_print@str
  5623     063B  3000               	movlw	0
  5624     063C  00F7               	movwf	clcd_print@str+1
  5625     063D  30CE               	movlw	206
  5626     063E  00F8               	movwf	clcd_print@addr
  5627     063F  120A  158A  210B  120A  118A  	fcall	_clcd_print
  5628     0644                     l187:
  5629     0644  0008               	return
  5630     0645                     __end_of_dashboard:
  5631                           
  5632                           	psect	text26
  5633     071A                     __ptext26:	
  5634 ;; *************** function _write_event *****************
  5635 ;; Defined at:
  5636 ;;		line 61 in file "/home/santhoshtk/Desktop/EMERTXE/MC/25014_Car_Black__Box.X/25014_Car_Black_Box.X/dashboard.c"
  5637 ;; Parameters:    Size  Location     Type
  5638 ;;		None
  5639 ;; Auto vars:     Size  Location     Type
  5640 ;;  i               2    7[COMMON] unsigned int 
  5641 ;; Return value:  Size  Location     Type
  5642 ;;                  1    wreg      void 
  5643 ;; Registers used:
  5644 ;;		wreg, fsr0l, fsr0h, status,2, status,0, pclath, btemp1, cstack
  5645 ;; Tracked objects:
  5646 ;;		On entry : 0/0
  5647 ;;		On exit  : 0/0
  5648 ;;		Unchanged: 0/0
  5649 ;; Data sizes:     COMMON   BANK0   BANK1   BANK3   BANK2
  5650 ;;      Params:         0       0       0       0       0
  5651 ;;      Locals:         2       0       0       0       0
  5652 ;;      Temps:          0       7       0       0       0
  5653 ;;      Totals:         2       7       0       0       0
  5654 ;;Total ram usage:        9 bytes
  5655 ;; Hardware stack levels used: 1
  5656 ;; Hardware stack levels required when called: 3
  5657 ;; This function calls:
  5658 ;;		___lwmod
  5659 ;;		_write_external_eeprom
  5660 ;; This function is called by:
  5661 ;;		_dashboard
  5662 ;; This function uses a non-reentrant model
  5663 ;;
  5664                           
  5665     071A                     _write_event:	
  5666                           ;psect for function _write_event
  5667                           
  5668     071A                     l3334:	
  5669                           ;incstack = 0
  5670                           ; Regs used in _write_event: [wreg-fsr0h+status,2+status,0+pclath+btemp1+cstack]
  5671                           
  5672                           
  5673                           ;/home/santhoshtk/Desktop/EMERTXE/MC/25014_Car_Black__Box.X/25014_Car_Black_Box.X/dashbo
      +                          ard.c: 63:  static unsigned int address = 0x00;;/home/santhoshtk/Desktop/EMERTXE/MC/2501
      +                          4_Car_Black__Box.X/25014_Car_Black_Box.X/dashboard.c: 69:  if(address == 100) address = 
      +                          0x00;
  5674     071A  3064               	movlw	100
  5675     071B  1283               	bcf	3,5	;RP0=0, select bank0
  5676     071C  1303               	bcf	3,6	;RP1=0, select bank0
  5677     071D  0653               	xorwf	write_event@address,w
  5678     071E  0454               	iorwf	write_event@address+1,w
  5679     071F  1D03               	btfss	3,2
  5680     0720  2F22               	goto	u3801
  5681     0721  2F23               	goto	u3800
  5682     0722                     u3801:
  5683     0722  2F25               	goto	l164
  5684     0723                     u3800:
  5685     0723                     l3336:
  5686     0723  01D3               	clrf	write_event@address
  5687     0724  01D4               	clrf	write_event@address+1
  5688     0725                     l164:
  5689                           
  5690                           ;/home/santhoshtk/Desktop/EMERTXE/MC/25014_Car_Black__Box.X/25014_Car_Black_Box.X/dashbo
      +                          ard.c: 72:  for(unsigned int i = 0; i < 8; i++){
  5691     0725  01F7               	clrf	write_event@i
  5692     0726  01F8               	clrf	write_event@i+1
  5693     0727                     l3342:
  5694                           
  5695                           ;/home/santhoshtk/Desktop/EMERTXE/MC/25014_Car_Black__Box.X/25014_Car_Black_Box.X/dashbo
      +                          ard.c: 73:   if(i == 2 || i == 5) continue;
  5696     0727  3002               	movlw	2
  5697     0728  0677               	xorwf	write_event@i,w
  5698     0729  0478               	iorwf	write_event@i+1,w
  5699     072A  1903               	btfsc	3,2
  5700     072B  2F2D               	goto	u3811
  5701     072C  2F2E               	goto	u3810
  5702     072D                     u3811:
  5703     072D  2F4C               	goto	l3352
  5704     072E                     u3810:
  5705     072E                     l3344:
  5706     072E  3005               	movlw	5
  5707     072F  0677               	xorwf	write_event@i,w
  5708     0730  0478               	iorwf	write_event@i+1,w
  5709     0731  1D03               	btfss	3,2
  5710     0732  2F34               	goto	u3821
  5711     0733  2F35               	goto	u3820
  5712     0734                     u3821:
  5713     0734  2F36               	goto	l3348
  5714     0735                     u3820:
  5715     0735  2F4C               	goto	l3352
  5716     0736                     l3348:
  5717     0736  0877               	movf	write_event@i,w
  5718     0737  3E5E               	addlw	(low (_time| 0))& (0+255)
  5719     0738  0084               	movwf	4
  5720     0739  1383               	bcf	3,7	;select IRP bank0
  5721     073A  0800               	movf	0,w
  5722     073B  00F3               	movwf	write_external_eeprom@data
  5723     073C  1283               	bcf	3,5	;RP0=0, select bank0
  5724     073D  1303               	bcf	3,6	;RP1=0, select bank0
  5725     073E  0853               	movf	write_event@address,w
  5726     073F  120A  158A  213A  120A  118A  	fcall	_write_external_eeprom
  5727     0744                     l3350:
  5728     0744  3001               	movlw	1
  5729     0745  1283               	bcf	3,5	;RP0=0, select bank0
  5730     0746  1303               	bcf	3,6	;RP1=0, select bank0
  5731     0747  07D3               	addwf	write_event@address,f
  5732     0748  1803               	skipnc
  5733     0749  0AD4               	incf	write_event@address+1,f
  5734     074A  3000               	movlw	0
  5735     074B  07D4               	addwf	write_event@address+1,f
  5736     074C                     l3352:
  5737     074C  3001               	movlw	1
  5738     074D  07F7               	addwf	write_event@i,f
  5739     074E  1803               	skipnc
  5740     074F  0AF8               	incf	write_event@i+1,f
  5741     0750  3000               	movlw	0
  5742     0751  07F8               	addwf	write_event@i+1,f
  5743     0752                     l3354:
  5744     0752  3000               	movlw	0
  5745     0753  0278               	subwf	write_event@i+1,w
  5746     0754  3008               	movlw	8
  5747     0755  1903               	skipnz
  5748     0756  0277               	subwf	write_event@i,w
  5749     0757  1C03               	skipc
  5750     0758  2F5A               	goto	u3831
  5751     0759  2F5B               	goto	u3830
  5752     075A                     u3831:
  5753     075A  2F27               	goto	l3342
  5754     075B                     u3830:
  5755     075B                     l3356:
  5756                           
  5757                           ;/home/santhoshtk/Desktop/EMERTXE/MC/25014_Car_Black__Box.X/25014_Car_Black_Box.X/dashbo
      +                          ard.c: 78:  write_external_eeprom(address++, event[pos][0]);
  5758     075B  087A               	movf	_pos,w
  5759     075C  1283               	bcf	3,5	;RP0=0, select bank0
  5760     075D  1303               	bcf	3,6	;RP1=0, select bank0
  5761     075E  00A0               	movwf	??_write_event
  5762     075F  0720               	addwf	??_write_event,w
  5763     0760  3EA0               	addlw	(low (_event| 0))& (0+255)
  5764     0761  0084               	movwf	4
  5765     0762  1383               	bcf	3,7	;select IRP bank1
  5766     0763  0800               	movf	0,w
  5767     0764  00A1               	movwf	??_write_event+1
  5768     0765  0A84               	incf	4,f
  5769     0766  0800               	movf	0,w
  5770     0767  00A2               	movwf	??_write_event+2
  5771     0768  0822               	movf	??_write_event+2,w
  5772     0769  00FF               	movwf	btemp1
  5773     076A  0821               	movf	??_write_event+1,w
  5774     076B  0084               	movwf	4
  5775     076C  160A  118A  2000  120A  118A  	fcall	stringtab
  5776     0771  00F3               	movwf	write_external_eeprom@data
  5777     0772  0853               	movf	write_event@address,w
  5778     0773  120A  158A  213A  120A  118A  	fcall	_write_external_eeprom
  5779     0778                     l3358:
  5780     0778  3001               	movlw	1
  5781     0779  1283               	bcf	3,5	;RP0=0, select bank0
  5782     077A  1303               	bcf	3,6	;RP1=0, select bank0
  5783     077B  07D3               	addwf	write_event@address,f
  5784     077C  1803               	skipnc
  5785     077D  0AD4               	incf	write_event@address+1,f
  5786     077E  3000               	movlw	0
  5787     077F  07D4               	addwf	write_event@address+1,f
  5788     0780                     l3360:
  5789                           
  5790                           ;/home/santhoshtk/Desktop/EMERTXE/MC/25014_Car_Black__Box.X/25014_Car_Black_Box.X/dashbo
      +                          ard.c: 79:  write_external_eeprom(address++, event[pos][1]);
  5791     0780  3001               	movlw	1
  5792     0781  00A0               	movwf	??_write_event
  5793     0782  087A               	movf	_pos,w
  5794     0783  00A1               	movwf	??_write_event+1
  5795     0784  0721               	addwf	??_write_event+1,w
  5796     0785  3EA0               	addlw	(low (_event| 0))& (0+255)
  5797     0786  0084               	movwf	4
  5798     0787  1383               	bcf	3,7	;select IRP bank1
  5799     0788  0800               	movf	0,w
  5800     0789  00A2               	movwf	??_write_event+2
  5801     078A  0A84               	incf	4,f
  5802     078B  0800               	movf	0,w
  5803     078C  00A3               	movwf	??_write_event+3
  5804     078D  0820               	movf	??_write_event,w
  5805     078E  0722               	addwf	??_write_event+2,w
  5806     078F  00A5               	movwf	??_write_event+5
  5807     0790  0823               	movf	??_write_event+3,w
  5808     0791  00A4               	movwf	??_write_event+4
  5809     0792  1803               	skipnc
  5810     0793  0AA4               	incf	??_write_event+4,f
  5811     0794  1BA0               	btfsc	??_write_event,7
  5812     0795  03A4               	decf	??_write_event+4,f
  5813     0796  0824               	movf	??_write_event+4,w
  5814     0797  00A6               	movwf	??_write_event+6
  5815     0798  0826               	movf	??_write_event+6,w
  5816     0799  00FF               	movwf	btemp1
  5817     079A  0825               	movf	??_write_event+5,w
  5818     079B  0084               	movwf	4
  5819     079C  160A  118A  2000  120A  118A  	fcall	stringtab
  5820     07A1  00F3               	movwf	write_external_eeprom@data
  5821     07A2  0853               	movf	write_event@address,w
  5822     07A3  120A  158A  213A  120A  118A  	fcall	_write_external_eeprom
  5823     07A8  3001               	movlw	1
  5824     07A9  1283               	bcf	3,5	;RP0=0, select bank0
  5825     07AA  1303               	bcf	3,6	;RP1=0, select bank0
  5826     07AB  07D3               	addwf	write_event@address,f
  5827     07AC  1803               	skipnc
  5828     07AD  0AD4               	incf	write_event@address+1,f
  5829     07AE  3000               	movlw	0
  5830     07AF  07D4               	addwf	write_event@address+1,f
  5831     07B0                     l3362:
  5832                           
  5833                           ;/home/santhoshtk/Desktop/EMERTXE/MC/25014_Car_Black__Box.X/25014_Car_Black_Box.X/dashbo
      +                          ard.c: 82:  write_external_eeprom(address++, speed[0]);
  5834     07B0  0867               	movf	_speed,w
  5835     07B1  00F3               	movwf	write_external_eeprom@data
  5836     07B2  0853               	movf	write_event@address,w
  5837     07B3  120A  158A  213A  120A  118A  	fcall	_write_external_eeprom
  5838     07B8                     l3364:
  5839     07B8  3001               	movlw	1
  5840     07B9  1283               	bcf	3,5	;RP0=0, select bank0
  5841     07BA  1303               	bcf	3,6	;RP1=0, select bank0
  5842     07BB  07D3               	addwf	write_event@address,f
  5843     07BC  1803               	skipnc
  5844     07BD  0AD4               	incf	write_event@address+1,f
  5845     07BE  3000               	movlw	0
  5846     07BF  07D4               	addwf	write_event@address+1,f
  5847                           
  5848                           ;/home/santhoshtk/Desktop/EMERTXE/MC/25014_Car_Black__Box.X/25014_Car_Black_Box.X/dashbo
      +                          ard.c: 83:  write_external_eeprom(address++, speed[1]);
  5849     07C0  0868               	movf	_speed+1,w
  5850     07C1  00F3               	movwf	write_external_eeprom@data
  5851     07C2  0853               	movf	write_event@address,w
  5852     07C3  120A  158A  213A  120A  118A  	fcall	_write_external_eeprom
  5853     07C8                     l3366:
  5854     07C8  3001               	movlw	1
  5855     07C9  1283               	bcf	3,5	;RP0=0, select bank0
  5856     07CA  1303               	bcf	3,6	;RP1=0, select bank0
  5857     07CB  07D3               	addwf	write_event@address,f
  5858     07CC  1803               	skipnc
  5859     07CD  0AD4               	incf	write_event@address+1,f
  5860     07CE  3000               	movlw	0
  5861     07CF  07D4               	addwf	write_event@address+1,f
  5862     07D0                     l3368:
  5863                           
  5864                           ;/home/santhoshtk/Desktop/EMERTXE/MC/25014_Car_Black__Box.X/25014_Car_Black_Box.X/dashbo
      +                          ard.c: 85:  event_count = (event_count + 1) % 10;
  5865     07D0  300A               	movlw	10
  5866     07D1  00F2               	movwf	___lwmod@divisor
  5867     07D2  3000               	movlw	0
  5868     07D3  00F3               	movwf	___lwmod@divisor+1
  5869     07D4  0855               	movf	_event_count,w
  5870     07D5  3E01               	addlw	1
  5871     07D6  00F4               	movwf	___lwmod@dividend
  5872     07D7  0856               	movf	_event_count+1,w
  5873     07D8  1803               	skipnc
  5874     07D9  3E01               	addlw	1
  5875     07DA  3E00               	addlw	0
  5876     07DB  00F5               	movwf	___lwmod@dividend+1
  5877     07DC  120A  158A  226C  120A  118A  	fcall	___lwmod
  5878     07E1  0873               	movf	?___lwmod+1,w
  5879     07E2  1283               	bcf	3,5	;RP0=0, select bank0
  5880     07E3  1303               	bcf	3,6	;RP1=0, select bank0
  5881     07E4  00D6               	movwf	_event_count+1
  5882     07E5  0872               	movf	?___lwmod,w
  5883     07E6  00D5               	movwf	_event_count
  5884     07E7                     l172:
  5885     07E7  0008               	return
  5886     07E8                     __end_of_write_event:
  5887                           
  5888                           	psect	text27
  5889     093A                     __ptext27:	
  5890 ;; *************** function _write_external_eeprom *****************
  5891 ;; Defined at:
  5892 ;;		line 6 in file "/home/santhoshtk/Desktop/EMERTXE/MC/25014_Car_Black__Box.X/25014_Car_Black_Box.X/external_eeprom.c"
  5893 ;; Parameters:    Size  Location     Type
  5894 ;;  address         1    wreg     unsigned char 
  5895 ;;  data            1    3[COMMON] unsigned char 
  5896 ;; Auto vars:     Size  Location     Type
  5897 ;;  address         1    4[COMMON] unsigned char 
  5898 ;;  wait            2    5[COMMON] unsigned int 
  5899 ;; Return value:  Size  Location     Type
  5900 ;;                  1    wreg      void 
  5901 ;; Registers used:
  5902 ;;		wreg, status,2, status,0, pclath, cstack
  5903 ;; Tracked objects:
  5904 ;;		On entry : 0/0
  5905 ;;		On exit  : 0/0
  5906 ;;		Unchanged: 0/0
  5907 ;; Data sizes:     COMMON   BANK0   BANK1   BANK3   BANK2
  5908 ;;      Params:         1       0       0       0       0
  5909 ;;      Locals:         3       0       0       0       0
  5910 ;;      Temps:          0       0       0       0       0
  5911 ;;      Totals:         4       0       0       0       0
  5912 ;;Total ram usage:        4 bytes
  5913 ;; Hardware stack levels used: 1
  5914 ;; Hardware stack levels required when called: 2
  5915 ;; This function calls:
  5916 ;;		_i2c_start
  5917 ;;		_i2c_stop
  5918 ;;		_i2c_write
  5919 ;; This function is called by:
  5920 ;;		_write_event
  5921 ;; This function uses a non-reentrant model
  5922 ;;
  5923                           
  5924     093A                     _write_external_eeprom:	
  5925                           ;psect for function _write_external_eeprom
  5926                           
  5927                           
  5928                           ;incstack = 0
  5929                           ; Regs used in _write_external_eeprom: [wreg+status,2+status,0+pclath+cstack]
  5930                           ;write_external_eeprom@address stored from wreg
  5931     093A  00F4               	movwf	write_external_eeprom@address
  5932     093B                     l3156:
  5933                           
  5934                           ;/home/santhoshtk/Desktop/EMERTXE/MC/25014_Car_Black__Box.X/25014_Car_Black_Box.X/extern
      +                          al_eeprom.c: 6: void write_external_eeprom(unsigned char address, unsigned char data);/h
      +                          ome/santhoshtk/Desktop/EMERTXE/MC/25014_Car_Black__Box.X/25014_Car_Black_Box.X/external_
      +                          eeprom.c: 7: {;/home/santhoshtk/Desktop/EMERTXE/MC/25014_Car_Black__Box.X/25014_Car_Blac
      +                          k_Box.X/external_eeprom.c: 8:     i2c_start();
  5935     093B  160A  118A  26BB  120A  158A  	fcall	_i2c_start
  5936                           
  5937                           ;/home/santhoshtk/Desktop/EMERTXE/MC/25014_Car_Black__Box.X/25014_Car_Black_Box.X/extern
      +                          al_eeprom.c: 9:     i2c_write(0xA0);
  5938     0940  30A0               	movlw	160
  5939     0941  160A  118A  26E2  120A  158A  	fcall	_i2c_write
  5940                           
  5941                           ;/home/santhoshtk/Desktop/EMERTXE/MC/25014_Car_Black__Box.X/25014_Car_Black_Box.X/extern
      +                          al_eeprom.c: 10:     i2c_write(address);
  5942     0946  0874               	movf	write_external_eeprom@address,w
  5943     0947  160A  118A  26E2  120A  158A  	fcall	_i2c_write
  5944                           
  5945                           ;/home/santhoshtk/Desktop/EMERTXE/MC/25014_Car_Black__Box.X/25014_Car_Black_Box.X/extern
      +                          al_eeprom.c: 11:     i2c_write(data);
  5946     094C  0873               	movf	write_external_eeprom@data,w
  5947     094D  160A  118A  26E2  120A  158A  	fcall	_i2c_write
  5948                           
  5949                           ;/home/santhoshtk/Desktop/EMERTXE/MC/25014_Car_Black__Box.X/25014_Car_Black_Box.X/extern
      +                          al_eeprom.c: 12:     i2c_stop();
  5950     0952  160A  118A  26C4  120A  158A  	fcall	_i2c_stop
  5951     0957                     l3158:
  5952                           
  5953                           ;/home/santhoshtk/Desktop/EMERTXE/MC/25014_Car_Black__Box.X/25014_Car_Black_Box.X/extern
      +                          al_eeprom.c: 13:     for (unsigned int wait = 3000;wait--;);
  5954     0957  30B8               	movlw	184
  5955     0958  00F5               	movwf	write_external_eeprom@wait
  5956     0959  300B               	movlw	11
  5957     095A  00F6               	movwf	write_external_eeprom@wait+1
  5958     095B                     l3160:
  5959     095B  3001               	movlw	1
  5960     095C  02F5               	subwf	write_external_eeprom@wait,f
  5961     095D  3000               	movlw	0
  5962     095E  1C03               	skipc
  5963     095F  03F6               	decf	write_external_eeprom@wait+1,f
  5964     0960  02F6               	subwf	write_external_eeprom@wait+1,f
  5965     0961  0A75               	incf	write_external_eeprom@wait,w
  5966     0962  1D03               	skipz
  5967     0963  2968               	goto	u3451
  5968     0964  0A76               	incf	write_external_eeprom@wait+1,w
  5969     0965  1D03               	btfss	3,2
  5970     0966  2968               	goto	u3451
  5971     0967  2969               	goto	u3450
  5972     0968                     u3451:
  5973     0968  295B               	goto	l3160
  5974     0969                     u3450:
  5975     0969                     l349:
  5976     0969  0008               	return
  5977     096A                     __end_of_write_external_eeprom:
  5978                           
  5979                           	psect	text28
  5980     175E                     __ptext28:	
  5981 ;; *************** function _read_adc *****************
  5982 ;; Defined at:
  5983 ;;		line 13 in file "/home/santhoshtk/Desktop/EMERTXE/MC/25014_Car_Black__Box.X/25014_Car_Black_Box.X/adc.c"
  5984 ;; Parameters:    Size  Location     Type
  5985 ;;  channel         1    wreg     unsigned char 
  5986 ;; Auto vars:     Size  Location     Type
  5987 ;;  channel         1    5[COMMON] unsigned char 
  5988 ;;  adc_reg_val     2    6[COMMON] unsigned short 
  5989 ;; Return value:  Size  Location     Type
  5990 ;;                  2    2[COMMON] unsigned short 
  5991 ;; Registers used:
  5992 ;;		wreg, status,2, status,0
  5993 ;; Tracked objects:
  5994 ;;		On entry : 0/0
  5995 ;;		On exit  : 0/0
  5996 ;;		Unchanged: 0/0
  5997 ;; Data sizes:     COMMON   BANK0   BANK1   BANK3   BANK2
  5998 ;;      Params:         2       0       0       0       0
  5999 ;;      Locals:         3       0       0       0       0
  6000 ;;      Temps:          1       0       0       0       0
  6001 ;;      Totals:         6       0       0       0       0
  6002 ;;Total ram usage:        6 bytes
  6003 ;; Hardware stack levels used: 1
  6004 ;; Hardware stack levels required when called: 1
  6005 ;; This function calls:
  6006 ;;		Nothing
  6007 ;; This function is called by:
  6008 ;;		_dashboard
  6009 ;; This function uses a non-reentrant model
  6010 ;;
  6011                           
  6012     175E                     _read_adc:	
  6013                           ;psect for function _read_adc
  6014                           
  6015                           
  6016                           ;incstack = 0
  6017                           ; Regs used in _read_adc: [wreg+status,2+status,0]
  6018                           ;read_adc@channel stored from wreg
  6019     175E  00F5               	movwf	read_adc@channel
  6020     175F                     l3302:
  6021                           
  6022                           ;/home/santhoshtk/Desktop/EMERTXE/MC/25014_Car_Black__Box.X/25014_Car_Black_Box.X/adc.c:
      +                           13: unsigned short read_adc(unsigned char channel);/home/santhoshtk/Desktop/EMERTXE/MC/
      +                          25014_Car_Black__Box.X/25014_Car_Black_Box.X/adc.c: 14: {;/home/santhoshtk/Desktop/EMERT
      +                          XE/MC/25014_Car_Black__Box.X/25014_Car_Black_Box.X/adc.c: 15:     unsigned short adc_reg
      +                          _val;;/home/santhoshtk/Desktop/EMERTXE/MC/25014_Car_Black__Box.X/25014_Car_Black_Box.X/a
      +                          dc.c: 18:     ADCON0 = (ADCON0 & 0xC7) | (channel << 3);
  6023     175F  0875               	movf	read_adc@channel,w
  6024     1760  00F4               	movwf	??_read_adc
  6025     1761  3003               	movlw	3
  6026     1762                     u3775:
  6027     1762  1003               	clrc
  6028     1763  0DF4               	rlf	??_read_adc,f
  6029     1764  3EFF               	addlw	-1
  6030     1765  1D03               	skipz
  6031     1766  2F62               	goto	u3775
  6032     1767  1283               	bcf	3,5	;RP0=0, select bank0
  6033     1768  1303               	bcf	3,6	;RP1=0, select bank0
  6034     1769  081F               	movf	31,w	;volatile
  6035     176A  39C7               	andlw	199
  6036     176B  0474               	iorwf	??_read_adc,w
  6037     176C  009F               	movwf	31	;volatile
  6038     176D                     l3304:
  6039                           
  6040                           ;/home/santhoshtk/Desktop/EMERTXE/MC/25014_Car_Black__Box.X/25014_Car_Black_Box.X/adc.c:
      +                           21:     GO = 1;
  6041     176D  151F               	bsf	31,2	;volatile
  6042     176E                     l20:	
  6043                           ;/home/santhoshtk/Desktop/EMERTXE/MC/25014_Car_Black__Box.X/25014_Car_Black_Box.X/adc.c:
      +                           23:     while (nDONE);
  6044                           
  6045     176E  191F               	btfsc	31,2	;volatile
  6046     176F  2F71               	goto	u3781
  6047     1770  2F72               	goto	u3780
  6048     1771                     u3781:
  6049     1771  2F6E               	goto	l20
  6050     1772                     u3780:
  6051     1772                     l3306:
  6052                           
  6053                           ;/home/santhoshtk/Desktop/EMERTXE/MC/25014_Car_Black__Box.X/25014_Car_Black_Box.X/adc.c:
      +                           25:     adc_reg_val = (ADRESH << 8) | ADRESL;
  6054     1772  081E               	movf	30,w	;volatile
  6055     1773  00F7               	movwf	read_adc@adc_reg_val+1
  6056     1774  1683               	bsf	3,5	;RP0=1, select bank1
  6057     1775  1303               	bcf	3,6	;RP1=0, select bank1
  6058     1776  081E               	movf	30,w	;volatile
  6059     1777  00F6               	movwf	read_adc@adc_reg_val
  6060                           
  6061                           ;/home/santhoshtk/Desktop/EMERTXE/MC/25014_Car_Black__Box.X/25014_Car_Black_Box.X/adc.c:
      +                           27:     return adc_reg_val;
  6062     1778  0877               	movf	read_adc@adc_reg_val+1,w
  6063     1779  00F3               	movwf	?_read_adc+1
  6064     177A  0876               	movf	read_adc@adc_reg_val,w
  6065     177B  00F2               	movwf	?_read_adc
  6066     177C                     l23:
  6067     177C  0008               	return
  6068     177D                     __end_of_read_adc:
  6069                           
  6070                           	psect	text29
  6071     179C                     __ptext29:	
  6072 ;; *************** function _get_time *****************
  6073 ;; Defined at:
  6074 ;;		line 41 in file "/home/santhoshtk/Desktop/EMERTXE/MC/25014_Car_Black__Box.X/25014_Car_Black_Box.X/ds1307.c"
  6075 ;; Parameters:    Size  Location     Type
  6076 ;;  clock_reg       1    6[COMMON] PTR unsigned char 
  6077 ;;		 -> clock_reg(3), 
  6078 ;; Auto vars:     Size  Location     Type
  6079 ;;		None
  6080 ;; Return value:  Size  Location     Type
  6081 ;;                  1    wreg      void 
  6082 ;; Registers used:
  6083 ;;		wreg, fsr0l, fsr0h, status,2, status,0, pclath, cstack
  6084 ;; Tracked objects:
  6085 ;;		On entry : 0/0
  6086 ;;		On exit  : 0/0
  6087 ;;		Unchanged: 0/0
  6088 ;; Data sizes:     COMMON   BANK0   BANK1   BANK3   BANK2
  6089 ;;      Params:         1       0       0       0       0
  6090 ;;      Locals:         0       0       0       0       0
  6091 ;;      Temps:          0       0       0       0       0
  6092 ;;      Totals:         1       0       0       0       0
  6093 ;;Total ram usage:        1 bytes
  6094 ;; Hardware stack levels used: 1
  6095 ;; Hardware stack levels required when called: 5
  6096 ;; This function calls:
  6097 ;;		_read_ds1307
  6098 ;; This function is called by:
  6099 ;;		_dashboard
  6100 ;; This function uses a non-reentrant model
  6101 ;;
  6102                           
  6103     179C                     _get_time:	
  6104                           ;psect for function _get_time
  6105                           
  6106     179C                     l3370:	
  6107                           ;incstack = 0
  6108                           ; Regs used in _get_time: [wreg-fsr0h+status,2+status,0+pclath+cstack]
  6109                           
  6110                           
  6111                           ;/home/santhoshtk/Desktop/EMERTXE/MC/25014_Car_Black__Box.X/25014_Car_Black_Box.X/ds1307
      +                          .c: 41: void get_time(unsigned char *clock_reg);/home/santhoshtk/Desktop/EMERTXE/MC/2501
      +                          4_Car_Black__Box.X/25014_Car_Black_Box.X/ds1307.c: 42: {;/home/santhoshtk/Desktop/EMERTX
      +                          E/MC/25014_Car_Black__Box.X/25014_Car_Black_Box.X/ds1307.c: 43:     clock_reg[0] = read_
      +                          ds1307(0x02);
  6112     179C  0876               	movf	get_time@clock_reg,w
  6113     179D  0084               	movwf	4
  6114     179E  3002               	movlw	2
  6115     179F  120A  158A  20B5  160A  118A  	fcall	_read_ds1307
  6116     17A4  1383               	bcf	3,7	;select IRP bank0
  6117     17A5  0080               	movwf	0
  6118                           
  6119                           ;/home/santhoshtk/Desktop/EMERTXE/MC/25014_Car_Black__Box.X/25014_Car_Black_Box.X/ds1307
      +                          .c: 44:     clock_reg[1] = read_ds1307(0x01);
  6120     17A6  0A76               	incf	get_time@clock_reg,w
  6121     17A7  0084               	movwf	4
  6122     17A8  3001               	movlw	1
  6123     17A9  120A  158A  20B5  160A  118A  	fcall	_read_ds1307
  6124     17AE  1383               	bcf	3,7	;select IRP bank0
  6125     17AF  0080               	movwf	0
  6126                           
  6127                           ;/home/santhoshtk/Desktop/EMERTXE/MC/25014_Car_Black__Box.X/25014_Car_Black_Box.X/ds1307
      +                          .c: 45:     clock_reg[2] = read_ds1307(0x00);
  6128     17B0  0876               	movf	get_time@clock_reg,w
  6129     17B1  3E02               	addlw	2
  6130     17B2  0084               	movwf	4
  6131     17B3  3000               	movlw	0
  6132     17B4  120A  158A  20B5  160A  118A  	fcall	_read_ds1307
  6133     17B9  1383               	bcf	3,7	;select IRP bank0
  6134     17BA  0080               	movwf	0
  6135     17BB                     l330:
  6136     17BB  0008               	return
  6137     17BC                     __end_of_get_time:
  6138                           
  6139                           	psect	text30
  6140     08B5                     __ptext30:	
  6141 ;; *************** function _read_ds1307 *****************
  6142 ;; Defined at:
  6143 ;;		line 17 in file "/home/santhoshtk/Desktop/EMERTXE/MC/25014_Car_Black__Box.X/25014_Car_Black_Box.X/ds1307.c"
  6144 ;; Parameters:    Size  Location     Type
  6145 ;;  addr            1    wreg     unsigned char 
  6146 ;; Auto vars:     Size  Location     Type
  6147 ;;  addr            1    4[COMMON] unsigned char 
  6148 ;;  data            1    5[COMMON] unsigned char 
  6149 ;; Return value:  Size  Location     Type
  6150 ;;                  1    wreg      unsigned char 
  6151 ;; Registers used:
  6152 ;;		wreg, status,2, status,0, pclath, cstack
  6153 ;; Tracked objects:
  6154 ;;		On entry : 0/0
  6155 ;;		On exit  : 0/0
  6156 ;;		Unchanged: 0/0
  6157 ;; Data sizes:     COMMON   BANK0   BANK1   BANK3   BANK2
  6158 ;;      Params:         0       0       0       0       0
  6159 ;;      Locals:         2       0       0       0       0
  6160 ;;      Temps:          0       0       0       0       0
  6161 ;;      Totals:         2       0       0       0       0
  6162 ;;Total ram usage:        2 bytes
  6163 ;; Hardware stack levels used: 1
  6164 ;; Hardware stack levels required when called: 1
  6165 ;; This function calls:
  6166 ;;		_i2c_read
  6167 ;;		_i2c_rep_start
  6168 ;;		_i2c_start
  6169 ;;		_i2c_stop
  6170 ;;		_i2c_write
  6171 ;; This function is called by:
  6172 ;;		_init_ds1307
  6173 ;;		_get_time
  6174 ;; This function uses a non-reentrant model
  6175 ;;
  6176                           
  6177     08B5                     _read_ds1307:	
  6178                           ;psect for function _read_ds1307
  6179                           
  6180                           
  6181                           ;incstack = 0
  6182                           ; Regs used in _read_ds1307: [wreg+status,2+status,0+pclath+cstack]
  6183                           ;read_ds1307@addr stored from wreg
  6184     08B5  00F4               	movwf	read_ds1307@addr
  6185     08B6                     l3220:
  6186                           
  6187                           ;/home/santhoshtk/Desktop/EMERTXE/MC/25014_Car_Black__Box.X/25014_Car_Black_Box.X/ds1307
      +                          .c: 17: unsigned char read_ds1307(unsigned char addr);/home/santhoshtk/Desktop/EMERTXE/M
      +                          C/25014_Car_Black__Box.X/25014_Car_Black_Box.X/ds1307.c: 18: {;/home/santhoshtk/Desktop/
      +                          EMERTXE/MC/25014_Car_Black__Box.X/25014_Car_Black_Box.X/ds1307.c: 19:     unsigned char 
      +                          data;;/home/santhoshtk/Desktop/EMERTXE/MC/25014_Car_Black__Box.X/25014_Car_Black_Box.X/d
      +                          s1307.c: 21:     i2c_start();
  6188     08B6  160A  118A  26BB  120A  158A  	fcall	_i2c_start
  6189                           
  6190                           ;/home/santhoshtk/Desktop/EMERTXE/MC/25014_Car_Black__Box.X/25014_Car_Black_Box.X/ds1307
      +                          .c: 22:     i2c_write(0b11010000);
  6191     08BB  30D0               	movlw	208
  6192     08BC  160A  118A  26E2  120A  158A  	fcall	_i2c_write
  6193                           
  6194                           ;/home/santhoshtk/Desktop/EMERTXE/MC/25014_Car_Black__Box.X/25014_Car_Black_Box.X/ds1307
      +                          .c: 23:     i2c_write(addr);
  6195     08C1  0874               	movf	read_ds1307@addr,w
  6196     08C2  160A  118A  26E2  120A  158A  	fcall	_i2c_write
  6197                           
  6198                           ;/home/santhoshtk/Desktop/EMERTXE/MC/25014_Car_Black__Box.X/25014_Car_Black_Box.X/ds1307
      +                          .c: 24:     i2c_rep_start();
  6199     08C7  160A  118A  26D7  120A  158A  	fcall	_i2c_rep_start
  6200                           
  6201                           ;/home/santhoshtk/Desktop/EMERTXE/MC/25014_Car_Black__Box.X/25014_Car_Black_Box.X/ds1307
      +                          .c: 25:     i2c_write(0b11010001);
  6202     08CC  30D1               	movlw	209
  6203     08CD  160A  118A  26E2  120A  158A  	fcall	_i2c_write
  6204                           
  6205                           ;/home/santhoshtk/Desktop/EMERTXE/MC/25014_Car_Black__Box.X/25014_Car_Black_Box.X/ds1307
      +                          .c: 26:     data = i2c_read(0);
  6206     08D2  3000               	movlw	0
  6207     08D3  160A  118A  27BC  120A  158A  	fcall	_i2c_read
  6208     08D8  00F5               	movwf	read_ds1307@data
  6209                           
  6210                           ;/home/santhoshtk/Desktop/EMERTXE/MC/25014_Car_Black__Box.X/25014_Car_Black_Box.X/ds1307
      +                          .c: 27:     i2c_stop();
  6211     08D9  160A  118A  26C4  120A  158A  	fcall	_i2c_stop
  6212     08DE                     l3222:
  6213                           
  6214                           ;/home/santhoshtk/Desktop/EMERTXE/MC/25014_Car_Black__Box.X/25014_Car_Black_Box.X/ds1307
      +                          .c: 29:     return data;
  6215     08DE  0875               	movf	read_ds1307@data,w
  6216     08DF                     l324:
  6217     08DF  0008               	return
  6218     08E0                     __end_of_read_ds1307:
  6219                           
  6220                           	psect	text31
  6221     16E2                     __ptext31:	
  6222 ;; *************** function _i2c_write *****************
  6223 ;; Defined at:
  6224 ;;		line 65 in file "/home/santhoshtk/Desktop/EMERTXE/MC/25014_Car_Black__Box.X/25014_Car_Black_Box.X/i2c.c"
  6225 ;; Parameters:    Size  Location     Type
  6226 ;;  data            1    wreg     unsigned char 
  6227 ;; Auto vars:     Size  Location     Type
  6228 ;;  data            1    2[COMMON] unsigned char 
  6229 ;; Return value:  Size  Location     Type
  6230 ;;                  2  308[None  ] int 
  6231 ;; Registers used:
  6232 ;;		wreg, status,2, status,0, pclath, cstack
  6233 ;; Tracked objects:
  6234 ;;		On entry : 0/0
  6235 ;;		On exit  : 0/0
  6236 ;;		Unchanged: 0/0
  6237 ;; Data sizes:     COMMON   BANK0   BANK1   BANK3   BANK2
  6238 ;;      Params:         0       0       0       0       0
  6239 ;;      Locals:         1       0       0       0       0
  6240 ;;      Temps:          0       0       0       0       0
  6241 ;;      Totals:         1       0       0       0       0
  6242 ;;Total ram usage:        1 bytes
  6243 ;; Hardware stack levels used: 1
  6244 ;; Hardware stack levels required when called: 1
  6245 ;; This function calls:
  6246 ;;		_i2c_wait_for_idle
  6247 ;; This function is called by:
  6248 ;;		_read_ds1307
  6249 ;;		_write_ds1307
  6250 ;;		_write_external_eeprom
  6251 ;;		_read_external_eeprom
  6252 ;; This function uses a non-reentrant model
  6253 ;;
  6254                           
  6255     16E2                     _i2c_write:	
  6256                           ;psect for function _i2c_write
  6257                           
  6258                           
  6259                           ;incstack = 0
  6260                           ; Regs used in _i2c_write: [wreg+status,2+status,0+pclath+cstack]
  6261                           ;i2c_write@data stored from wreg
  6262     16E2  00F2               	movwf	i2c_write@data
  6263     16E3                     l3010:
  6264                           
  6265                           ;/home/santhoshtk/Desktop/EMERTXE/MC/25014_Car_Black__Box.X/25014_Car_Black_Box.X/i2c.c:
      +                           65: int i2c_write(unsigned char data);/home/santhoshtk/Desktop/EMERTXE/MC/25014_Car_Bla
      +                          ck__Box.X/25014_Car_Black_Box.X/i2c.c: 66: {;/home/santhoshtk/Desktop/EMERTXE/MC/25014_C
      +                          ar_Black__Box.X/25014_Car_Black_Box.X/i2c.c: 67:     i2c_wait_for_idle();
  6266     16E3  160A  118A  2703  160A  118A  	fcall	_i2c_wait_for_idle
  6267     16E8                     l3012:
  6268                           
  6269                           ;/home/santhoshtk/Desktop/EMERTXE/MC/25014_Car_Black__Box.X/25014_Car_Black_Box.X/i2c.c:
      +                           68:     SSPBUF = data;
  6270     16E8  0872               	movf	i2c_write@data,w
  6271     16E9  1283               	bcf	3,5	;RP0=0, select bank0
  6272     16EA  1303               	bcf	3,6	;RP1=0, select bank0
  6273     16EB  0093               	movwf	19	;volatile
  6274     16EC                     l3014:
  6275     16EC                     l404:	
  6276                           ;/home/santhoshtk/Desktop/EMERTXE/MC/25014_Car_Black__Box.X/25014_Car_Black_Box.X/i2c.c:
      +                           70:     return !ACKSTAT;;	Return value of _i2c_write is never used
  6277                           
  6278     16EC  0008               	return
  6279     16ED                     __end_of_i2c_write:
  6280                           
  6281                           	psect	text32
  6282     16D7                     __ptext32:	
  6283 ;; *************** function _i2c_rep_start *****************
  6284 ;; Defined at:
  6285 ;;		line 28 in file "/home/santhoshtk/Desktop/EMERTXE/MC/25014_Car_Black__Box.X/25014_Car_Black_Box.X/i2c.c"
  6286 ;; Parameters:    Size  Location     Type
  6287 ;;		None
  6288 ;; Auto vars:     Size  Location     Type
  6289 ;;		None
  6290 ;; Return value:  Size  Location     Type
  6291 ;;                  1    wreg      void 
  6292 ;; Registers used:
  6293 ;;		wreg, status,2, status,0, pclath, cstack
  6294 ;; Tracked objects:
  6295 ;;		On entry : 0/0
  6296 ;;		On exit  : 0/0
  6297 ;;		Unchanged: 0/0
  6298 ;; Data sizes:     COMMON   BANK0   BANK1   BANK3   BANK2
  6299 ;;      Params:         0       0       0       0       0
  6300 ;;      Locals:         0       0       0       0       0
  6301 ;;      Temps:          0       0       0       0       0
  6302 ;;      Totals:         0       0       0       0       0
  6303 ;;Total ram usage:        0 bytes
  6304 ;; Hardware stack levels used: 1
  6305 ;; Hardware stack levels required when called: 1
  6306 ;; This function calls:
  6307 ;;		_i2c_start
  6308 ;;		_i2c_stop
  6309 ;; This function is called by:
  6310 ;;		_read_ds1307
  6311 ;;		_read_external_eeprom
  6312 ;; This function uses a non-reentrant model
  6313 ;;
  6314                           
  6315     16D7                     _i2c_rep_start:	
  6316                           ;psect for function _i2c_rep_start
  6317                           
  6318     16D7                     l3018:	
  6319                           ;incstack = 0
  6320                           ; Regs used in _i2c_rep_start: [wreg+status,2+status,0+pclath+cstack]
  6321                           
  6322                           
  6323                           ;/home/santhoshtk/Desktop/EMERTXE/MC/25014_Car_Black__Box.X/25014_Car_Black_Box.X/i2c.c:
      +                           30:     i2c_stop();
  6324     16D7  160A  118A  26C4  160A  118A  	fcall	_i2c_stop
  6325                           
  6326                           ;/home/santhoshtk/Desktop/EMERTXE/MC/25014_Car_Black__Box.X/25014_Car_Black_Box.X/i2c.c:
      +                           31:     i2c_start();
  6327     16DC  160A  118A  26BB  160A  118A  	fcall	_i2c_start
  6328     16E1                     l393:
  6329     16E1  0008               	return
  6330     16E2                     __end_of_i2c_rep_start:
  6331                           
  6332                           	psect	text33
  6333     16C4                     __ptext33:	
  6334 ;; *************** function _i2c_stop *****************
  6335 ;; Defined at:
  6336 ;;		line 35 in file "/home/santhoshtk/Desktop/EMERTXE/MC/25014_Car_Black__Box.X/25014_Car_Black_Box.X/i2c.c"
  6337 ;; Parameters:    Size  Location     Type
  6338 ;;		None
  6339 ;; Auto vars:     Size  Location     Type
  6340 ;;		None
  6341 ;; Return value:  Size  Location     Type
  6342 ;;                  1    wreg      void 
  6343 ;; Registers used:
  6344 ;;		wreg, status,2, status,0, pclath, cstack
  6345 ;; Tracked objects:
  6346 ;;		On entry : 0/0
  6347 ;;		On exit  : 0/0
  6348 ;;		Unchanged: 0/0
  6349 ;; Data sizes:     COMMON   BANK0   BANK1   BANK3   BANK2
  6350 ;;      Params:         0       0       0       0       0
  6351 ;;      Locals:         0       0       0       0       0
  6352 ;;      Temps:          0       0       0       0       0
  6353 ;;      Totals:         0       0       0       0       0
  6354 ;;Total ram usage:        0 bytes
  6355 ;; Hardware stack levels used: 1
  6356 ;; Hardware stack levels required when called: 1
  6357 ;; This function calls:
  6358 ;;		_i2c_wait_for_idle
  6359 ;; This function is called by:
  6360 ;;		_read_ds1307
  6361 ;;		_write_ds1307
  6362 ;;		_write_external_eeprom
  6363 ;;		_read_external_eeprom
  6364 ;;		_i2c_rep_start
  6365 ;; This function uses a non-reentrant model
  6366 ;;
  6367                           
  6368     16C4                     _i2c_stop:	
  6369                           ;psect for function _i2c_stop
  6370                           
  6371     16C4                     l3006:	
  6372                           ;incstack = 0
  6373                           ; Regs used in _i2c_stop: [wreg+status,2+status,0+pclath+cstack]
  6374                           
  6375                           
  6376                           ;/home/santhoshtk/Desktop/EMERTXE/MC/25014_Car_Black__Box.X/25014_Car_Black_Box.X/i2c.c:
      +                           37:     i2c_wait_for_idle();
  6377     16C4  160A  118A  2703  160A  118A  	fcall	_i2c_wait_for_idle
  6378     16C9                     l3008:
  6379                           
  6380                           ;/home/santhoshtk/Desktop/EMERTXE/MC/25014_Car_Black__Box.X/25014_Car_Black_Box.X/i2c.c:
      +                           38:     PEN = 1;
  6381     16C9  1683               	bsf	3,5	;RP0=1, select bank1
  6382     16CA  1303               	bcf	3,6	;RP1=0, select bank1
  6383     16CB  1511               	bsf	17,2	;volatile
  6384     16CC                     l396:
  6385     16CC  0008               	return
  6386     16CD                     __end_of_i2c_stop:
  6387                           
  6388                           	psect	text34
  6389     16BB                     __ptext34:	
  6390 ;; *************** function _i2c_start *****************
  6391 ;; Defined at:
  6392 ;;		line 22 in file "/home/santhoshtk/Desktop/EMERTXE/MC/25014_Car_Black__Box.X/25014_Car_Black_Box.X/i2c.c"
  6393 ;; Parameters:    Size  Location     Type
  6394 ;;		None
  6395 ;; Auto vars:     Size  Location     Type
  6396 ;;		None
  6397 ;; Return value:  Size  Location     Type
  6398 ;;                  1    wreg      void 
  6399 ;; Registers used:
  6400 ;;		wreg, status,2, status,0, pclath, cstack
  6401 ;; Tracked objects:
  6402 ;;		On entry : 0/0
  6403 ;;		On exit  : 0/0
  6404 ;;		Unchanged: 0/0
  6405 ;; Data sizes:     COMMON   BANK0   BANK1   BANK3   BANK2
  6406 ;;      Params:         0       0       0       0       0
  6407 ;;      Locals:         0       0       0       0       0
  6408 ;;      Temps:          0       0       0       0       0
  6409 ;;      Totals:         0       0       0       0       0
  6410 ;;Total ram usage:        0 bytes
  6411 ;; Hardware stack levels used: 1
  6412 ;; Hardware stack levels required when called: 1
  6413 ;; This function calls:
  6414 ;;		_i2c_wait_for_idle
  6415 ;; This function is called by:
  6416 ;;		_read_ds1307
  6417 ;;		_write_ds1307
  6418 ;;		_write_external_eeprom
  6419 ;;		_read_external_eeprom
  6420 ;;		_i2c_rep_start
  6421 ;; This function uses a non-reentrant model
  6422 ;;
  6423                           
  6424     16BB                     _i2c_start:	
  6425                           ;psect for function _i2c_start
  6426                           
  6427     16BB                     l3002:	
  6428                           ;incstack = 0
  6429                           ; Regs used in _i2c_start: [wreg+status,2+status,0+pclath+cstack]
  6430                           
  6431                           
  6432                           ;/home/santhoshtk/Desktop/EMERTXE/MC/25014_Car_Black__Box.X/25014_Car_Black_Box.X/i2c.c:
      +                           24:     i2c_wait_for_idle();
  6433     16BB  160A  118A  2703  160A  118A  	fcall	_i2c_wait_for_idle
  6434     16C0                     l3004:
  6435                           
  6436                           ;/home/santhoshtk/Desktop/EMERTXE/MC/25014_Car_Black__Box.X/25014_Car_Black_Box.X/i2c.c:
      +                           25:     SEN = 1;
  6437     16C0  1683               	bsf	3,5	;RP0=1, select bank1
  6438     16C1  1303               	bcf	3,6	;RP1=0, select bank1
  6439     16C2  1411               	bsf	17,0	;volatile
  6440     16C3                     l390:
  6441     16C3  0008               	return
  6442     16C4                     __end_of_i2c_start:
  6443                           
  6444                           	psect	text35
  6445     17BC                     __ptext35:	
  6446 ;; *************** function _i2c_read *****************
  6447 ;; Defined at:
  6448 ;;		line 41 in file "/home/santhoshtk/Desktop/EMERTXE/MC/25014_Car_Black__Box.X/25014_Car_Black_Box.X/i2c.c"
  6449 ;; Parameters:    Size  Location     Type
  6450 ;;  ack             1    wreg     unsigned char 
  6451 ;; Auto vars:     Size  Location     Type
  6452 ;;  ack             1    2[COMMON] unsigned char 
  6453 ;;  data            1    3[COMMON] unsigned char 
  6454 ;; Return value:  Size  Location     Type
  6455 ;;                  1    wreg      unsigned char 
  6456 ;; Registers used:
  6457 ;;		wreg, status,2, status,0, pclath, cstack
  6458 ;; Tracked objects:
  6459 ;;		On entry : 0/0
  6460 ;;		On exit  : 0/0
  6461 ;;		Unchanged: 0/0
  6462 ;; Data sizes:     COMMON   BANK0   BANK1   BANK3   BANK2
  6463 ;;      Params:         0       0       0       0       0
  6464 ;;      Locals:         2       0       0       0       0
  6465 ;;      Temps:          0       0       0       0       0
  6466 ;;      Totals:         2       0       0       0       0
  6467 ;;Total ram usage:        2 bytes
  6468 ;; Hardware stack levels used: 1
  6469 ;; Hardware stack levels required when called: 1
  6470 ;; This function calls:
  6471 ;;		_i2c_wait_for_idle
  6472 ;; This function is called by:
  6473 ;;		_read_ds1307
  6474 ;;		_read_external_eeprom
  6475 ;; This function uses a non-reentrant model
  6476 ;;
  6477                           
  6478     17BC                     _i2c_read:	
  6479                           ;psect for function _i2c_read
  6480                           
  6481                           
  6482                           ;incstack = 0
  6483                           ; Regs used in _i2c_read: [wreg+status,2+status,0+pclath+cstack]
  6484                           ;i2c_read@ack stored from wreg
  6485     17BC  00F2               	movwf	i2c_read@ack
  6486     17BD                     l3020:
  6487                           
  6488                           ;/home/santhoshtk/Desktop/EMERTXE/MC/25014_Car_Black__Box.X/25014_Car_Black_Box.X/i2c.c:
      +                           41: unsigned char i2c_read(unsigned char ack);/home/santhoshtk/Desktop/EMERTXE/MC/25014
      +                          _Car_Black__Box.X/25014_Car_Black_Box.X/i2c.c: 42: {;/home/santhoshtk/Desktop/EMERTXE/MC
      +                          /25014_Car_Black__Box.X/25014_Car_Black_Box.X/i2c.c: 43:     unsigned char data;;/home/s
      +                          anthoshtk/Desktop/EMERTXE/MC/25014_Car_Black__Box.X/25014_Car_Black_Box.X/i2c.c: 45:    
      +                           i2c_wait_for_idle();
  6489     17BD  160A  118A  2703  160A  118A  	fcall	_i2c_wait_for_idle
  6490     17C2                     l3022:
  6491                           
  6492                           ;/home/santhoshtk/Desktop/EMERTXE/MC/25014_Car_Black__Box.X/25014_Car_Black_Box.X/i2c.c:
      +                           46:     RCEN = 1;
  6493     17C2  1683               	bsf	3,5	;RP0=1, select bank1
  6494     17C3  1303               	bcf	3,6	;RP1=0, select bank1
  6495     17C4  1591               	bsf	17,3	;volatile
  6496                           
  6497                           ;/home/santhoshtk/Desktop/EMERTXE/MC/25014_Car_Black__Box.X/25014_Car_Black_Box.X/i2c.c:
      +                           48:     i2c_wait_for_idle();
  6498     17C5  160A  118A  2703  160A  118A  	fcall	_i2c_wait_for_idle
  6499     17CA                     l3024:
  6500                           
  6501                           ;/home/santhoshtk/Desktop/EMERTXE/MC/25014_Car_Black__Box.X/25014_Car_Black_Box.X/i2c.c:
      +                           49:     data = SSPBUF;
  6502     17CA  1283               	bcf	3,5	;RP0=0, select bank0
  6503     17CB  1303               	bcf	3,6	;RP1=0, select bank0
  6504     17CC  0813               	movf	19,w	;volatile
  6505     17CD  00F3               	movwf	i2c_read@data
  6506     17CE                     l3026:
  6507                           
  6508                           ;/home/santhoshtk/Desktop/EMERTXE/MC/25014_Car_Black__Box.X/25014_Car_Black_Box.X/i2c.c:
      +                           51:     if (ack == 1)
  6509     17CE  0372               	decf	i2c_read@ack,w
  6510     17CF  1D03               	btfss	3,2
  6511     17D0  2FD2               	goto	u3301
  6512     17D1  2FD3               	goto	u3300
  6513     17D2                     u3301:
  6514     17D2  2FD7               	goto	l399
  6515     17D3                     u3300:
  6516     17D3                     l3028:
  6517                           
  6518                           ;/home/santhoshtk/Desktop/EMERTXE/MC/25014_Car_Black__Box.X/25014_Car_Black_Box.X/i2c.c:
      +                           52:     {;/home/santhoshtk/Desktop/EMERTXE/MC/25014_Car_Black__Box.X/25014_Car_Black_Bo
      +                          x.X/i2c.c: 53:         ACKDT = 1;
  6519     17D3  1683               	bsf	3,5	;RP0=1, select bank1
  6520     17D4  1303               	bcf	3,6	;RP1=0, select bank1
  6521     17D5  1691               	bsf	17,5	;volatile
  6522                           
  6523                           ;/home/santhoshtk/Desktop/EMERTXE/MC/25014_Car_Black__Box.X/25014_Car_Black_Box.X/i2c.c:
      +                           54:     }
  6524     17D6  2FDA               	goto	l400
  6525     17D7                     l399:	
  6526                           ;/home/santhoshtk/Desktop/EMERTXE/MC/25014_Car_Black__Box.X/25014_Car_Black_Box.X/i2c.c:
      +                           55:     else
  6527                           
  6528                           
  6529                           ;/home/santhoshtk/Desktop/EMERTXE/MC/25014_Car_Black__Box.X/25014_Car_Black_Box.X/i2c.c:
      +                           56:     {;/home/santhoshtk/Desktop/EMERTXE/MC/25014_Car_Black__Box.X/25014_Car_Black_Bo
      +                          x.X/i2c.c: 57:         ACKDT = 0;
  6530     17D7  1683               	bsf	3,5	;RP0=1, select bank1
  6531     17D8  1303               	bcf	3,6	;RP1=0, select bank1
  6532     17D9  1291               	bcf	17,5	;volatile
  6533     17DA                     l400:	
  6534                           ;/home/santhoshtk/Desktop/EMERTXE/MC/25014_Car_Black__Box.X/25014_Car_Black_Box.X/i2c.c:
      +                           58:     }
  6535                           
  6536                           
  6537                           ;/home/santhoshtk/Desktop/EMERTXE/MC/25014_Car_Black__Box.X/25014_Car_Black_Box.X/i2c.c:
      +                           60:     ACKEN = 1;
  6538     17DA  1611               	bsf	17,4	;volatile
  6539     17DB                     l3030:
  6540                           
  6541                           ;/home/santhoshtk/Desktop/EMERTXE/MC/25014_Car_Black__Box.X/25014_Car_Black_Box.X/i2c.c:
      +                           62:     return data;
  6542     17DB  0873               	movf	i2c_read@data,w
  6543     17DC                     l401:
  6544     17DC  0008               	return
  6545     17DD                     __end_of_i2c_read:
  6546                           
  6547                           	psect	text36
  6548     1703                     __ptext36:	
  6549 ;; *************** function _i2c_wait_for_idle *****************
  6550 ;; Defined at:
  6551 ;;		line 16 in file "/home/santhoshtk/Desktop/EMERTXE/MC/25014_Car_Black__Box.X/25014_Car_Black_Box.X/i2c.c"
  6552 ;; Parameters:    Size  Location     Type
  6553 ;;		None
  6554 ;; Auto vars:     Size  Location     Type
  6555 ;;		None
  6556 ;; Return value:  Size  Location     Type
  6557 ;;                  1    wreg      void 
  6558 ;; Registers used:
  6559 ;;		wreg, status,2
  6560 ;; Tracked objects:
  6561 ;;		On entry : 0/0
  6562 ;;		On exit  : 0/0
  6563 ;;		Unchanged: 0/0
  6564 ;; Data sizes:     COMMON   BANK0   BANK1   BANK3   BANK2
  6565 ;;      Params:         0       0       0       0       0
  6566 ;;      Locals:         0       0       0       0       0
  6567 ;;      Temps:          0       0       0       0       0
  6568 ;;      Totals:         0       0       0       0       0
  6569 ;;Total ram usage:        0 bytes
  6570 ;; Hardware stack levels used: 1
  6571 ;; Hardware stack levels required when called: 1
  6572 ;; This function calls:
  6573 ;;		Nothing
  6574 ;; This function is called by:
  6575 ;;		_i2c_start
  6576 ;;		_i2c_stop
  6577 ;;		_i2c_read
  6578 ;;		_i2c_write
  6579 ;; This function uses a non-reentrant model
  6580 ;;
  6581                           
  6582     1703                     _i2c_wait_for_idle:	
  6583                           ;psect for function _i2c_wait_for_idle
  6584                           
  6585     1703                     l2998:	
  6586                           ;incstack = 0
  6587 ;; hardware stack exceeded
  6588                           ; Regs used in _i2c_wait_for_idle: [wreg+status,2]
  6589                           
  6590     1703                     l384:	
  6591                           ;/home/santhoshtk/Desktop/EMERTXE/MC/25014_Car_Black__Box.X/25014_Car_Black_Box.X/i2c.c:
      +                           19:     while (R_nW || (SSPCON2 & 0x1F));
  6592                           
  6593     1703  1683               	bsf	3,5	;RP0=1, select bank1
  6594     1704  1303               	bcf	3,6	;RP1=0, select bank1
  6595     1705  1914               	btfsc	20,2	;volatile
  6596     1706  2F08               	goto	u3281
  6597     1707  2F09               	goto	u3280
  6598     1708                     u3281:
  6599     1708  2F03               	goto	l384
  6600     1709                     u3280:
  6601     1709                     l3000:
  6602     1709  0811               	movf	17,w	;volatile
  6603     170A  391F               	andlw	31
  6604     170B  1D03               	btfss	3,2
  6605     170C  2F0E               	goto	u3291
  6606     170D  2F0F               	goto	u3290
  6607     170E                     u3291:
  6608     170E  2F03               	goto	l384
  6609     170F                     u3290:
  6610     170F                     l387:
  6611     170F  0008               	return
  6612     1710                     __end_of_i2c_wait_for_idle:
  6613                           
  6614                           	psect	text37
  6615     0B23                     __ptext37:	
  6616 ;; *************** function _display_time *****************
  6617 ;; Defined at:
  6618 ;;		line 47 in file "/home/santhoshtk/Desktop/EMERTXE/MC/25014_Car_Black__Box.X/25014_Car_Black_Box.X/ds1307.c"
  6619 ;; Parameters:    Size  Location     Type
  6620 ;;  clock_reg       1    9[COMMON] PTR unsigned char 
  6621 ;;		 -> clock_reg(3), 
  6622 ;; Auto vars:     Size  Location     Type
  6623 ;;		None
  6624 ;; Return value:  Size  Location     Type
  6625 ;;                  1    wreg      void 
  6626 ;; Registers used:
  6627 ;;		wreg, fsr0l, fsr0h, status,2, status,0, pclath, btemp1, cstack
  6628 ;; Tracked objects:
  6629 ;;		On entry : 0/0
  6630 ;;		On exit  : 0/0
  6631 ;;		Unchanged: 0/0
  6632 ;; Data sizes:     COMMON   BANK0   BANK1   BANK3   BANK2
  6633 ;;      Params:         1       0       0       0       0
  6634 ;;      Locals:         0       0       0       0       0
  6635 ;;      Temps:          0       1       0       0       0
  6636 ;;      Totals:         1       1       0       0       0
  6637 ;;Total ram usage:        2 bytes
  6638 ;; Hardware stack levels used: 1
  6639 ;; Hardware stack levels required when called: 2
  6640 ;; This function calls:
  6641 ;;		_clcd_print
  6642 ;; This function is called by:
  6643 ;;		_dashboard
  6644 ;; This function uses a non-reentrant model
  6645 ;;
  6646                           
  6647     0B23                     _display_time:	
  6648                           ;psect for function _display_time
  6649                           
  6650     0B23                     l3372:	
  6651                           ;incstack = 0
  6652                           ; Regs used in _display_time: [wreg-fsr0h+status,2+status,0+pclath+btemp1+cstack]
  6653                           
  6654                           
  6655                           ;/home/santhoshtk/Desktop/EMERTXE/MC/25014_Car_Black__Box.X/25014_Car_Black_Box.X/ds1307
      +                          .c: 47: void display_time(unsigned char *clock_reg);/home/santhoshtk/Desktop/EMERTXE/MC/
      +                          25014_Car_Black__Box.X/25014_Car_Black_Box.X/ds1307.c: 48: {;/home/santhoshtk/Desktop/EM
      +                          ERTXE/MC/25014_Car_Black__Box.X/25014_Car_Black_Box.X/ds1307.c: 55:     time[0] = ((cloc
      +                          k_reg[0] >> 4) & 0x03) + '0';
  6656     0B23  0879               	movf	display_time@clock_reg,w
  6657     0B24  0084               	movwf	4
  6658     0B25  1383               	bcf	3,7	;select IRP bank0
  6659     0B26  0800               	movf	0,w
  6660     0B27  1283               	bcf	3,5	;RP0=0, select bank0
  6661     0B28  1303               	bcf	3,6	;RP1=0, select bank0
  6662     0B29  00A0               	movwf	??_display_time
  6663     0B2A  3004               	movlw	4
  6664     0B2B                     u3845:
  6665     0B2B  1003               	clrc
  6666     0B2C  0CA0               	rrf	??_display_time,f
  6667     0B2D  3EFF               	addlw	-1
  6668     0B2E  1D03               	skipz
  6669     0B2F  2B2B               	goto	u3845
  6670     0B30  0820               	movf	??_display_time,w
  6671     0B31  3903               	andlw	3
  6672     0B32  3E30               	addlw	48
  6673     0B33  00DE               	movwf	_time
  6674                           
  6675                           ;/home/santhoshtk/Desktop/EMERTXE/MC/25014_Car_Black__Box.X/25014_Car_Black_Box.X/ds1307
      +                          .c: 56:     time[1] = (clock_reg[0] & 0x0F) + '0';
  6676     0B34  0879               	movf	display_time@clock_reg,w
  6677     0B35  0084               	movwf	4
  6678     0B36  0800               	movf	0,w
  6679     0B37  390F               	andlw	15
  6680     0B38  3E30               	addlw	48
  6681     0B39  00DF               	movwf	_time+1
  6682     0B3A                     l3374:
  6683                           
  6684                           ;/home/santhoshtk/Desktop/EMERTXE/MC/25014_Car_Black__Box.X/25014_Car_Black_Box.X/ds1307
      +                          .c: 58:     time[2] = ':';
  6685     0B3A  303A               	movlw	58
  6686     0B3B  00E0               	movwf	_time+2
  6687                           
  6688                           ;/home/santhoshtk/Desktop/EMERTXE/MC/25014_Car_Black__Box.X/25014_Car_Black_Box.X/ds1307
      +                          .c: 60:     time[3] = ((clock_reg[1] >> 4) & 0x07) + '0';
  6689     0B3C  0A79               	incf	display_time@clock_reg,w
  6690     0B3D  0084               	movwf	4
  6691     0B3E  0800               	movf	0,w
  6692     0B3F  00A0               	movwf	??_display_time
  6693     0B40  3004               	movlw	4
  6694     0B41                     u3855:
  6695     0B41  1003               	clrc
  6696     0B42  0CA0               	rrf	??_display_time,f
  6697     0B43  3EFF               	addlw	-1
  6698     0B44  1D03               	skipz
  6699     0B45  2B41               	goto	u3855
  6700     0B46  0820               	movf	??_display_time,w
  6701     0B47  3907               	andlw	7
  6702     0B48  3E30               	addlw	48
  6703     0B49  00E1               	movwf	_time+3
  6704                           
  6705                           ;/home/santhoshtk/Desktop/EMERTXE/MC/25014_Car_Black__Box.X/25014_Car_Black_Box.X/ds1307
      +                          .c: 61:     time[4] = (clock_reg[1] & 0x0F) + '0';
  6706     0B4A  0A79               	incf	display_time@clock_reg,w
  6707     0B4B  0084               	movwf	4
  6708     0B4C  0800               	movf	0,w
  6709     0B4D  390F               	andlw	15
  6710     0B4E  3E30               	addlw	48
  6711     0B4F  00E2               	movwf	_time+4
  6712     0B50                     l3376:
  6713                           
  6714                           ;/home/santhoshtk/Desktop/EMERTXE/MC/25014_Car_Black__Box.X/25014_Car_Black_Box.X/ds1307
      +                          .c: 63:     time[5] = ':';
  6715     0B50  303A               	movlw	58
  6716     0B51  00E3               	movwf	_time+5
  6717                           
  6718                           ;/home/santhoshtk/Desktop/EMERTXE/MC/25014_Car_Black__Box.X/25014_Car_Black_Box.X/ds1307
      +                          .c: 65:     time[6] = ((clock_reg[2] >> 4) & 0x07) + '0';
  6719     0B52  0879               	movf	display_time@clock_reg,w
  6720     0B53  3E02               	addlw	2
  6721     0B54  0084               	movwf	4
  6722     0B55  0800               	movf	0,w
  6723     0B56  00A0               	movwf	??_display_time
  6724     0B57  3004               	movlw	4
  6725     0B58                     u3865:
  6726     0B58  1003               	clrc
  6727     0B59  0CA0               	rrf	??_display_time,f
  6728     0B5A  3EFF               	addlw	-1
  6729     0B5B  1D03               	skipz
  6730     0B5C  2B58               	goto	u3865
  6731     0B5D  0820               	movf	??_display_time,w
  6732     0B5E  3907               	andlw	7
  6733     0B5F  3E30               	addlw	48
  6734     0B60  00E4               	movwf	_time+6
  6735                           
  6736                           ;/home/santhoshtk/Desktop/EMERTXE/MC/25014_Car_Black__Box.X/25014_Car_Black_Box.X/ds1307
      +                          .c: 66:     time[7] = (clock_reg[2] & 0x0F) + '0';
  6737     0B61  0879               	movf	display_time@clock_reg,w
  6738     0B62  3E02               	addlw	2
  6739     0B63  0084               	movwf	4
  6740     0B64  0800               	movf	0,w
  6741     0B65  390F               	andlw	15
  6742     0B66  3E30               	addlw	48
  6743     0B67  00E5               	movwf	_time+7
  6744     0B68                     l3378:
  6745                           
  6746                           ;/home/santhoshtk/Desktop/EMERTXE/MC/25014_Car_Black__Box.X/25014_Car_Black_Box.X/ds1307
      +                          .c: 67:     time[8] = '\0';
  6747     0B68  01E6               	clrf	_time+8
  6748     0B69                     l3380:
  6749                           
  6750                           ;/home/santhoshtk/Desktop/EMERTXE/MC/25014_Car_Black__Box.X/25014_Car_Black_Box.X/ds1307
      +                          .c: 69:     clcd_print(time, (0xC0 + 0));
  6751     0B69  305E               	movlw	(low (_time| 0))& (0+255)
  6752     0B6A  00F6               	movwf	clcd_print@str
  6753     0B6B  3000               	movlw	0
  6754     0B6C  00F7               	movwf	clcd_print@str+1
  6755     0B6D  30C0               	movlw	192
  6756     0B6E  00F8               	movwf	clcd_print@addr
  6757     0B6F  120A  158A  210B  120A  158A  	fcall	_clcd_print
  6758     0B74                     l333:
  6759     0B74  0008               	return
  6760     0B75                     __end_of_display_time:
  6761                           
  6762                           	psect	text38
  6763     0E84                     __ptext38:	
  6764 ;; *************** function ___xxtofl *****************
  6765 ;; Defined at:
  6766 ;;		line 10 in file "/opt/microchip/xc8/v3.10/pic/sources/c99/common/xxtofl.c"
  6767 ;; Parameters:    Size  Location     Type
  6768 ;;  sign            1    wreg     unsigned char 
  6769 ;;  val             4    2[COMMON] long 
  6770 ;; Auto vars:     Size  Location     Type
  6771 ;;  sign            1    0[BANK0 ] unsigned char 
  6772 ;;  arg             4    2[BANK0 ] unsigned long 
  6773 ;;  exp             1    1[BANK0 ] unsigned char 
  6774 ;; Return value:  Size  Location     Type
  6775 ;;                  4    2[COMMON] unsigned char 
  6776 ;; Registers used:
  6777 ;;		wreg, status,2, status,0
  6778 ;; Tracked objects:
  6779 ;;		On entry : 0/0
  6780 ;;		On exit  : 0/0
  6781 ;;		Unchanged: 0/0
  6782 ;; Data sizes:     COMMON   BANK0   BANK1   BANK3   BANK2
  6783 ;;      Params:         4       0       0       0       0
  6784 ;;      Locals:         0       6       0       0       0
  6785 ;;      Temps:          4       0       0       0       0
  6786 ;;      Totals:         8       6       0       0       0
  6787 ;;Total ram usage:       14 bytes
  6788 ;; Hardware stack levels used: 1
  6789 ;; Hardware stack levels required when called: 1
  6790 ;; This function calls:
  6791 ;;		Nothing
  6792 ;; This function is called by:
  6793 ;;		_dashboard
  6794 ;; This function uses a non-reentrant model
  6795 ;;
  6796                           
  6797     0E84                     ___xxtofl:	
  6798                           ;psect for function ___xxtofl
  6799                           
  6800                           
  6801                           ;incstack = 0
  6802                           ; Regs used in ___xxtofl: [wreg+status,2+status,0]
  6803                           ;___xxtofl@sign stored from wreg
  6804     0E84  1283               	bcf	3,5	;RP0=0, select bank0
  6805     0E85  1303               	bcf	3,6	;RP1=0, select bank0
  6806     0E86  00A0               	movwf	___xxtofl@sign
  6807     0E87                     l3692:
  6808     0E87  0820               	movf	___xxtofl@sign,w
  6809     0E88  1903               	btfsc	3,2
  6810     0E89  2E8B               	goto	u4431
  6811     0E8A  2E8C               	goto	u4430
  6812     0E8B                     u4431:
  6813     0E8B  2EA0               	goto	l3698
  6814     0E8C                     u4430:
  6815     0E8C                     l3694:
  6816     0E8C  1FF5               	btfss	___xxtofl@val+3,7
  6817     0E8D  2E8F               	goto	u4441
  6818     0E8E  2E90               	goto	u4440
  6819     0E8F                     u4441:
  6820     0E8F  2EA0               	goto	l3698
  6821     0E90                     u4440:
  6822     0E90                     l3696:
  6823     0E90  0972               	comf	___xxtofl@val,w
  6824     0E91  00A2               	movwf	___xxtofl@arg
  6825     0E92  0973               	comf	___xxtofl@val+1,w
  6826     0E93  00A3               	movwf	___xxtofl@arg+1
  6827     0E94  0974               	comf	___xxtofl@val+2,w
  6828     0E95  00A4               	movwf	___xxtofl@arg+2
  6829     0E96  0975               	comf	___xxtofl@val+3,w
  6830     0E97  00A5               	movwf	___xxtofl@arg+3
  6831     0E98  0AA2               	incf	___xxtofl@arg,f
  6832     0E99  1903               	skipnz
  6833     0E9A  0AA3               	incf	___xxtofl@arg+1,f
  6834     0E9B  1903               	skipnz
  6835     0E9C  0AA4               	incf	___xxtofl@arg+2,f
  6836     0E9D  1903               	skipnz
  6837     0E9E  0AA5               	incf	___xxtofl@arg+3,f
  6838     0E9F  2EA8               	goto	l1035
  6839     0EA0                     l3698:
  6840     0EA0  0875               	movf	___xxtofl@val+3,w
  6841     0EA1  00A5               	movwf	___xxtofl@arg+3
  6842     0EA2  0874               	movf	___xxtofl@val+2,w
  6843     0EA3  00A4               	movwf	___xxtofl@arg+2
  6844     0EA4  0873               	movf	___xxtofl@val+1,w
  6845     0EA5  00A3               	movwf	___xxtofl@arg+1
  6846     0EA6  0872               	movf	___xxtofl@val,w
  6847     0EA7  00A2               	movwf	___xxtofl@arg
  6848     0EA8                     l1035:
  6849     0EA8  0875               	movf	___xxtofl@val+3,w
  6850     0EA9  0474               	iorwf	___xxtofl@val+2,w
  6851     0EAA  0473               	iorwf	___xxtofl@val+1,w
  6852     0EAB  0472               	iorwf	___xxtofl@val,w
  6853     0EAC  1D03               	skipz
  6854     0EAD  2EAF               	goto	u4451
  6855     0EAE  2EB0               	goto	u4450
  6856     0EAF                     u4451:
  6857     0EAF  2EB9               	goto	l1036
  6858     0EB0                     u4450:
  6859     0EB0                     l3700:
  6860     0EB0  3000               	movlw	0
  6861     0EB1  00F5               	movwf	?___xxtofl+3
  6862     0EB2  3000               	movlw	0
  6863     0EB3  00F4               	movwf	?___xxtofl+2
  6864     0EB4  3000               	movlw	0
  6865     0EB5  00F3               	movwf	?___xxtofl+1
  6866     0EB6  3000               	movlw	0
  6867     0EB7  00F2               	movwf	?___xxtofl
  6868     0EB8  2F39               	goto	l1037
  6869     0EB9                     l1036:
  6870     0EB9  3096               	movlw	150
  6871     0EBA  00A1               	movwf	___xxtofl@exp
  6872     0EBB  2EC7               	goto	l3706
  6873     0EBC                     l3704:
  6874     0EBC  3001               	movlw	1
  6875     0EBD  07A1               	addwf	___xxtofl@exp,f
  6876     0EBE  3001               	movlw	1
  6877     0EBF                     u4465:
  6878     0EBF  1003               	clrc
  6879     0EC0  0CA5               	rrf	___xxtofl@arg+3,f
  6880     0EC1  0CA4               	rrf	___xxtofl@arg+2,f
  6881     0EC2  0CA3               	rrf	___xxtofl@arg+1,f
  6882     0EC3  0CA2               	rrf	___xxtofl@arg,f
  6883     0EC4  3EFF               	addlw	-1
  6884     0EC5  1D03               	skipz
  6885     0EC6  2EBF               	goto	u4465
  6886     0EC7                     l3706:
  6887     0EC7  30FE               	movlw	254
  6888     0EC8  0525               	andwf	___xxtofl@arg+3,w
  6889     0EC9  1D03               	btfss	3,2
  6890     0ECA  2ECC               	goto	u4471
  6891     0ECB  2ECD               	goto	u4470
  6892     0ECC                     u4471:
  6893     0ECC  2EBC               	goto	l3704
  6894     0ECD                     u4470:
  6895     0ECD  2EE7               	goto	l1041
  6896     0ECE                     l3708:
  6897     0ECE  3001               	movlw	1
  6898     0ECF  07A1               	addwf	___xxtofl@exp,f
  6899     0ED0                     l3710:
  6900     0ED0  3001               	movlw	1
  6901     0ED1  07A2               	addwf	___xxtofl@arg,f
  6902     0ED2  3000               	movlw	0
  6903     0ED3  1803               	skipnc
  6904     0ED4  3001               	movlw	1
  6905     0ED5  07A3               	addwf	___xxtofl@arg+1,f
  6906     0ED6  3000               	movlw	0
  6907     0ED7  1803               	skipnc
  6908     0ED8  3001               	movlw	1
  6909     0ED9  07A4               	addwf	___xxtofl@arg+2,f
  6910     0EDA  3000               	movlw	0
  6911     0EDB  1803               	skipnc
  6912     0EDC  3001               	movlw	1
  6913     0EDD  07A5               	addwf	___xxtofl@arg+3,f
  6914     0EDE                     l3712:
  6915     0EDE  3001               	movlw	1
  6916     0EDF                     u4485:
  6917     0EDF  1003               	clrc
  6918     0EE0  0CA5               	rrf	___xxtofl@arg+3,f
  6919     0EE1  0CA4               	rrf	___xxtofl@arg+2,f
  6920     0EE2  0CA3               	rrf	___xxtofl@arg+1,f
  6921     0EE3  0CA2               	rrf	___xxtofl@arg,f
  6922     0EE4  3EFF               	addlw	-1
  6923     0EE5  1D03               	skipz
  6924     0EE6  2EDF               	goto	u4485
  6925     0EE7                     l1041:
  6926     0EE7  30FF               	movlw	255
  6927     0EE8  0525               	andwf	___xxtofl@arg+3,w
  6928     0EE9  1D03               	btfss	3,2
  6929     0EEA  2EEC               	goto	u4491
  6930     0EEB  2EED               	goto	u4490
  6931     0EEC                     u4491:
  6932     0EEC  2ECE               	goto	l3708
  6933     0EED                     u4490:
  6934     0EED  2EF9               	goto	l3716
  6935     0EEE                     l3714:
  6936     0EEE  3001               	movlw	1
  6937     0EEF  02A1               	subwf	___xxtofl@exp,f
  6938     0EF0  3001               	movlw	1
  6939     0EF1  00F6               	movwf	??___xxtofl
  6940     0EF2                     u4505:
  6941     0EF2  1003               	clrc
  6942     0EF3  0DA2               	rlf	___xxtofl@arg,f
  6943     0EF4  0DA3               	rlf	___xxtofl@arg+1,f
  6944     0EF5  0DA4               	rlf	___xxtofl@arg+2,f
  6945     0EF6  0DA5               	rlf	___xxtofl@arg+3,f
  6946     0EF7  0BF6               	decfsz	??___xxtofl,f
  6947     0EF8  2EF2               	goto	u4505
  6948     0EF9                     l3716:
  6949     0EF9  1BA4               	btfsc	___xxtofl@arg+2,7
  6950     0EFA  2EFC               	goto	u4511
  6951     0EFB  2EFD               	goto	u4510
  6952     0EFC                     u4511:
  6953     0EFC  2F03               	goto	l1048
  6954     0EFD                     u4510:
  6955     0EFD                     l3718:
  6956     0EFD  3002               	movlw	2
  6957     0EFE  0221               	subwf	___xxtofl@exp,w
  6958     0EFF  1803               	skipnc
  6959     0F00  2F02               	goto	u4521
  6960     0F01  2F03               	goto	u4520
  6961     0F02                     u4521:
  6962     0F02  2EEE               	goto	l3714
  6963     0F03                     u4520:
  6964     0F03                     l1048:
  6965     0F03  1821               	btfsc	___xxtofl@exp,0
  6966     0F04  2F06               	goto	u4531
  6967     0F05  2F07               	goto	u4530
  6968     0F06                     u4531:
  6969     0F06  2F0F               	goto	l1049
  6970     0F07                     u4530:
  6971     0F07                     l3720:
  6972     0F07  30FF               	movlw	255
  6973     0F08  05A2               	andwf	___xxtofl@arg,f
  6974     0F09  30FF               	movlw	255
  6975     0F0A  05A3               	andwf	___xxtofl@arg+1,f
  6976     0F0B  307F               	movlw	127
  6977     0F0C  05A4               	andwf	___xxtofl@arg+2,f
  6978     0F0D  30FF               	movlw	255
  6979     0F0E  05A5               	andwf	___xxtofl@arg+3,f
  6980     0F0F                     l1049:
  6981     0F0F  1003               	clrc
  6982     0F10  0CA1               	rrf	___xxtofl@exp,f
  6983     0F11                     l3722:
  6984     0F11  0821               	movf	___xxtofl@exp,w
  6985     0F12  00F6               	movwf	??___xxtofl
  6986     0F13  01F7               	clrf	??___xxtofl+1
  6987     0F14  01F8               	clrf	??___xxtofl+2
  6988     0F15  01F9               	clrf	??___xxtofl+3
  6989     0F16  3018               	movlw	24
  6990     0F17                     u4545:
  6991     0F17  1003               	clrc
  6992     0F18  0DF6               	rlf	??___xxtofl,f
  6993     0F19  0DF7               	rlf	??___xxtofl+1,f
  6994     0F1A  0DF8               	rlf	??___xxtofl+2,f
  6995     0F1B  0DF9               	rlf	??___xxtofl+3,f
  6996     0F1C                     u4540:
  6997     0F1C  3EFF               	addlw	-1
  6998     0F1D  1D03               	skipz
  6999     0F1E  2F17               	goto	u4545
  7000     0F1F  0876               	movf	??___xxtofl,w
  7001     0F20  04A2               	iorwf	___xxtofl@arg,f
  7002     0F21  0877               	movf	??___xxtofl+1,w
  7003     0F22  04A3               	iorwf	___xxtofl@arg+1,f
  7004     0F23  0878               	movf	??___xxtofl+2,w
  7005     0F24  04A4               	iorwf	___xxtofl@arg+2,f
  7006     0F25  0879               	movf	??___xxtofl+3,w
  7007     0F26  04A5               	iorwf	___xxtofl@arg+3,f
  7008     0F27                     l3724:
  7009     0F27  0820               	movf	___xxtofl@sign,w
  7010     0F28  1903               	btfsc	3,2
  7011     0F29  2F2B               	goto	u4551
  7012     0F2A  2F2C               	goto	u4550
  7013     0F2B                     u4551:
  7014     0F2B  2F31               	goto	l3730
  7015     0F2C                     u4550:
  7016     0F2C                     l3726:
  7017     0F2C  1FF5               	btfss	___xxtofl@val+3,7
  7018     0F2D  2F2F               	goto	u4561
  7019     0F2E  2F30               	goto	u4560
  7020     0F2F                     u4561:
  7021     0F2F  2F31               	goto	l3730
  7022     0F30                     u4560:
  7023     0F30                     l3728:
  7024     0F30  17A5               	bsf	___xxtofl@arg+3,7
  7025     0F31                     l3730:
  7026     0F31  0825               	movf	___xxtofl@arg+3,w
  7027     0F32  00F5               	movwf	?___xxtofl+3
  7028     0F33  0824               	movf	___xxtofl@arg+2,w
  7029     0F34  00F4               	movwf	?___xxtofl+2
  7030     0F35  0823               	movf	___xxtofl@arg+1,w
  7031     0F36  00F3               	movwf	?___xxtofl+1
  7032     0F37  0822               	movf	___xxtofl@arg,w
  7033     0F38  00F2               	movwf	?___xxtofl
  7034     0F39                     l1037:
  7035     0F39  0008               	return
  7036     0F3A                     __end_of___xxtofl:
  7037                           
  7038                           	psect	text39
  7039     0CF2                     __ptext39:	
  7040 ;; *************** function ___fltol *****************
  7041 ;; Defined at:
  7042 ;;		line 43 in file "/opt/microchip/xc8/v3.10/pic/sources/c99/common/fltol.c"
  7043 ;; Parameters:    Size  Location     Type
  7044 ;;  f1              4   32[BANK0 ] unsigned char 
  7045 ;; Auto vars:     Size  Location     Type
  7046 ;;  exp1            1   41[BANK0 ] unsigned char 
  7047 ;;  sign1           1   40[BANK0 ] unsigned char 
  7048 ;; Return value:  Size  Location     Type
  7049 ;;                  4   32[BANK0 ] long 
  7050 ;; Registers used:
  7051 ;;		wreg, status,2, status,0
  7052 ;; Tracked objects:
  7053 ;;		On entry : 0/0
  7054 ;;		On exit  : 0/0
  7055 ;;		Unchanged: 0/0
  7056 ;; Data sizes:     COMMON   BANK0   BANK1   BANK3   BANK2
  7057 ;;      Params:         0       4       0       0       0
  7058 ;;      Locals:         0       2       0       0       0
  7059 ;;      Temps:          0       4       0       0       0
  7060 ;;      Totals:         0      10       0       0       0
  7061 ;;Total ram usage:       10 bytes
  7062 ;; Hardware stack levels used: 1
  7063 ;; Hardware stack levels required when called: 1
  7064 ;; This function calls:
  7065 ;;		Nothing
  7066 ;; This function is called by:
  7067 ;;		_dashboard
  7068 ;; This function uses a non-reentrant model
  7069 ;;
  7070                           
  7071     0CF2                     ___fltol:	
  7072                           ;psect for function ___fltol
  7073                           
  7074     0CF2                     l3512:	
  7075                           ;incstack = 0
  7076                           ; Regs used in ___fltol: [wreg+status,2+status,0]
  7077                           
  7078     0CF2  1003               	clrc
  7079     0CF3  1283               	bcf	3,5	;RP0=0, select bank0
  7080     0CF4  1303               	bcf	3,6	;RP1=0, select bank0
  7081     0CF5  0D42               	rlf	___fltol@f1+2,w
  7082     0CF6  0D43               	rlf	___fltol@f1+3,w
  7083     0CF7  00C9               	movwf	___fltol@exp1
  7084     0CF8  0849               	movf	___fltol@exp1,w
  7085     0CF9  1D03               	btfss	3,2
  7086     0CFA  2CFC               	goto	u4041
  7087     0CFB  2CFD               	goto	u4040
  7088     0CFC                     u4041:
  7089     0CFC  2D06               	goto	l3518
  7090     0CFD                     u4040:
  7091     0CFD                     l3514:
  7092     0CFD  3000               	movlw	0
  7093     0CFE  00C3               	movwf	?___fltol+3
  7094     0CFF  3000               	movlw	0
  7095     0D00  00C2               	movwf	?___fltol+2
  7096     0D01  3000               	movlw	0
  7097     0D02  00C1               	movwf	?___fltol+1
  7098     0D03  3000               	movlw	0
  7099     0D04  00C0               	movwf	?___fltol
  7100     0D05  2D67               	goto	l788
  7101     0D06                     l3518:
  7102     0D06  0840               	movf	___fltol@f1,w
  7103     0D07  00C4               	movwf	??___fltol
  7104     0D08  0841               	movf	___fltol@f1+1,w
  7105     0D09  00C5               	movwf	??___fltol+1
  7106     0D0A  0842               	movf	___fltol@f1+2,w
  7107     0D0B  00C6               	movwf	??___fltol+2
  7108     0D0C  0843               	movf	___fltol@f1+3,w
  7109     0D0D  00C7               	movwf	??___fltol+3
  7110     0D0E  301F               	movlw	31
  7111     0D0F                     u4055:
  7112     0D0F  1003               	clrc
  7113     0D10  0CC7               	rrf	??___fltol+3,f
  7114     0D11  0CC6               	rrf	??___fltol+2,f
  7115     0D12  0CC5               	rrf	??___fltol+1,f
  7116     0D13  0CC4               	rrf	??___fltol,f
  7117     0D14                     u4050:
  7118     0D14  3EFF               	addlw	-1
  7119     0D15  1D03               	skipz
  7120     0D16  2D0F               	goto	u4055
  7121     0D17  0844               	movf	??___fltol,w
  7122     0D18  00C8               	movwf	___fltol@sign1
  7123     0D19                     l3520:
  7124     0D19  17C2               	bsf	___fltol@f1+2,7
  7125     0D1A                     l3522:
  7126     0D1A  30FF               	movlw	255
  7127     0D1B  05C0               	andwf	___fltol@f1,f
  7128     0D1C  30FF               	movlw	255
  7129     0D1D  05C1               	andwf	___fltol@f1+1,f
  7130     0D1E  30FF               	movlw	255
  7131     0D1F  05C2               	andwf	___fltol@f1+2,f
  7132     0D20  3000               	movlw	0
  7133     0D21  05C3               	andwf	___fltol@f1+3,f
  7134     0D22                     l3524:
  7135     0D22  3096               	movlw	150
  7136     0D23  02C9               	subwf	___fltol@exp1,f
  7137     0D24                     l3526:
  7138     0D24  1FC9               	btfss	___fltol@exp1,7
  7139     0D25  2D27               	goto	u4061
  7140     0D26  2D28               	goto	u4060
  7141     0D27                     u4061:
  7142     0D27  2D40               	goto	l3536
  7143     0D28                     u4060:
  7144     0D28                     l3528:
  7145     0D28  0849               	movf	___fltol@exp1,w
  7146     0D29  3A80               	xorlw	128
  7147     0D2A  3E97               	addlw	151
  7148     0D2B  1803               	skipnc
  7149     0D2C  2D2E               	goto	u4071
  7150     0D2D  2D2F               	goto	u4070
  7151     0D2E                     u4071:
  7152     0D2E  2D30               	goto	l3534
  7153     0D2F                     u4070:
  7154     0D2F  2CFD               	goto	l3514
  7155     0D30                     l3534:
  7156     0D30  3001               	movlw	1
  7157     0D31                     u4085:
  7158     0D31  1003               	clrc
  7159     0D32  0CC3               	rrf	___fltol@f1+3,f
  7160     0D33  0CC2               	rrf	___fltol@f1+2,f
  7161     0D34  0CC1               	rrf	___fltol@f1+1,f
  7162     0D35  0CC0               	rrf	___fltol@f1,f
  7163     0D36  3EFF               	addlw	-1
  7164     0D37  1D03               	skipz
  7165     0D38  2D31               	goto	u4085
  7166     0D39  3001               	movlw	1
  7167     0D3A  07C9               	addwf	___fltol@exp1,f
  7168     0D3B  1D03               	btfss	3,2
  7169     0D3C  2D3E               	goto	u4091
  7170     0D3D  2D3F               	goto	u4090
  7171     0D3E                     u4091:
  7172     0D3E  2D30               	goto	l3534
  7173     0D3F                     u4090:
  7174     0D3F  2D57               	goto	l3544
  7175     0D40                     l3536:
  7176     0D40  3020               	movlw	32
  7177     0D41  0249               	subwf	___fltol@exp1,w
  7178     0D42  1C03               	skipc
  7179     0D43  2D45               	goto	u4101
  7180     0D44  2D46               	goto	u4100
  7181     0D45                     u4101:
  7182     0D45  2D52               	goto	l795
  7183     0D46                     u4100:
  7184     0D46  2CFD               	goto	l3514
  7185     0D47                     l3542:
  7186     0D47  3001               	movlw	1
  7187     0D48  00C4               	movwf	??___fltol
  7188     0D49                     u4115:
  7189     0D49  1003               	clrc
  7190     0D4A  0DC0               	rlf	___fltol@f1,f
  7191     0D4B  0DC1               	rlf	___fltol@f1+1,f
  7192     0D4C  0DC2               	rlf	___fltol@f1+2,f
  7193     0D4D  0DC3               	rlf	___fltol@f1+3,f
  7194     0D4E  0BC4               	decfsz	??___fltol,f
  7195     0D4F  2D49               	goto	u4115
  7196     0D50  3001               	movlw	1
  7197     0D51  02C9               	subwf	___fltol@exp1,f
  7198     0D52                     l795:
  7199     0D52  0849               	movf	___fltol@exp1,w
  7200     0D53  1D03               	btfss	3,2
  7201     0D54  2D56               	goto	u4121
  7202     0D55  2D57               	goto	u4120
  7203     0D56                     u4121:
  7204     0D56  2D47               	goto	l3542
  7205     0D57                     u4120:
  7206     0D57                     l3544:
  7207     0D57  0848               	movf	___fltol@sign1,w
  7208     0D58  1903               	btfsc	3,2
  7209     0D59  2D5B               	goto	u4131
  7210     0D5A  2D5C               	goto	u4130
  7211     0D5B                     u4131:
  7212     0D5B  2D67               	goto	l798
  7213     0D5C                     u4130:
  7214     0D5C                     l3546:
  7215     0D5C  09C0               	comf	___fltol@f1,f
  7216     0D5D  09C1               	comf	___fltol@f1+1,f
  7217     0D5E  09C2               	comf	___fltol@f1+2,f
  7218     0D5F  09C3               	comf	___fltol@f1+3,f
  7219     0D60  0AC0               	incf	___fltol@f1,f
  7220     0D61  1903               	skipnz
  7221     0D62  0AC1               	incf	___fltol@f1+1,f
  7222     0D63  1903               	skipnz
  7223     0D64  0AC2               	incf	___fltol@f1+2,f
  7224     0D65  1903               	skipnz
  7225     0D66  0AC3               	incf	___fltol@f1+3,f
  7226     0D67                     l798:
  7227     0D67                     l788:
  7228     0D67  0008               	return
  7229     0D68                     __end_of___fltol:
  7230                           
  7231                           	psect	text40
  7232     0040                     __ptext40:	
  7233 ;; *************** function ___fldiv *****************
  7234 ;; Defined at:
  7235 ;;		line 8 in file "/opt/microchip/xc8/v3.10/pic/sources/c99/common/sprcdiv.c"
  7236 ;; Parameters:    Size  Location     Type
  7237 ;;  a               4    6[BANK0 ] long 
  7238 ;;  b               4   10[BANK0 ] long 
  7239 ;; Auto vars:     Size  Location     Type
  7240 ;;  grs             4   26[BANK0 ] unsigned long 
  7241 ;;  rem             4   19[BANK0 ] unsigned long 
  7242 ;;  new_exp         2   24[BANK0 ] short 
  7243 ;;  aexp            1   31[BANK0 ] unsigned char 
  7244 ;;  bexp            1   30[BANK0 ] unsigned char 
  7245 ;;  sign            1   23[BANK0 ] unsigned char 
  7246 ;; Return value:  Size  Location     Type
  7247 ;;                  4    6[BANK0 ] unsigned char 
  7248 ;; Registers used:
  7249 ;;		wreg, status,2, status,0, btemp1
  7250 ;; Tracked objects:
  7251 ;;		On entry : 0/0
  7252 ;;		On exit  : 0/0
  7253 ;;		Unchanged: 0/0
  7254 ;; Data sizes:     COMMON   BANK0   BANK1   BANK3   BANK2
  7255 ;;      Params:         0       8       0       0       0
  7256 ;;      Locals:         0      13       0       0       0
  7257 ;;      Temps:          0       5       0       0       0
  7258 ;;      Totals:         0      26       0       0       0
  7259 ;;Total ram usage:       26 bytes
  7260 ;; Hardware stack levels used: 1
  7261 ;; Hardware stack levels required when called: 1
  7262 ;; This function calls:
  7263 ;;		Nothing
  7264 ;; This function is called by:
  7265 ;;		_dashboard
  7266 ;; This function uses a non-reentrant model
  7267 ;;
  7268                           
  7269     0040                     ___fldiv:	
  7270                           ;psect for function ___fldiv
  7271                           
  7272     0040                     l3548:	
  7273                           ;incstack = 0
  7274                           ; Regs used in ___fldiv: [wreg+status,2+status,0+btemp1]
  7275                           
  7276     0040  1283               	bcf	3,5	;RP0=0, select bank0
  7277     0041  1303               	bcf	3,6	;RP1=0, select bank0
  7278     0042  082D               	movf	___fldiv@b+3,w
  7279     0043  00B7               	movwf	___fldiv@sign
  7280     0044                     l3550:
  7281     0044  3080               	movlw	128
  7282     0045  05B7               	andwf	___fldiv@sign,f
  7283     0046                     l3552:
  7284     0046  082D               	movf	___fldiv@b+3,w
  7285     0047  00AE               	movwf	??___fldiv
  7286     0048  072E               	addwf	??___fldiv,w
  7287     0049  00BE               	movwf	___fldiv@bexp
  7288     004A                     l3554:
  7289     004A  1FAC               	btfss	___fldiv@b+2,7
  7290     004B  284D               	goto	u4141
  7291     004C  284E               	goto	u4140
  7292     004D                     u4141:
  7293     004D  284F               	goto	l3558
  7294     004E                     u4140:
  7295     004E                     l3556:
  7296     004E  143E               	bsf	___fldiv@bexp,0
  7297     004F                     l3558:
  7298     004F  083E               	movf	___fldiv@bexp,w
  7299     0050  1903               	btfsc	3,2
  7300     0051  2853               	goto	u4151
  7301     0052  2854               	goto	u4150
  7302     0053                     u4151:
  7303     0053  2864               	goto	l3568
  7304     0054                     u4150:
  7305     0054                     l3560:
  7306     0054  0A3E               	incf	___fldiv@bexp,w
  7307     0055  1D03               	btfss	3,2
  7308     0056  2858               	goto	u4161
  7309     0057  2859               	goto	u4160
  7310     0058                     u4161:
  7311     0058  2861               	goto	l3564
  7312     0059                     u4160:
  7313     0059                     l3562:
  7314     0059  3000               	movlw	0
  7315     005A  00AD               	movwf	___fldiv@b+3
  7316     005B  3000               	movlw	0
  7317     005C  00AC               	movwf	___fldiv@b+2
  7318     005D  3000               	movlw	0
  7319     005E  00AB               	movwf	___fldiv@b+1
  7320     005F  3000               	movlw	0
  7321     0060  00AA               	movwf	___fldiv@b
  7322     0061                     l3564:
  7323     0061  17AC               	bsf	___fldiv@b+2,7
  7324     0062                     l3566:
  7325     0062  01AD               	clrf	___fldiv@b+3
  7326     0063  286C               	goto	l3570
  7327     0064                     l3568:
  7328     0064  3000               	movlw	0
  7329     0065  00AD               	movwf	___fldiv@b+3
  7330     0066  3000               	movlw	0
  7331     0067  00AC               	movwf	___fldiv@b+2
  7332     0068  3000               	movlw	0
  7333     0069  00AB               	movwf	___fldiv@b+1
  7334     006A  3000               	movlw	0
  7335     006B  00AA               	movwf	___fldiv@b
  7336     006C                     l3570:
  7337     006C  0829               	movf	___fldiv@a+3,w
  7338     006D  3980               	andlw	128
  7339     006E  06B7               	xorwf	___fldiv@sign,f
  7340     006F                     l3572:
  7341     006F  0829               	movf	___fldiv@a+3,w
  7342     0070  00AE               	movwf	??___fldiv
  7343     0071  072E               	addwf	??___fldiv,w
  7344     0072  00BF               	movwf	___fldiv@aexp
  7345     0073                     l3574:
  7346     0073  1FA8               	btfss	___fldiv@a+2,7
  7347     0074  2876               	goto	u4171
  7348     0075  2877               	goto	u4170
  7349     0076                     u4171:
  7350     0076  2878               	goto	l3578
  7351     0077                     u4170:
  7352     0077                     l3576:
  7353     0077  143F               	bsf	___fldiv@aexp,0
  7354     0078                     l3578:
  7355     0078  083F               	movf	___fldiv@aexp,w
  7356     0079  1903               	btfsc	3,2
  7357     007A  287C               	goto	u4181
  7358     007B  287D               	goto	u4180
  7359     007C                     u4181:
  7360     007C  288D               	goto	l3588
  7361     007D                     u4180:
  7362     007D                     l3580:
  7363     007D  0A3F               	incf	___fldiv@aexp,w
  7364     007E  1D03               	btfss	3,2
  7365     007F  2881               	goto	u4191
  7366     0080  2882               	goto	u4190
  7367     0081                     u4191:
  7368     0081  288A               	goto	l3584
  7369     0082                     u4190:
  7370     0082                     l3582:
  7371     0082  3000               	movlw	0
  7372     0083  00A9               	movwf	___fldiv@a+3
  7373     0084  3000               	movlw	0
  7374     0085  00A8               	movwf	___fldiv@a+2
  7375     0086  3000               	movlw	0
  7376     0087  00A7               	movwf	___fldiv@a+1
  7377     0088  3000               	movlw	0
  7378     0089  00A6               	movwf	___fldiv@a
  7379     008A                     l3584:
  7380     008A  17A8               	bsf	___fldiv@a+2,7
  7381     008B                     l3586:
  7382     008B  01A9               	clrf	___fldiv@a+3
  7383     008C  2895               	goto	l951
  7384     008D                     l3588:
  7385     008D  3000               	movlw	0
  7386     008E  00A9               	movwf	___fldiv@a+3
  7387     008F  3000               	movlw	0
  7388     0090  00A8               	movwf	___fldiv@a+2
  7389     0091  3000               	movlw	0
  7390     0092  00A7               	movwf	___fldiv@a+1
  7391     0093  3000               	movlw	0
  7392     0094  00A6               	movwf	___fldiv@a
  7393     0095                     l951:
  7394     0095  0829               	movf	___fldiv@a+3,w
  7395     0096  0428               	iorwf	___fldiv@a+2,w
  7396     0097  0427               	iorwf	___fldiv@a+1,w
  7397     0098  0426               	iorwf	___fldiv@a,w
  7398     0099  1D03               	skipz
  7399     009A  289C               	goto	u4201
  7400     009B  289D               	goto	u4200
  7401     009C                     u4201:
  7402     009C  28B4               	goto	l3598
  7403     009D                     u4200:
  7404     009D                     l3590:
  7405     009D  3000               	movlw	0
  7406     009E  00AD               	movwf	___fldiv@b+3
  7407     009F  3000               	movlw	0
  7408     00A0  00AC               	movwf	___fldiv@b+2
  7409     00A1  3000               	movlw	0
  7410     00A2  00AB               	movwf	___fldiv@b+1
  7411     00A3  3000               	movlw	0
  7412     00A4  00AA               	movwf	___fldiv@b
  7413     00A5  3080               	movlw	128
  7414     00A6  04AC               	iorwf	___fldiv@b+2,f
  7415     00A7  307F               	movlw	127
  7416     00A8  04AD               	iorwf	___fldiv@b+3,f
  7417     00A9                     l3592:
  7418     00A9  0837               	movf	___fldiv@sign,w
  7419     00AA  04AD               	iorwf	___fldiv@b+3,f
  7420     00AB                     l3594:
  7421     00AB  082D               	movf	___fldiv@b+3,w
  7422     00AC  00A9               	movwf	?___fldiv+3
  7423     00AD  082C               	movf	___fldiv@b+2,w
  7424     00AE  00A8               	movwf	?___fldiv+2
  7425     00AF  082B               	movf	___fldiv@b+1,w
  7426     00B0  00A7               	movwf	?___fldiv+1
  7427     00B1  082A               	movf	___fldiv@b,w
  7428     00B2  00A6               	movwf	?___fldiv
  7429     00B3  2A09               	goto	l953
  7430     00B4                     l3598:
  7431     00B4  083E               	movf	___fldiv@bexp,w
  7432     00B5  1D03               	btfss	3,2
  7433     00B6  28B8               	goto	u4211
  7434     00B7  28B9               	goto	u4210
  7435     00B8                     u4211:
  7436     00B8  28C2               	goto	l3604
  7437     00B9                     u4210:
  7438     00B9                     l3600:
  7439     00B9  3000               	movlw	0
  7440     00BA  00A9               	movwf	?___fldiv+3
  7441     00BB  3000               	movlw	0
  7442     00BC  00A8               	movwf	?___fldiv+2
  7443     00BD  3000               	movlw	0
  7444     00BE  00A7               	movwf	?___fldiv+1
  7445     00BF  3000               	movlw	0
  7446     00C0  00A6               	movwf	?___fldiv
  7447     00C1  2A09               	goto	l953
  7448     00C2                     l3604:
  7449     00C2  083E               	movf	___fldiv@bexp,w
  7450     00C3  00AE               	movwf	??___fldiv
  7451     00C4  01AF               	clrf	??___fldiv+1
  7452     00C5  082F               	movf	??___fldiv+1,w
  7453     00C6  00B1               	movwf	??___fldiv+3
  7454     00C7  083F               	movf	___fldiv@aexp,w
  7455     00C8  022E               	subwf	??___fldiv,w
  7456     00C9  00B0               	movwf	??___fldiv+2
  7457     00CA  1C03               	skipc
  7458     00CB  03B1               	decf	??___fldiv+3,f
  7459     00CC  0830               	movf	??___fldiv+2,w
  7460     00CD  3E7F               	addlw	127
  7461     00CE  00B8               	movwf	___fldiv@new_exp
  7462     00CF  0831               	movf	??___fldiv+3,w
  7463     00D0  1803               	skipnc
  7464     00D1  3E01               	addlw	1
  7465     00D2  3E00               	addlw	0
  7466     00D3  00B9               	movwf	___fldiv@new_exp+1
  7467     00D4                     l3606:
  7468     00D4  082D               	movf	___fldiv@b+3,w
  7469     00D5  00B6               	movwf	___fldiv@rem+3
  7470     00D6  082C               	movf	___fldiv@b+2,w
  7471     00D7  00B5               	movwf	___fldiv@rem+2
  7472     00D8  082B               	movf	___fldiv@b+1,w
  7473     00D9  00B4               	movwf	___fldiv@rem+1
  7474     00DA  082A               	movf	___fldiv@b,w
  7475     00DB  00B3               	movwf	___fldiv@rem
  7476     00DC                     l3608:
  7477     00DC  3000               	movlw	0
  7478     00DD  00AD               	movwf	___fldiv@b+3
  7479     00DE  3000               	movlw	0
  7480     00DF  00AC               	movwf	___fldiv@b+2
  7481     00E0  3000               	movlw	0
  7482     00E1  00AB               	movwf	___fldiv@b+1
  7483     00E2  3000               	movlw	0
  7484     00E3  00AA               	movwf	___fldiv@b
  7485     00E4                     l3610:
  7486     00E4  3000               	movlw	0
  7487     00E5  00BD               	movwf	___fldiv@grs+3
  7488     00E6  3000               	movlw	0
  7489     00E7  00BC               	movwf	___fldiv@grs+2
  7490     00E8  3000               	movlw	0
  7491     00E9  00BB               	movwf	___fldiv@grs+1
  7492     00EA  3000               	movlw	0
  7493     00EB  00BA               	movwf	___fldiv@grs
  7494     00EC                     l3612:
  7495     00EC  01BF               	clrf	___fldiv@aexp
  7496     00ED  2936               	goto	l3632
  7497     00EE                     l3614:
  7498     00EE  083F               	movf	___fldiv@aexp,w
  7499     00EF  1903               	btfsc	3,2
  7500     00F0  28F2               	goto	u4221
  7501     00F1  28F3               	goto	u4220
  7502     00F2                     u4221:
  7503     00F2  2913               	goto	l3624
  7504     00F3                     u4220:
  7505     00F3                     l3616:
  7506     00F3  3001               	movlw	1
  7507     00F4  00AE               	movwf	??___fldiv
  7508     00F5                     u4235:
  7509     00F5  1003               	clrc
  7510     00F6  0DB3               	rlf	___fldiv@rem,f
  7511     00F7  0DB4               	rlf	___fldiv@rem+1,f
  7512     00F8  0DB5               	rlf	___fldiv@rem+2,f
  7513     00F9  0DB6               	rlf	___fldiv@rem+3,f
  7514     00FA  0BAE               	decfsz	??___fldiv,f
  7515     00FB  28F5               	goto	u4235
  7516     00FC  3001               	movlw	1
  7517     00FD  00AE               	movwf	??___fldiv
  7518     00FE                     u4245:
  7519     00FE  1003               	clrc
  7520     00FF  0DAA               	rlf	___fldiv@b,f
  7521     0100  0DAB               	rlf	___fldiv@b+1,f
  7522     0101  0DAC               	rlf	___fldiv@b+2,f
  7523     0102  0DAD               	rlf	___fldiv@b+3,f
  7524     0103  0BAE               	decfsz	??___fldiv,f
  7525     0104  28FE               	goto	u4245
  7526     0105                     l3618:
  7527     0105  1FBD               	btfss	___fldiv@grs+3,7
  7528     0106  2908               	goto	u4251
  7529     0107  2909               	goto	u4250
  7530     0108                     u4251:
  7531     0108  290A               	goto	l3622
  7532     0109                     u4250:
  7533     0109                     l3620:
  7534     0109  142A               	bsf	___fldiv@b,0
  7535     010A                     l3622:
  7536     010A  3001               	movlw	1
  7537     010B  00AE               	movwf	??___fldiv
  7538     010C                     u4265:
  7539     010C  1003               	clrc
  7540     010D  0DBA               	rlf	___fldiv@grs,f
  7541     010E  0DBB               	rlf	___fldiv@grs+1,f
  7542     010F  0DBC               	rlf	___fldiv@grs+2,f
  7543     0110  0DBD               	rlf	___fldiv@grs+3,f
  7544     0111  0BAE               	decfsz	??___fldiv,f
  7545     0112  290C               	goto	u4265
  7546     0113                     l3624:
  7547     0113  0829               	movf	___fldiv@a+3,w
  7548     0114  0236               	subwf	___fldiv@rem+3,w
  7549     0115  1D03               	skipz
  7550     0116  2921               	goto	u4275
  7551     0117  0828               	movf	___fldiv@a+2,w
  7552     0118  0235               	subwf	___fldiv@rem+2,w
  7553     0119  1D03               	skipz
  7554     011A  2921               	goto	u4275
  7555     011B  0827               	movf	___fldiv@a+1,w
  7556     011C  0234               	subwf	___fldiv@rem+1,w
  7557     011D  1D03               	skipz
  7558     011E  2921               	goto	u4275
  7559     011F  0826               	movf	___fldiv@a,w
  7560     0120  0233               	subwf	___fldiv@rem,w
  7561     0121                     u4275:
  7562     0121  1C03               	skipc
  7563     0122  2924               	goto	u4271
  7564     0123  2925               	goto	u4270
  7565     0124                     u4271:
  7566     0124  2934               	goto	l3630
  7567     0125                     u4270:
  7568     0125                     l3626:
  7569     0125  173D               	bsf	___fldiv@grs+3,6
  7570     0126                     l3628:
  7571     0126  0826               	movf	___fldiv@a,w
  7572     0127  02B3               	subwf	___fldiv@rem,f
  7573     0128  0827               	movf	___fldiv@a+1,w
  7574     0129  1C03               	skipc
  7575     012A  0F27               	incfsz	___fldiv@a+1,w
  7576     012B  02B4               	subwf	___fldiv@rem+1,f
  7577     012C  0828               	movf	___fldiv@a+2,w
  7578     012D  1C03               	skipc
  7579     012E  0F28               	incfsz	___fldiv@a+2,w
  7580     012F  02B5               	subwf	___fldiv@rem+2,f
  7581     0130  0829               	movf	___fldiv@a+3,w
  7582     0131  1C03               	skipc
  7583     0132  0F29               	incfsz	___fldiv@a+3,w
  7584     0133  02B6               	subwf	___fldiv@rem+3,f
  7585     0134                     l3630:
  7586     0134  3001               	movlw	1
  7587     0135  07BF               	addwf	___fldiv@aexp,f
  7588     0136                     l3632:
  7589     0136  301A               	movlw	26
  7590     0137  023F               	subwf	___fldiv@aexp,w
  7591     0138  1C03               	skipc
  7592     0139  293B               	goto	u4281
  7593     013A  293C               	goto	u4280
  7594     013B                     u4281:
  7595     013B  28EE               	goto	l3614
  7596     013C                     u4280:
  7597     013C                     l3634:
  7598     013C  0836               	movf	___fldiv@rem+3,w
  7599     013D  0435               	iorwf	___fldiv@rem+2,w
  7600     013E  0434               	iorwf	___fldiv@rem+1,w
  7601     013F  0433               	iorwf	___fldiv@rem,w
  7602     0140  1903               	skipnz
  7603     0141  2943               	goto	u4291
  7604     0142  2944               	goto	u4290
  7605     0143                     u4291:
  7606     0143  2963               	goto	l3648
  7607     0144                     u4290:
  7608     0144                     l3636:
  7609     0144  143A               	bsf	___fldiv@grs,0
  7610     0145  2963               	goto	l3648
  7611     0146                     l3638:
  7612     0146  3001               	movlw	1
  7613     0147  00AE               	movwf	??___fldiv
  7614     0148                     u4305:
  7615     0148  1003               	clrc
  7616     0149  0DAA               	rlf	___fldiv@b,f
  7617     014A  0DAB               	rlf	___fldiv@b+1,f
  7618     014B  0DAC               	rlf	___fldiv@b+2,f
  7619     014C  0DAD               	rlf	___fldiv@b+3,f
  7620     014D  0BAE               	decfsz	??___fldiv,f
  7621     014E  2948               	goto	u4305
  7622     014F                     l3640:
  7623     014F  1FBD               	btfss	___fldiv@grs+3,7
  7624     0150  2952               	goto	u4311
  7625     0151  2953               	goto	u4310
  7626     0152                     u4311:
  7627     0152  2954               	goto	l3644
  7628     0153                     u4310:
  7629     0153                     l3642:
  7630     0153  142A               	bsf	___fldiv@b,0
  7631     0154                     l3644:
  7632     0154  3001               	movlw	1
  7633     0155  00AE               	movwf	??___fldiv
  7634     0156                     u4325:
  7635     0156  1003               	clrc
  7636     0157  0DBA               	rlf	___fldiv@grs,f
  7637     0158  0DBB               	rlf	___fldiv@grs+1,f
  7638     0159  0DBC               	rlf	___fldiv@grs+2,f
  7639     015A  0DBD               	rlf	___fldiv@grs+3,f
  7640     015B  0BAE               	decfsz	??___fldiv,f
  7641     015C  2956               	goto	u4325
  7642     015D                     l3646:
  7643     015D  30FF               	movlw	255
  7644     015E  07B8               	addwf	___fldiv@new_exp,f
  7645     015F  1803               	skipnc
  7646     0160  0AB9               	incf	___fldiv@new_exp+1,f
  7647     0161  30FF               	movlw	255
  7648     0162  07B9               	addwf	___fldiv@new_exp+1,f
  7649     0163                     l3648:
  7650     0163  1FAC               	btfss	___fldiv@b+2,7
  7651     0164  2966               	goto	u4331
  7652     0165  2967               	goto	u4330
  7653     0166                     u4331:
  7654     0166  2946               	goto	l3638
  7655     0167                     u4330:
  7656     0167                     l3650:
  7657     0167  01BF               	clrf	___fldiv@aexp
  7658     0168                     l3652:
  7659     0168  1FBD               	btfss	___fldiv@grs+3,7
  7660     0169  296B               	goto	u4341
  7661     016A  296C               	goto	u4340
  7662     016B                     u4341:
  7663     016B  2988               	goto	l3660
  7664     016C                     u4340:
  7665     016C                     l3654:
  7666     016C  30FF               	movlw	255
  7667     016D  053A               	andwf	___fldiv@grs,w
  7668     016E  00AE               	movwf	??___fldiv
  7669     016F  30FF               	movlw	255
  7670     0170  053B               	andwf	___fldiv@grs+1,w
  7671     0171  00AF               	movwf	??___fldiv+1
  7672     0172  30FF               	movlw	255
  7673     0173  053C               	andwf	___fldiv@grs+2,w
  7674     0174  00B0               	movwf	??___fldiv+2
  7675     0175  307F               	movlw	127
  7676     0176  053D               	andwf	___fldiv@grs+3,w
  7677     0177  00B1               	movwf	??___fldiv+3
  7678     0178  0831               	movf	??___fldiv+3,w
  7679     0179  0430               	iorwf	??___fldiv+2,w
  7680     017A  042F               	iorwf	??___fldiv+1,w
  7681     017B  042E               	iorwf	??___fldiv,w
  7682     017C  1903               	skipnz
  7683     017D  297F               	goto	u4351
  7684     017E  2980               	goto	u4350
  7685     017F                     u4351:
  7686     017F  2983               	goto	l967
  7687     0180                     u4350:
  7688     0180                     l3656:
  7689     0180  3001               	movlw	1
  7690     0181  00BF               	movwf	___fldiv@aexp
  7691     0182  2988               	goto	l3660
  7692     0183                     l967:
  7693     0183  1C2A               	btfss	___fldiv@b,0
  7694     0184  2986               	goto	u4361
  7695     0185  2987               	goto	u4360
  7696     0186                     u4361:
  7697     0186  2988               	goto	l3660
  7698     0187                     u4360:
  7699     0187  2980               	goto	l3656
  7700     0188                     l3660:
  7701     0188  083F               	movf	___fldiv@aexp,w
  7702     0189  1903               	btfsc	3,2
  7703     018A  298C               	goto	u4371
  7704     018B  298D               	goto	u4370
  7705     018C                     u4371:
  7706     018C  29BE               	goto	l3670
  7707     018D                     u4370:
  7708     018D                     l3662:
  7709     018D  3001               	movlw	1
  7710     018E  07AA               	addwf	___fldiv@b,f
  7711     018F  3000               	movlw	0
  7712     0190  1803               	skipnc
  7713     0191  3001               	movlw	1
  7714     0192  07AB               	addwf	___fldiv@b+1,f
  7715     0193  3000               	movlw	0
  7716     0194  1803               	skipnc
  7717     0195  3001               	movlw	1
  7718     0196  07AC               	addwf	___fldiv@b+2,f
  7719     0197  3000               	movlw	0
  7720     0198  1803               	skipnc
  7721     0199  3001               	movlw	1
  7722     019A  07AD               	addwf	___fldiv@b+3,f
  7723     019B                     l3664:
  7724     019B  1C2D               	btfss	___fldiv@b+3,0
  7725     019C  299E               	goto	u4381
  7726     019D  299F               	goto	u4380
  7727     019E                     u4381:
  7728     019E  29BE               	goto	l3670
  7729     019F                     u4380:
  7730     019F                     l3666:
  7731     019F  082A               	movf	___fldiv@b,w
  7732     01A0  00AE               	movwf	??___fldiv
  7733     01A1  082B               	movf	___fldiv@b+1,w
  7734     01A2  00AF               	movwf	??___fldiv+1
  7735     01A3  082C               	movf	___fldiv@b+2,w
  7736     01A4  00B0               	movwf	??___fldiv+2
  7737     01A5  082D               	movf	___fldiv@b+3,w
  7738     01A6  00B1               	movwf	??___fldiv+3
  7739     01A7  3001               	movlw	1
  7740     01A8  00B2               	movwf	??___fldiv+4
  7741     01A9                     u4395:
  7742     01A9  0D31               	rlf	??___fldiv+3,w
  7743     01AA  0CB1               	rrf	??___fldiv+3,f
  7744     01AB  0CB0               	rrf	??___fldiv+2,f
  7745     01AC  0CAF               	rrf	??___fldiv+1,f
  7746     01AD  0CAE               	rrf	??___fldiv,f
  7747     01AE                     u4390:
  7748     01AE  0BB2               	decfsz	??___fldiv+4,f
  7749     01AF  29A9               	goto	u4395
  7750     01B0  0831               	movf	??___fldiv+3,w
  7751     01B1  00AD               	movwf	___fldiv@b+3
  7752     01B2  0830               	movf	??___fldiv+2,w
  7753     01B3  00AC               	movwf	___fldiv@b+2
  7754     01B4  082F               	movf	??___fldiv+1,w
  7755     01B5  00AB               	movwf	___fldiv@b+1
  7756     01B6  082E               	movf	??___fldiv,w
  7757     01B7  00AA               	movwf	___fldiv@b
  7758     01B8                     l3668:
  7759     01B8  3001               	movlw	1
  7760     01B9  07B8               	addwf	___fldiv@new_exp,f
  7761     01BA  1803               	skipnc
  7762     01BB  0AB9               	incf	___fldiv@new_exp+1,f
  7763     01BC  3000               	movlw	0
  7764     01BD  07B9               	addwf	___fldiv@new_exp+1,f
  7765     01BE                     l3670:
  7766     01BE  0839               	movf	___fldiv@new_exp+1,w
  7767     01BF  3A80               	xorlw	128
  7768     01C0  00FF               	movwf	btemp1
  7769     01C1  3080               	movlw	128
  7770     01C2  027F               	subwf	btemp1,w
  7771     01C3  1D03               	skipz
  7772     01C4  29C7               	goto	u4405
  7773     01C5  30FF               	movlw	255
  7774     01C6  0238               	subwf	___fldiv@new_exp,w
  7775     01C7                     u4405:
  7776     01C7  1C03               	skipc
  7777     01C8  29CA               	goto	u4401
  7778     01C9  29CB               	goto	u4400
  7779     01CA                     u4401:
  7780     01CA  29D9               	goto	l3674
  7781     01CB                     u4400:
  7782     01CB                     l3672:
  7783     01CB  30FF               	movlw	255
  7784     01CC  1283               	bcf	3,5	;RP0=0, select bank0
  7785     01CD  1303               	bcf	3,6	;RP1=0, select bank0
  7786     01CE  00B8               	movwf	___fldiv@new_exp
  7787     01CF  3000               	movlw	0
  7788     01D0  00B9               	movwf	___fldiv@new_exp+1
  7789     01D1  3000               	movlw	0
  7790     01D2  00AD               	movwf	___fldiv@b+3
  7791     01D3  3000               	movlw	0
  7792     01D4  00AC               	movwf	___fldiv@b+2
  7793     01D5  3000               	movlw	0
  7794     01D6  00AB               	movwf	___fldiv@b+1
  7795     01D7  3000               	movlw	0
  7796     01D8  00AA               	movwf	___fldiv@b
  7797     01D9                     l3674:
  7798     01D9  1283               	bcf	3,5	;RP0=0, select bank0
  7799     01DA  1303               	bcf	3,6	;RP1=0, select bank0
  7800     01DB  0839               	movf	___fldiv@new_exp+1,w
  7801     01DC  3A80               	xorlw	128
  7802     01DD  00FF               	movwf	btemp1
  7803     01DE  3080               	movlw	128
  7804     01DF  027F               	subwf	btemp1,w
  7805     01E0  1D03               	skipz
  7806     01E1  29E4               	goto	u4415
  7807     01E2  3001               	movlw	1
  7808     01E3  0238               	subwf	___fldiv@new_exp,w
  7809     01E4                     u4415:
  7810     01E4  1803               	skipnc
  7811     01E5  29E7               	goto	u4411
  7812     01E6  29E8               	goto	u4410
  7813     01E7                     u4411:
  7814     01E7  29F5               	goto	l973
  7815     01E8                     u4410:
  7816     01E8                     l3676:
  7817     01E8  1283               	bcf	3,5	;RP0=0, select bank0
  7818     01E9  1303               	bcf	3,6	;RP1=0, select bank0
  7819     01EA  01B8               	clrf	___fldiv@new_exp
  7820     01EB  01B9               	clrf	___fldiv@new_exp+1
  7821     01EC                     l3678:
  7822     01EC  3000               	movlw	0
  7823     01ED  00AD               	movwf	___fldiv@b+3
  7824     01EE  3000               	movlw	0
  7825     01EF  00AC               	movwf	___fldiv@b+2
  7826     01F0  3000               	movlw	0
  7827     01F1  00AB               	movwf	___fldiv@b+1
  7828     01F2  3000               	movlw	0
  7829     01F3  00AA               	movwf	___fldiv@b
  7830     01F4                     l3680:
  7831     01F4  01B7               	clrf	___fldiv@sign
  7832     01F5                     l973:
  7833     01F5  1283               	bcf	3,5	;RP0=0, select bank0
  7834     01F6  1303               	bcf	3,6	;RP1=0, select bank0
  7835     01F7  0838               	movf	___fldiv@new_exp,w
  7836     01F8  00BE               	movwf	___fldiv@bexp
  7837     01F9                     l3682:
  7838     01F9  1C3E               	btfss	___fldiv@bexp,0
  7839     01FA  29FC               	goto	u4421
  7840     01FB  29FD               	goto	u4420
  7841     01FC                     u4421:
  7842     01FC  29FF               	goto	l3686
  7843     01FD                     u4420:
  7844     01FD                     l3684:
  7845     01FD  17AC               	bsf	___fldiv@b+2,7
  7846     01FE  2A01               	goto	l975
  7847     01FF                     l3686:
  7848     01FF  307F               	movlw	127
  7849     0200  05AC               	andwf	___fldiv@b+2,f
  7850     0201                     l975:
  7851     0201  083E               	movf	___fldiv@bexp,w
  7852     0202  00AE               	movwf	??___fldiv
  7853     0203  1003               	clrc
  7854     0204  0C2E               	rrf	??___fldiv,w
  7855     0205  00AD               	movwf	___fldiv@b+3
  7856     0206  0837               	movf	___fldiv@sign,w
  7857     0207  04AD               	iorwf	___fldiv@b+3,f
  7858     0208  28AB               	goto	l3594
  7859     0209                     l953:
  7860     0209  0008               	return
  7861     020A                     __end_of___fldiv:
  7862                           
  7863                           	psect	text41
  7864     0F3A                     __ptext41:	
  7865 ;; *************** function _auth_user *****************
  7866 ;; Defined at:
  7867 ;;		line 26 in file "/home/santhoshtk/Desktop/EMERTXE/MC/25014_Car_Black__Box.X/25014_Car_Black_Box.X/auth.c"
  7868 ;; Parameters:    Size  Location     Type
  7869 ;;		None
  7870 ;; Auto vars:     Size  Location     Type
  7871 ;;  i               2    5[BANK0 ] unsigned int 
  7872 ;;  key             1    4[BANK0 ] unsigned char 
  7873 ;; Return value:  Size  Location     Type
  7874 ;;                  1    wreg      void 
  7875 ;; Registers used:
  7876 ;;		wreg, fsr0l, fsr0h, status,2, status,0, pclath, btemp1, cstack
  7877 ;; Tracked objects:
  7878 ;;		On entry : 0/0
  7879 ;;		On exit  : 0/0
  7880 ;;		Unchanged: 0/0
  7881 ;; Data sizes:     COMMON   BANK0   BANK1   BANK3   BANK2
  7882 ;;      Params:         0       0       0       0       0
  7883 ;;      Locals:         0       3       0       0       0
  7884 ;;      Temps:          0       3       0       0       0
  7885 ;;      Totals:         0       6       0       0       0
  7886 ;;Total ram usage:        6 bytes
  7887 ;; Hardware stack levels used: 1
  7888 ;; Hardware stack levels required when called: 3
  7889 ;; This function calls:
  7890 ;;		_clcd_print
  7891 ;;		_clcd_putch
  7892 ;;		_read_digital_keypad
  7893 ;;		_run_delay
  7894 ;; This function is called by:
  7895 ;;		_main
  7896 ;; This function uses a non-reentrant model
  7897 ;;
  7898                           
  7899     0F3A                     _auth_user:	
  7900                           ;psect for function _auth_user
  7901                           
  7902     0F3A                     l3734:	
  7903                           ;incstack = 0
  7904                           ; Regs used in _auth_user: [wreg-fsr0h+status,2+status,0+pclath+btemp1+cstack]
  7905                           
  7906                           
  7907                           ;/home/santhoshtk/Desktop/EMERTXE/MC/25014_Car_Black__Box.X/25014_Car_Black_Box.X/auth.c
      +                          : 28:     clcd_print(" ENTER PASSWORD ", (0x80 + 0));
  7908     0F3A  3078               	movlw	low (STR_1| (0+32768))
  7909     0F3B  00F6               	movwf	clcd_print@str
  7910     0F3C  3084               	movlw	high (STR_1| (0+32768))
  7911     0F3D  00F7               	movwf	clcd_print@str+1
  7912     0F3E  3080               	movlw	128
  7913     0F3F  00F8               	movwf	clcd_print@addr
  7914     0F40  120A  158A  210B  120A  158A  	fcall	_clcd_print
  7915     0F45                     l3736:
  7916                           
  7917                           ;/home/santhoshtk/Desktop/EMERTXE/MC/25014_Car_Black__Box.X/25014_Car_Black_Box.X/auth.c
      +                          : 29:     if(index == 0) clcd_print("                ", (0xC0 + 0));
  7918     0F45  1283               	bcf	3,5	;RP0=0, select bank0
  7919     0F46  1303               	bcf	3,6	;RP1=0, select bank0
  7920     0F47  085B               	movf	_index,w
  7921     0F48  045C               	iorwf	_index+1,w
  7922     0F49  1D03               	btfss	3,2
  7923     0F4A  2F4C               	goto	u4571
  7924     0F4B  2F4D               	goto	u4570
  7925     0F4C                     u4571:
  7926     0F4C  2F58               	goto	l3740
  7927     0F4D                     u4570:
  7928     0F4D                     l3738:
  7929     0F4D  3056               	movlw	low (STR_2| (0+32768))
  7930     0F4E  00F6               	movwf	clcd_print@str
  7931     0F4F  3084               	movlw	high (STR_2| (0+32768))
  7932     0F50  00F7               	movwf	clcd_print@str+1
  7933     0F51  30C0               	movlw	192
  7934     0F52  00F8               	movwf	clcd_print@addr
  7935     0F53  120A  158A  210B  120A  158A  	fcall	_clcd_print
  7936     0F58                     l3740:
  7937                           
  7938                           ;/home/santhoshtk/Desktop/EMERTXE/MC/25014_Car_Black__Box.X/25014_Car_Black_Box.X/auth.c
      +                          : 31:     char key = read_digital_keypad(1);
  7939     0F58  3001               	movlw	1
  7940     0F59  120A  158A  208B  120A  158A  	fcall	_read_digital_keypad
  7941     0F5E  1283               	bcf	3,5	;RP0=0, select bank0
  7942     0F5F  1303               	bcf	3,6	;RP1=0, select bank0
  7943     0F60  00A4               	movwf	auth_user@key
  7944     0F61                     l3742:
  7945                           
  7946                           ;/home/santhoshtk/Desktop/EMERTXE/MC/25014_Car_Black__Box.X/25014_Car_Black_Box.X/auth.c
      +                          : 33:     if(key == 0x3E){
  7947     0F61  303E               	movlw	62
  7948     0F62  0624               	xorwf	auth_user@key,w
  7949     0F63  1D03               	btfss	3,2
  7950     0F64  2F66               	goto	u4581
  7951     0F65  2F67               	goto	u4580
  7952     0F66                     u4581:
  7953     0F66  2F7D               	goto	l3750
  7954     0F67                     u4580:
  7955     0F67                     l3744:
  7956                           
  7957                           ;/home/santhoshtk/Desktop/EMERTXE/MC/25014_Car_Black__Box.X/25014_Car_Black_Box.X/auth.c
      +                          : 34:         user_entered_password[index++] = '0';
  7958     0F67  085B               	movf	_index,w
  7959     0F68  3E4D               	addlw	(low (_user_entered_password| 0))& (0+255)
  7960     0F69  0084               	movwf	4
  7961     0F6A  3030               	movlw	48
  7962     0F6B  1383               	bcf	3,7	;select IRP bank0
  7963     0F6C  0080               	movwf	0
  7964     0F6D                     l3746:
  7965     0F6D  3001               	movlw	1
  7966     0F6E  07DB               	addwf	_index,f
  7967     0F6F  1803               	skipnc
  7968     0F70  0ADC               	incf	_index+1,f
  7969     0F71  3000               	movlw	0
  7970     0F72  07DC               	addwf	_index+1,f
  7971     0F73                     l3748:
  7972                           
  7973                           ;/home/santhoshtk/Desktop/EMERTXE/MC/25014_Car_Black__Box.X/25014_Car_Black_Box.X/auth.c
      +                          : 35:         clcd_putch('*', (0xC0 + index));
  7974     0F73  085B               	movf	_index,w
  7975     0F74  3EC0               	addlw	192
  7976     0F75  00F9               	movwf	clcd_putch@addr
  7977     0F76  302A               	movlw	42
  7978     0F77  120A  118A  27E8  120A  158A  	fcall	_clcd_putch
  7979                           
  7980                           ;/home/santhoshtk/Desktop/EMERTXE/MC/25014_Car_Black__Box.X/25014_Car_Black_Box.X/auth.c
      +                          : 36:     }
  7981     0F7C  2F98               	goto	l3758
  7982     0F7D                     l3750:
  7983     0F7D  303D               	movlw	61
  7984     0F7E  0624               	xorwf	auth_user@key,w
  7985     0F7F  1D03               	btfss	3,2
  7986     0F80  2F82               	goto	u4591
  7987     0F81  2F83               	goto	u4590
  7988     0F82                     u4591:
  7989     0F82  2F98               	goto	l3758
  7990     0F83                     u4590:
  7991     0F83                     l3752:
  7992                           
  7993                           ;/home/santhoshtk/Desktop/EMERTXE/MC/25014_Car_Black__Box.X/25014_Car_Black_Box.X/auth.c
      +                          : 39:         user_entered_password[index++] = '1';
  7994     0F83  085B               	movf	_index,w
  7995     0F84  3E4D               	addlw	(low (_user_entered_password| 0))& (0+255)
  7996     0F85  0084               	movwf	4
  7997     0F86  3031               	movlw	49
  7998     0F87  1383               	bcf	3,7	;select IRP bank0
  7999     0F88  0080               	movwf	0
  8000     0F89                     l3754:
  8001     0F89  3001               	movlw	1
  8002     0F8A  07DB               	addwf	_index,f
  8003     0F8B  1803               	skipnc
  8004     0F8C  0ADC               	incf	_index+1,f
  8005     0F8D  3000               	movlw	0
  8006     0F8E  07DC               	addwf	_index+1,f
  8007     0F8F                     l3756:
  8008                           
  8009                           ;/home/santhoshtk/Desktop/EMERTXE/MC/25014_Car_Black__Box.X/25014_Car_Black_Box.X/auth.c
      +                          : 40:         clcd_putch('*', (0xC0 + index));
  8010     0F8F  085B               	movf	_index,w
  8011     0F90  3EC0               	addlw	192
  8012     0F91  00F9               	movwf	clcd_putch@addr
  8013     0F92  302A               	movlw	42
  8014     0F93  120A  118A  27E8  120A  158A  	fcall	_clcd_putch
  8015     0F98                     l3758:
  8016                           
  8017                           ;/home/santhoshtk/Desktop/EMERTXE/MC/25014_Car_Black__Box.X/25014_Car_Black_Box.X/auth.c
      +                          : 45:     if(index == 4){
  8018     0F98  3004               	movlw	4
  8019     0F99  1283               	bcf	3,5	;RP0=0, select bank0
  8020     0F9A  1303               	bcf	3,6	;RP1=0, select bank0
  8021     0F9B  065B               	xorwf	_index,w
  8022     0F9C  045C               	iorwf	_index+1,w
  8023     0F9D  1D03               	btfss	3,2
  8024     0F9E  2FA0               	goto	u4601
  8025     0F9F  2FA1               	goto	u4600
  8026     0FA0                     u4601:
  8027     0FA0  2FFF               	goto	l59
  8028     0FA1                     u4600:
  8029     0FA1                     l3760:
  8030                           
  8031                           ;/home/santhoshtk/Desktop/EMERTXE/MC/25014_Car_Black__Box.X/25014_Car_Black_Box.X/auth.c
      +                          : 47:         unsigned int i = 0;
  8032     0FA1  01A5               	clrf	auth_user@i
  8033     0FA2  01A6               	clrf	auth_user@i+1
  8034     0FA3                     l3766:
  8035                           
  8036                           ;/home/santhoshtk/Desktop/EMERTXE/MC/25014_Car_Black__Box.X/25014_Car_Black_Box.X/auth.c
      +                          : 49:             if(user_entered_password[i] != original_password[i]){
  8037     0FA3  0825               	movf	auth_user@i,w
  8038     0FA4  3EBA               	addlw	(low (_original_password| 0))& (0+255)
  8039     0FA5  0084               	movwf	4
  8040     0FA6  1383               	bcf	3,7	;select IRP bank1
  8041     0FA7  0800               	movf	0,w
  8042     0FA8  00A1               	movwf	??_auth_user
  8043     0FA9  0825               	movf	auth_user@i,w
  8044     0FAA  3E4D               	addlw	(low (_user_entered_password| 0))& (0+255)
  8045     0FAB  0084               	movwf	4
  8046     0FAC  0800               	movf	0,w
  8047     0FAD  0621               	xorwf	??_auth_user,w
  8048     0FAE  1903               	skipnz
  8049     0FAF  2FB1               	goto	u4611
  8050     0FB0  2FB2               	goto	u4610
  8051     0FB1                     u4611:
  8052     0FB1  2FB3               	goto	l3770
  8053     0FB2                     u4610:
  8054     0FB2  2FC2               	goto	l3772
  8055     0FB3                     l3770:
  8056                           
  8057                           ;/home/santhoshtk/Desktop/EMERTXE/MC/25014_Car_Black__Box.X/25014_Car_Black_Box.X/auth.c
      +                          : 52:         }
  8058     0FB3  3001               	movlw	1
  8059     0FB4  07A5               	addwf	auth_user@i,f
  8060     0FB5  1803               	skipnc
  8061     0FB6  0AA6               	incf	auth_user@i+1,f
  8062     0FB7  3000               	movlw	0
  8063     0FB8  07A6               	addwf	auth_user@i+1,f
  8064     0FB9  3000               	movlw	0
  8065     0FBA  0226               	subwf	auth_user@i+1,w
  8066     0FBB  3004               	movlw	4
  8067     0FBC  1903               	skipnz
  8068     0FBD  0225               	subwf	auth_user@i,w
  8069     0FBE  1C03               	skipc
  8070     0FBF  2FC1               	goto	u4621
  8071     0FC0  2FC2               	goto	u4620
  8072     0FC1                     u4621:
  8073     0FC1  2FA3               	goto	l3766
  8074     0FC2                     u4620:
  8075     0FC2                     l3772:
  8076                           
  8077                           ;/home/santhoshtk/Desktop/EMERTXE/MC/25014_Car_Black__Box.X/25014_Car_Black_Box.X/auth.c
      +                          : 55:         if(i == 4){
  8078     0FC2  3004               	movlw	4
  8079     0FC3  0625               	xorwf	auth_user@i,w
  8080     0FC4  0426               	iorwf	auth_user@i+1,w
  8081     0FC5  1D03               	btfss	3,2
  8082     0FC6  2FC8               	goto	u4631
  8083     0FC7  2FC9               	goto	u4630
  8084     0FC8                     u4631:
  8085     0FC8  2FE6               	goto	l3784
  8086     0FC9                     u4630:
  8087     0FC9                     l3774:
  8088                           
  8089                           ;/home/santhoshtk/Desktop/EMERTXE/MC/25014_Car_Black__Box.X/25014_Car_Black_Box.X/auth.c
      +                          : 56:             access = 1;
  8090     0FC9  3001               	movlw	1
  8091     0FCA  00DD               	movwf	_access
  8092     0FCB                     l3776:
  8093                           
  8094                           ;/home/santhoshtk/Desktop/EMERTXE/MC/25014_Car_Black__Box.X/25014_Car_Black_Box.X/auth.c
      +                          : 57:             clcd_print("Access Granted.", (0xC0 + 0));
  8095     0FCB  3089               	movlw	low (STR_3| (0+32768))
  8096     0FCC  00F6               	movwf	clcd_print@str
  8097     0FCD  3084               	movlw	high (STR_3| (0+32768))
  8098     0FCE  00F7               	movwf	clcd_print@str+1
  8099     0FCF  30C0               	movlw	192
  8100     0FD0  00F8               	movwf	clcd_print@addr
  8101     0FD1  120A  158A  210B  120A  158A  	fcall	_clcd_print
  8102     0FD6                     l3778:
  8103                           
  8104                           ;/home/santhoshtk/Desktop/EMERTXE/MC/25014_Car_Black__Box.X/25014_Car_Black_Box.X/auth.c
      +                          : 58:             _delay((unsigned long)((500)*(20000000/4000.0)));
  8105     0FD6  300D               	movlw	13
  8106     0FD7  1283               	bcf	3,5	;RP0=0, select bank0
  8107     0FD8  1303               	bcf	3,6	;RP1=0, select bank0
  8108     0FD9  00A3               	movwf	??_auth_user+2
  8109     0FDA  30AF               	movlw	175
  8110     0FDB  00A2               	movwf	??_auth_user+1
  8111     0FDC  30B5               	movlw	181
  8112     0FDD  00A1               	movwf	??_auth_user
  8113     0FDE                     u4987:
  8114     0FDE  0BA1               	decfsz	??_auth_user,f
  8115     0FDF  2FDE               	goto	u4987
  8116     0FE0  0BA2               	decfsz	??_auth_user+1,f
  8117     0FE1  2FDE               	goto	u4987
  8118     0FE2  0BA3               	decfsz	??_auth_user+2,f
  8119     0FE3  2FDE               	goto	u4987
  8120     0FE4  2FE5               	nop2
  8121     0FE5  2FFF               	goto	l59
  8122     0FE6                     l3784:
  8123                           
  8124                           ;/home/santhoshtk/Desktop/EMERTXE/MC/25014_Car_Black__Box.X/25014_Car_Black_Box.X/auth.c
      +                          : 62:             access = 0;
  8125     0FE6  01DD               	clrf	_access
  8126     0FE7                     l3786:
  8127                           
  8128                           ;/home/santhoshtk/Desktop/EMERTXE/MC/25014_Car_Black__Box.X/25014_Car_Black_Box.X/auth.c
      +                          : 63:             attempt_no++;
  8129     0FE7  3001               	movlw	1
  8130     0FE8  07D9               	addwf	_attempt_no,f
  8131     0FE9  1803               	skipnc
  8132     0FEA  0ADA               	incf	_attempt_no+1,f
  8133     0FEB  3000               	movlw	0
  8134     0FEC  07DA               	addwf	_attempt_no+1,f
  8135     0FED                     l3788:
  8136                           
  8137                           ;/home/santhoshtk/Desktop/EMERTXE/MC/25014_Car_Black__Box.X/25014_Car_Black_Box.X/auth.c
      +                          : 64:             index = 0;
  8138     0FED  01DB               	clrf	_index
  8139     0FEE  01DC               	clrf	_index+1
  8140     0FEF                     l3790:
  8141                           
  8142                           ;/home/santhoshtk/Desktop/EMERTXE/MC/25014_Car_Black__Box.X/25014_Car_Black_Box.X/auth.c
      +                          : 66:             if(attempt_no == 3){
  8143     0FEF  3003               	movlw	3
  8144     0FF0  0659               	xorwf	_attempt_no,w
  8145     0FF1  045A               	iorwf	_attempt_no+1,w
  8146     0FF2  1D03               	btfss	3,2
  8147     0FF3  2FF5               	goto	u4641
  8148     0FF4  2FF6               	goto	u4640
  8149     0FF5                     u4641:
  8150     0FF5  2FFF               	goto	l59
  8151     0FF6                     u4640:
  8152     0FF6                     l3792:
  8153                           
  8154                           ;/home/santhoshtk/Desktop/EMERTXE/MC/25014_Car_Black__Box.X/25014_Car_Black_Box.X/auth.c
      +                          : 67:                 run_delay();
  8155     0FF6  120A  158A  2375  120A  158A  	fcall	_run_delay
  8156     0FFB                     l3794:
  8157                           
  8158                           ;/home/santhoshtk/Desktop/EMERTXE/MC/25014_Car_Black__Box.X/25014_Car_Black_Box.X/auth.c
      +                          : 68:                 attempt_no = 0;
  8159     0FFB  1283               	bcf	3,5	;RP0=0, select bank0
  8160     0FFC  1303               	bcf	3,6	;RP1=0, select bank0
  8161     0FFD  01D9               	clrf	_attempt_no
  8162     0FFE  01DA               	clrf	_attempt_no+1
  8163     0FFF                     l59:
  8164     0FFF  0008               	return
  8165     1000                     __end_of_auth_user:
  8166                           
  8167                           	psect	text42
  8168     0B75                     __ptext42:	
  8169 ;; *************** function _run_delay *****************
  8170 ;; Defined at:
  8171 ;;		line 77 in file "/home/santhoshtk/Desktop/EMERTXE/MC/25014_Car_Black__Box.X/25014_Car_Black_Box.X/auth.c"
  8172 ;; Parameters:    Size  Location     Type
  8173 ;;		None
  8174 ;; Auto vars:     Size  Location     Type
  8175 ;;		None
  8176 ;; Return value:  Size  Location     Type
  8177 ;;                  1    wreg      void 
  8178 ;; Registers used:
  8179 ;;		wreg, fsr0l, fsr0h, status,2, status,0, pclath, btemp1, cstack
  8180 ;; Tracked objects:
  8181 ;;		On entry : 0/0
  8182 ;;		On exit  : 0/0
  8183 ;;		Unchanged: 0/0
  8184 ;; Data sizes:     COMMON   BANK0   BANK1   BANK3   BANK2
  8185 ;;      Params:         0       0       0       0       0
  8186 ;;      Locals:         0       0       0       0       0
  8187 ;;      Temps:          0       0       0       0       0
  8188 ;;      Totals:         0       0       0       0       0
  8189 ;;Total ram usage:        0 bytes
  8190 ;; Hardware stack levels used: 1
  8191 ;; Hardware stack levels required when called: 2
  8192 ;; This function calls:
  8193 ;;		___lwdiv
  8194 ;;		___lwmod
  8195 ;;		_clcd_print
  8196 ;;		_clcd_putch
  8197 ;;		_init_timer0
  8198 ;; This function is called by:
  8199 ;;		_auth_user
  8200 ;; This function uses a non-reentrant model
  8201 ;;
  8202                           
  8203     0B75                     _run_delay:	
  8204                           ;psect for function _run_delay
  8205                           
  8206     0B75                     l3310:	
  8207                           ;incstack = 0
  8208                           ; Regs used in _run_delay: [wreg-fsr0h+status,2+status,0+pclath+btemp1+cstack]
  8209                           
  8210                           
  8211                           ;/home/santhoshtk/Desktop/EMERTXE/MC/25014_Car_Black__Box.X/25014_Car_Black_Box.X/auth.c
      +                          : 79:     init_timer0();
  8212     0B75  160A  118A  26CD  120A  158A  	fcall	_init_timer0
  8213                           
  8214                           ;/home/santhoshtk/Desktop/EMERTXE/MC/25014_Car_Black__Box.X/25014_Car_Black_Box.X/auth.c
      +                          : 81:     while(delay){
  8215     0B7A  2BC1               	goto	l3318
  8216     0B7B                     l3312:
  8217                           
  8218                           ;/home/santhoshtk/Desktop/EMERTXE/MC/25014_Car_Black__Box.X/25014_Car_Black_Box.X/auth.c
      +                          : 82:         clcd_print(" ENTERING WAIT  ", (0x80 + 0));
  8219     0B7B  3067               	movlw	low (STR_4| (0+32768))
  8220     0B7C  00F6               	movwf	clcd_print@str
  8221     0B7D  3084               	movlw	high (STR_4| (0+32768))
  8222     0B7E  00F7               	movwf	clcd_print@str+1
  8223     0B7F  3080               	movlw	128
  8224     0B80  00F8               	movwf	clcd_print@addr
  8225     0B81  120A  158A  210B  120A  158A  	fcall	_clcd_print
  8226                           
  8227                           ;/home/santhoshtk/Desktop/EMERTXE/MC/25014_Car_Black__Box.X/25014_Car_Black_Box.X/auth.c
      +                          : 83:         clcd_print("Seconds left: ", (0xC0 + 0));
  8228     0B86  30F3               	movlw	low (STR_5| (0+32768))
  8229     0B87  00F6               	movwf	clcd_print@str
  8230     0B88  3084               	movlw	high (STR_5| (0+32768))
  8231     0B89  00F7               	movwf	clcd_print@str+1
  8232     0B8A  30C0               	movlw	192
  8233     0B8B  00F8               	movwf	clcd_print@addr
  8234     0B8C  120A  158A  210B  120A  158A  	fcall	_clcd_print
  8235     0B91                     l3314:
  8236                           
  8237                           ;/home/santhoshtk/Desktop/EMERTXE/MC/25014_Car_Black__Box.X/25014_Car_Black_Box.X/auth.c
      +                          : 86:         clcd_putch((delay / 10) + '0', (0xC0 + 14));
  8238     0B91  30CE               	movlw	206
  8239     0B92  00F9               	movwf	clcd_putch@addr
  8240     0B93  300A               	movlw	10
  8241     0B94  00F2               	movwf	___lwdiv@divisor
  8242     0B95  3000               	movlw	0
  8243     0B96  00F3               	movwf	___lwdiv@divisor+1
  8244     0B97  1283               	bcf	3,5	;RP0=0, select bank0
  8245     0B98  1303               	bcf	3,6	;RP1=0, select bank0
  8246     0B99  086E               	movf	_delay+1,w
  8247     0B9A  00F5               	movwf	___lwdiv@dividend+1
  8248     0B9B  086D               	movf	_delay,w
  8249     0B9C  00F4               	movwf	___lwdiv@dividend
  8250     0B9D  120A  118A  23BE  120A  158A  	fcall	___lwdiv
  8251     0BA2  0872               	movf	?___lwdiv,w
  8252     0BA3  3E30               	addlw	48
  8253     0BA4  120A  118A  27E8  120A  158A  	fcall	_clcd_putch
  8254     0BA9                     l3316:
  8255                           
  8256                           ;/home/santhoshtk/Desktop/EMERTXE/MC/25014_Car_Black__Box.X/25014_Car_Black_Box.X/auth.c
      +                          : 87:         clcd_putch((delay % 10) + '0', (0xC0 + 15));
  8257     0BA9  30CF               	movlw	207
  8258     0BAA  00F9               	movwf	clcd_putch@addr
  8259     0BAB  300A               	movlw	10
  8260     0BAC  00F2               	movwf	___lwmod@divisor
  8261     0BAD  3000               	movlw	0
  8262     0BAE  00F3               	movwf	___lwmod@divisor+1
  8263     0BAF  1283               	bcf	3,5	;RP0=0, select bank0
  8264     0BB0  1303               	bcf	3,6	;RP1=0, select bank0
  8265     0BB1  086E               	movf	_delay+1,w
  8266     0BB2  00F5               	movwf	___lwmod@dividend+1
  8267     0BB3  086D               	movf	_delay,w
  8268     0BB4  00F4               	movwf	___lwmod@dividend
  8269     0BB5  120A  158A  226C  120A  158A  	fcall	___lwmod
  8270     0BBA  0872               	movf	?___lwmod,w
  8271     0BBB  3E30               	addlw	48
  8272     0BBC  120A  118A  27E8  120A  158A  	fcall	_clcd_putch
  8273     0BC1                     l3318:
  8274                           
  8275                           ;/home/santhoshtk/Desktop/EMERTXE/MC/25014_Car_Black__Box.X/25014_Car_Black_Box.X/auth.c
      +                          : 81:     while(delay){
  8276     0BC1  1283               	bcf	3,5	;RP0=0, select bank0
  8277     0BC2  1303               	bcf	3,6	;RP1=0, select bank0
  8278     0BC3  086D               	movf	_delay,w
  8279     0BC4  046E               	iorwf	_delay+1,w
  8280     0BC5  1D03               	btfss	3,2
  8281     0BC6  2BC8               	goto	u3791
  8282     0BC7  2BC9               	goto	u3790
  8283     0BC8                     u3791:
  8284     0BC8  2B7B               	goto	l3312
  8285     0BC9                     u3790:
  8286     0BC9                     l3320:
  8287                           
  8288                           ;/home/santhoshtk/Desktop/EMERTXE/MC/25014_Car_Black__Box.X/25014_Car_Black_Box.X/auth.c
      +                          : 90:     delay = 30;
  8289     0BC9  301E               	movlw	30
  8290     0BCA  00ED               	movwf	_delay
  8291     0BCB  3000               	movlw	0
  8292     0BCC  00EE               	movwf	_delay+1
  8293     0BCD                     l67:
  8294     0BCD  0008               	return
  8295     0BCE                     __end_of_run_delay:
  8296                           
  8297                           	psect	text43
  8298     16CD                     __ptext43:	
  8299 ;; *************** function _init_timer0 *****************
  8300 ;; Defined at:
  8301 ;;		line 3 in file "/home/santhoshtk/Desktop/EMERTXE/MC/25014_Car_Black__Box.X/25014_Car_Black_Box.X/timers.c"
  8302 ;; Parameters:    Size  Location     Type
  8303 ;;		None
  8304 ;; Auto vars:     Size  Location     Type
  8305 ;;		None
  8306 ;; Return value:  Size  Location     Type
  8307 ;;                  1    wreg      void 
  8308 ;; Registers used:
  8309 ;;		None
  8310 ;; Tracked objects:
  8311 ;;		On entry : 0/0
  8312 ;;		On exit  : 0/0
  8313 ;;		Unchanged: 0/0
  8314 ;; Data sizes:     COMMON   BANK0   BANK1   BANK3   BANK2
  8315 ;;      Params:         0       0       0       0       0
  8316 ;;      Locals:         0       0       0       0       0
  8317 ;;      Temps:          0       0       0       0       0
  8318 ;;      Totals:         0       0       0       0       0
  8319 ;;Total ram usage:        0 bytes
  8320 ;; Hardware stack levels used: 1
  8321 ;; Hardware stack levels required when called: 1
  8322 ;; This function calls:
  8323 ;;		Nothing
  8324 ;; This function is called by:
  8325 ;;		_run_delay
  8326 ;; This function uses a non-reentrant model
  8327 ;;
  8328                           
  8329     16CD                     _init_timer0:	
  8330                           ;psect for function _init_timer0
  8331                           
  8332     16CD                     l3130:	
  8333                           ;incstack = 0
  8334                           ; Regs used in _init_timer0: []
  8335                           
  8336                           
  8337                           ;/home/santhoshtk/Desktop/EMERTXE/MC/25014_Car_Black__Box.X/25014_Car_Black_Box.X/timers
      +                          .c: 6:     T0CS = 0;
  8338     16CD  1683               	bsf	3,5	;RP0=1, select bank1
  8339     16CE  1303               	bcf	3,6	;RP1=0, select bank1
  8340     16CF  1281               	bcf	1,5	;volatile
  8341                           
  8342                           ;/home/santhoshtk/Desktop/EMERTXE/MC/25014_Car_Black__Box.X/25014_Car_Black_Box.X/timers
      +                          .c: 9:     PSA = 1;
  8343     16D0  1581               	bsf	1,3	;volatile
  8344                           
  8345                           ;/home/santhoshtk/Desktop/EMERTXE/MC/25014_Car_Black__Box.X/25014_Car_Black_Box.X/timers
      +                          .c: 11:     TMR0 = 6;
  8346     16D1  3006               	movlw	6
  8347     16D2  1283               	bcf	3,5	;RP0=0, select bank0
  8348     16D3  1303               	bcf	3,6	;RP1=0, select bank0
  8349     16D4  0081               	movwf	1	;volatile
  8350                           
  8351                           ;/home/santhoshtk/Desktop/EMERTXE/MC/25014_Car_Black__Box.X/25014_Car_Black_Box.X/timers
      +                          .c: 14:     TMR0IE = 1;
  8352     16D5  168B               	bsf	11,5	;volatile
  8353     16D6                     l473:
  8354     16D6  0008               	return
  8355     16D7                     __end_of_init_timer0:
  8356                           
  8357                           	psect	text44
  8358     07E8                     __ptext44:	
  8359 ;; *************** function _clcd_putch *****************
  8360 ;; Defined at:
  8361 ;;		line 57 in file "/home/santhoshtk/Desktop/EMERTXE/MC/25014_Car_Black__Box.X/25014_Car_Black_Box.X/clcd.c"
  8362 ;; Parameters:    Size  Location     Type
  8363 ;;  data            1    wreg     const unsigned char 
  8364 ;;  addr            1    9[COMMON] unsigned char 
  8365 ;; Auto vars:     Size  Location     Type
  8366 ;;  data            1    0[BANK0 ] const unsigned char 
  8367 ;; Return value:  Size  Location     Type
  8368 ;;                  1    wreg      void 
  8369 ;; Registers used:
  8370 ;;		wreg, status,2, status,0, pclath, cstack
  8371 ;; Tracked objects:
  8372 ;;		On entry : 0/0
  8373 ;;		On exit  : 0/0
  8374 ;;		Unchanged: 0/0
  8375 ;; Data sizes:     COMMON   BANK0   BANK1   BANK3   BANK2
  8376 ;;      Params:         1       0       0       0       0
  8377 ;;      Locals:         0       1       0       0       0
  8378 ;;      Temps:          0       0       0       0       0
  8379 ;;      Totals:         1       1       0       0       0
  8380 ;;Total ram usage:        2 bytes
  8381 ;; Hardware stack levels used: 1
  8382 ;; Hardware stack levels required when called: 1
  8383 ;; This function calls:
  8384 ;;		_clcd_write
  8385 ;; This function is called by:
  8386 ;;		_auth_user
  8387 ;;		_run_delay
  8388 ;;		_set_time
  8389 ;; This function uses a non-reentrant model
  8390 ;;
  8391                           
  8392     07E8                     _clcd_putch:	
  8393                           ;psect for function _clcd_putch
  8394                           
  8395                           
  8396                           ;incstack = 0
  8397                           ; Regs used in _clcd_putch: [wreg+status,2+status,0+pclath+cstack]
  8398                           ;clcd_putch@data stored from wreg
  8399     07E8  1283               	bcf	3,5	;RP0=0, select bank0
  8400     07E9  1303               	bcf	3,6	;RP1=0, select bank0
  8401     07EA  00A0               	movwf	clcd_putch@data
  8402     07EB                     l3128:
  8403                           
  8404                           ;/home/santhoshtk/Desktop/EMERTXE/MC/25014_Car_Black__Box.X/25014_Car_Black_Box.X/clcd.c
      +                          : 57: void clcd_putch(const char data, unsigned char addr);/home/santhoshtk/Desktop/EMER
      +                          TXE/MC/25014_Car_Black__Box.X/25014_Car_Black_Box.X/clcd.c: 58: {;/home/santhoshtk/Deskt
      +                          op/EMERTXE/MC/25014_Car_Black__Box.X/25014_Car_Black_Box.X/clcd.c: 59:     clcd_write(ad
      +                          dr, 0);
  8405     07EB  01F2               	clrf	clcd_write@mode
  8406     07EC  0879               	movf	clcd_putch@addr,w
  8407     07ED  120A  158A  2200  120A  118A  	fcall	_clcd_write
  8408                           
  8409                           ;/home/santhoshtk/Desktop/EMERTXE/MC/25014_Car_Black__Box.X/25014_Car_Black_Box.X/clcd.c
      +                          : 60:     clcd_write(data, 1);
  8410     07F2  01F2               	clrf	clcd_write@mode
  8411     07F3  0AF2               	incf	clcd_write@mode,f
  8412     07F4  1283               	bcf	3,5	;RP0=0, select bank0
  8413     07F5  1303               	bcf	3,6	;RP1=0, select bank0
  8414     07F6  0820               	movf	clcd_putch@data,w
  8415     07F7  120A  158A  2200  120A  118A  	fcall	_clcd_write
  8416     07FC                     l93:
  8417     07FC  0008               	return
  8418     07FD                     __end_of_clcd_putch:
  8419                           
  8420                           	psect	text45
  8421     090B                     __ptext45:	
  8422 ;; *************** function _clcd_print *****************
  8423 ;; Defined at:
  8424 ;;		line 63 in file "/home/santhoshtk/Desktop/EMERTXE/MC/25014_Car_Black__Box.X/25014_Car_Black_Box.X/clcd.c"
  8425 ;; Parameters:    Size  Location     Type
  8426 ;;  str             2    6[COMMON] PTR const unsigned char 
  8427 ;;		 -> STR_34(17), STR_33(3), STR_32(3), STR_31(3), 
  8428 ;;		 -> STR_29(15), STR_28(9), STR_27(17), STR_26(17), 
  8429 ;;		 -> STR_25(10), STR_24(8), logs(17), STR_23(3), 
  8430 ;;		 -> STR_22(3), STR_21(3), STR_20(3), STR_19(17), 
  8431 ;;		 -> speed(3), time(9), STR_18(15), STR_17(15), 
  8432 ;;		 -> STR_16(15), STR_15(15), STR_14(15), STR_13(3), 
  8433 ;;		 -> STR_12(3), STR_11(3), STR_10(3), STR_9(3), 
  8434 ;;		 -> STR_8(3), STR_7(3), STR_6(3), STR_5(15), 
  8435 ;;		 -> STR_4(17), STR_3(16), STR_2(17), STR_1(17), 
  8436 ;;  addr            1    8[COMMON] unsigned char 
  8437 ;; Auto vars:     Size  Location     Type
  8438 ;;		None
  8439 ;; Return value:  Size  Location     Type
  8440 ;;                  1    wreg      void 
  8441 ;; Registers used:
  8442 ;;		wreg, fsr0l, fsr0h, status,2, status,0, pclath, btemp1, cstack
  8443 ;; Tracked objects:
  8444 ;;		On entry : 0/0
  8445 ;;		On exit  : 0/0
  8446 ;;		Unchanged: 0/0
  8447 ;; Data sizes:     COMMON   BANK0   BANK1   BANK3   BANK2
  8448 ;;      Params:         3       0       0       0       0
  8449 ;;      Locals:         0       0       0       0       0
  8450 ;;      Temps:          0       0       0       0       0
  8451 ;;      Totals:         3       0       0       0       0
  8452 ;;Total ram usage:        3 bytes
  8453 ;; Hardware stack levels used: 1
  8454 ;; Hardware stack levels required when called: 1
  8455 ;; This function calls:
  8456 ;;		_clcd_write
  8457 ;; This function is called by:
  8458 ;;		_auth_user
  8459 ;;		_run_delay
  8460 ;;		_dashboard
  8461 ;;		_print_star
  8462 ;;		_main_menu
  8463 ;;		_view_log
  8464 ;;		_clear_log
  8465 ;;		_download_log
  8466 ;;		_display_indicator
  8467 ;;		_set_time
  8468 ;;		_display_time
  8469 ;; This function uses a non-reentrant model
  8470 ;;
  8471                           
  8472     090B                     _clcd_print:	
  8473                           ;psect for function _clcd_print
  8474                           
  8475     090B                     l3060:	
  8476                           ;incstack = 0
  8477                           ; Regs used in _clcd_print: [wreg-fsr0h+status,2+status,0+pclath+btemp1+cstack]
  8478                           
  8479                           
  8480                           ;/home/santhoshtk/Desktop/EMERTXE/MC/25014_Car_Black__Box.X/25014_Car_Black_Box.X/clcd.c
      +                          : 63: void clcd_print(const char *str, unsigned char addr);/home/santhoshtk/Desktop/EMER
      +                          TXE/MC/25014_Car_Black__Box.X/25014_Car_Black_Box.X/clcd.c: 64: {;/home/santhoshtk/Deskt
      +                          op/EMERTXE/MC/25014_Car_Black__Box.X/25014_Car_Black_Box.X/clcd.c: 65:     clcd_write(ad
      +                          dr, 0);
  8481     090B  01F2               	clrf	clcd_write@mode
  8482     090C  0878               	movf	clcd_print@addr,w
  8483     090D  120A  158A  2200  120A  158A  	fcall	_clcd_write
  8484                           
  8485                           ;/home/santhoshtk/Desktop/EMERTXE/MC/25014_Car_Black__Box.X/25014_Car_Black_Box.X/clcd.c
      +                          : 67:     while (*str != '\0')
  8486     0912  2929               	goto	l3066
  8487     0913                     l3062:
  8488                           
  8489                           ;/home/santhoshtk/Desktop/EMERTXE/MC/25014_Car_Black__Box.X/25014_Car_Black_Box.X/clcd.c
      +                          : 68:     {;/home/santhoshtk/Desktop/EMERTXE/MC/25014_Car_Black__Box.X/25014_Car_Black_B
      +                          ox.X/clcd.c: 69:         clcd_write(*str, 1);
  8490     0913  01F2               	clrf	clcd_write@mode
  8491     0914  0AF2               	incf	clcd_write@mode,f
  8492     0915  0877               	movf	clcd_print@str+1,w
  8493     0916  00FF               	movwf	btemp1
  8494     0917  0876               	movf	clcd_print@str,w
  8495     0918  0084               	movwf	4
  8496     0919  160A  118A  2000  120A  158A  	fcall	stringtab
  8497     091E  120A  158A  2200  120A  158A  	fcall	_clcd_write
  8498     0923                     l3064:
  8499                           
  8500                           ;/home/santhoshtk/Desktop/EMERTXE/MC/25014_Car_Black__Box.X/25014_Car_Black_Box.X/clcd.c
      +                          : 70:         str++;
  8501     0923  3001               	movlw	1
  8502     0924  07F6               	addwf	clcd_print@str,f
  8503     0925  1803               	skipnc
  8504     0926  0AF7               	incf	clcd_print@str+1,f
  8505     0927  3000               	movlw	0
  8506     0928  07F7               	addwf	clcd_print@str+1,f
  8507     0929                     l3066:
  8508                           
  8509                           ;/home/santhoshtk/Desktop/EMERTXE/MC/25014_Car_Black__Box.X/25014_Car_Black_Box.X/clcd.c
      +                          : 67:     while (*str != '\0')
  8510     0929  0877               	movf	clcd_print@str+1,w
  8511     092A  1283               	bcf	3,5	;RP0=0, select bank0
  8512     092B  1303               	bcf	3,6	;RP1=0, select bank0
  8513     092C  00FF               	movwf	btemp1
  8514     092D  0876               	movf	clcd_print@str,w
  8515     092E  0084               	movwf	4
  8516     092F  160A  118A  2000  120A  158A  	fcall	stringtab
  8517     0934  3A00               	xorlw	0
  8518     0935  1D03               	skipz
  8519     0936  2938               	goto	u3341
  8520     0937  2939               	goto	u3340
  8521     0938                     u3341:
  8522     0938  2913               	goto	l3062
  8523     0939                     u3340:
  8524     0939                     l99:
  8525     0939  0008               	return
  8526     093A                     __end_of_clcd_print:
  8527                           
  8528                           	psect	text46
  8529     0A00                     __ptext46:	
  8530 ;; *************** function _clcd_write *****************
  8531 ;; Defined at:
  8532 ;;		line 5 in file "/home/santhoshtk/Desktop/EMERTXE/MC/25014_Car_Black__Box.X/25014_Car_Black_Box.X/clcd.c"
  8533 ;; Parameters:    Size  Location     Type
  8534 ;;  byte            1    wreg     unsigned char 
  8535 ;;  mode            1    2[COMMON] unsigned char 
  8536 ;; Auto vars:     Size  Location     Type
  8537 ;;  byte            1    5[COMMON] unsigned char 
  8538 ;; Return value:  Size  Location     Type
  8539 ;;                  1    wreg      void 
  8540 ;; Registers used:
  8541 ;;		wreg, status,2, status,0
  8542 ;; Tracked objects:
  8543 ;;		On entry : 0/0
  8544 ;;		On exit  : 0/0
  8545 ;;		Unchanged: 0/0
  8546 ;; Data sizes:     COMMON   BANK0   BANK1   BANK3   BANK2
  8547 ;;      Params:         1       0       0       0       0
  8548 ;;      Locals:         1       0       0       0       0
  8549 ;;      Temps:          2       0       0       0       0
  8550 ;;      Totals:         4       0       0       0       0
  8551 ;;Total ram usage:        4 bytes
  8552 ;; Hardware stack levels used: 1
  8553 ;; Hardware stack levels required when called: 1
  8554 ;; This function calls:
  8555 ;;		Nothing
  8556 ;; This function is called by:
  8557 ;;		_init_display_controller
  8558 ;;		_clcd_putch
  8559 ;;		_clcd_print
  8560 ;;		_clear_screen
  8561 ;; This function uses a non-reentrant model
  8562 ;;
  8563                           
  8564     0A00                     _clcd_write:	
  8565                           ;psect for function _clcd_write
  8566                           
  8567                           
  8568                           ;incstack = 0
  8569                           ; Regs used in _clcd_write: [wreg+status,2+status,0]
  8570                           ;clcd_write@byte stored from wreg
  8571     0A00  00F5               	movwf	clcd_write@byte
  8572     0A01                     l3034:
  8573                           
  8574                           ;/home/santhoshtk/Desktop/EMERTXE/MC/25014_Car_Black__Box.X/25014_Car_Black_Box.X/clcd.c
      +                          : 5: static void clcd_write(unsigned char byte, unsigned char mode);/home/santhoshtk/Des
      +                          ktop/EMERTXE/MC/25014_Car_Black__Box.X/25014_Car_Black_Box.X/clcd.c: 6: {;/home/santhosh
      +                          tk/Desktop/EMERTXE/MC/25014_Car_Black__Box.X/25014_Car_Black_Box.X/clcd.c: 7:     RE2 = 
      +                          mode;
  8575     0A01  1872               	btfsc	clcd_write@mode,0
  8576     0A02  2A04               	goto	u3311
  8577     0A03  2A08               	goto	u3310
  8578     0A04                     u3311:
  8579     0A04  1283               	bcf	3,5	;RP0=0, select bank0
  8580     0A05  1303               	bcf	3,6	;RP1=0, select bank0
  8581     0A06  1509               	bsf	9,2	;volatile
  8582     0A07  2A0B               	goto	u3324
  8583     0A08                     u3310:
  8584     0A08  1283               	bcf	3,5	;RP0=0, select bank0
  8585     0A09  1303               	bcf	3,6	;RP1=0, select bank0
  8586     0A0A  1109               	bcf	9,2	;volatile
  8587     0A0B                     u3324:
  8588     0A0B                     l3036:
  8589                           
  8590                           ;/home/santhoshtk/Desktop/EMERTXE/MC/25014_Car_Black__Box.X/25014_Car_Black_Box.X/clcd.c
      +                          : 9:     PORTD = byte & 0xF0;
  8591     0A0B  0875               	movf	clcd_write@byte,w
  8592     0A0C  39F0               	andlw	240
  8593     0A0D  0088               	movwf	8	;volatile
  8594     0A0E                     l3038:
  8595                           
  8596                           ;/home/santhoshtk/Desktop/EMERTXE/MC/25014_Car_Black__Box.X/25014_Car_Black_Box.X/clcd.c
      +                          : 10:     RE1 = 1;
  8597     0A0E  1489               	bsf	9,1	;volatile
  8598     0A0F                     l3040:
  8599                           
  8600                           ;/home/santhoshtk/Desktop/EMERTXE/MC/25014_Car_Black__Box.X/25014_Car_Black_Box.X/clcd.c
      +                          : 11:     _delay((unsigned long)((100)*(20000000/4000000.0)));
  8601     0A0F  30A6               	movlw	166
  8602     0A10  00F3               	movwf	??_clcd_write
  8603     0A11                     u4997:
  8604     0A11  0BF3               	decfsz	??_clcd_write,f
  8605     0A12  2A11               	goto	u4997
  8606     0A13  0000               	nop
  8607     0A14                     l3042:
  8608                           
  8609                           ;/home/santhoshtk/Desktop/EMERTXE/MC/25014_Car_Black__Box.X/25014_Car_Black_Box.X/clcd.c
      +                          : 12:     RE1 = 0;
  8610     0A14  1283               	bcf	3,5	;RP0=0, select bank0
  8611     0A15  1303               	bcf	3,6	;RP1=0, select bank0
  8612     0A16  1089               	bcf	9,1	;volatile
  8613     0A17                     l3044:
  8614                           
  8615                           ;/home/santhoshtk/Desktop/EMERTXE/MC/25014_Car_Black__Box.X/25014_Car_Black_Box.X/clcd.c
      +                          : 14:     PORTD = (byte & 0x0F) << 4;
  8616     0A17  0875               	movf	clcd_write@byte,w
  8617     0A18  390F               	andlw	15
  8618     0A19  00F3               	movwf	??_clcd_write
  8619     0A1A  3003               	movlw	3
  8620     0A1B                     u3335:
  8621     0A1B  1003               	clrc
  8622     0A1C  0DF3               	rlf	??_clcd_write,f
  8623     0A1D  3EFF               	addlw	-1
  8624     0A1E  1D03               	skipz
  8625     0A1F  2A1B               	goto	u3335
  8626     0A20  1003               	clrc
  8627     0A21  0D73               	rlf	??_clcd_write,w
  8628     0A22  0088               	movwf	8	;volatile
  8629     0A23                     l3046:
  8630                           
  8631                           ;/home/santhoshtk/Desktop/EMERTXE/MC/25014_Car_Black__Box.X/25014_Car_Black_Box.X/clcd.c
      +                          : 15:     RE1 = 1;
  8632     0A23  1489               	bsf	9,1	;volatile
  8633     0A24                     l3048:
  8634                           
  8635                           ;/home/santhoshtk/Desktop/EMERTXE/MC/25014_Car_Black__Box.X/25014_Car_Black_Box.X/clcd.c
      +                          : 16:     _delay((unsigned long)((100)*(20000000/4000000.0)));
  8636     0A24  30A6               	movlw	166
  8637     0A25  00F3               	movwf	??_clcd_write
  8638     0A26                     u5007:
  8639     0A26  0BF3               	decfsz	??_clcd_write,f
  8640     0A27  2A26               	goto	u5007
  8641     0A28  0000               	nop
  8642     0A29                     l3050:
  8643                           
  8644                           ;/home/santhoshtk/Desktop/EMERTXE/MC/25014_Car_Black__Box.X/25014_Car_Black_Box.X/clcd.c
      +                          : 17:     RE1 = 0;
  8645     0A29  1283               	bcf	3,5	;RP0=0, select bank0
  8646     0A2A  1303               	bcf	3,6	;RP1=0, select bank0
  8647     0A2B  1089               	bcf	9,1	;volatile
  8648     0A2C                     l3052:
  8649                           
  8650                           ;/home/santhoshtk/Desktop/EMERTXE/MC/25014_Car_Black__Box.X/25014_Car_Black_Box.X/clcd.c
      +                          : 19:     _delay((unsigned long)((4100)*(20000000/4000000.0)));
  8651     0A2C  301B               	movlw	27
  8652     0A2D  00F4               	movwf	??_clcd_write+1
  8653     0A2E  309E               	movlw	158
  8654     0A2F  00F3               	movwf	??_clcd_write
  8655     0A30                     u5017:
  8656     0A30  0BF3               	decfsz	??_clcd_write,f
  8657     0A31  2A30               	goto	u5017
  8658     0A32  0BF4               	decfsz	??_clcd_write+1,f
  8659     0A33  2A30               	goto	u5017
  8660     0A34  0000               	nop
  8661     0A35                     l84:
  8662     0A35  0008               	return
  8663     0A36                     __end_of_clcd_write:
  8664                           
  8665                           	psect	text47
  8666     0A6C                     __ptext47:	
  8667 ;; *************** function ___lwmod *****************
  8668 ;; Defined at:
  8669 ;;		line 5 in file "/opt/microchip/xc8/v3.10/pic/sources/c99/common/lwmod.c"
  8670 ;; Parameters:    Size  Location     Type
  8671 ;;  divisor         2    2[COMMON] unsigned int 
  8672 ;;  dividend        2    4[COMMON] unsigned int 
  8673 ;; Auto vars:     Size  Location     Type
  8674 ;;  counter         1    6[COMMON] unsigned char 
  8675 ;; Return value:  Size  Location     Type
  8676 ;;                  2    2[COMMON] unsigned int 
  8677 ;; Registers used:
  8678 ;;		wreg, status,2, status,0
  8679 ;; Tracked objects:
  8680 ;;		On entry : 0/0
  8681 ;;		On exit  : 0/0
  8682 ;;		Unchanged: 0/0
  8683 ;; Data sizes:     COMMON   BANK0   BANK1   BANK3   BANK2
  8684 ;;      Params:         4       0       0       0       0
  8685 ;;      Locals:         1       0       0       0       0
  8686 ;;      Temps:          0       0       0       0       0
  8687 ;;      Totals:         5       0       0       0       0
  8688 ;;Total ram usage:        5 bytes
  8689 ;; Hardware stack levels used: 1
  8690 ;; Hardware stack levels required when called: 1
  8691 ;; This function calls:
  8692 ;;		Nothing
  8693 ;; This function is called by:
  8694 ;;		_run_delay
  8695 ;;		_write_event
  8696 ;;		_dashboard
  8697 ;;		_set_time
  8698 ;; This function uses a non-reentrant model
  8699 ;;
  8700                           
  8701     0A6C                     ___lwmod:	
  8702                           ;psect for function ___lwmod
  8703                           
  8704     0A6C                     l3278:	
  8705                           ;incstack = 0
  8706                           ; Regs used in ___lwmod: [wreg+status,2+status,0]
  8707                           
  8708     0A6C  0872               	movf	___lwmod@divisor,w
  8709     0A6D  0473               	iorwf	___lwmod@divisor+1,w
  8710     0A6E  1903               	btfsc	3,2
  8711     0A6F  2A71               	goto	u3711
  8712     0A70  2A72               	goto	u3710
  8713     0A71                     u3711:
  8714     0A71  2A9F               	goto	l3296
  8715     0A72                     u3710:
  8716     0A72                     l3280:
  8717     0A72  3001               	movlw	1
  8718     0A73  00F6               	movwf	___lwmod@counter
  8719     0A74  2A7E               	goto	l3286
  8720     0A75                     l3282:
  8721     0A75  3001               	movlw	1
  8722     0A76                     u3725:
  8723     0A76  1003               	clrc
  8724     0A77  0DF2               	rlf	___lwmod@divisor,f
  8725     0A78  0DF3               	rlf	___lwmod@divisor+1,f
  8726     0A79  3EFF               	addlw	-1
  8727     0A7A  1D03               	skipz
  8728     0A7B  2A76               	goto	u3725
  8729     0A7C                     l3284:
  8730     0A7C  3001               	movlw	1
  8731     0A7D  07F6               	addwf	___lwmod@counter,f
  8732     0A7E                     l3286:
  8733     0A7E  1FF3               	btfss	___lwmod@divisor+1,7
  8734     0A7F  2A81               	goto	u3731
  8735     0A80  2A82               	goto	u3730
  8736     0A81                     u3731:
  8737     0A81  2A75               	goto	l3282
  8738     0A82                     u3730:
  8739     0A82                     l3288:
  8740     0A82  0873               	movf	___lwmod@divisor+1,w
  8741     0A83  0275               	subwf	___lwmod@dividend+1,w
  8742     0A84  1D03               	skipz
  8743     0A85  2A88               	goto	u3745
  8744     0A86  0872               	movf	___lwmod@divisor,w
  8745     0A87  0274               	subwf	___lwmod@dividend,w
  8746     0A88                     u3745:
  8747     0A88  1C03               	skipc
  8748     0A89  2A8B               	goto	u3741
  8749     0A8A  2A8C               	goto	u3740
  8750     0A8B                     u3741:
  8751     0A8B  2A92               	goto	l3292
  8752     0A8C                     u3740:
  8753     0A8C                     l3290:
  8754     0A8C  0872               	movf	___lwmod@divisor,w
  8755     0A8D  02F4               	subwf	___lwmod@dividend,f
  8756     0A8E  0873               	movf	___lwmod@divisor+1,w
  8757     0A8F  1C03               	skipc
  8758     0A90  03F5               	decf	___lwmod@dividend+1,f
  8759     0A91  02F5               	subwf	___lwmod@dividend+1,f
  8760     0A92                     l3292:
  8761     0A92  3001               	movlw	1
  8762     0A93                     u3755:
  8763     0A93  1003               	clrc
  8764     0A94  0CF3               	rrf	___lwmod@divisor+1,f
  8765     0A95  0CF2               	rrf	___lwmod@divisor,f
  8766     0A96  3EFF               	addlw	-1
  8767     0A97  1D03               	skipz
  8768     0A98  2A93               	goto	u3755
  8769     0A99                     l3294:
  8770     0A99  3001               	movlw	1
  8771     0A9A  02F6               	subwf	___lwmod@counter,f
  8772     0A9B  1D03               	btfss	3,2
  8773     0A9C  2A9E               	goto	u3761
  8774     0A9D  2A9F               	goto	u3760
  8775     0A9E                     u3761:
  8776     0A9E  2A82               	goto	l3288
  8777     0A9F                     u3760:
  8778     0A9F                     l3296:
  8779     0A9F  0875               	movf	___lwmod@dividend+1,w
  8780     0AA0  00F3               	movwf	?___lwmod+1
  8781     0AA1  0874               	movf	___lwmod@dividend,w
  8782     0AA2  00F2               	movwf	?___lwmod
  8783     0AA3                     l884:
  8784     0AA3  0008               	return
  8785     0AA4                     __end_of___lwmod:
  8786                           
  8787                           	psect	text48
  8788     03BE                     __ptext48:	
  8789 ;; *************** function ___lwdiv *****************
  8790 ;; Defined at:
  8791 ;;		line 5 in file "/opt/microchip/xc8/v3.10/pic/sources/c99/common/lwdiv.c"
  8792 ;; Parameters:    Size  Location     Type
  8793 ;;  divisor         2    2[COMMON] unsigned int 
  8794 ;;  dividend        2    4[COMMON] unsigned int 
  8795 ;; Auto vars:     Size  Location     Type
  8796 ;;  quotient        2    7[COMMON] unsigned int 
  8797 ;;  counter         1    6[COMMON] unsigned char 
  8798 ;; Return value:  Size  Location     Type
  8799 ;;                  2    2[COMMON] unsigned int 
  8800 ;; Registers used:
  8801 ;;		wreg, status,2, status,0
  8802 ;; Tracked objects:
  8803 ;;		On entry : 0/0
  8804 ;;		On exit  : 0/0
  8805 ;;		Unchanged: 0/0
  8806 ;; Data sizes:     COMMON   BANK0   BANK1   BANK3   BANK2
  8807 ;;      Params:         4       0       0       0       0
  8808 ;;      Locals:         3       0       0       0       0
  8809 ;;      Temps:          0       0       0       0       0
  8810 ;;      Totals:         7       0       0       0       0
  8811 ;;Total ram usage:        7 bytes
  8812 ;; Hardware stack levels used: 1
  8813 ;; Hardware stack levels required when called: 1
  8814 ;; This function calls:
  8815 ;;		Nothing
  8816 ;; This function is called by:
  8817 ;;		_run_delay
  8818 ;;		_dashboard
  8819 ;;		_set_time
  8820 ;; This function uses a non-reentrant model
  8821 ;;
  8822                           
  8823     03BE                     ___lwdiv:	
  8824                           ;psect for function ___lwdiv
  8825                           
  8826     03BE                     l3252:	
  8827                           ;incstack = 0
  8828                           ; Regs used in ___lwdiv: [wreg+status,2+status,0]
  8829                           
  8830     03BE  01F7               	clrf	___lwdiv@quotient
  8831     03BF  01F8               	clrf	___lwdiv@quotient+1
  8832     03C0                     l3254:
  8833     03C0  0872               	movf	___lwdiv@divisor,w
  8834     03C1  0473               	iorwf	___lwdiv@divisor+1,w
  8835     03C2  1903               	btfsc	3,2
  8836     03C3  2BC5               	goto	u3641
  8837     03C4  2BC6               	goto	u3640
  8838     03C5                     u3641:
  8839     03C5  2BFB               	goto	l3274
  8840     03C6                     u3640:
  8841     03C6                     l3256:
  8842     03C6  3001               	movlw	1
  8843     03C7  00F6               	movwf	___lwdiv@counter
  8844     03C8  2BD2               	goto	l3262
  8845     03C9                     l3258:
  8846     03C9  3001               	movlw	1
  8847     03CA                     u3655:
  8848     03CA  1003               	clrc
  8849     03CB  0DF2               	rlf	___lwdiv@divisor,f
  8850     03CC  0DF3               	rlf	___lwdiv@divisor+1,f
  8851     03CD  3EFF               	addlw	-1
  8852     03CE  1D03               	skipz
  8853     03CF  2BCA               	goto	u3655
  8854     03D0                     l3260:
  8855     03D0  3001               	movlw	1
  8856     03D1  07F6               	addwf	___lwdiv@counter,f
  8857     03D2                     l3262:
  8858     03D2  1FF3               	btfss	___lwdiv@divisor+1,7
  8859     03D3  2BD5               	goto	u3661
  8860     03D4  2BD6               	goto	u3660
  8861     03D5                     u3661:
  8862     03D5  2BC9               	goto	l3258
  8863     03D6                     u3660:
  8864     03D6                     l3264:
  8865     03D6  3001               	movlw	1
  8866     03D7                     u3675:
  8867     03D7  1003               	clrc
  8868     03D8  0DF7               	rlf	___lwdiv@quotient,f
  8869     03D9  0DF8               	rlf	___lwdiv@quotient+1,f
  8870     03DA  3EFF               	addlw	-1
  8871     03DB  1D03               	skipz
  8872     03DC  2BD7               	goto	u3675
  8873     03DD  0873               	movf	___lwdiv@divisor+1,w
  8874     03DE  0275               	subwf	___lwdiv@dividend+1,w
  8875     03DF  1D03               	skipz
  8876     03E0  2BE3               	goto	u3685
  8877     03E1  0872               	movf	___lwdiv@divisor,w
  8878     03E2  0274               	subwf	___lwdiv@dividend,w
  8879     03E3                     u3685:
  8880     03E3  1C03               	skipc
  8881     03E4  2BE6               	goto	u3681
  8882     03E5  2BE7               	goto	u3680
  8883     03E6                     u3681:
  8884     03E6  2BEE               	goto	l3270
  8885     03E7                     u3680:
  8886     03E7                     l3266:
  8887     03E7  0872               	movf	___lwdiv@divisor,w
  8888     03E8  02F4               	subwf	___lwdiv@dividend,f
  8889     03E9  0873               	movf	___lwdiv@divisor+1,w
  8890     03EA  1C03               	skipc
  8891     03EB  03F5               	decf	___lwdiv@dividend+1,f
  8892     03EC  02F5               	subwf	___lwdiv@dividend+1,f
  8893     03ED                     l3268:
  8894     03ED  1477               	bsf	___lwdiv@quotient,0
  8895     03EE                     l3270:
  8896     03EE  3001               	movlw	1
  8897     03EF                     u3695:
  8898     03EF  1003               	clrc
  8899     03F0  0CF3               	rrf	___lwdiv@divisor+1,f
  8900     03F1  0CF2               	rrf	___lwdiv@divisor,f
  8901     03F2  3EFF               	addlw	-1
  8902     03F3  1D03               	skipz
  8903     03F4  2BEF               	goto	u3695
  8904     03F5                     l3272:
  8905     03F5  3001               	movlw	1
  8906     03F6  02F6               	subwf	___lwdiv@counter,f
  8907     03F7  1D03               	btfss	3,2
  8908     03F8  2BFA               	goto	u3701
  8909     03F9  2BFB               	goto	u3700
  8910     03FA                     u3701:
  8911     03FA  2BD6               	goto	l3264
  8912     03FB                     u3700:
  8913     03FB                     l3274:
  8914     03FB  0878               	movf	___lwdiv@quotient+1,w
  8915     03FC  00F3               	movwf	?___lwdiv+1
  8916     03FD  0877               	movf	___lwdiv@quotient,w
  8917     03FE  00F2               	movwf	?___lwdiv
  8918     03FF                     l874:
  8919     03FF  0008               	return
  8920     0400                     __end_of___lwdiv:
  8921                           
  8922                           	psect	text49
  8923     088B                     __ptext49:	
  8924 ;; *************** function _read_digital_keypad *****************
  8925 ;; Defined at:
  8926 ;;		line 10 in file "/home/santhoshtk/Desktop/EMERTXE/MC/25014_Car_Black__Box.X/25014_Car_Black_Box.X/digital_keypad.c"
  8927 ;; Parameters:    Size  Location     Type
  8928 ;;  mode            1    wreg     unsigned char 
  8929 ;; Auto vars:     Size  Location     Type
  8930 ;;  mode            1    3[COMMON] unsigned char 
  8931 ;; Return value:  Size  Location     Type
  8932 ;;                  1    wreg      unsigned char 
  8933 ;; Registers used:
  8934 ;;		wreg, status,2, status,0
  8935 ;; Tracked objects:
  8936 ;;		On entry : 0/0
  8937 ;;		On exit  : 0/0
  8938 ;;		Unchanged: 0/0
  8939 ;; Data sizes:     COMMON   BANK0   BANK1   BANK3   BANK2
  8940 ;;      Params:         0       0       0       0       0
  8941 ;;      Locals:         1       0       0       0       0
  8942 ;;      Temps:          1       0       0       0       0
  8943 ;;      Totals:         2       0       0       0       0
  8944 ;;Total ram usage:        2 bytes
  8945 ;; Hardware stack levels used: 1
  8946 ;; Hardware stack levels required when called: 1
  8947 ;; This function calls:
  8948 ;;		Nothing
  8949 ;; This function is called by:
  8950 ;;		_auth_user
  8951 ;;		_main_menu
  8952 ;;		_view_log
  8953 ;;		_set_time
  8954 ;;		_main
  8955 ;; This function uses a non-reentrant model
  8956 ;;
  8957                           
  8958     088B                     _read_digital_keypad:	
  8959                           ;psect for function _read_digital_keypad
  8960                           
  8961                           
  8962                           ;incstack = 0
  8963                           ; Regs used in _read_digital_keypad: [wreg+status,2+status,0]
  8964                           ;read_digital_keypad@mode stored from wreg
  8965     088B  00F3               	movwf	read_digital_keypad@mode
  8966     088C                     l3100:
  8967                           
  8968                           ;/home/santhoshtk/Desktop/EMERTXE/MC/25014_Car_Black__Box.X/25014_Car_Black_Box.X/digita
      +                          l_keypad.c: 10: unsigned char read_digital_keypad(unsigned char mode);/home/santhoshtk/D
      +                          esktop/EMERTXE/MC/25014_Car_Black__Box.X/25014_Car_Black_Box.X/digital_keypad.c: 11: {;/
      +                          home/santhoshtk/Desktop/EMERTXE/MC/25014_Car_Black__Box.X/25014_Car_Black_Box.X/digital_
      +                          keypad.c: 12:     static unsigned char once = 1;;/home/santhoshtk/Desktop/EMERTXE/MC/250
      +                          14_Car_Black__Box.X/25014_Car_Black_Box.X/digital_keypad.c: 14:     if (mode == 0)
  8969     088C  0873               	movf	read_digital_keypad@mode,w
  8970     088D  1D03               	btfss	3,2
  8971     088E  2890               	goto	u3411
  8972     088F  2891               	goto	u3410
  8973     0890                     u3411:
  8974     0890  2896               	goto	l3108
  8975     0891                     u3410:
  8976     0891                     l3102:
  8977                           
  8978                           ;/home/santhoshtk/Desktop/EMERTXE/MC/25014_Car_Black__Box.X/25014_Car_Black_Box.X/digita
      +                          l_keypad.c: 15:     {;/home/santhoshtk/Desktop/EMERTXE/MC/25014_Car_Black__Box.X/25014_C
      +                          ar_Black_Box.X/digital_keypad.c: 16:         return PORTB & 0x3F;
  8979     0891  1283               	bcf	3,5	;RP0=0, select bank0
  8980     0892  1303               	bcf	3,6	;RP1=0, select bank0
  8981     0893  0806               	movf	6,w	;volatile
  8982     0894  393F               	andlw	63
  8983     0895  28B4               	goto	l296
  8984     0896                     l3108:
  8985                           
  8986                           ;/home/santhoshtk/Desktop/EMERTXE/MC/25014_Car_Black__Box.X/25014_Car_Black_Box.X/digita
      +                          l_keypad.c: 19:     {;/home/santhoshtk/Desktop/EMERTXE/MC/25014_Car_Black__Box.X/25014_C
      +                          ar_Black_Box.X/digital_keypad.c: 20:         if (((PORTB & 0x3F) != 0x3F) && once)
  8987     0896  303F               	movlw	63
  8988     0897  1283               	bcf	3,5	;RP0=0, select bank0
  8989     0898  1303               	bcf	3,6	;RP1=0, select bank0
  8990     0899  0506               	andwf	6,w	;volatile
  8991     089A  00F2               	movwf	??_read_digital_keypad
  8992     089B  303F               	movlw	63
  8993     089C  0672               	xorwf	??_read_digital_keypad,w
  8994     089D  1903               	btfsc	3,2
  8995     089E  28A0               	goto	u3421
  8996     089F  28A1               	goto	u3420
  8997     08A0                     u3421:
  8998     08A0  28A8               	goto	l3120
  8999     08A1                     u3420:
  9000     08A1                     l3110:
  9001     08A1  086F               	movf	read_digital_keypad@once,w
  9002     08A2  1903               	btfsc	3,2
  9003     08A3  28A5               	goto	u3431
  9004     08A4  28A6               	goto	u3430
  9005     08A5                     u3431:
  9006     08A5  28A8               	goto	l3120
  9007     08A6                     u3430:
  9008     08A6                     l3112:
  9009                           
  9010                           ;/home/santhoshtk/Desktop/EMERTXE/MC/25014_Car_Black__Box.X/25014_Car_Black_Box.X/digita
      +                          l_keypad.c: 21:         {;/home/santhoshtk/Desktop/EMERTXE/MC/25014_Car_Black__Box.X/250
      +                          14_Car_Black_Box.X/digital_keypad.c: 22:             once = 0;
  9011     08A6  01EF               	clrf	read_digital_keypad@once
  9012     08A7  2891               	goto	l3102
  9013     08A8                     l3120:
  9014     08A8  303F               	movlw	63
  9015     08A9  0506               	andwf	6,w	;volatile
  9016     08AA  00F2               	movwf	??_read_digital_keypad
  9017     08AB  303F               	movlw	63
  9018     08AC  0672               	xorwf	??_read_digital_keypad,w
  9019     08AD  1D03               	btfss	3,2
  9020     08AE  28B0               	goto	u3441
  9021     08AF  28B1               	goto	u3440
  9022     08B0                     u3441:
  9023     08B0  28B3               	goto	l3124
  9024     08B1                     u3440:
  9025     08B1                     l3122:
  9026                           
  9027                           ;/home/santhoshtk/Desktop/EMERTXE/MC/25014_Car_Black__Box.X/25014_Car_Black_Box.X/digita
      +                          l_keypad.c: 27:         {;/home/santhoshtk/Desktop/EMERTXE/MC/25014_Car_Black__Box.X/250
      +                          14_Car_Black_Box.X/digital_keypad.c: 28:             once = 1;
  9028     08B1  3001               	movlw	1
  9029     08B2  00EF               	movwf	read_digital_keypad@once
  9030     08B3                     l3124:
  9031                           
  9032                           ;/home/santhoshtk/Desktop/EMERTXE/MC/25014_Car_Black__Box.X/25014_Car_Black_Box.X/digita
      +                          l_keypad.c: 32:     return 0x3F;
  9033     08B3  303F               	movlw	63
  9034     08B4                     l296:
  9035     08B4  0008               	return
  9036     08B5                     __end_of_read_digital_keypad:
  9037                           
  9038                           	psect	text50
  9039     0863                     __ptext50:	
  9040 ;; *************** function _isr *****************
  9041 ;; Defined at:
  9042 ;;		line 7 in file "/home/santhoshtk/Desktop/EMERTXE/MC/25014_Car_Black__Box.X/25014_Car_Black_Box.X/isr.c"
  9043 ;; Parameters:    Size  Location     Type
  9044 ;;		None
  9045 ;; Auto vars:     Size  Location     Type
  9046 ;;		None
  9047 ;; Return value:  Size  Location     Type
  9048 ;;                  1    wreg      void 
  9049 ;; Registers used:
  9050 ;;		wreg, status,2, status,0
  9051 ;; Tracked objects:
  9052 ;;		On entry : 0/0
  9053 ;;		On exit  : 0/0
  9054 ;;		Unchanged: 0/0
  9055 ;; Data sizes:     COMMON   BANK0   BANK1   BANK3   BANK2
  9056 ;;      Params:         0       0       0       0       0
  9057 ;;      Locals:         0       0       0       0       0
  9058 ;;      Temps:          2       0       0       0       0
  9059 ;;      Totals:         2       0       0       0       0
  9060 ;;Total ram usage:        2 bytes
  9061 ;; Hardware stack levels used: 1
  9062 ;; This function calls:
  9063 ;;		Nothing
  9064 ;; This function is called by:
  9065 ;;		Interrupt level 1
  9066 ;; This function uses a non-reentrant model
  9067 ;;
  9068                           
  9069     0863                     _isr:	
  9070                           ;psect for function _isr
  9071                           
  9072     0863                     i1l2960:
  9073                           
  9074                           ;/home/santhoshtk/Desktop/EMERTXE/MC/25014_Car_Black__Box.X/25014_Car_Black_Box.X/isr.c:
      +                           9:     static unsigned int count = 0;;/home/santhoshtk/Desktop/EMERTXE/MC/25014_Car_Bla
      +                          ck__Box.X/25014_Car_Black_Box.X/isr.c: 11:     if (TMR0IF == 1)
  9075     0863  1D0B               	btfss	11,2	;volatile
  9076     0864  2866               	goto	u322_21
  9077     0865  2867               	goto	u322_20
  9078     0866                     u322_21:
  9079     0866  2884               	goto	i1l419
  9080     0867                     u322_20:
  9081     0867                     i1l2962:
  9082                           
  9083                           ;/home/santhoshtk/Desktop/EMERTXE/MC/25014_Car_Black__Box.X/25014_Car_Black_Box.X/isr.c:
      +                           12:     {;/home/santhoshtk/Desktop/EMERTXE/MC/25014_Car_Black__Box.X/25014_Car_Black_Bo
      +                          x.X/isr.c: 14:         TMR0 = TMR0 + 6 + 2;
  9084     0867  1283               	bcf	3,5	;RP0=0, select bank0
  9085     0868  1303               	bcf	3,6	;RP1=0, select bank0
  9086     0869  0801               	movf	1,w	;volatile
  9087     086A  3E08               	addlw	8
  9088     086B  0081               	movwf	1	;volatile
  9089                           
  9090                           ;/home/santhoshtk/Desktop/EMERTXE/MC/25014_Car_Black__Box.X/25014_Car_Black_Box.X/isr.c:
      +                           16:         if (++count == 20000)
  9091     086C  3001               	movlw	1
  9092     086D  07D1               	addwf	isr@count,f
  9093     086E  1803               	skipnc
  9094     086F  0AD2               	incf	isr@count+1,f
  9095     0870  3000               	movlw	0
  9096     0871  07D2               	addwf	isr@count+1,f
  9097     0872  3020               	movlw	32
  9098     0873  0651               	xorwf	isr@count,w
  9099     0874  304E               	movlw	78
  9100     0875  1903               	skipnz
  9101     0876  0652               	xorwf	isr@count+1,w
  9102     0877  1D03               	btfss	3,2
  9103     0878  287A               	goto	u323_21
  9104     0879  287B               	goto	u323_20
  9105     087A                     u323_21:
  9106     087A  2883               	goto	i1l2968
  9107     087B                     u323_20:
  9108     087B                     i1l2964:
  9109                           
  9110                           ;/home/santhoshtk/Desktop/EMERTXE/MC/25014_Car_Black__Box.X/25014_Car_Black_Box.X/isr.c:
      +                           17:         {;/home/santhoshtk/Desktop/EMERTXE/MC/25014_Car_Black__Box.X/25014_Car_Blac
      +                          k_Box.X/isr.c: 18:             count = 0;
  9111     087B  01D1               	clrf	isr@count
  9112     087C  01D2               	clrf	isr@count+1
  9113     087D                     i1l2966:
  9114                           
  9115                           ;/home/santhoshtk/Desktop/EMERTXE/MC/25014_Car_Black__Box.X/25014_Car_Black_Box.X/isr.c:
      +                           20:             delay--;
  9116     087D  3001               	movlw	1
  9117     087E  02ED               	subwf	_delay,f
  9118     087F  3000               	movlw	0
  9119     0880  1C03               	skipc
  9120     0881  03EE               	decf	_delay+1,f
  9121     0882  02EE               	subwf	_delay+1,f
  9122     0883                     i1l2968:
  9123                           
  9124                           ;/home/santhoshtk/Desktop/EMERTXE/MC/25014_Car_Black__Box.X/25014_Car_Black_Box.X/isr.c:
      +                           23:         TMR0IF = 0;
  9125     0883  110B               	bcf	11,2	;volatile
  9126     0884                     i1l419:
  9127     0884  0871               	movf	??_isr+1,w
  9128     0885  008A               	movwf	10
  9129     0886  0E70               	swapf	??_isr,w
  9130     0887  0083               	movwf	3
  9131     0888  0EFE               	swapf	btemp,f
  9132     0889  0E7E               	swapf	btemp,w
  9133     088A  0009               	retfie
  9134     088B                     __end_of_isr:
  9135     0002                     ___latbits      equ	2
  9136     007E                     btemp           set	126	;btemp
  9137     007E                     btemp0          set	126
  9138     007F                     btemp1          set	127
  9139     007E                     wtemp0          set	126
  9140     007F                     wtemp0a         set	127
  9141     007F                     ttemp0a         set	127
  9142     0080                     ltemp0a         set	128
  9143                           
  9144                           	psect	intentry
  9145     0004                     __pintentry:	
  9146                           ;incstack = 0
  9147 ;; hardware stack exceeded
  9148                           ; Regs used in _isr: [wreg+status,2+status,0]
  9149                           
  9150     0004                     interrupt_function:
  9151     007E                     saved_w         set	btemp
  9152     0004  00FE               	movwf	btemp
  9153     0005  0E03               	swapf	3,w
  9154     0006  00F0               	movwf	??_isr
  9155     0007  080A               	movf	10,w
  9156     0008  00F1               	movwf	??_isr+1
  9157     0009  120A  158A  2863   	ljmp	_isr
  9158                           
  9159                           	psect	idloc
  9160                           
  9161                           ;Config register IDLOC0 @ 0x2000
  9162                           ;	unspecified, using default values
  9163     2000                     	org	8192
  9164     2000  3FFF               	dw	16383
  9165                           
  9166                           ;Config register IDLOC1 @ 0x2001
  9167                           ;	unspecified, using default values
  9168     2001                     	org	8193
  9169     2001  3FFF               	dw	16383
  9170                           
  9171                           ;Config register IDLOC2 @ 0x2002
  9172                           ;	unspecified, using default values
  9173     2002                     	org	8194
  9174     2002  3FFF               	dw	16383
  9175                           
  9176                           ;Config register IDLOC3 @ 0x2003
  9177                           ;	unspecified, using default values
  9178     2003                     	org	8195
  9179     2003  3FFF               	dw	16383
  9180                           
  9181                           	psect	config
  9182                           
  9183                           ;Config register CONFIG @ 0x2007
  9184                           ;	Oscillator Selection bits
  9185                           ;	FOSC = 0x3, unprogrammed default
  9186                           ;	Watchdog Timer Enable bit
  9187                           ;	WDTE = OFF, WDT disabled
  9188                           ;	Power-up Timer Enable bit
  9189                           ;	PWRTE = 0x1, unprogrammed default
  9190                           ;	Brown-out Reset Enable bit
  9191                           ;	BOREN = 0x1, unprogrammed default
  9192                           ;	Low-Voltage (Single-Supply) In-Circuit Serial Programming Enable bit
  9193                           ;	LVP = 0x1, unprogrammed default
  9194                           ;	Data EEPROM Memory Code Protection bit
  9195                           ;	CPD = 0x1, unprogrammed default
  9196                           ;	Flash Program Memory Write Enable bits
  9197                           ;	WRT = 0x3, unprogrammed default
  9198                           ;	In-Circuit Debugger Mode bit
  9199                           ;	DEBUG = 0x1, unprogrammed default
  9200                           ;	Flash Program Memory Code Protection bit
  9201                           ;	CP = 0x1, unprogrammed default
  9202     2007                     	org	8199
  9203     2007  3FFB               	dw	16379

Data Sizes:
    Strings     312
    Constant    0
    Data        33
    BSS         62
    Persistent  0
    Stack       0

Auto Spaces:
    Space          Size  Autos    Used
    COMMON           14     10      12
    BANK0            80     45      80
    BANK1            80      2      60
    BANK3            96      0       0
    BANK2            96      0       0

Pointer List with Targets:

    clcd_print@str	PTR const unsigned char  size(2) Largest target is 17
		 -> logs(BANK1[17]), speed(BANK0[3]), STR_1(CODE[17]), STR_10(CODE[3]), 
		 -> STR_11(CODE[3]), STR_12(CODE[3]), STR_13(CODE[3]), STR_14(CODE[15]), 
		 -> STR_15(CODE[15]), STR_16(CODE[15]), STR_17(CODE[15]), STR_18(CODE[15]), 
		 -> STR_19(CODE[17]), STR_2(CODE[17]), STR_20(CODE[3]), STR_21(CODE[3]), 
		 -> STR_22(CODE[3]), STR_23(CODE[3]), STR_24(CODE[8]), STR_25(CODE[10]), 
		 -> STR_26(CODE[17]), STR_27(CODE[17]), STR_28(CODE[9]), STR_29(CODE[15]), 
		 -> STR_3(CODE[16]), STR_31(CODE[3]), STR_32(CODE[3]), STR_33(CODE[3]), 
		 -> STR_34(CODE[17]), STR_4(CODE[17]), STR_5(CODE[15]), STR_6(CODE[3]), 
		 -> STR_7(CODE[3]), STR_8(CODE[3]), STR_9(CODE[3]), time(BANK0[9]), 

    display_time@clock_reg	PTR unsigned char  size(1) Largest target is 3
		 -> clock_reg(BANK0[3]), 

    event	PTR const unsigned char [8] size(2) Largest target is 3
		 -> STR_10(CODE[3]), STR_11(CODE[3]), STR_12(CODE[3]), STR_13(CODE[3]), 
		 -> STR_6(CODE[3]), STR_7(CODE[3]), STR_8(CODE[3]), STR_9(CODE[3]), 

    get_time@clock_reg	PTR unsigned char  size(1) Largest target is 3
		 -> clock_reg(BANK0[3]), 

    menu_options	PTR const unsigned char [5] size(2) Largest target is 15
		 -> STR_14(CODE[15]), STR_15(CODE[15]), STR_16(CODE[15]), STR_17(CODE[15]), 
		 -> STR_18(CODE[15]), 

    put_s@s	PTR const unsigned char  size(2) Largest target is 18
		 -> logs(BANK1[17]), STR_30(CODE[18]), 

    read_and_format_log@log	PTR unsigned char  size(1) Largest target is 11
		 -> read_event@event(BANK1[11]), 

    sp__read_event	PTR unsigned char  size(1) Largest target is 11
		 -> read_event@event(BANK1[11]), 


Critical Paths under _main in COMMON

    _set_time->_clcd_putch
    _display_indicator->_clcd_print
    _print_star->_clcd_print
    _read_and_format_log->_read_event
    _read_event->___wmul
    _read_external_eeprom->_i2c_read
    _put_s->_put_char
    _clear_screen->_clcd_write
    _clear_log->_clcd_print
    _init_uart->___lldiv
    _init_i2c->___lldiv
    _init_ds1307->_read_ds1307
    _write_ds1307->_i2c_write
    _init_clcd->_init_display_controller
    _init_display_controller->_clcd_write
    _dashboard->___xxtofl
    _dashboard->_display_time
    _write_event->___lwmod
    _write_event->_write_external_eeprom
    _write_external_eeprom->_i2c_write
    _get_time->_read_ds1307
    _read_ds1307->_i2c_read
    _display_time->_clcd_print
    ___fltol->___xxtofl
    ___fldiv->___xxtofl
    _auth_user->_clcd_putch
    _run_delay->_clcd_putch
    _clcd_putch->___lwdiv
    _clcd_print->_clcd_write

Critical Paths under _isr in COMMON

    None.

Critical Paths under _main in BANK0

    _main->_dashboard
    _main_menu->_view_log
    _view_log->_read_and_format_log
    _set_time->_display_indicator
    _download_log->_read_and_format_log
    _read_and_format_log->_read_event
    _init_config->_init_i2c
    _init_config->_init_uart
    _init_uart->___lldiv
    _init_i2c->___lldiv
    _dashboard->___fltol
    ___fltol->___fldiv
    ___fldiv->___xxtofl
    _auth_user->_clcd_putch
    _run_delay->_clcd_putch

Critical Paths under _isr in BANK0

    None.

Critical Paths under _main in BANK1

    None.

Critical Paths under _isr in BANK1

    None.

Critical Paths under _main in BANK3

    None.

Critical Paths under _isr in BANK3

    None.

Critical Paths under _main in BANK2

    None.

Critical Paths under _isr in BANK2

    None.

Call Graph Tables:

 ---------------------------------------------------------------------------------
 (Depth) Function   	        Calls       Base Space   Used Autos Params    Refs
 ---------------------------------------------------------------------------------
 (0) _main                                                 2     2      0   16931
                                              0 BANK1      2     2      0
                          _auth_user
                          _dashboard
                        _init_config
                          _main_menu
                _read_digital_keypad
 ---------------------------------------------------------------------------------
 (1) _main_menu                                            8     8      0    8121
                                             16 BANK0      8     8      0
                         _clcd_print
                          _clear_log
                       _clear_screen
                       _download_log
                         _print_star
                _read_digital_keypad
                           _set_time
                           _view_log
 ---------------------------------------------------------------------------------
 (2) _view_log                                             8     8      0    1792
                                             10 BANK0      6     6      0
                         _clcd_print
                _read_and_format_log
                _read_digital_keypad
 ---------------------------------------------------------------------------------
 (2) _set_time                                            13    13      0    2548
                                              2 BANK0     13    13      0
                            ___lwdiv
                            ___lwmod
                             ___wmul
                         _clcd_print
                         _clcd_putch
                  _display_indicator
                _read_digital_keypad
 ---------------------------------------------------------------------------------
 (3) _display_indicator                                    2     0      2     509
                                              0 BANK0      2     0      2
                         _clcd_print
 ---------------------------------------------------------------------------------
 (2) _print_star                                           2     0      2     447
                                              0 BANK0      2     0      2
                         _clcd_print
 ---------------------------------------------------------------------------------
 (2) _download_log                                         5     5      0    1718
                                             10 BANK0      5     5      0
                         _clcd_print
                           _put_char
                              _put_s
                _read_and_format_log
 ---------------------------------------------------------------------------------
 (3) _read_and_format_log                                  8     8      0    1072
                                              2 BANK0      8     8      0
                             ___wmul
                         _read_event
 ---------------------------------------------------------------------------------
 (4) _read_event                                           4     2      2     373
                                              8 COMMON     2     0      2
                                              0 BANK0      2     2      0
                             ___wmul (ARG)
               _read_external_eeprom
 ---------------------------------------------------------------------------------
 (5) _read_external_eeprom                                 2     2      0     209
                                              4 COMMON     2     2      0
                           _i2c_read
                      _i2c_rep_start
                          _i2c_start
                           _i2c_stop
                          _i2c_write
 ---------------------------------------------------------------------------------
 (4) ___wmul                                               6     2      4     156
                                              2 COMMON     6     2      4
 ---------------------------------------------------------------------------------
 (3) _put_s                                                2     0      2     118
                                              3 COMMON     2     0      2
                           _put_char
 ---------------------------------------------------------------------------------
 (4) _put_char                                             1     1      0      47
                                              2 COMMON     1     1      0
 ---------------------------------------------------------------------------------
 (2) _clear_screen                                         0     0      0     161
                         _clcd_write
 ---------------------------------------------------------------------------------
 (2) _clear_log                                            3     3      0     413
                                              0 BANK0      3     3      0
                         _clcd_print
 ---------------------------------------------------------------------------------
 (1) _init_config                                          0     0      0    1109
                           _init_adc
                          _init_clcd
                _init_digital_keypad
                        _init_ds1307
                           _init_i2c
                          _init_uart
 ---------------------------------------------------------------------------------
 (2) _init_uart                                            8     4      4     287
                                              6 BANK0      8     4      4
                            ___lldiv
 ---------------------------------------------------------------------------------
 (2) _init_i2c                                             8     4      4     287
                                              6 BANK0      8     4      4
                            ___lldiv
 ---------------------------------------------------------------------------------
 (3) ___lldiv                                             14     6      8     253
                                              2 COMMON     8     0      8
                                              0 BANK0      6     6      0
 ---------------------------------------------------------------------------------
 (2) _init_ds1307                                          1     1      0     374
                                              6 COMMON     1     1      0
                        _read_ds1307
                       _write_ds1307
 ---------------------------------------------------------------------------------
 (3) _write_ds1307                                         2     1      1     128
                                              3 COMMON     2     1      1
                          _i2c_start
                           _i2c_stop
                          _i2c_write
 ---------------------------------------------------------------------------------
 (2) _init_digital_keypad                                  0     0      0       0
 ---------------------------------------------------------------------------------
 (2) _init_clcd                                            0     0      0     161
            _init_display_controller
 ---------------------------------------------------------------------------------
 (3) _init_display_controller                              2     2      0     161
                                              6 COMMON     2     2      0
                         _clcd_write
 ---------------------------------------------------------------------------------
 (2) _init_adc                                             0     0      0       0
 ---------------------------------------------------------------------------------
 (1) _dashboard                                            3     3      0    5275
                                             42 BANK0      3     3      0
                            ___fldiv
                            ___fltol
                            ___lwdiv
                            ___lwmod
                           ___xxtofl
                         _clcd_print
                       _display_time
                           _get_time
                           _read_adc
                        _write_event
 ---------------------------------------------------------------------------------
 (2) _write_event                                          9     9      0     627
                                              7 COMMON     2     2      0
                                              0 BANK0      7     7      0
                            ___lwmod
              _write_external_eeprom
 ---------------------------------------------------------------------------------
 (3) _write_external_eeprom                                4     3      1     174
                                              3 COMMON     4     3      1
                          _i2c_start
                           _i2c_stop
                          _i2c_write
 ---------------------------------------------------------------------------------
 (2) _read_adc                                             6     4      2      81
                                              2 COMMON     6     4      2
 ---------------------------------------------------------------------------------
 (2) _get_time                                             1     0      1     305
                                              6 COMMON     1     0      1
                        _read_ds1307
 ---------------------------------------------------------------------------------
 (3) _read_ds1307                                          2     2      0     209
                                              4 COMMON     2     2      0
                           _i2c_read
                      _i2c_rep_start
                          _i2c_start
                           _i2c_stop
                          _i2c_write
 ---------------------------------------------------------------------------------
 (6) _i2c_write                                            1     1      0      47
                                              2 COMMON     1     1      0
                  _i2c_wait_for_idle
 ---------------------------------------------------------------------------------
 (6) _i2c_rep_start                                        0     0      0       0
                          _i2c_start
                           _i2c_stop
 ---------------------------------------------------------------------------------
 (7) _i2c_stop                                             0     0      0       0
                  _i2c_wait_for_idle
 ---------------------------------------------------------------------------------
 (7) _i2c_start                                            0     0      0       0
                  _i2c_wait_for_idle
 ---------------------------------------------------------------------------------
 (6) _i2c_read                                             2     2      0      81
                                              2 COMMON     2     2      0
                  _i2c_wait_for_idle
 ---------------------------------------------------------------------------------
 (8) _i2c_wait_for_idle                                    0     0      0       0
 ---------------------------------------------------------------------------------
 (2) _display_time                                         2     1      1     602
                                              9 COMMON     1     0      1
                                              0 BANK0      1     1      0
                         _clcd_print
 ---------------------------------------------------------------------------------
 (2) ___xxtofl                                            14    10      4     511
                                              2 COMMON     8     4      4
                                              0 BANK0      6     6      0
 ---------------------------------------------------------------------------------
 (2) ___fltol                                             10     6      4     340
                                             32 BANK0     10     6      4
                            ___fldiv (ARG)
                           ___xxtofl (ARG)
 ---------------------------------------------------------------------------------
 (2) ___fldiv                                             26    18      8    1692
                                              6 BANK0     26    18      8
                           ___xxtofl (ARG)
 ---------------------------------------------------------------------------------
 (1) _auth_user                                            6     6      0    2212
                                              1 BANK0      6     6      0
                         _clcd_print
                         _clcd_putch
                _read_digital_keypad
                          _run_delay
 ---------------------------------------------------------------------------------
 (2) _run_delay                                            0     0      0    1251
                            ___lwdiv
                            ___lwmod
                         _clcd_print
                         _clcd_putch
                        _init_timer0
 ---------------------------------------------------------------------------------
 (3) _init_timer0                                          0     0      0       0
 ---------------------------------------------------------------------------------
 (3) _clcd_putch                                           2     1      1     275
                                              9 COMMON     1     0      1
                                              0 BANK0      1     1      0
                            ___lwdiv (ARG)
                            ___lwmod (ARG)
                         _clcd_write
 ---------------------------------------------------------------------------------
 (4) _clcd_print                                           3     0      3     413
                                              6 COMMON     3     0      3
                         _clcd_write
 ---------------------------------------------------------------------------------
 (5) _clcd_write                                           4     3      1     161
                                              2 COMMON     4     3      1
 ---------------------------------------------------------------------------------
 (3) ___lwmod                                              5     1      4     292
                                              2 COMMON     5     1      4
 ---------------------------------------------------------------------------------
 (3) ___lwdiv                                              7     3      4     271
                                              2 COMMON     7     3      4
 ---------------------------------------------------------------------------------
 (3) _read_digital_keypad                                  2     2      0      47
                                              2 COMMON     2     2      0
 ---------------------------------------------------------------------------------
 Estimated maximum stack depth 8
 ---------------------------------------------------------------------------------
 (Depth) Function   	        Calls       Base Space   Used Autos Params    Refs
 ---------------------------------------------------------------------------------
 (9) _isr                                                  2     2      0       0
                                              0 COMMON     2     2      0
 ---------------------------------------------------------------------------------
 Estimated maximum stack depth 9
 ---------------------------------------------------------------------------------

 Call Graph Graphs:

 _main (ROOT)
   _auth_user
     _clcd_print
       _clcd_write
     _clcd_putch
       ___lwdiv (ARG)
       ___lwmod (ARG)
       _clcd_write (ARG)
     _read_digital_keypad
     _run_delay
       ___lwdiv
       ___lwmod
       _clcd_print
       _clcd_putch
       _init_timer0
   _dashboard
     ___fldiv
       ___xxtofl (ARG)
     ___fltol
       ___fldiv (ARG)
       ___xxtofl (ARG)
     ___lwdiv
     ___lwmod
     ___xxtofl
     _clcd_print
     _display_time
       _clcd_print
     _get_time
       _read_ds1307
         _i2c_read
           _i2c_wait_for_idle
         _i2c_rep_start
           _i2c_start
             _i2c_wait_for_idle
           _i2c_stop
             _i2c_wait_for_idle
         _i2c_start
         _i2c_stop
         _i2c_write
           _i2c_wait_for_idle
     _read_adc
     _write_event
       ___lwmod
       _write_external_eeprom
         _i2c_start
         _i2c_stop
         _i2c_write
   _init_config
     _init_adc
     _init_clcd
       _init_display_controller
         _clcd_write
     _init_digital_keypad
     _init_ds1307
       _read_ds1307
       _write_ds1307
         _i2c_start
         _i2c_stop
         _i2c_write
     _init_i2c
       ___lldiv
     _init_uart
       ___lldiv
   _main_menu
     _clcd_print
     _clear_log
       _clcd_print
     _clear_screen
       _clcd_write
     _download_log
       _clcd_print
       _put_char
       _put_s
         _put_char
       _read_and_format_log
         ___wmul
         _read_event
           ___wmul (ARG)
           _read_external_eeprom (ARG)
             _i2c_read
             _i2c_rep_start
             _i2c_start
             _i2c_stop
             _i2c_write
     _print_star
       _clcd_print
     _read_digital_keypad
     _set_time
       ___lwdiv
       ___lwmod
       ___wmul
       _clcd_print
       _clcd_putch
       _display_indicator
         _clcd_print
       _read_digital_keypad
     _view_log
       _clcd_print
       _read_and_format_log
       _read_digital_keypad
   _read_digital_keypad

 _isr (ROOT)

Address spaces:
Name               Size   Autos  Total    Usage
BANK3               96      0       0      0.0%
BITBANK3            96      0       0      0.0%
BANK2               96      0       0      0.0%
BITBANK2            96      0       0      0.0%
BANK1               80      2      60     75.0%
BITBANK1            80      0       0      0.0%
BANK0               80     45      80    100.0%
BITBANK0            80      0       0      0.0%
COMMON              14     10      12     85.7%
BITCOMMON           14      0       0      0.0%
DATA                 0      0     152      0.0%
STACK                0      0       0      0.0%


Microchip Technology PIC Macro Assembler V3.10 build 20250813170317 
Symbol Table                                                                                   Thu Jul  2 01:04:14 2026

                   ___fldiv@aexp 003F                     ___fldiv@bexp 003E                                pc 0002  
                   ___fldiv@sign 0037            _write_external_eeprom 093A                   clcd_print@addr 0078  
                             l20 176E                               l23 177C                               l17 16AA  
                             l90 16F7                               l67 0BCD                               l59 0FFF  
                             l84 0A35                               l93 07FC                               l87 0C8B  
                             _GO 00FA                               l99 0939                               fsr 0004  
            ___wmul@multiplicand 0074                              l102 16B2                              l400 17DA  
                            l401 17DC                              l321 1721                              l330 17BB  
                            l218 0719                              l235 0DEE                              l404 16EC  
                            l324 08DF                              l172 07E7                              l164 0725  
                            l500 16FD                              l333 0B74                              l253 179B  
                            l501 1701                              l502 1702                              l327 173F  
                            l159 17FF                              l352 090A                              l192 0A6B  
                            l248 0E83                              l281 03BD                              l290 16A3  
                            l187 0644                              l259 0C28                              l267 0ADC  
                            l508 0862                              l349 0969                              l381 09CB  
                            l390 16C3                              l630 0CF1                              l446 09FF  
                            l296 08B4                              l384 1703                              l473 16D6  
                            l393 16E1                              l490 0999                              l387 170F  
                            l396 16CC                              l399 17D7                              l594 0824  
                            l596 083C                              l951 0095                              l953 0209  
                            l874 03FF                              l795 0D52                              l884 0AA3  
                            l788 0D67                              l973 01F5                              l798 0D67  
                            l975 0201                              l967 0183                              _GIE 005F  
                            _RE1 0049                              _RE2 004A                              _PEN 048A  
                            _SEN 0488                              _PSA 040B                    ?_display_time 0079  
                            _isr 0863                   clcd_putch@addr 0079                              _pos 007A  
                            fsr0 0004                   clcd_putch@data 0020                              indf 0000  
             print_star@position 0020                     ___fltol@exp1 0049                             l1041 0EE7  
                           l1035 0EA8                             l1036 0EB9                             l1037 0F39  
                           l1048 0F03                             l3000 1709                             l1049 0F0F  
                           l3002 16BB                             l3010 16E3                             l3100 088C  
                           l3020 17BD                             l3004 16C0                             l3012 16E8  
                           l3110 08A1                             l3102 0891                             l3030 17DB  
                           l3022 17C2                             l3006 16C4                             l3014 16EC  
                           l3112 08A6                             l3120 08A8                             l3040 0A0F  
                           l3024 17CA                             l3008 16C9                             l3200 083D  
          ??_read_digital_keypad 0072                             l3122 08B1                             l3050 0A29  
                           l3042 0A14                             l3034 0A01                             l3130 16CD  
                           l3026 17CE                             l3018 16D7                             l3202 083E  
                           l3210 0AAC                             l3124 08B3                             l3108 0896  
                           l3052 0A2C                             l3044 0A17                             l3036 0A0B  
                           l3060 090B                             l3028 17D3                             l3220 08B6  
                           l3300 16A4                             l3140 0C4D                             l3132 0C29  
                           l3204 084C                             l3212 0AB8                             l3046 0A23  
                           l3038 0A0E                             l3062 0913                             l3310 0B75  
                           l3222 08DE                             l3302 175F                             l3150 0C6F  
                           l3142 0C54                             l3134 0C31                             l3230 0C9E  
                           l3206 0852                             l3054 08E1                             l3214 0ABE  
                           l3048 0A24                             l3064 0923                             l3128 07EB  
                           l3320 0BC9                             l3312 0B7B                             l3304 176D  
                           l3160 095B                             l3152 0C7F                             l3144 0C57  
                           l3136 0C38                             l3240 0CCB                             l3232 0CA1  
                           l3056 0909                             l3080 17FE                             l3216 0ACA  
                           l3208 0AA4                             l3400 0E3C                             l3066 0929  
                           l3314 0B91                             l3306 1772                             l3154 0C86  
                           l3146 0C5E                             l3138 0C48                             l3330 16F2  
                           l3226 1723                             l3242 0CD9                             l3234 0CAC  
                           l3090 081E                             l3074 17E1                             l3162 0D6B  
                           l3218 0AD1                             l3410 0E5D                             l3402 0E43  
                           l3260 03D0                             l3252 03BE                             l3316 0BA9  
                           l3156 093B                             l3148 0C6A                             l3324 16ED  
                           l3500 1719                             l3244 0CDA                             l3236 0CB0  
                           l3228 0C8C                             l3420 177D                             l3332 16AB  
                           l3084 16F9                             l3092 082B                             l3076 17ED  
                           l3068 17DD                             l3180 0DA7                             l3172 0D8B  
                           l3164 0D87                             l3412 0E6F                             l3404 0E49  
                           l3270 03EE                             l3262 03D2                             l3254 03C0  
                           l3318 0BC1                             l3158 0957                             l3350 0744  
                           l3342 0727                             l3334 071A                             l3326 16F0  
                           l3246 0CE3                             l3238 0CB9                             l3502 099A  
                           l3510 096E                             l3422 1781                             l3094 0832  
                           l3086 0818                             l3078 17F5                             l3190 0DC9  
                           l3182 0DAE                             l3174 0D91                             l3166 0D89  
                           l3430 0BED                             l3414 0E75                             l3406 0E4F  
                           l3272 03F5                             l3264 03D6                             l3256 03C6  
                           l3280 0A72                             l3600 00B9                             l3520 0D19  
                           l3512 0CF2                             l3360 0780                             l3344 072E  
                           l3352 074C                             l3336 0723                             l3328 16F1  
                           l3248 0CE9                             l3504 099D                             l3424 178C  
                           l3096 0838                             l3088 081A                             l3192 0DD6  
                           l3184 0DB4                             l3176 0D99                             l3432 0BF2  
                           l3440 0C1E                             l3416 0E7C                             l3408 0E56  
                           l3266 03E7                             l3258 03C9                             l3274 03FB  
                           l3290 0A8C                             l3282 0A75                             l3610 00E4  
                           l3522 0D1A                             l3514 0CFD                             l3370 179C  
                           l3362 07B0                             l3354 0752                             l3506 09C8  
                           l3186 0DBB                             l3178 0DA0                             l3194 0DDC  
                           l3434 0C01                             l3450 0297                             l3442 020A  
                           l3268 03ED                             l3292 0A92                             l3284 0A7C  
                           l3620 0109                             l3612 00EC                             l3604 00C2  
                           l3524 0D22                             l3700 0EB0                             l3380 0B69  
                           l3372 0B23                             l3364 07B8                             l3356 075B  
                           l3348 0736                             l3508 096A                             l3196 0DE2  
                           l3188 0DC2                             l3436 0C07                             l3428 0BCE  
                           l3460 02EF                             l3452 02AF                             l3444 0272  
                           l3294 0A99                             l3286 0A7E                             l3278 0A6C  
                           l3630 0134                             l3622 010A                             l3614 00EE  
                           l3606 00D4                             l3550 0044                             l3542 0D47  
                           l3534 0D30                             l3526 0D24                             l3518 0D06  
                           l3710 0ED0                             l3374 0B3A                             l3366 07C8  
                           l3358 0778                             l3198 0DEB                             l3438 0C16  
                           l3382 0A36                             l3470 0339                             l3462 0307  
                           l3454 02B7                             l3446 0274                             l3390 0DF3  
                           l3288 0A82                             l3296 0A9F                             l3640 014F  
                           l3616 00F3                             l3624 0113                             l3632 0136  
                           l3608 00DC                             l3560 0054                             l3552 0046  
                           l3544 0D57                             l3528 0D28                             l3536 0D40  
                           l3720 0F07                             l3712 0EDE                             l3704 0EBC  
                           l3376 0B50                             l3368 07D0                             l3800 054D  
                           l3384 0A3E                             l3480 037A                             l3472 033F  
                           l3464 031F                             l3456 02CF                             l3448 027F  
                           l3392 0DF9                             l3650 0167                             l3642 0153  
                           l3634 013C                             l3626 0125                             l3618 0105  
                           l3570 006C                             l3562 0059                             l3554 004A  
                           l3546 0D5C                             l3730 0F31                             l3722 0F11  
                           l3714 0EEE                             l3706 0EC7                             l3378 0B68  
                           l3810 0575                             l3802 0554                             l3386 0A55  
                           l3490 03B7                             l3474 0356                             l3482 0392  
                           l3466 032A                             l3458 02E7                             l3394 0E01  
                           l3740 0F58                             l3660 0188                             l3652 0168  
                           l3644 0154                             l3636 0144                             l3628 0126  
                           l3580 007D                             l3572 006F                             l3564 0061  
                           l3556 004E                             l3548 0040                             l3724 0F27  
                           l3716 0EF9                             l3708 0ECE                             l3820 058F  
                           l3812 057B                             l3804 055C                             l3484 0398  
                           l3476 035C                             l3468 0333                             l3396 0E18  
                           l3388 0DEF                             l3900 0701                             l3750 0F7D  
                           l3742 0F61                             l3734 0F3A                             l3662 018D  
                           l3670 01BE                             l3654 016C                             l3646 015D  
                           l3638 0146                             l3590 009D                             l3582 0082  
                           l3574 0073                             l3566 0062                             l3558 004F  
                           l3726 0F2C                             l3718 0EFD                             l3822 059C  
                           l3806 0563                             l3814 0581                             l3494 169E  
                           l3486 03B0                             l3478 0373                             l3398 0E2E  
                           l3902 0708                             l3760 0FA1                             l3752 0F83  
                           l3744 0F67                             l3736 0F45                             l3680 01F4  
                           l3672 01CB                             l3664 019B                             l3656 0180  
                           l3648 0163                             l3592 00A9                             l3584 008A  
                           l3576 0077                             l3568 0064                             l3728 0F30  
                           l3840 060E                             l3816 0587                             l3832 05AE  
                           l3808 0568                             l3496 1710                             l3920 09EA  
                           l3912 09CC                             l3770 0FB3                             l3754 0F89  
                           l3746 0F6D                             l3738 0F4D                             l3682 01F9  
                           l3674 01D9                             l3666 019F                             l3594 00AB  
                           l3586 008B                             l3578 0078                             l3842 0614  
                           l3834 05C3                             l3826 05A3                             l3498 1717  
                           l3922 09EF                             l3914 09D1                             l3906 070E  
                           l3850 0645                             l3930 0AE5                             l3772 0FC2  
                           l3756 0F8F                             l3748 0F73                             l3684 01FD  
                           l3676 01E8                             l3668 01B8                             l3588 008D  
                           l3692 0E87                             l3844 0626                             l3836 05CF  
                           l3828 05A9                             l3924 09FE                             l3916 09D6  
                           l3908 0714                             l3860 0687                             l3852 064A  
                           l3940 0B02                             l3932 0AEE                             l3790 0FEF  
                           l3774 0FC9                             l3766 0FA3                             l3758 0F98  
                           l3686 01FF                             l3678 01EC                             l3598 00B4  
                           l3694 0E8C                             l3846 0638                             l3838 0607  
                           l3918 09DB                             l3870 06A3                             l3862 0690  
                           l3854 064F                             l3950 0B1A                             l3942 0B07  
                           l3934 0AF4                             l3926 0ADD                             l3792 0FF6  
                           l3776 0FCB                             l3784 0FE6                             l3696 0E90  
                           l3848 0639                             l3880 06C1                             l3864 0696  
                           l3872 06AA                             l3856 065D                             l3944 0B0E  
                           l3936 0AF6                             l3928 0AE2                             l3794 0FFB  
                           l3786 0FE7                             l3778 0FD6                             l3698 0EA0  
                           l3890 06E2                             l3874 06B0                             l3882 06C8  
                           l3866 069B                             l3858 0672                             l3946 0B13  
                           l3938 0AFB                             l3788 0FED                             l3796 053B  
                           l3892 06E8                             l3884 06CE                             l3876 06B5  
                           l3868 069D                             l3948 0B16                             l2998 1703  
                           l3798 0546                             l3894 06EE                             l3886 06D5  
                           l3878 06B8                             l3896 06F4                             l3888 06DA  
                           _ADFM 04FF                             l3898 06FB                             ?_isr 0070  
                           _ADON 00F8                             STR_1 0478                             STR_2 0456  
                           STR_3 0489                             STR_4 0467                             STR_5 04F3  
                           STR_6 0532                             STR_7 052F                             STR_8 0523  
                           STR_9 0526                             _CREN 00C4                             _T0CS 040D  
                           u4000 03B6                             u4001 03B5                             u4010 03BD  
                           u4011 03BC                             u4100 0D46                             u3300 17D3  
                           u4020 09AB                             u4101 0D45                             u3301 17D2  
                           u3310 0A08                             u4030 097C                             u3311 0A04  
                           u4200 009D                             u4120 0D57                             u4040 0CFD  
                           u3400 0838                             u4201 009C                             u4121 0D56  
                           u4041 0CFC                             u4025 09A6                             u3401 0837  
                           u3410 0891                             u4210 00B9                             u4130 0D5C  
                           u4050 0D14                             u3411 0890                             u4211 00B8  
                           u4131 0D5B                             u4115 0D49                             u4035 0977  
                           u3420 08A1                             u3324 0A0B                             u3340 0939  
                           u4220 00F3                             u4140 004E                             u4060 0D28  
                           u3500 0DBB                             u3421 08A0                             u3341 0938  
                           u4221 00F2                             u4141 004D                             u4061 0D27  
                           u3501 0DBA                             u3430 08A6                             u4310 0153  
                           u4150 0054                             u4070 0D2F                             u3350 17FE  
                           u3510 0DC2                             u3431 08A5                             u5007 0A26  
                           u3335 0A1B                             u4311 0152                             u4151 0053  
                           u4071 0D2E                             u4055 0D0F                             u3351 17FD  
                           u3511 0DC1                             u3440 08B1                             u4400 01CB  
                           u4160 0059                             u3280 1709                             u3360 1701  
                           u3520 0DEB                             u3441 08B0                             u5017 0A30  
                           u4401 01CA                             u4305 0148                             u4161 0058  
                           u3281 1708                             u3361 1700                             u3521 0DEA  
                           u4410 01E8                             u4330 0167                             u4250 0109  
                           u4170 0077                             u4090 0D3F                             u3290 170F  
                           u3450 0969                             u3610 0CCB                             u3530 0862  
                           u3370 081E            ?_read_external_eeprom 0070                             u4411 01E7  
                           u4331 0166                             u4251 0108                             u4235 00F5  
                           u4171 0076                             u4091 0D3E                             u3291 170E  
                           u3451 0968                             u3611 0CCA                             u3531 0861  
                           u3371 081D                             u3700 03FB                             u4420 01FD  
                           u4340 016C                             u4180 007D                             u3460 0D91  
                           u3540 0AAC                             u3701 03FA                             u4421 01FC  
                           u4405 01C7                             u4341 016B                             u4325 0156  
                           u4245 00FE                             u4181 007C                             u4085 0D31  
                           u3605 0CB2                             u3461 0D90                             u3541 0AAB  
                           u3710 0A72                             u4350 0180                             u4270 0125  
                           u4190 0082                             u4510 0EFD                             u4430 0E8C  
                           u3630 0CE9                             u3470 0DA0                             u3550 0ABE  
                           u3711 0A71                             u4415 01E4                             u4351 017F  
                           u4271 0124                             u4191 0081                             u4511 0EFC  
                           u4431 0E8B                             u3631 0CE8                             u3615 0CC7  
                           u3471 0D9F                             u3551 0ABD                             u3640 03C6  
                           u4600 0FA1                             u4360 0187                             u4280 013C  
                           u4520 0F03                             u4440 0E90                             u3800 0723  
                           u3480 0DA7                             u3560 0AD1                             u3641 03C5  
                           u4601 0FA0                             u4361 0186                             u4281 013B  
                           u4265 010C                             u4521 0F02                             u4505 0EF2  
                           u4441 0E8F                             u3801 0722                             u3625 0CDB  
                           u3385 0825                             u3481 0DA6                             u3561 0AD0  
                           u3730 0A82                             u4610 0FB2                             u4370 018D  
                           u4290 0144                             u4530 0F07                             u4450 0EB0  
                           u3810 072E                             u3570 0C9E                             u3490 0DB4  
                           u3731 0A81                             u4611 0FB1                             u4371 018C  
                           u4291 0143                             u4275 0121                             u4531 0F06  
                           u4451 0EAF                             u3811 072D                             u3571 0C9D  
                           u3395 082C                             u3491 0DB3                             u3660 03D6  
                           u3740 0A8C                             u4620 0FC2                             u4380 019F  
                           u4540 0F1C                             u3820 0735                             u4700 059C  
                           u3900 0E49                             u3661 03D5                             u3741 0A8B  
                           u3725 0A76                             u4621 0FC1                             u4381 019E  
                           u3821 0734                             u4701 059B                             u3901 0E48  
                           u4630 0FC9                             u4390 01AE                             u4550 0F2C  
                           u4470 0ECD                             u3830 075B                             u4710 05A9  
                           u3590 0CB0                             u3910 0E5D                             u3655 03CA  
                           u4631 0FC8                             u4551 0F2B                             u4471 0ECC  
                           u3831 075A                             u4711 05A8                             u3591 0CAF  
                           u3911 0E5C                             u3680 03E7                             u3760 0A9F  
                           u4640 0FF6                             u4560 0F30                             u4720 060E  
                           u3920 0E6F                             u4800 06E2                             u3681 03E6  
                           u3761 0A9E                             u3745 0A88                             u4641 0FF5  
                           u4561 0F2F                             u4545 0F17                             u4465 0EBF  
                           u4721 060D                             u4705 0598                             u3585 0CA3  
                           u3921 0E6E                             u4801 06E1                             u4570 0F4D  
                           u4490 0EED                             u4650 055C                             u3930 0E83  
                           u4810 06EE                             u4730 0696                             u3675 03D7  
                           u3755 0A93                             u4571 0F4C                             u4395 01A9  
                           u4491 0EEC                             u4651 055B                             u3931 0E82  
                           u4811 06ED                             u4731 0695                             u4580 0F67  
                           u3780 1772                             u4660 0563                             u3940 0C28  
                           u4820 06FB                             u4740 069B                             _RCEN 048B  
                           _RCIF 0065                             u3685 03E3                             u4581 0F66  
                           u4485 0EDF                             u3845 0B2B                             u3781 1771  
                           u4661 0562                             u3941 0C27                             u3925 0E6B  
                           u4821 06FA                             u4741 069A                             u3790 0BC9  
                           u4590 0F83                             u4670 0575                             u3870 0A3E  
                           u3950 0339                             u4830 0708                             u4750 06A3  
                           u3695 03EF                             u3791 0BC8                             u4591 0F82  
                           u3855 0B41                             u3775 1762                             u4671 0574  
                           u3871 0A3D                             u3951 0338                             u4831 0707  
                           u4751 06A2                             u4680 0587                             u3960 033F  
                           u3880 0E01                             u4840 0714                             u4760 06B0  
                           u3865 0B58                             u4681 0586                             u3945 0C24  
                           u3961 033E                             u3881 0E00                             u4841 0713  
                           u4761 06AF                             u4690 058E                             u3970 035C  
                           u3890 0E43                             u4770 06B5                             u4850 0AF4  
                           u4691 058D                             u4675 0571                             u4907 1794  
                           u3971 035B                             u3891 0E42                             u4771 06B4  
                           u4851 0AF3                             u3980 037A                             u4780 06C1  
                           u4860 0AFB                             u4917 0C2D                             u3981 0379  
                           u4781 06C0                             u4861 0AFA                             u3990 0398  
                           u4790 06CE                             u4870 0B07                             u4927 0C3C  
                           u3991 0397                             u4791 06CD                             u4871 0B06  
                           u4880 0B0E                             u4937 0C4A                             u4881 0B0D  
                           u4947 0C60                             u4957 0C6C                             u4967 0C7A  
                           u4977 0C88                             u4897 0C0F                             u4987 0FDE  
                           u4997 0A11                             _TMR0 0001                             _SPEN 00C7  
                           _TXIF 0064                             _R_nW 04A2                             _main 0ADD  
                           _logs 00BE                             _time 005E                             btemp 007E  
                           start 000C                  ___fldiv@new_exp 0038                   clcd_write@byte 0075  
                 clcd_write@mode 0072                    _i2c_rep_start 16D7                            ??_isr 0070  
                   ?_init_ds1307 0070                    ___fltol@sign1 0048                            ?_main 0070  
                   ?_read_ds1307 0070                            _ACKEN 048C                            _ACKDT 048D  
                 ??_display_time 0020                  __end_of___fldiv 020A                            STR_10 0529  
                          STR_11 052C                            STR_20 051D                            STR_12 0535  
                          STR_21 0464                            STR_13 0520                            STR_22 051D  
                          STR_30 0400                            STR_14 04A8                            STR_31 0464  
                          STR_23 0464                            STR_15 04B7                            STR_32 0464  
                          STR_24 0515                            STR_16 04D5                            STR_33 0464  
                          STR_25 0502                            STR_17 0499                            STR_26 0445  
                          STR_34 0412                            STR_18 04C6                            STR_19 0434  
                          STR_27 0423                            STR_28 050C                            STR_29 04E4  
                __end_of___fltol 0D68                  __end_of___lldiv 0CF2                      i2c_read@ack 0072  
                __end_of___lwdiv 0400                  __end_of___lwmod 0AA4                            i1l419 0884  
                   ?_init_config 0070                            _RCREG 001A                            _SPBRG 0099  
                          _PORTB 0006                            _PORTD 0008                            _SSPM3 00A3  
                          _TRISB 0086                            _TRISD 0088                            _SSPEN 00A5  
                          _TXREG 0019                     ?_init_timer0 0070                      _write_event 071A  
                          _nDONE 00FA        write_external_eeprom@data 0073             __end_of_clear_screen 16B3  
      write_external_eeprom@wait 0075                            _delay 006D                            _index 005B  
                          _event 00A0                            _speed 0067                            btemp0 007E  
                          btemp1 007F                            _put_s 083D                            pclath 000A  
                          status 0003            _user_entered_password 004D                            wtemp0 007E  
               init_ds1307@dummy 0076                  __initialization 000F                   ?_i2c_rep_start 0070  
         ?_write_external_eeprom 0073                     __end_of_main 0B23                 __end_of_i2c_read 17DD  
               __end_of_i2c_stop 16CD                    ?_download_log 0070                           ??_main 007A  
                   put_char@data 0072                           _ADCON0 001F           ??_read_external_eeprom 0074  
                         _ADRESH 001E                           _ADRESL 009E                           ?_put_s 0073  
                   i2c_read@data 0073                           i1l2960 0863                           i1l2962 0867  
                         i1l2964 087B                           i1l2966 087D                           i1l2968 0883  
                         u322_20 0867                           u322_21 0866                           u323_20 087B  
                         u323_21 087A                     _write_ds1307 1722                           _TMR0IE 005D  
                         _TMR0IF 005A                           _SSPADD 0093                           _TRISE1 0449  
                         _TRISE2 044A                           _SSPBUF 0013                 __end_of___xxtofl 0F3A  
    __end_of_init_digital_keypad 16A4                 __end_of_get_time 17BC          _init_display_controller 0C29  
                         _access 005D                           ___wmul 0818                        ??___fldiv 002E  
                      ??___fltol 0044                        ??___lldiv 0020                        ??___lwdiv 0076  
                      ??___lwmod 0076                 __end_of_init_i2c 09CC                 __end_of_init_adc 16AB  
               __end_of_read_adc 177D                   ??_download_log 002A                    main@operation 00DB  
                   main_menu@key 0032                 __end_of_set_time 03BE                           ltemp0a 0080  
                         saved_w 007E                 __end_of_view_log 0E84                 __end_of_put_char 1703  
                         put_s@s 0073                           ttemp0a 007F                      read_event@i 0020  
                         wtemp0a 007F                     ___xxtofl@arg 0022                     ___xxtofl@exp 0021  
                   ___xxtofl@val 0072                     auth_user@key 0024          __end_of__initialization 003C  
           __end_of_display_time 0B75                       ___fltol@f1 0040                  ??_i2c_rep_start 0072  
                 __pcstackCOMMON 0070                     __pidataBANK0 07FD                     __pidataBANK1 1740  
                  __end_of_put_s 0863                __end_of_i2c_start 16C4                __end_of_i2c_write 16ED  
              _i2c_wait_for_idle 1703                          ??_put_s 0075               ?_i2c_wait_for_idle 0070  
                     __pbssBANK0 004D                       __pbssBANK1 00BE                        ?_i2c_read 0070  
                      ?_i2c_stop 0070        ??_init_display_controller 0076                       _clcd_print 090B  
            ??_i2c_wait_for_idle 0072                       _clcd_putch 07E8                       _clcd_write 0A00  
   write_external_eeprom@address 0074                       __pmaintext 0ADD                  read_ds1307@addr 0074  
                read_ds1307@data 0075                     _clear_screen 16AB                          ?___wmul 0072  
                     __pintentry 0004                          _ACKSTAT 048E      __end_of_read_digital_keypad 08B5  
                      ?___xxtofl 0072        __end_of_i2c_wait_for_idle 1710                     ?_write_event 0070  
                   init_i2c@baud 0026                          _SSPCON2 0091                        ?_get_time 0076  
                     __stringtab 1000                       ??_i2c_read 0072                __end_of_dashboard 0645  
                     ??_i2c_stop 0072                        ?_init_i2c 0026             __end_of_download_log 0C29  
                      ?_init_adc 0070                        ?_read_adc 0072                __end_of_clear_log 179C  
                     _attempt_no 0059          ??_write_external_eeprom 0074                        ?_set_time 0070  
                        ___fldiv 0040                        ?_view_log 0070                          ___fltol 0CF2  
                        ___lldiv 0C8C                        ?_put_char 0070                          _adc_val 0057  
                        ___lwdiv 03BE                          ___lwmod 0A6C                __end_of_main_menu 071A  
              __end_of_auth_user 1000                       _read_event 17DD                          __ptext1 0645  
                        __ptext2 0DEF                          __ptext3 020A                          __ptext4 0AA4  
                        __ptext5 0A36                          __ptext6 0BCE                          __ptext7 0D68  
                        __ptext8 17DD                          __ptext9 08E0  __end_of_init_display_controller 0C8C  
              __end_of_init_clcd 16F8                       ??___xxtofl 0076                __end_of_init_uart 099A  
         read_and_format_log@col 0025           read_and_format_log@log 0024                          main@key 00DA  
                        clrloop0 16B4                       ??_get_time 0077             end_of_initialization 003C  
                  main_menu@star 0033                      set_time@key 002C                      set_time@min 0028  
                    set_time@sec 002A                       ??_init_i2c 002A                       ??_init_adc 0072  
                     ??_read_adc 0074                      ?_clcd_print 0076                      ?_clcd_putch 0079  
                ___lldiv@divisor 0072                      ?_clcd_write 0072                  ___lldiv@counter 0025  
                     ??_set_time 0022                       ??_view_log 002A                __end_of_run_delay 0BCE  
                     ??_put_char 0072                     __pstringtext 0400                _original_password 00BA  
                read_adc@channel 0075                     _display_time 0B23                       _print_star 0A36  
                  i2c_write@data 0072                    ___xxtofl@sign 0020                      ___fldiv@grs 003A  
                    ___fldiv@rem 0033                    clcd_print@str 0076         read_external_eeprom@data 0075  
                   write_event@i 0077                   __end_of___wmul 083D                      ?_read_event 0078  
                    view_log@key 002C                       auth_user@i 0025              start_initialization 000F  
                      _i2c_start 16BB                      __end_of_isr 088B                        _i2c_write 16E2  
            _read_and_format_log 0D68            __end_of_i2c_rep_start 16E2             ?_read_and_format_log 0070  
                       ??___wmul 0076                       init_fetch0 0805                    ??_init_ds1307 0076  
                    __pdataBANK0 006D                      __pdataBANK1 00A0                    ??_read_ds1307 0074  
                   _download_log 0BCE                    ??_init_config 007A                        ___fldiv@a 0026  
                      ___fldiv@b 002A                      ?_print_star 0020                    ??_init_timer0 0072  
                    __pbssCOMMON 007A                        ___latbits 0002                    __pcstackBANK0 0020  
                  __pcstackBANK1 00DA                       ?_i2c_start 0070                       ?_i2c_write 0070  
                      _dashboard 0538                 ___lwdiv@dividend 0074    __end_of_write_external_eeprom 096A  
                      _clear_log 177D            ??_read_and_format_log 0022                         ?___fldiv 0026  
                       ?___fltol 0040                         ?___lldiv 0072                         ?___lwdiv 0072  
                      _clock_reg 006A                         ?___lwmod 0072              main_menu@menu_index 0036  
                      __pstrings 1000                        _main_menu 0645              __end_of_init_ds1307 1722  
                      _auth_user 0F3A                     _menu_options 00B0              read_adc@adc_reg_val 0076  
            __end_of_read_ds1307 08E0                 ___lwdiv@quotient 0077                        _init_clcd 16ED  
            __end_of_init_config 0A00                _display_indicator 0AA4                        _init_uart 096A  
         main_menu@selected_menu 0034                    ?_write_ds1307 0073              __end_of_init_timer0 16D7  
       ?_init_display_controller 0070               ?_display_indicator 0020                interrupt_function 0004  
                 ___wmul@product 0076         read_and_format_log@index 0027      read_external_eeprom@address 0074  
                      clear_ram0 16B3                     ??_clcd_print 0079                     ??_clcd_putch 007A  
                   ??_clcd_write 0073                       ?_dashboard 0070              ??_display_indicator 0079  
                     ?_clear_log 0070                     dashboard@key 004C                 view_log@curr_log 002E  
                  download_log@i 002D                      __stringbase 1012                ___wmul@multiplier 0072  
                      _run_delay 0B75                       ?_main_menu 0070                       ?_auth_user 0070  
      __end_of_display_indicator 0ADD                      ??_i2c_start 0072               __end_of_clcd_print 093A  
                    ??_i2c_write 0072               __end_of_clcd_putch 07FD               __end_of_clcd_write 0A36  
                     ?_init_clcd 0070                       ?_init_uart 0026                   ??_write_ds1307 0074  
            _init_digital_keypad 169E                         _i2c_read 17BC                         _i2c_stop 16C4  
              get_time@clock_reg 0076               write_event@address 0053     __end_of_read_external_eeprom 090B  
              set_time@indicator 002D                  read_event@event 00CF             ?_init_digital_keypad 0070  
                    _init_ds1307 1710                      _event_count 0055                     ??_read_event 007A  
             __end_of__stringtab 1012                      _read_ds1307 08B5                       ?_run_delay 0070  
                    _init_config 09CC                         ___xxtofl 0E84                      _init_timer0 16CD  
                ___lwdiv@divisor 0072                  ___lwdiv@counter 0076                         __ptext10 0818  
                       __ptext11 083D                         __ptext20 1722                         __ptext12 16F8  
                       __ptext21 169E                         __ptext13 16AB                         __ptext30 08B5  
                       __ptext22 16ED                         __ptext14 177D                         __ptext31 16E2  
                       __ptext23 0C29                         __ptext15 09CC                         __ptext40 0040  
                       __ptext32 16D7                         __ptext24 16A4                         __ptext16 096A  
                       __ptext41 0F3A                         __ptext33 16C4                         __ptext25 0538  
                       __ptext17 099A                         __ptext50 0863                         __ptext42 0B75  
                       __ptext34 16BB                         __ptext26 071A                         __ptext18 0C8C  
                       __ptext43 16CD                         __ptext35 17BC                         __ptext27 093A  
                       __ptext19 1710                         __ptext44 07E8                         __ptext36 1703  
                       __ptext28 175E                         __ptext45 090B                         __ptext37 0B23  
                       __ptext29 179C                         __ptext46 0A00                         __ptext38 0E84  
                       __ptext47 0A6C                         __ptext39 0CF2                         __ptext48 03BE  
                       __ptext49 088B                         _get_time 179C                         _init_i2c 099A  
                       _init_adc 16A4                         _read_adc 175E          read_digital_keypad@mode 0073  
        read_digital_keypad@once 006F             read_and_format_log@i 0028               __end_of_read_event 1800  
                    ??_dashboard 004A            display_time@clock_reg 0079                      ??_clear_log 0020  
                  ?_clear_screen 0070                         _set_time 020A                         _view_log 0DEF  
          ??_init_digital_keypad 0072                         _put_char 16F8             display_indicator@pos 0020  
                   ??_print_star 0079                      ??_main_menu 0030                      ??_auth_user 0021  
                  ??_write_event 0020                         isr@count 0051                     set_time@hour 0026  
                       init_ram0 0809                   read_event@addr 0078                      ??_init_clcd 0078  
                    ??_init_uart 002A                         intlevel1 0000                    init_uart@baud 0026  
               ___lwmod@dividend 0074                 ___lldiv@dividend 0076                        stringcode 100A  
                 ??_clear_screen 0076               __end_of_print_star 0A6C             __end_of_write_ds1307 1740  
            _read_digital_keypad 088B                      ??_run_delay 007A                 ___lldiv@quotient 0021  
                ___lwmod@divisor 0072                  ___lwmod@counter 0076                         stringtab 1000  
           ?_read_digital_keypad 0070                 write_ds1307@addr 0074                 write_ds1307@data 0073  
            __end_of_write_event 07E8             _read_external_eeprom 08E0      __end_of_read_and_format_log 0DEF  
