

Microchip MPLAB XC8 Assembler V3.10 build 20250813170317 
                                                                                               Thu Jul  2 18:45:14 2026

Microchip MPLAB XC8 C Compiler v3.10 (Free license) build 20250813170317 Og1 
     1                           	processor	16F877A
     2                           	pagewidth 120
     3                           	opt	flic
     4                           	psect	idataBANK0,global,class=CODE,space=0,delta=2,noexec
     5                           	psect	idataBANK1,global,class=CODE,space=0,delta=2,noexec
     6                           	psect	strings,global,class=STRING,space=0,delta=2,noexec
     7                           	psect	stringtext,global,reloc=256,class=STRCODE,space=0,delta=2,noexec
     8                           	psect	cinit,global,class=CODE,space=0,merge=1,delta=2
     9                           	psect	bssCOMMON,global,class=COMMON,space=1,delta=1,noexec
    10                           	psect	bssBANK0,global,class=BANK0,space=1,delta=1,noexec
    11                           	psect	dataBANK0,global,class=BANK0,space=1,delta=1,noexec
    12                           	psect	bssBANK1,global,class=BANK1,space=1,delta=1,noexec
    13                           	psect	dataBANK1,global,class=BANK1,space=1,delta=1,noexec
    14                           	psect	inittext,global,class=CODE,space=0,delta=2
    15                           	psect	clrtext,global,class=CODE,space=0,delta=2
    16                           	psect	cstackCOMMON,global,class=COMMON,space=1,delta=1,noexec
    17                           	psect	cstackBANK0,global,class=BANK0,space=1,delta=1,noexec
    18                           	psect	maintext,global,class=CODE,space=0,split=1,delta=2
    19                           	psect	text1,local,class=CODE,space=0,merge=1,delta=2
    20                           	psect	text2,local,class=CODE,space=0,merge=1,delta=2
    21                           	psect	text3,local,class=CODE,space=0,merge=1,delta=2
    22                           	psect	text4,local,class=CODE,space=0,merge=1,delta=2
    23                           	psect	text5,local,class=CODE,space=0,merge=1,delta=2
    24                           	psect	text6,local,class=CODE,space=0,merge=1,delta=2
    25                           	psect	text7,local,class=CODE,space=0,merge=1,delta=2
    26                           	psect	text8,local,class=CODE,space=0,merge=1,delta=2
    27                           	psect	text9,local,class=CODE,space=0,merge=1,delta=2
    28                           	psect	text10,local,class=CODE,space=0,merge=1,delta=2,group=1
    29                           	psect	text11,local,class=CODE,space=0,merge=1,delta=2
    30                           	psect	text12,local,class=CODE,space=0,merge=1,delta=2
    31                           	psect	text13,local,class=CODE,space=0,merge=1,delta=2
    32                           	psect	text14,local,class=CODE,space=0,merge=1,delta=2
    33                           	psect	text15,local,class=CODE,space=0,merge=1,delta=2,group=2
    34                           	psect	text16,local,class=CODE,space=0,merge=1,delta=2,group=2
    35                           	psect	text17,local,class=CODE,space=0,merge=1,delta=2
    36                           	psect	text18,local,class=CODE,space=0,merge=1,delta=2
    37                           	psect	text19,local,class=CODE,space=0,merge=1,delta=2
    38                           	psect	text20,local,class=CODE,space=0,merge=1,delta=2
    39                           	psect	text21,local,class=CODE,space=0,merge=1,delta=2
    40                           	psect	text22,local,class=CODE,space=0,merge=1,delta=2
    41                           	psect	text23,local,class=CODE,space=0,merge=1,delta=2
    42                           	psect	text24,local,class=CODE,space=0,merge=1,delta=2
    43                           	psect	text25,local,class=CODE,space=0,merge=1,delta=2
    44                           	psect	text26,local,class=CODE,space=0,merge=1,delta=2
    45                           	psect	text27,local,class=CODE,space=0,merge=1,delta=2
    46                           	psect	text28,local,class=CODE,space=0,merge=1,delta=2,group=1
    47                           	psect	text29,local,class=CODE,space=0,merge=1,delta=2
    48                           	psect	text30,local,class=CODE,space=0,merge=1,delta=2
    49                           	psect	text31,local,class=CODE,space=0,merge=1,delta=2
    50                           	psect	text32,local,class=CODE,space=0,merge=1,delta=2
    51                           	psect	text33,local,class=CODE,space=0,merge=1,delta=2
    52                           	psect	text34,local,class=CODE,space=0,merge=1,delta=2
    53                           	psect	text35,local,class=CODE,space=0,merge=1,delta=2
    54                           	psect	text36,local,class=CODE,space=0,merge=1,delta=2
    55                           	psect	text37,local,class=CODE,space=0,merge=1,delta=2
    56                           	psect	text38,local,class=CODE,space=0,merge=1,delta=2,group=1
    57                           	psect	text39,local,class=CODE,space=0,merge=1,delta=2
    58                           	psect	text40,local,class=CODE,space=0,merge=1,delta=2
    59                           	psect	text41,local,class=CODE,space=0,merge=1,delta=2
    60                           	psect	text42,local,class=CODE,space=0,merge=1,delta=2
    61                           	psect	text43,local,class=CODE,space=0,merge=1,delta=2
    62                           	psect	text44,local,class=CODE,space=0,merge=1,delta=2
    63                           	psect	text45,local,class=CODE,space=0,merge=1,delta=2
    64                           	psect	text46,local,class=CODE,space=0,merge=1,delta=2
    65                           	psect	text47,local,class=CODE,space=0,merge=1,delta=2
    66                           	psect	text48,local,class=CODE,space=0,merge=1,delta=2
    67                           	psect	text49,local,class=CODE,space=0,merge=1,delta=2
    68                           	psect	text50,local,class=CODE,space=0,merge=1,delta=2
    69                           	psect	text51,local,class=CODE,space=0,merge=1,delta=2,group=1
    70                           	psect	text52,local,class=CODE,space=0,merge=1,delta=2,group=1
    71                           	psect	text53,local,class=CODE,space=0,merge=1,delta=2,group=1
    72                           	psect	text54,local,class=CODE,space=0,merge=1,delta=2,group=1
    73                           	psect	text55,local,class=CODE,space=0,merge=1,delta=2
    74                           	psect	intentry,global,class=CODE,space=0,delta=2
    75                           	psect	idloc,global,abs,ovrld,class=IDLOC,space=5,delta=2,noexec
    76                           	psect	config,global,abs,ovrld,class=CONFIG,space=4,delta=2,noexec
    77                           	dabs	1,0x7E,2
    78     0000                     
    79                           ; Version 2.20
    80                           ; Generated 12/02/2020 GMT
    81                           ; 
    82                           ; Copyright © 2020, Microchip Technology Inc. and its subsidiaries ("Microchip")
    83                           ; All rights reserved.
    84                           ; 
    85                           ; This software is developed by Microchip Technology Inc. and its subsidiaries ("Microch
      +                          ip").
    86                           ; 
    87                           ; Redistribution and use in source and binary forms, with or without modification, are
    88                           ; permitted provided that the following conditions are met:
    89                           ; 
    90                           ;     1. Redistributions of source code must retain the above copyright notice, this lis
      +                          t of
    91                           ;        conditions and the following disclaimer.
    92                           ; 
    93                           ;     2. Redistributions in binary form must reproduce the above copyright notice, this 
      +                          list
    94                           ;        of conditions and the following disclaimer in the documentation and/or other
    95                           ;        materials provided with the distribution.
    96                           ; 
    97                           ;     3. Microchip's name may not be used to endorse or promote products derived from th
      +                          is
    98                           ;        software without specific prior written permission.
    99                           ; 
   100                           ; THIS SOFTWARE IS PROVIDED BY MICROCHIP "AS IS" AND ANY EXPRESS OR IMPLIED WARRANTIES,
   101                           ; INCLUDING, BUT NOT LIMITED TO, THE IMPLIED WARRANTIES OF MERCHANTABILITY AND FITNESS F
      +                          OR
   102                           ; PURPOSE ARE DISCLAIMED.  IN NO EVENT SHALL MICROCHIP BE LIABLE FOR ANY DIRECT, INDIREC
      +                          T,
   103                           ; INCIDENTAL, SPECIAL, EXEMPLARY, OR CONSEQUENTIAL DAMAGES (INCLUDING BUT NOT LIMITED TO
   104                           ; PROCUREMENT OF SUBSTITUTE GOODS OR SERVICES; LOSS OF USE, DATA OR PROFITS; OR BUSINESS
   105                           ; INTERRUPTION) HOWSOEVER CAUSED AND ON ANY THEORY OF LIABILITY, WHETHER IN CONTRACT, ST
      +                          RICT
   106                           ; LIABILITY, OR TORT (INCLUDING NEGLIGENCE OR OTHERWISE) ARISING IN ANY WAY OUT OF THE U
      +                          SE OF
   107                           ; THIS SOFTWARE, EVEN IF ADVISED OF THE POSSIBILITY OF SUCH DAMAGE.
   108                           ; 
   109                           ; 
   110                           ; Code-generator required, PIC16F877A Definitions
   111                           ; 
   112                           ; SFR Addresses
   113     0004                     fsr             equ	4
   114     0004                     fsr0            equ	4
   115     0000                     indf            equ	0
   116     0000                     indf0           equ	0
   117     0002                     pc              equ	2
   118     0002                     pcl             equ	2
   119     000A                     pclath          equ	10
   120     0003                     status          equ	3
   121     0000                     INDF            equ	0	;# 
   122     0001                     TMR0            equ	1	;# 
   123     0002                     PCL             equ	2	;# 
   124     0003                     STATUS          equ	3	;# 
   125     0004                     FSR             equ	4	;# 
   126     0005                     PORTA           equ	5	;# 
   127     0006                     PORTB           equ	6	;# 
   128     0007                     PORTC           equ	7	;# 
   129     0008                     PORTD           equ	8	;# 
   130     0009                     PORTE           equ	9	;# 
   131     000A                     PCLATH          equ	10	;# 
   132     000B                     INTCON          equ	11	;# 
   133     000C                     PIR1            equ	12	;# 
   134     000D                     PIR2            equ	13	;# 
   135     000E                     TMR1            equ	14	;# 
   136     000E                     TMR1L           equ	14	;# 
   137     000F                     TMR1H           equ	15	;# 
   138     0010                     T1CON           equ	16	;# 
   139     0011                     TMR2            equ	17	;# 
   140     0012                     T2CON           equ	18	;# 
   141     0013                     SSPBUF          equ	19	;# 
   142     0014                     SSPCON          equ	20	;# 
   143     0015                     CCPR1           equ	21	;# 
   144     0015                     CCPR1L          equ	21	;# 
   145     0016                     CCPR1H          equ	22	;# 
   146     0017                     CCP1CON         equ	23	;# 
   147     0018                     RCSTA           equ	24	;# 
   148     0019                     TXREG           equ	25	;# 
   149     001A                     RCREG           equ	26	;# 
   150     001B                     CCPR2           equ	27	;# 
   151     001B                     CCPR2L          equ	27	;# 
   152     001C                     CCPR2H          equ	28	;# 
   153     001D                     CCP2CON         equ	29	;# 
   154     001E                     ADRESH          equ	30	;# 
   155     001F                     ADCON0          equ	31	;# 
   156     0081                     OPTION_REG      equ	129	;# 
   157     0085                     TRISA           equ	133	;# 
   158     0086                     TRISB           equ	134	;# 
   159     0087                     TRISC           equ	135	;# 
   160     0088                     TRISD           equ	136	;# 
   161     0089                     TRISE           equ	137	;# 
   162     008C                     PIE1            equ	140	;# 
   163     008D                     PIE2            equ	141	;# 
   164     008E                     PCON            equ	142	;# 
   165     0091                     SSPCON2         equ	145	;# 
   166     0092                     PR2             equ	146	;# 
   167     0093                     SSPADD          equ	147	;# 
   168     0094                     SSPSTAT         equ	148	;# 
   169     0098                     TXSTA           equ	152	;# 
   170     0099                     SPBRG           equ	153	;# 
   171     009C                     CMCON           equ	156	;# 
   172     009D                     CVRCON          equ	157	;# 
   173     009E                     ADRESL          equ	158	;# 
   174     009F                     ADCON1          equ	159	;# 
   175     010C                     EEDATA          equ	268	;# 
   176     010D                     EEADR           equ	269	;# 
   177     010E                     EEDATH          equ	270	;# 
   178     010F                     EEADRH          equ	271	;# 
   179     018C                     EECON1          equ	396	;# 
   180     018D                     EECON2          equ	397	;# 
   181     0000                     INDF            equ	0	;# 
   182     0001                     TMR0            equ	1	;# 
   183     0002                     PCL             equ	2	;# 
   184     0003                     STATUS          equ	3	;# 
   185     0004                     FSR             equ	4	;# 
   186     0005                     PORTA           equ	5	;# 
   187     0006                     PORTB           equ	6	;# 
   188     0007                     PORTC           equ	7	;# 
   189     0008                     PORTD           equ	8	;# 
   190     0009                     PORTE           equ	9	;# 
   191     000A                     PCLATH          equ	10	;# 
   192     000B                     INTCON          equ	11	;# 
   193     000C                     PIR1            equ	12	;# 
   194     000D                     PIR2            equ	13	;# 
   195     000E                     TMR1            equ	14	;# 
   196     000E                     TMR1L           equ	14	;# 
   197     000F                     TMR1H           equ	15	;# 
   198     0010                     T1CON           equ	16	;# 
   199     0011                     TMR2            equ	17	;# 
   200     0012                     T2CON           equ	18	;# 
   201     0013                     SSPBUF          equ	19	;# 
   202     0014                     SSPCON          equ	20	;# 
   203     0015                     CCPR1           equ	21	;# 
   204     0015                     CCPR1L          equ	21	;# 
   205     0016                     CCPR1H          equ	22	;# 
   206     0017                     CCP1CON         equ	23	;# 
   207     0018                     RCSTA           equ	24	;# 
   208     0019                     TXREG           equ	25	;# 
   209     001A                     RCREG           equ	26	;# 
   210     001B                     CCPR2           equ	27	;# 
   211     001B                     CCPR2L          equ	27	;# 
   212     001C                     CCPR2H          equ	28	;# 
   213     001D                     CCP2CON         equ	29	;# 
   214     001E                     ADRESH          equ	30	;# 
   215     001F                     ADCON0          equ	31	;# 
   216     0081                     OPTION_REG      equ	129	;# 
   217     0085                     TRISA           equ	133	;# 
   218     0086                     TRISB           equ	134	;# 
   219     0087                     TRISC           equ	135	;# 
   220     0088                     TRISD           equ	136	;# 
   221     0089                     TRISE           equ	137	;# 
   222     008C                     PIE1            equ	140	;# 
   223     008D                     PIE2            equ	141	;# 
   224     008E                     PCON            equ	142	;# 
   225     0091                     SSPCON2         equ	145	;# 
   226     0092                     PR2             equ	146	;# 
   227     0093                     SSPADD          equ	147	;# 
   228     0094                     SSPSTAT         equ	148	;# 
   229     0098                     TXSTA           equ	152	;# 
   230     0099                     SPBRG           equ	153	;# 
   231     009C                     CMCON           equ	156	;# 
   232     009D                     CVRCON          equ	157	;# 
   233     009E                     ADRESL          equ	158	;# 
   234     009F                     ADCON1          equ	159	;# 
   235     010C                     EEDATA          equ	268	;# 
   236     010D                     EEADR           equ	269	;# 
   237     010E                     EEDATH          equ	270	;# 
   238     010F                     EEADRH          equ	271	;# 
   239     018C                     EECON1          equ	396	;# 
   240     018D                     EECON2          equ	397	;# 
   241     0000                     INDF            equ	0	;# 
   242     0001                     TMR0            equ	1	;# 
   243     0002                     PCL             equ	2	;# 
   244     0003                     STATUS          equ	3	;# 
   245     0004                     FSR             equ	4	;# 
   246     0005                     PORTA           equ	5	;# 
   247     0006                     PORTB           equ	6	;# 
   248     0007                     PORTC           equ	7	;# 
   249     0008                     PORTD           equ	8	;# 
   250     0009                     PORTE           equ	9	;# 
   251     000A                     PCLATH          equ	10	;# 
   252     000B                     INTCON          equ	11	;# 
   253     000C                     PIR1            equ	12	;# 
   254     000D                     PIR2            equ	13	;# 
   255     000E                     TMR1            equ	14	;# 
   256     000E                     TMR1L           equ	14	;# 
   257     000F                     TMR1H           equ	15	;# 
   258     0010                     T1CON           equ	16	;# 
   259     0011                     TMR2            equ	17	;# 
   260     0012                     T2CON           equ	18	;# 
   261     0013                     SSPBUF          equ	19	;# 
   262     0014                     SSPCON          equ	20	;# 
   263     0015                     CCPR1           equ	21	;# 
   264     0015                     CCPR1L          equ	21	;# 
   265     0016                     CCPR1H          equ	22	;# 
   266     0017                     CCP1CON         equ	23	;# 
   267     0018                     RCSTA           equ	24	;# 
   268     0019                     TXREG           equ	25	;# 
   269     001A                     RCREG           equ	26	;# 
   270     001B                     CCPR2           equ	27	;# 
   271     001B                     CCPR2L          equ	27	;# 
   272     001C                     CCPR2H          equ	28	;# 
   273     001D                     CCP2CON         equ	29	;# 
   274     001E                     ADRESH          equ	30	;# 
   275     001F                     ADCON0          equ	31	;# 
   276     0081                     OPTION_REG      equ	129	;# 
   277     0085                     TRISA           equ	133	;# 
   278     0086                     TRISB           equ	134	;# 
   279     0087                     TRISC           equ	135	;# 
   280     0088                     TRISD           equ	136	;# 
   281     0089                     TRISE           equ	137	;# 
   282     008C                     PIE1            equ	140	;# 
   283     008D                     PIE2            equ	141	;# 
   284     008E                     PCON            equ	142	;# 
   285     0091                     SSPCON2         equ	145	;# 
   286     0092                     PR2             equ	146	;# 
   287     0093                     SSPADD          equ	147	;# 
   288     0094                     SSPSTAT         equ	148	;# 
   289     0098                     TXSTA           equ	152	;# 
   290     0099                     SPBRG           equ	153	;# 
   291     009C                     CMCON           equ	156	;# 
   292     009D                     CVRCON          equ	157	;# 
   293     009E                     ADRESL          equ	158	;# 
   294     009F                     ADCON1          equ	159	;# 
   295     010C                     EEDATA          equ	268	;# 
   296     010D                     EEADR           equ	269	;# 
   297     010E                     EEDATH          equ	270	;# 
   298     010F                     EEADRH          equ	271	;# 
   299     018C                     EECON1          equ	396	;# 
   300     018D                     EECON2          equ	397	;# 
   301     0000                     INDF            equ	0	;# 
   302     0001                     TMR0            equ	1	;# 
   303     0002                     PCL             equ	2	;# 
   304     0003                     STATUS          equ	3	;# 
   305     0004                     FSR             equ	4	;# 
   306     0005                     PORTA           equ	5	;# 
   307     0006                     PORTB           equ	6	;# 
   308     0007                     PORTC           equ	7	;# 
   309     0008                     PORTD           equ	8	;# 
   310     0009                     PORTE           equ	9	;# 
   311     000A                     PCLATH          equ	10	;# 
   312     000B                     INTCON          equ	11	;# 
   313     000C                     PIR1            equ	12	;# 
   314     000D                     PIR2            equ	13	;# 
   315     000E                     TMR1            equ	14	;# 
   316     000E                     TMR1L           equ	14	;# 
   317     000F                     TMR1H           equ	15	;# 
   318     0010                     T1CON           equ	16	;# 
   319     0011                     TMR2            equ	17	;# 
   320     0012                     T2CON           equ	18	;# 
   321     0013                     SSPBUF          equ	19	;# 
   322     0014                     SSPCON          equ	20	;# 
   323     0015                     CCPR1           equ	21	;# 
   324     0015                     CCPR1L          equ	21	;# 
   325     0016                     CCPR1H          equ	22	;# 
   326     0017                     CCP1CON         equ	23	;# 
   327     0018                     RCSTA           equ	24	;# 
   328     0019                     TXREG           equ	25	;# 
   329     001A                     RCREG           equ	26	;# 
   330     001B                     CCPR2           equ	27	;# 
   331     001B                     CCPR2L          equ	27	;# 
   332     001C                     CCPR2H          equ	28	;# 
   333     001D                     CCP2CON         equ	29	;# 
   334     001E                     ADRESH          equ	30	;# 
   335     001F                     ADCON0          equ	31	;# 
   336     0081                     OPTION_REG      equ	129	;# 
   337     0085                     TRISA           equ	133	;# 
   338     0086                     TRISB           equ	134	;# 
   339     0087                     TRISC           equ	135	;# 
   340     0088                     TRISD           equ	136	;# 
   341     0089                     TRISE           equ	137	;# 
   342     008C                     PIE1            equ	140	;# 
   343     008D                     PIE2            equ	141	;# 
   344     008E                     PCON            equ	142	;# 
   345     0091                     SSPCON2         equ	145	;# 
   346     0092                     PR2             equ	146	;# 
   347     0093                     SSPADD          equ	147	;# 
   348     0094                     SSPSTAT         equ	148	;# 
   349     0098                     TXSTA           equ	152	;# 
   350     0099                     SPBRG           equ	153	;# 
   351     009C                     CMCON           equ	156	;# 
   352     009D                     CVRCON          equ	157	;# 
   353     009E                     ADRESL          equ	158	;# 
   354     009F                     ADCON1          equ	159	;# 
   355     010C                     EEDATA          equ	268	;# 
   356     010D                     EEADR           equ	269	;# 
   357     010E                     EEDATH          equ	270	;# 
   358     010F                     EEADRH          equ	271	;# 
   359     018C                     EECON1          equ	396	;# 
   360     018D                     EECON2          equ	397	;# 
   361     0000                     INDF            equ	0	;# 
   362     0001                     TMR0            equ	1	;# 
   363     0002                     PCL             equ	2	;# 
   364     0003                     STATUS          equ	3	;# 
   365     0004                     FSR             equ	4	;# 
   366     0005                     PORTA           equ	5	;# 
   367     0006                     PORTB           equ	6	;# 
   368     0007                     PORTC           equ	7	;# 
   369     0008                     PORTD           equ	8	;# 
   370     0009                     PORTE           equ	9	;# 
   371     000A                     PCLATH          equ	10	;# 
   372     000B                     INTCON          equ	11	;# 
   373     000C                     PIR1            equ	12	;# 
   374     000D                     PIR2            equ	13	;# 
   375     000E                     TMR1            equ	14	;# 
   376     000E                     TMR1L           equ	14	;# 
   377     000F                     TMR1H           equ	15	;# 
   378     0010                     T1CON           equ	16	;# 
   379     0011                     TMR2            equ	17	;# 
   380     0012                     T2CON           equ	18	;# 
   381     0013                     SSPBUF          equ	19	;# 
   382     0014                     SSPCON          equ	20	;# 
   383     0015                     CCPR1           equ	21	;# 
   384     0015                     CCPR1L          equ	21	;# 
   385     0016                     CCPR1H          equ	22	;# 
   386     0017                     CCP1CON         equ	23	;# 
   387     0018                     RCSTA           equ	24	;# 
   388     0019                     TXREG           equ	25	;# 
   389     001A                     RCREG           equ	26	;# 
   390     001B                     CCPR2           equ	27	;# 
   391     001B                     CCPR2L          equ	27	;# 
   392     001C                     CCPR2H          equ	28	;# 
   393     001D                     CCP2CON         equ	29	;# 
   394     001E                     ADRESH          equ	30	;# 
   395     001F                     ADCON0          equ	31	;# 
   396     0081                     OPTION_REG      equ	129	;# 
   397     0085                     TRISA           equ	133	;# 
   398     0086                     TRISB           equ	134	;# 
   399     0087                     TRISC           equ	135	;# 
   400     0088                     TRISD           equ	136	;# 
   401     0089                     TRISE           equ	137	;# 
   402     008C                     PIE1            equ	140	;# 
   403     008D                     PIE2            equ	141	;# 
   404     008E                     PCON            equ	142	;# 
   405     0091                     SSPCON2         equ	145	;# 
   406     0092                     PR2             equ	146	;# 
   407     0093                     SSPADD          equ	147	;# 
   408     0094                     SSPSTAT         equ	148	;# 
   409     0098                     TXSTA           equ	152	;# 
   410     0099                     SPBRG           equ	153	;# 
   411     009C                     CMCON           equ	156	;# 
   412     009D                     CVRCON          equ	157	;# 
   413     009E                     ADRESL          equ	158	;# 
   414     009F                     ADCON1          equ	159	;# 
   415     010C                     EEDATA          equ	268	;# 
   416     010D                     EEADR           equ	269	;# 
   417     010E                     EEDATH          equ	270	;# 
   418     010F                     EEADRH          equ	271	;# 
   419     018C                     EECON1          equ	396	;# 
   420     018D                     EECON2          equ	397	;# 
   421     0000                     INDF            equ	0	;# 
   422     0001                     TMR0            equ	1	;# 
   423     0002                     PCL             equ	2	;# 
   424     0003                     STATUS          equ	3	;# 
   425     0004                     FSR             equ	4	;# 
   426     0005                     PORTA           equ	5	;# 
   427     0006                     PORTB           equ	6	;# 
   428     0007                     PORTC           equ	7	;# 
   429     0008                     PORTD           equ	8	;# 
   430     0009                     PORTE           equ	9	;# 
   431     000A                     PCLATH          equ	10	;# 
   432     000B                     INTCON          equ	11	;# 
   433     000C                     PIR1            equ	12	;# 
   434     000D                     PIR2            equ	13	;# 
   435     000E                     TMR1            equ	14	;# 
   436     000E                     TMR1L           equ	14	;# 
   437     000F                     TMR1H           equ	15	;# 
   438     0010                     T1CON           equ	16	;# 
   439     0011                     TMR2            equ	17	;# 
   440     0012                     T2CON           equ	18	;# 
   441     0013                     SSPBUF          equ	19	;# 
   442     0014                     SSPCON          equ	20	;# 
   443     0015                     CCPR1           equ	21	;# 
   444     0015                     CCPR1L          equ	21	;# 
   445     0016                     CCPR1H          equ	22	;# 
   446     0017                     CCP1CON         equ	23	;# 
   447     0018                     RCSTA           equ	24	;# 
   448     0019                     TXREG           equ	25	;# 
   449     001A                     RCREG           equ	26	;# 
   450     001B                     CCPR2           equ	27	;# 
   451     001B                     CCPR2L          equ	27	;# 
   452     001C                     CCPR2H          equ	28	;# 
   453     001D                     CCP2CON         equ	29	;# 
   454     001E                     ADRESH          equ	30	;# 
   455     001F                     ADCON0          equ	31	;# 
   456     0081                     OPTION_REG      equ	129	;# 
   457     0085                     TRISA           equ	133	;# 
   458     0086                     TRISB           equ	134	;# 
   459     0087                     TRISC           equ	135	;# 
   460     0088                     TRISD           equ	136	;# 
   461     0089                     TRISE           equ	137	;# 
   462     008C                     PIE1            equ	140	;# 
   463     008D                     PIE2            equ	141	;# 
   464     008E                     PCON            equ	142	;# 
   465     0091                     SSPCON2         equ	145	;# 
   466     0092                     PR2             equ	146	;# 
   467     0093                     SSPADD          equ	147	;# 
   468     0094                     SSPSTAT         equ	148	;# 
   469     0098                     TXSTA           equ	152	;# 
   470     0099                     SPBRG           equ	153	;# 
   471     009C                     CMCON           equ	156	;# 
   472     009D                     CVRCON          equ	157	;# 
   473     009E                     ADRESL          equ	158	;# 
   474     009F                     ADCON1          equ	159	;# 
   475     010C                     EEDATA          equ	268	;# 
   476     010D                     EEADR           equ	269	;# 
   477     010E                     EEDATH          equ	270	;# 
   478     010F                     EEADRH          equ	271	;# 
   479     018C                     EECON1          equ	396	;# 
   480     018D                     EECON2          equ	397	;# 
   481     0000                     INDF            equ	0	;# 
   482     0001                     TMR0            equ	1	;# 
   483     0002                     PCL             equ	2	;# 
   484     0003                     STATUS          equ	3	;# 
   485     0004                     FSR             equ	4	;# 
   486     0005                     PORTA           equ	5	;# 
   487     0006                     PORTB           equ	6	;# 
   488     0007                     PORTC           equ	7	;# 
   489     0008                     PORTD           equ	8	;# 
   490     0009                     PORTE           equ	9	;# 
   491     000A                     PCLATH          equ	10	;# 
   492     000B                     INTCON          equ	11	;# 
   493     000C                     PIR1            equ	12	;# 
   494     000D                     PIR2            equ	13	;# 
   495     000E                     TMR1            equ	14	;# 
   496     000E                     TMR1L           equ	14	;# 
   497     000F                     TMR1H           equ	15	;# 
   498     0010                     T1CON           equ	16	;# 
   499     0011                     TMR2            equ	17	;# 
   500     0012                     T2CON           equ	18	;# 
   501     0013                     SSPBUF          equ	19	;# 
   502     0014                     SSPCON          equ	20	;# 
   503     0015                     CCPR1           equ	21	;# 
   504     0015                     CCPR1L          equ	21	;# 
   505     0016                     CCPR1H          equ	22	;# 
   506     0017                     CCP1CON         equ	23	;# 
   507     0018                     RCSTA           equ	24	;# 
   508     0019                     TXREG           equ	25	;# 
   509     001A                     RCREG           equ	26	;# 
   510     001B                     CCPR2           equ	27	;# 
   511     001B                     CCPR2L          equ	27	;# 
   512     001C                     CCPR2H          equ	28	;# 
   513     001D                     CCP2CON         equ	29	;# 
   514     001E                     ADRESH          equ	30	;# 
   515     001F                     ADCON0          equ	31	;# 
   516     0081                     OPTION_REG      equ	129	;# 
   517     0085                     TRISA           equ	133	;# 
   518     0086                     TRISB           equ	134	;# 
   519     0087                     TRISC           equ	135	;# 
   520     0088                     TRISD           equ	136	;# 
   521     0089                     TRISE           equ	137	;# 
   522     008C                     PIE1            equ	140	;# 
   523     008D                     PIE2            equ	141	;# 
   524     008E                     PCON            equ	142	;# 
   525     0091                     SSPCON2         equ	145	;# 
   526     0092                     PR2             equ	146	;# 
   527     0093                     SSPADD          equ	147	;# 
   528     0094                     SSPSTAT         equ	148	;# 
   529     0098                     TXSTA           equ	152	;# 
   530     0099                     SPBRG           equ	153	;# 
   531     009C                     CMCON           equ	156	;# 
   532     009D                     CVRCON          equ	157	;# 
   533     009E                     ADRESL          equ	158	;# 
   534     009F                     ADCON1          equ	159	;# 
   535     010C                     EEDATA          equ	268	;# 
   536     010D                     EEADR           equ	269	;# 
   537     010E                     EEDATH          equ	270	;# 
   538     010F                     EEADRH          equ	271	;# 
   539     018C                     EECON1          equ	396	;# 
   540     018D                     EECON2          equ	397	;# 
   541     0000                     INDF            equ	0	;# 
   542     0001                     TMR0            equ	1	;# 
   543     0002                     PCL             equ	2	;# 
   544     0003                     STATUS          equ	3	;# 
   545     0004                     FSR             equ	4	;# 
   546     0005                     PORTA           equ	5	;# 
   547     0006                     PORTB           equ	6	;# 
   548     0007                     PORTC           equ	7	;# 
   549     0008                     PORTD           equ	8	;# 
   550     0009                     PORTE           equ	9	;# 
   551     000A                     PCLATH          equ	10	;# 
   552     000B                     INTCON          equ	11	;# 
   553     000C                     PIR1            equ	12	;# 
   554     000D                     PIR2            equ	13	;# 
   555     000E                     TMR1            equ	14	;# 
   556     000E                     TMR1L           equ	14	;# 
   557     000F                     TMR1H           equ	15	;# 
   558     0010                     T1CON           equ	16	;# 
   559     0011                     TMR2            equ	17	;# 
   560     0012                     T2CON           equ	18	;# 
   561     0013                     SSPBUF          equ	19	;# 
   562     0014                     SSPCON          equ	20	;# 
   563     0015                     CCPR1           equ	21	;# 
   564     0015                     CCPR1L          equ	21	;# 
   565     0016                     CCPR1H          equ	22	;# 
   566     0017                     CCP1CON         equ	23	;# 
   567     0018                     RCSTA           equ	24	;# 
   568     0019                     TXREG           equ	25	;# 
   569     001A                     RCREG           equ	26	;# 
   570     001B                     CCPR2           equ	27	;# 
   571     001B                     CCPR2L          equ	27	;# 
   572     001C                     CCPR2H          equ	28	;# 
   573     001D                     CCP2CON         equ	29	;# 
   574     001E                     ADRESH          equ	30	;# 
   575     001F                     ADCON0          equ	31	;# 
   576     0081                     OPTION_REG      equ	129	;# 
   577     0085                     TRISA           equ	133	;# 
   578     0086                     TRISB           equ	134	;# 
   579     0087                     TRISC           equ	135	;# 
   580     0088                     TRISD           equ	136	;# 
   581     0089                     TRISE           equ	137	;# 
   582     008C                     PIE1            equ	140	;# 
   583     008D                     PIE2            equ	141	;# 
   584     008E                     PCON            equ	142	;# 
   585     0091                     SSPCON2         equ	145	;# 
   586     0092                     PR2             equ	146	;# 
   587     0093                     SSPADD          equ	147	;# 
   588     0094                     SSPSTAT         equ	148	;# 
   589     0098                     TXSTA           equ	152	;# 
   590     0099                     SPBRG           equ	153	;# 
   591     009C                     CMCON           equ	156	;# 
   592     009D                     CVRCON          equ	157	;# 
   593     009E                     ADRESL          equ	158	;# 
   594     009F                     ADCON1          equ	159	;# 
   595     010C                     EEDATA          equ	268	;# 
   596     010D                     EEADR           equ	269	;# 
   597     010E                     EEDATH          equ	270	;# 
   598     010F                     EEADRH          equ	271	;# 
   599     018C                     EECON1          equ	396	;# 
   600     018D                     EECON2          equ	397	;# 
   601     0000                     INDF            equ	0	;# 
   602     0001                     TMR0            equ	1	;# 
   603     0002                     PCL             equ	2	;# 
   604     0003                     STATUS          equ	3	;# 
   605     0004                     FSR             equ	4	;# 
   606     0005                     PORTA           equ	5	;# 
   607     0006                     PORTB           equ	6	;# 
   608     0007                     PORTC           equ	7	;# 
   609     0008                     PORTD           equ	8	;# 
   610     0009                     PORTE           equ	9	;# 
   611     000A                     PCLATH          equ	10	;# 
   612     000B                     INTCON          equ	11	;# 
   613     000C                     PIR1            equ	12	;# 
   614     000D                     PIR2            equ	13	;# 
   615     000E                     TMR1            equ	14	;# 
   616     000E                     TMR1L           equ	14	;# 
   617     000F                     TMR1H           equ	15	;# 
   618     0010                     T1CON           equ	16	;# 
   619     0011                     TMR2            equ	17	;# 
   620     0012                     T2CON           equ	18	;# 
   621     0013                     SSPBUF          equ	19	;# 
   622     0014                     SSPCON          equ	20	;# 
   623     0015                     CCPR1           equ	21	;# 
   624     0015                     CCPR1L          equ	21	;# 
   625     0016                     CCPR1H          equ	22	;# 
   626     0017                     CCP1CON         equ	23	;# 
   627     0018                     RCSTA           equ	24	;# 
   628     0019                     TXREG           equ	25	;# 
   629     001A                     RCREG           equ	26	;# 
   630     001B                     CCPR2           equ	27	;# 
   631     001B                     CCPR2L          equ	27	;# 
   632     001C                     CCPR2H          equ	28	;# 
   633     001D                     CCP2CON         equ	29	;# 
   634     001E                     ADRESH          equ	30	;# 
   635     001F                     ADCON0          equ	31	;# 
   636     0081                     OPTION_REG      equ	129	;# 
   637     0085                     TRISA           equ	133	;# 
   638     0086                     TRISB           equ	134	;# 
   639     0087                     TRISC           equ	135	;# 
   640     0088                     TRISD           equ	136	;# 
   641     0089                     TRISE           equ	137	;# 
   642     008C                     PIE1            equ	140	;# 
   643     008D                     PIE2            equ	141	;# 
   644     008E                     PCON            equ	142	;# 
   645     0091                     SSPCON2         equ	145	;# 
   646     0092                     PR2             equ	146	;# 
   647     0093                     SSPADD          equ	147	;# 
   648     0094                     SSPSTAT         equ	148	;# 
   649     0098                     TXSTA           equ	152	;# 
   650     0099                     SPBRG           equ	153	;# 
   651     009C                     CMCON           equ	156	;# 
   652     009D                     CVRCON          equ	157	;# 
   653     009E                     ADRESL          equ	158	;# 
   654     009F                     ADCON1          equ	159	;# 
   655     010C                     EEDATA          equ	268	;# 
   656     010D                     EEADR           equ	269	;# 
   657     010E                     EEDATH          equ	270	;# 
   658     010F                     EEADRH          equ	271	;# 
   659     018C                     EECON1          equ	396	;# 
   660     018D                     EECON2          equ	397	;# 
   661     0000                     INDF            equ	0	;# 
   662     0001                     TMR0            equ	1	;# 
   663     0002                     PCL             equ	2	;# 
   664     0003                     STATUS          equ	3	;# 
   665     0004                     FSR             equ	4	;# 
   666     0005                     PORTA           equ	5	;# 
   667     0006                     PORTB           equ	6	;# 
   668     0007                     PORTC           equ	7	;# 
   669     0008                     PORTD           equ	8	;# 
   670     0009                     PORTE           equ	9	;# 
   671     000A                     PCLATH          equ	10	;# 
   672     000B                     INTCON          equ	11	;# 
   673     000C                     PIR1            equ	12	;# 
   674     000D                     PIR2            equ	13	;# 
   675     000E                     TMR1            equ	14	;# 
   676     000E                     TMR1L           equ	14	;# 
   677     000F                     TMR1H           equ	15	;# 
   678     0010                     T1CON           equ	16	;# 
   679     0011                     TMR2            equ	17	;# 
   680     0012                     T2CON           equ	18	;# 
   681     0013                     SSPBUF          equ	19	;# 
   682     0014                     SSPCON          equ	20	;# 
   683     0015                     CCPR1           equ	21	;# 
   684     0015                     CCPR1L          equ	21	;# 
   685     0016                     CCPR1H          equ	22	;# 
   686     0017                     CCP1CON         equ	23	;# 
   687     0018                     RCSTA           equ	24	;# 
   688     0019                     TXREG           equ	25	;# 
   689     001A                     RCREG           equ	26	;# 
   690     001B                     CCPR2           equ	27	;# 
   691     001B                     CCPR2L          equ	27	;# 
   692     001C                     CCPR2H          equ	28	;# 
   693     001D                     CCP2CON         equ	29	;# 
   694     001E                     ADRESH          equ	30	;# 
   695     001F                     ADCON0          equ	31	;# 
   696     0081                     OPTION_REG      equ	129	;# 
   697     0085                     TRISA           equ	133	;# 
   698     0086                     TRISB           equ	134	;# 
   699     0087                     TRISC           equ	135	;# 
   700     0088                     TRISD           equ	136	;# 
   701     0089                     TRISE           equ	137	;# 
   702     008C                     PIE1            equ	140	;# 
   703     008D                     PIE2            equ	141	;# 
   704     008E                     PCON            equ	142	;# 
   705     0091                     SSPCON2         equ	145	;# 
   706     0092                     PR2             equ	146	;# 
   707     0093                     SSPADD          equ	147	;# 
   708     0094                     SSPSTAT         equ	148	;# 
   709     0098                     TXSTA           equ	152	;# 
   710     0099                     SPBRG           equ	153	;# 
   711     009C                     CMCON           equ	156	;# 
   712     009D                     CVRCON          equ	157	;# 
   713     009E                     ADRESL          equ	158	;# 
   714     009F                     ADCON1          equ	159	;# 
   715     010C                     EEDATA          equ	268	;# 
   716     010D                     EEADR           equ	269	;# 
   717     010E                     EEDATH          equ	270	;# 
   718     010F                     EEADRH          equ	271	;# 
   719     018C                     EECON1          equ	396	;# 
   720     018D                     EECON2          equ	397	;# 
   721     0000                     INDF            equ	0	;# 
   722     0001                     TMR0            equ	1	;# 
   723     0002                     PCL             equ	2	;# 
   724     0003                     STATUS          equ	3	;# 
   725     0004                     FSR             equ	4	;# 
   726     0005                     PORTA           equ	5	;# 
   727     0006                     PORTB           equ	6	;# 
   728     0007                     PORTC           equ	7	;# 
   729     0008                     PORTD           equ	8	;# 
   730     0009                     PORTE           equ	9	;# 
   731     000A                     PCLATH          equ	10	;# 
   732     000B                     INTCON          equ	11	;# 
   733     000C                     PIR1            equ	12	;# 
   734     000D                     PIR2            equ	13	;# 
   735     000E                     TMR1            equ	14	;# 
   736     000E                     TMR1L           equ	14	;# 
   737     000F                     TMR1H           equ	15	;# 
   738     0010                     T1CON           equ	16	;# 
   739     0011                     TMR2            equ	17	;# 
   740     0012                     T2CON           equ	18	;# 
   741     0013                     SSPBUF          equ	19	;# 
   742     0014                     SSPCON          equ	20	;# 
   743     0015                     CCPR1           equ	21	;# 
   744     0015                     CCPR1L          equ	21	;# 
   745     0016                     CCPR1H          equ	22	;# 
   746     0017                     CCP1CON         equ	23	;# 
   747     0018                     RCSTA           equ	24	;# 
   748     0019                     TXREG           equ	25	;# 
   749     001A                     RCREG           equ	26	;# 
   750     001B                     CCPR2           equ	27	;# 
   751     001B                     CCPR2L          equ	27	;# 
   752     001C                     CCPR2H          equ	28	;# 
   753     001D                     CCP2CON         equ	29	;# 
   754     001E                     ADRESH          equ	30	;# 
   755     001F                     ADCON0          equ	31	;# 
   756     0081                     OPTION_REG      equ	129	;# 
   757     0085                     TRISA           equ	133	;# 
   758     0086                     TRISB           equ	134	;# 
   759     0087                     TRISC           equ	135	;# 
   760     0088                     TRISD           equ	136	;# 
   761     0089                     TRISE           equ	137	;# 
   762     008C                     PIE1            equ	140	;# 
   763     008D                     PIE2            equ	141	;# 
   764     008E                     PCON            equ	142	;# 
   765     0091                     SSPCON2         equ	145	;# 
   766     0092                     PR2             equ	146	;# 
   767     0093                     SSPADD          equ	147	;# 
   768     0094                     SSPSTAT         equ	148	;# 
   769     0098                     TXSTA           equ	152	;# 
   770     0099                     SPBRG           equ	153	;# 
   771     009C                     CMCON           equ	156	;# 
   772     009D                     CVRCON          equ	157	;# 
   773     009E                     ADRESL          equ	158	;# 
   774     009F                     ADCON1          equ	159	;# 
   775     010C                     EEDATA          equ	268	;# 
   776     010D                     EEADR           equ	269	;# 
   777     010E                     EEDATH          equ	270	;# 
   778     010F                     EEADRH          equ	271	;# 
   779     018C                     EECON1          equ	396	;# 
   780     018D                     EECON2          equ	397	;# 
   781     0000                     INDF            equ	0	;# 
   782     0001                     TMR0            equ	1	;# 
   783     0002                     PCL             equ	2	;# 
   784     0003                     STATUS          equ	3	;# 
   785     0004                     FSR             equ	4	;# 
   786     0005                     PORTA           equ	5	;# 
   787     0006                     PORTB           equ	6	;# 
   788     0007                     PORTC           equ	7	;# 
   789     0008                     PORTD           equ	8	;# 
   790     0009                     PORTE           equ	9	;# 
   791     000A                     PCLATH          equ	10	;# 
   792     000B                     INTCON          equ	11	;# 
   793     000C                     PIR1            equ	12	;# 
   794     000D                     PIR2            equ	13	;# 
   795     000E                     TMR1            equ	14	;# 
   796     000E                     TMR1L           equ	14	;# 
   797     000F                     TMR1H           equ	15	;# 
   798     0010                     T1CON           equ	16	;# 
   799     0011                     TMR2            equ	17	;# 
   800     0012                     T2CON           equ	18	;# 
   801     0013                     SSPBUF          equ	19	;# 
   802     0014                     SSPCON          equ	20	;# 
   803     0015                     CCPR1           equ	21	;# 
   804     0015                     CCPR1L          equ	21	;# 
   805     0016                     CCPR1H          equ	22	;# 
   806     0017                     CCP1CON         equ	23	;# 
   807     0018                     RCSTA           equ	24	;# 
   808     0019                     TXREG           equ	25	;# 
   809     001A                     RCREG           equ	26	;# 
   810     001B                     CCPR2           equ	27	;# 
   811     001B                     CCPR2L          equ	27	;# 
   812     001C                     CCPR2H          equ	28	;# 
   813     001D                     CCP2CON         equ	29	;# 
   814     001E                     ADRESH          equ	30	;# 
   815     001F                     ADCON0          equ	31	;# 
   816     0081                     OPTION_REG      equ	129	;# 
   817     0085                     TRISA           equ	133	;# 
   818     0086                     TRISB           equ	134	;# 
   819     0087                     TRISC           equ	135	;# 
   820     0088                     TRISD           equ	136	;# 
   821     0089                     TRISE           equ	137	;# 
   822     008C                     PIE1            equ	140	;# 
   823     008D                     PIE2            equ	141	;# 
   824     008E                     PCON            equ	142	;# 
   825     0091                     SSPCON2         equ	145	;# 
   826     0092                     PR2             equ	146	;# 
   827     0093                     SSPADD          equ	147	;# 
   828     0094                     SSPSTAT         equ	148	;# 
   829     0098                     TXSTA           equ	152	;# 
   830     0099                     SPBRG           equ	153	;# 
   831     009C                     CMCON           equ	156	;# 
   832     009D                     CVRCON          equ	157	;# 
   833     009E                     ADRESL          equ	158	;# 
   834     009F                     ADCON1          equ	159	;# 
   835     010C                     EEDATA          equ	268	;# 
   836     010D                     EEADR           equ	269	;# 
   837     010E                     EEDATH          equ	270	;# 
   838     010F                     EEADRH          equ	271	;# 
   839     018C                     EECON1          equ	396	;# 
   840     018D                     EECON2          equ	397	;# 
   841     0000                     INDF            equ	0	;# 
   842     0001                     TMR0            equ	1	;# 
   843     0002                     PCL             equ	2	;# 
   844     0003                     STATUS          equ	3	;# 
   845     0004                     FSR             equ	4	;# 
   846     0005                     PORTA           equ	5	;# 
   847     0006                     PORTB           equ	6	;# 
   848     0007                     PORTC           equ	7	;# 
   849     0008                     PORTD           equ	8	;# 
   850     0009                     PORTE           equ	9	;# 
   851     000A                     PCLATH          equ	10	;# 
   852     000B                     INTCON          equ	11	;# 
   853     000C                     PIR1            equ	12	;# 
   854     000D                     PIR2            equ	13	;# 
   855     000E                     TMR1            equ	14	;# 
   856     000E                     TMR1L           equ	14	;# 
   857     000F                     TMR1H           equ	15	;# 
   858     0010                     T1CON           equ	16	;# 
   859     0011                     TMR2            equ	17	;# 
   860     0012                     T2CON           equ	18	;# 
   861     0013                     SSPBUF          equ	19	;# 
   862     0014                     SSPCON          equ	20	;# 
   863     0015                     CCPR1           equ	21	;# 
   864     0015                     CCPR1L          equ	21	;# 
   865     0016                     CCPR1H          equ	22	;# 
   866     0017                     CCP1CON         equ	23	;# 
   867     0018                     RCSTA           equ	24	;# 
   868     0019                     TXREG           equ	25	;# 
   869     001A                     RCREG           equ	26	;# 
   870     001B                     CCPR2           equ	27	;# 
   871     001B                     CCPR2L          equ	27	;# 
   872     001C                     CCPR2H          equ	28	;# 
   873     001D                     CCP2CON         equ	29	;# 
   874     001E                     ADRESH          equ	30	;# 
   875     001F                     ADCON0          equ	31	;# 
   876     0081                     OPTION_REG      equ	129	;# 
   877     0085                     TRISA           equ	133	;# 
   878     0086                     TRISB           equ	134	;# 
   879     0087                     TRISC           equ	135	;# 
   880     0088                     TRISD           equ	136	;# 
   881     0089                     TRISE           equ	137	;# 
   882     008C                     PIE1            equ	140	;# 
   883     008D                     PIE2            equ	141	;# 
   884     008E                     PCON            equ	142	;# 
   885     0091                     SSPCON2         equ	145	;# 
   886     0092                     PR2             equ	146	;# 
   887     0093                     SSPADD          equ	147	;# 
   888     0094                     SSPSTAT         equ	148	;# 
   889     0098                     TXSTA           equ	152	;# 
   890     0099                     SPBRG           equ	153	;# 
   891     009C                     CMCON           equ	156	;# 
   892     009D                     CVRCON          equ	157	;# 
   893     009E                     ADRESL          equ	158	;# 
   894     009F                     ADCON1          equ	159	;# 
   895     010C                     EEDATA          equ	268	;# 
   896     010D                     EEADR           equ	269	;# 
   897     010E                     EEDATH          equ	270	;# 
   898     010F                     EEADRH          equ	271	;# 
   899     018C                     EECON1          equ	396	;# 
   900     018D                     EECON2          equ	397	;# 
   901                           
   902                           	psect	idataBANK0
   903     13BA                     __pidataBANK0:
   904                           
   905                           ;initializer for _delay
   906     13BA  341E               	retlw	30
   907     13BB  3400               	retlw	0
   908                           
   909                           ;initializer for read_digital_keypad@once
   910     13BC  3401               	retlw	1
   911                           
   912                           	psect	idataBANK1
   913     14D0                     __pidataBANK1:
   914                           
   915                           ;initializer for _event
   916     14D0  3495               	retlw	low (STR_1| (0+32768))
   917     14D1  3486               	retlw	high (STR_1| (0+32768))
   918     14D2  3492               	retlw	low (STR_2| (0+32768))
   919     14D3  3486               	retlw	high (STR_2| (0+32768))
   920     14D4  3486               	retlw	low (STR_3| (0+32768))
   921     14D5  3486               	retlw	high (STR_3| (0+32768))
   922     14D6  3489               	retlw	low (STR_4| (0+32768))
   923     14D7  3486               	retlw	high (STR_4| (0+32768))
   924     14D8  348C               	retlw	low (STR_5| (0+32768))
   925     14D9  3486               	retlw	high (STR_5| (0+32768))
   926     14DA  348F               	retlw	low (STR_6| (0+32768))
   927     14DB  3486               	retlw	high (STR_6| (0+32768))
   928     14DC  3498               	retlw	low (STR_7| (0+32768))
   929     14DD  3486               	retlw	high (STR_7| (0+32768))
   930     14DE  3483               	retlw	low (STR_8| (0+32768))
   931     14DF  3486               	retlw	high (STR_8| (0+32768))
   932                           
   933                           ;initializer for _menu_options
   934     14E0  340C               	retlw	low (STR_9| (0+32768))
   935     14E1  3486               	retlw	high (STR_9| (0+32768))
   936     14E2  341B               	retlw	low (STR_10| (0+32768))
   937     14E3  3486               	retlw	high (STR_10| (0+32768))
   938     14E4  3439               	retlw	low (STR_11| (0+32768))
   939     14E5  3486               	retlw	high (STR_11| (0+32768))
   940     14E6  34FD               	retlw	low (STR_12| (0+32768))
   941     14E7  3485               	retlw	high (STR_12| (0+32768))
   942     14E8  342A               	retlw	low (STR_13| (0+32768))
   943     14E9  3486               	retlw	high (STR_13| (0+32768))
   944                           
   945                           ;initializer for _original_password
   946     14EA  3430               	retlw	48
   947     14EB  3431               	retlw	49
   948     14EC  3430               	retlw	48
   949     14ED  3431               	retlw	49
   950     14EE  3400               	retlw	0
   951     0001                     _TMR0           set	1
   952     0019                     _TXREG          set	25
   953     001A                     _RCREG          set	26
   954     001E                     _ADRESH         set	30
   955     001F                     _ADCON0         set	31
   956     0013                     _SSPBUF         set	19
   957     0008                     _PORTD          set	8
   958     0006                     _PORTB          set	6
   959     005A                     _TMR0IF         set	90
   960     005D                     _TMR0IE         set	93
   961     0064                     _TXIF           set	100
   962     0065                     _RCIF           set	101
   963     00C4                     _CREN           set	196
   964     00C7                     _SPEN           set	199
   965     00FA                     _nDONE          set	250
   966     00FA                     _GO             set	250
   967     00F8                     _ADON           set	248
   968     00A5                     _SSPEN          set	165
   969     00A3                     _SSPM3          set	163
   970     0049                     _RE1            set	73
   971     004A                     _RE2            set	74
   972     005F                     _GIE            set	95
   973     0099                     _SPBRG          set	153
   974     009E                     _ADRESL         set	158
   975     0091                     _SSPCON2        set	145
   976     0093                     _SSPADD         set	147
   977     0088                     _TRISD          set	136
   978     0086                     _TRISB          set	134
   979     040B                     _PSA            set	1035
   980     040D                     _T0CS           set	1037
   981     04FF                     _ADFM           set	1279
   982     048E                     _ACKSTAT        set	1166
   983     048C                     _ACKEN          set	1164
   984     048D                     _ACKDT          set	1165
   985     048B                     _RCEN           set	1163
   986     048A                     _PEN            set	1162
   987     0488                     _SEN            set	1160
   988     04A2                     _R_nW           set	1186
   989     0449                     _TRISE1         set	1097
   990     044A                     _TRISE2         set	1098
   991                           
   992                           	psect	strings
   993     1000                     __pstrings:
   994     1000                     stringtab:
   995     1000                     __stringtab:
   996                           
   997                           ;	String table - string pointers are 2 bytes each
   998     1000  1BFF               	btfsc	btemp+1,7
   999     1001  280A               	ljmp	stringcode
  1000     1002  1383               	bcf	3,7
  1001     1003  187F               	btfsc	btemp+1,0
  1002     1004  1783               	bsf	3,7
  1003     1005  0800               	movf	0,w
  1004     1006  0A84               	incf	4,f
  1005     1007  1903               	skipnz
  1006     1008  0AFF               	incf	btemp+1,f
  1007     1009  0008               	return
  1008     100A                     stringcode:
  1009     100A  087F               	movf	btemp+1,w
  1010     100B  397F               	andlw	127
  1011     100C  008A               	movwf	10
  1012     100D  0804               	movf	4,w
  1013     100E  0A84               	incf	4,f
  1014     100F  1903               	skipnz
  1015     1010  0AFF               	incf	btemp+1,f
  1016     1011  0082               	movwf	2
  1017     1012                     __stringbase:
  1018     1012                     __end_of__stringtab:
  1019                           
  1020                           	psect	stringtext
  1021     0500                     __pstringtext:
  1022     0500                     STR_25:
  1023     0500  3423               	retlw	35	;'#'
  1024     0501  3420               	retlw	32	;' '
  1025     0502  3454               	retlw	84	;'T'
  1026     0503  3449               	retlw	73	;'I'
  1027     0504  344D               	retlw	77	;'M'
  1028     0505  3445               	retlw	69	;'E'
  1029     0506  3420               	retlw	32	;' '
  1030     0507  3420               	retlw	32	;' '
  1031     0508  3420               	retlw	32	;' '
  1032     0509  3420               	retlw	32	;' '
  1033     050A  3420               	retlw	32	;' '
  1034     050B  3445               	retlw	69	;'E'
  1035     050C  3456               	retlw	86	;'V'
  1036     050D  3420               	retlw	32	;' '
  1037     050E  3453               	retlw	83	;'S'
  1038     050F  3450               	retlw	80	;'P'
  1039     0510  340A               	retlw	10
  1040     0511  3400               	retlw	0
  1041     0512                     STR_33:
  1042     0512  3450               	retlw	80	;'P'
  1043     0513  3441               	retlw	65	;'A'
  1044     0514  3453               	retlw	83	;'S'
  1045     0515  3453               	retlw	83	;'S'
  1046     0516  3457               	retlw	87	;'W'
  1047     0517  344F               	retlw	79	;'O'
  1048     0518  3452               	retlw	82	;'R'
  1049     0519  3444               	retlw	68	;'D'
  1050     051A  3420               	retlw	32	;' '
  1051     051B  344D               	retlw	77	;'M'
  1052     051C  3449               	retlw	73	;'I'
  1053     051D  3453               	retlw	83	;'S'
  1054     051E  344D               	retlw	77	;'M'
  1055     051F  3441               	retlw	65	;'A'
  1056     0520  3454               	retlw	84	;'T'
  1057     0521  3443               	retlw	67	;'C'
  1058     0522  3448               	retlw	72	;'H'
  1059     0523  3400               	retlw	0
  1060     0524                     STR_30:
  1061     0524  3452               	retlw	82	;'R'
  1062     0525  3445               	retlw	69	;'E'
  1063     0526  342D               	retlw	45	;'-'
  1064     0527  3445               	retlw	69	;'E'
  1065     0528  344E               	retlw	78	;'N'
  1066     0529  3454               	retlw	84	;'T'
  1067     052A  3445               	retlw	69	;'E'
  1068     052B  3452               	retlw	82	;'R'
  1069     052C  3420               	retlw	32	;' '
  1070     052D  344E               	retlw	78	;'N'
  1071     052E  3445               	retlw	69	;'E'
  1072     052F  3457               	retlw	87	;'W'
  1073     0530  3420               	retlw	32	;' '
  1074     0531  3450               	retlw	80	;'P'
  1075     0532  3441               	retlw	65	;'A'
  1076     0533  3453               	retlw	83	;'S'
  1077     0534  3453               	retlw	83	;'S'
  1078     0535  3400               	retlw	0
  1079     0536                     STR_35:
  1080     0536  3420               	retlw	32	;' '
  1081     0537  3420               	retlw	32	;' '
  1082     0538  3420               	retlw	32	;' '
  1083     0539  3420               	retlw	32	;' '
  1084     053A  3420               	retlw	32	;' '
  1085     053B  3420               	retlw	32	;' '
  1086     053C  3420               	retlw	32	;' '
  1087     053D  3420               	retlw	32	;' '
  1088     053E  3420               	retlw	32	;' '
  1089     053F  3420               	retlw	32	;' '
  1090     0540  3420               	retlw	32	;' '
  1091     0541  3420               	retlw	32	;' '
  1092     0542  3420               	retlw	32	;' '
  1093     0543  3420               	retlw	32	;' '
  1094     0544  3420               	retlw	32	;' '
  1095     0545  3420               	retlw	32	;' '
  1096     0546  3400               	retlw	0
  1097     0547                     STR_39:
  1098     0547  3420               	retlw	32	;' '
  1099     0548  3445               	retlw	69	;'E'
  1100     0549  344E               	retlw	78	;'N'
  1101     054A  3454               	retlw	84	;'T'
  1102     054B  3445               	retlw	69	;'E'
  1103     054C  3452               	retlw	82	;'R'
  1104     054D  3449               	retlw	73	;'I'
  1105     054E  344E               	retlw	78	;'N'
  1106     054F  3447               	retlw	71	;'G'
  1107     0550  3420               	retlw	32	;' '
  1108     0551  3457               	retlw	87	;'W'
  1109     0552  3441               	retlw	65	;'A'
  1110     0553  3449               	retlw	73	;'I'
  1111     0554  3454               	retlw	84	;'T'
  1112     0555  3420               	retlw	32	;' '
  1113     0556  3420               	retlw	32	;' '
  1114     0557  3400               	retlw	0
  1115     0558                     STR_34:
  1116     0558  3420               	retlw	32	;' '
  1117     0559  3445               	retlw	69	;'E'
  1118     055A  344E               	retlw	78	;'N'
  1119     055B  3454               	retlw	84	;'T'
  1120     055C  3445               	retlw	69	;'E'
  1121     055D  3452               	retlw	82	;'R'
  1122     055E  3420               	retlw	32	;' '
  1123     055F  3450               	retlw	80	;'P'
  1124     0560  3441               	retlw	65	;'A'
  1125     0561  3453               	retlw	83	;'S'
  1126     0562  3453               	retlw	83	;'S'
  1127     0563  3457               	retlw	87	;'W'
  1128     0564  344F               	retlw	79	;'O'
  1129     0565  3452               	retlw	82	;'R'
  1130     0566  3444               	retlw	68	;'D'
  1131     0567  3420               	retlw	32	;' '
  1132     0568  3400               	retlw	0
  1133     0569                     STR_29:
  1134     0569  3420               	retlw	32	;' '
  1135     056A  3420               	retlw	32	;' '
  1136     056B  3420               	retlw	32	;' '
  1137     056C  3420               	retlw	32	;' '
  1138     056D  3448               	retlw	72	;'H'
  1139     056E  3448               	retlw	72	;'H'
  1140     056F  343A               	retlw	58	;':'
  1141     0570  344D               	retlw	77	;'M'
  1142     0571  344D               	retlw	77	;'M'
  1143     0572  343A               	retlw	58	;':'
  1144     0573  3453               	retlw	83	;'S'
  1145     0574  3453               	retlw	83	;'S'
  1146     0575  3420               	retlw	32	;' '
  1147     0576  3420               	retlw	32	;' '
  1148     0577  3420               	retlw	32	;' '
  1149     0578  3420               	retlw	32	;' '
  1150     0579  3400               	retlw	0
  1151     057A                     STR_31:
  1152     057A  3420               	retlw	32	;' '
  1153     057B  3445               	retlw	69	;'E'
  1154     057C  344E               	retlw	78	;'N'
  1155     057D  3454               	retlw	84	;'T'
  1156     057E  3445               	retlw	69	;'E'
  1157     057F  3452               	retlw	82	;'R'
  1158     0580  3420               	retlw	32	;' '
  1159     0581  344E               	retlw	78	;'N'
  1160     0582  3445               	retlw	69	;'E'
  1161     0583  3457               	retlw	87	;'W'
  1162     0584  3420               	retlw	32	;' '
  1163     0585  3450               	retlw	80	;'P'
  1164     0586  3441               	retlw	65	;'A'
  1165     0587  3453               	retlw	83	;'S'
  1166     0588  3453               	retlw	83	;'S'
  1167     0589  3420               	retlw	32	;' '
  1168     058A  3400               	retlw	0
  1169     058B                     STR_22:
  1170     058B  3443               	retlw	67	;'C'
  1171     058C  346C               	retlw	108	;'l'
  1172     058D  3465               	retlw	101	;'e'
  1173     058E  3461               	retlw	97	;'a'
  1174     058F  3472               	retlw	114	;'r'
  1175     0590  3469               	retlw	105	;'i'
  1176     0591  346E               	retlw	110	;'n'
  1177     0592  3467               	retlw	103	;'g'
  1178     0593  3420               	retlw	32	;' '
  1179     0594  344C               	retlw	76	;'L'
  1180     0595  346F               	retlw	111	;'o'
  1181     0596  3467               	retlw	103	;'g'
  1182     0597  3473               	retlw	115	;'s'
  1183     0598  342E               	retlw	46	;'.'
  1184     0599  342E               	retlw	46	;'.'
  1185     059A  342E               	retlw	46	;'.'
  1186     059B  3400               	retlw	0
  1187     059C                     STR_32:
  1188     059C  3450               	retlw	80	;'P'
  1189     059D  3441               	retlw	65	;'A'
  1190     059E  3453               	retlw	83	;'S'
  1191     059F  3453               	retlw	83	;'S'
  1192     05A0  3457               	retlw	87	;'W'
  1193     05A1  344F               	retlw	79	;'O'
  1194     05A2  3452               	retlw	82	;'R'
  1195     05A3  3444               	retlw	68	;'D'
  1196     05A4  3420               	retlw	32	;' '
  1197     05A5  3443               	retlw	67	;'C'
  1198     05A6  3448               	retlw	72	;'H'
  1199     05A7  3441               	retlw	65	;'A'
  1200     05A8  344E               	retlw	78	;'N'
  1201     05A9  3447               	retlw	71	;'G'
  1202     05AA  3445               	retlw	69	;'E'
  1203     05AB  3444               	retlw	68	;'D'
  1204     05AC  3400               	retlw	0
  1205     05AD                     STR_14:
  1206     05AD  3420               	retlw	32	;' '
  1207     05AE  3454               	retlw	84	;'T'
  1208     05AF  3449               	retlw	73	;'I'
  1209     05B0  344D               	retlw	77	;'M'
  1210     05B1  3445               	retlw	69	;'E'
  1211     05B2  3420               	retlw	32	;' '
  1212     05B3  3420               	retlw	32	;' '
  1213     05B4  3420               	retlw	32	;' '
  1214     05B5  3420               	retlw	32	;' '
  1215     05B6  3420               	retlw	32	;' '
  1216     05B7  3445               	retlw	69	;'E'
  1217     05B8  3456               	retlw	86	;'V'
  1218     05B9  3420               	retlw	32	;' '
  1219     05BA  3420               	retlw	32	;' '
  1220     05BB  3453               	retlw	83	;'S'
  1221     05BC  3450               	retlw	80	;'P'
  1222     05BD  3400               	retlw	0
  1223     05BE                     STR_21:
  1224     05BE  3423               	retlw	35	;'#'
  1225     05BF  3420               	retlw	32	;' '
  1226     05C0  3454               	retlw	84	;'T'
  1227     05C1  3449               	retlw	73	;'I'
  1228     05C2  344D               	retlw	77	;'M'
  1229     05C3  3445               	retlw	69	;'E'
  1230     05C4  3420               	retlw	32	;' '
  1231     05C5  3420               	retlw	32	;' '
  1232     05C6  3420               	retlw	32	;' '
  1233     05C7  3420               	retlw	32	;' '
  1234     05C8  3420               	retlw	32	;' '
  1235     05C9  3445               	retlw	69	;'E'
  1236     05CA  3456               	retlw	86	;'V'
  1237     05CB  3420               	retlw	32	;' '
  1238     05CC  3453               	retlw	83	;'S'
  1239     05CD  3450               	retlw	80	;'P'
  1240     05CE  3400               	retlw	0
  1241     05CF                     STR_36:
  1242     05CF  3441               	retlw	65	;'A'
  1243     05D0  3463               	retlw	99	;'c'
  1244     05D1  3463               	retlw	99	;'c'
  1245     05D2  3465               	retlw	101	;'e'
  1246     05D3  3473               	retlw	115	;'s'
  1247     05D4  3473               	retlw	115	;'s'
  1248     05D5  3420               	retlw	32	;' '
  1249     05D6  3447               	retlw	71	;'G'
  1250     05D7  3472               	retlw	114	;'r'
  1251     05D8  3461               	retlw	97	;'a'
  1252     05D9  346E               	retlw	110	;'n'
  1253     05DA  3474               	retlw	116	;'t'
  1254     05DB  3465               	retlw	101	;'e'
  1255     05DC  3464               	retlw	100	;'d'
  1256     05DD  342E               	retlw	46	;'.'
  1257     05DE  3400               	retlw	0
  1258     05DF                     STR_40:
  1259     05DF  3453               	retlw	83	;'S'
  1260     05E0  3465               	retlw	101	;'e'
  1261     05E1  3463               	retlw	99	;'c'
  1262     05E2  346F               	retlw	111	;'o'
  1263     05E3  346E               	retlw	110	;'n'
  1264     05E4  3464               	retlw	100	;'d'
  1265     05E5  3473               	retlw	115	;'s'
  1266     05E6  3420               	retlw	32	;' '
  1267     05E7  346C               	retlw	108	;'l'
  1268     05E8  3465               	retlw	101	;'e'
  1269     05E9  3466               	retlw	102	;'f'
  1270     05EA  3474               	retlw	116	;'t'
  1271     05EB  343A               	retlw	58	;':'
  1272     05EC  3420               	retlw	32	;' '
  1273     05ED  3400               	retlw	0
  1274     05EE                     STR_37:
  1275     05EE  3441               	retlw	65	;'A'
  1276     05EF  3463               	retlw	99	;'c'
  1277     05F0  3463               	retlw	99	;'c'
  1278     05F1  3465               	retlw	101	;'e'
  1279     05F2  3473               	retlw	115	;'s'
  1280     05F3  3473               	retlw	115	;'s'
  1281     05F4  3420               	retlw	32	;' '
  1282     05F5  3444               	retlw	68	;'D'
  1283     05F6  3465               	retlw	101	;'e'
  1284     05F7  346E               	retlw	110	;'n'
  1285     05F8  3469               	retlw	105	;'i'
  1286     05F9  3465               	retlw	101	;'e'
  1287     05FA  3464               	retlw	100	;'d'
  1288     05FB  342E               	retlw	46	;'.'
  1289     05FC  3400               	retlw	0
  1290     05FD                     STR_12:
  1291     05FD  3453               	retlw	83	;'S'
  1292     05FE  3465               	retlw	101	;'e'
  1293     05FF  3474               	retlw	116	;'t'
  1294     0600  3420               	retlw	32	;' '
  1295     0601  3454               	retlw	84	;'T'
  1296     0602  3469               	retlw	105	;'i'
  1297     0603  346D               	retlw	109	;'m'
  1298     0604  3465               	retlw	101	;'e'
  1299     0605  3420               	retlw	32	;' '
  1300     0606  3420               	retlw	32	;' '
  1301     0607  3420               	retlw	32	;' '
  1302     0608  3420               	retlw	32	;' '
  1303     0609  3420               	retlw	32	;' '
  1304     060A  3420               	retlw	32	;' '
  1305     060B  3400               	retlw	0
  1306     060C                     STR_9:
  1307     060C  3456               	retlw	86	;'V'
  1308     060D  3469               	retlw	105	;'i'
  1309     060E  3465               	retlw	101	;'e'
  1310     060F  3477               	retlw	119	;'w'
  1311     0610  3420               	retlw	32	;' '
  1312     0611  344C               	retlw	76	;'L'
  1313     0612  346F               	retlw	111	;'o'
  1314     0613  3467               	retlw	103	;'g'
  1315     0614  3420               	retlw	32	;' '
  1316     0615  3420               	retlw	32	;' '
  1317     0616  3420               	retlw	32	;' '
  1318     0617  3420               	retlw	32	;' '
  1319     0618  3420               	retlw	32	;' '
  1320     0619  3420               	retlw	32	;' '
  1321     061A  3400               	retlw	0
  1322     061B                     STR_10:
  1323     061B  3443               	retlw	67	;'C'
  1324     061C  346C               	retlw	108	;'l'
  1325     061D  3465               	retlw	101	;'e'
  1326     061E  3461               	retlw	97	;'a'
  1327     061F  3472               	retlw	114	;'r'
  1328     0620  3420               	retlw	32	;' '
  1329     0621  344C               	retlw	76	;'L'
  1330     0622  346F               	retlw	111	;'o'
  1331     0623  3467               	retlw	103	;'g'
  1332     0624  3420               	retlw	32	;' '
  1333     0625  3420               	retlw	32	;' '
  1334     0626  3420               	retlw	32	;' '
  1335     0627  3420               	retlw	32	;' '
  1336     0628  3420               	retlw	32	;' '
  1337     0629  3400               	retlw	0
  1338     062A                     STR_13:
  1339     062A  3443               	retlw	67	;'C'
  1340     062B  3468               	retlw	104	;'h'
  1341     062C  3461               	retlw	97	;'a'
  1342     062D  346E               	retlw	110	;'n'
  1343     062E  3467               	retlw	103	;'g'
  1344     062F  3465               	retlw	101	;'e'
  1345     0630  3420               	retlw	32	;' '
  1346     0631  3450               	retlw	80	;'P'
  1347     0632  3461               	retlw	97	;'a'
  1348     0633  3473               	retlw	115	;'s'
  1349     0634  3473               	retlw	115	;'s'
  1350     0635  3420               	retlw	32	;' '
  1351     0636  3420               	retlw	32	;' '
  1352     0637  3420               	retlw	32	;' '
  1353     0638  3400               	retlw	0
  1354     0639                     STR_11:
  1355     0639  3444               	retlw	68	;'D'
  1356     063A  346F               	retlw	111	;'o'
  1357     063B  3477               	retlw	119	;'w'
  1358     063C  346E               	retlw	110	;'n'
  1359     063D  346C               	retlw	108	;'l'
  1360     063E  346F               	retlw	111	;'o'
  1361     063F  3461               	retlw	97	;'a'
  1362     0640  3464               	retlw	100	;'d'
  1363     0641  3420               	retlw	32	;' '
  1364     0642  344C               	retlw	76	;'L'
  1365     0643  346F               	retlw	111	;'o'
  1366     0644  3467               	retlw	103	;'g'
  1367     0645  3420               	retlw	32	;' '
  1368     0646  3420               	retlw	32	;' '
  1369     0647  3400               	retlw	0
  1370     0648                     STR_24:
  1371     0648  3444               	retlw	68	;'D'
  1372     0649  346F               	retlw	111	;'o'
  1373     064A  3477               	retlw	119	;'w'
  1374     064B  346E               	retlw	110	;'n'
  1375     064C  346C               	retlw	108	;'l'
  1376     064D  346F               	retlw	111	;'o'
  1377     064E  3461               	retlw	97	;'a'
  1378     064F  3464               	retlw	100	;'d'
  1379     0650  3469               	retlw	105	;'i'
  1380     0651  346E               	retlw	110	;'n'
  1381     0652  3467               	retlw	103	;'g'
  1382     0653  342E               	retlw	46	;'.'
  1383     0654  342E               	retlw	46	;'.'
  1384     0655  342E               	retlw	46	;'.'
  1385     0656  3400               	retlw	0
  1386     0657                     STR_38:
  1387     0657  3441               	retlw	65	;'A'
  1388     0658  3474               	retlw	116	;'t'
  1389     0659  3474               	retlw	116	;'t'
  1390     065A  3465               	retlw	101	;'e'
  1391     065B  346D               	retlw	109	;'m'
  1392     065C  3470               	retlw	112	;'p'
  1393     065D  3474               	retlw	116	;'t'
  1394     065E  3420               	retlw	32	;' '
  1395     065F  344C               	retlw	76	;'L'
  1396     0660  3465               	retlw	101	;'e'
  1397     0661  3466               	retlw	102	;'f'
  1398     0662  3474               	retlw	116	;'t'
  1399     0663  343A               	retlw	58	;':'
  1400     0664  3400               	retlw	0
  1401     0665                     STR_20:
  1402     0665  3441               	retlw	65	;'A'
  1403     0666  3476               	retlw	118	;'v'
  1404     0667  3461               	retlw	97	;'a'
  1405     0668  3469               	retlw	105	;'i'
  1406     0669  346C               	retlw	108	;'l'
  1407     066A  3461               	retlw	97	;'a'
  1408     066B  3462               	retlw	98	;'b'
  1409     066C  346C               	retlw	108	;'l'
  1410     066D  3465               	retlw	101	;'e'
  1411     066E  3400               	retlw	0
  1412     066F                     STR_23:
  1413     066F  344C               	retlw	76	;'L'
  1414     0670  346F               	retlw	111	;'o'
  1415     0671  3467               	retlw	103	;'g'
  1416     0672  3473               	retlw	115	;'s'
  1417     0673  3420               	retlw	32	;' '
  1418     0674  3461               	retlw	97	;'a'
  1419     0675  3472               	retlw	114	;'r'
  1420     0676  3465               	retlw	101	;'e'
  1421     0677  3400               	retlw	0
  1422     0678                     STR_19:
  1423     0678  344E               	retlw	78	;'N'
  1424     0679  346F               	retlw	111	;'o'
  1425     067A  3420               	retlw	32	;' '
  1426     067B  344C               	retlw	76	;'L'
  1427     067C  346F               	retlw	111	;'o'
  1428     067D  3467               	retlw	103	;'g'
  1429     067E  3473               	retlw	115	;'s'
  1430     067F  3400               	retlw	0
  1431     0680                     STR_15:
  1432     0680  342A               	retlw	42	;'*'
  1433     0681  3420               	retlw	32	;' '
  1434     0682  3400               	retlw	0
  1435     0683                     STR_8:
  1436     0683  3443               	retlw	67	;'C'
  1437     0684  3420               	retlw	32	;' '
  1438     0685  3400               	retlw	0
  1439     0686                     STR_3:
  1440     0686  3447               	retlw	71	;'G'
  1441     0687  3431               	retlw	49	;'1'
  1442     0688  3400               	retlw	0
  1443     0689                     STR_4:
  1444     0689  3447               	retlw	71	;'G'
  1445     068A  3432               	retlw	50	;'2'
  1446     068B  3400               	retlw	0
  1447     068C                     STR_5:
  1448     068C  3447               	retlw	71	;'G'
  1449     068D  3433               	retlw	51	;'3'
  1450     068E  3400               	retlw	0
  1451     068F                     STR_6:
  1452     068F  3447               	retlw	71	;'G'
  1453     0690  3434               	retlw	52	;'4'
  1454     0691  3400               	retlw	0
  1455     0692                     STR_2:
  1456     0692  3447               	retlw	71	;'G'
  1457     0693  344E               	retlw	78	;'N'
  1458     0694  3400               	retlw	0
  1459     0695                     STR_1:
  1460     0695  344F               	retlw	79	;'O'
  1461     0696  344E               	retlw	78	;'N'
  1462     0697  3400               	retlw	0
  1463     0698                     STR_7:
  1464     0698  3447               	retlw	71	;'G'
  1465     0699  3452               	retlw	82	;'R'
  1466     069A  3400               	retlw	0
  1467     0680                     STR_17          equ	STR_15
  1468     0544                     STR_16          equ	STR_35+14
  1469     0544                     STR_18          equ	STR_35+14
  1470     0544                     STR_26          equ	STR_35+14
  1471     0544                     STR_27          equ	STR_35+14
  1472     0544                     STR_28          equ	STR_35+14
  1473                           
  1474                           	psect	cinit
  1475     000F                     start_initialization:	
  1476                           ; #config settings
  1477                           
  1478     000F                     __initialization:
  1479                           
  1480                           ; Initialize objects allocated to BANK1
  1481     000F  1383               	bcf	3,7	;select IRP bank0
  1482     0010  30E5               	movlw	low (__pdataBANK1+31)
  1483     0011  00FD               	movwf	btemp+-1
  1484     0012  3014               	movlw	high __pidataBANK1
  1485     0013  00FE               	movwf	btemp
  1486     0014  30D0               	movlw	low __pidataBANK1
  1487     0015  00FF               	movwf	btemp+1
  1488     0016  30C6               	movlw	low __pdataBANK1
  1489     0017  0084               	movwf	4
  1490     0018  160A  118A  2426  120A  118A  	fcall	init_ram0
  1491                           
  1492                           ; Initialize objects allocated to BANK0
  1493     001D  306E               	movlw	low (__pdataBANK0+3)
  1494     001E  00FD               	movwf	btemp+-1
  1495     001F  3013               	movlw	high __pidataBANK0
  1496     0020  00FE               	movwf	btemp
  1497     0021  30BA               	movlw	low __pidataBANK0
  1498     0022  00FF               	movwf	btemp+1
  1499     0023  306B               	movlw	low __pdataBANK0
  1500     0024  0084               	movwf	4
  1501     0025  160A  118A  2426  120A  118A  	fcall	init_ram0
  1502                           
  1503                           ; Clear objects allocated to BANK1
  1504     002A  30A0               	movlw	low __pbssBANK1
  1505     002B  0084               	movwf	4
  1506     002C  30C6               	movlw	low (__pbssBANK1+38)
  1507     002D  160A  118A  23D2  120A  118A  	fcall	clear_ram0
  1508                           
  1509                           ; Clear objects allocated to BANK0
  1510     0032  304F               	movlw	low __pbssBANK0
  1511     0033  0084               	movwf	4
  1512     0034  306B               	movlw	low (__pbssBANK0+28)
  1513     0035  160A  118A  23D2  120A  118A  	fcall	clear_ram0
  1514                           
  1515                           ; Clear objects allocated to COMMON
  1516     003A  01FA               	clrf	__pbssCOMMON& (0+127)
  1517     003B  01FB               	clrf	(__pbssCOMMON+1)& (0+127)
  1518     003C                     end_of_initialization:	
  1519                           ;End of C runtime variable initialization code
  1520                           
  1521     003C                     __end_of__initialization:
  1522     003C  0183               	clrf	3
  1523     003D  160A  118A  2F29   	ljmp	_main	;jump to C main() function
  1524                           
  1525                           	psect	bssCOMMON
  1526     007A                     __pbssCOMMON:
  1527     007A                     _pos:
  1528     007A                     	ds	2
  1529                           
  1530                           	psect	bssBANK0
  1531     004F                     __pbssBANK0:
  1532     004F                     isr@count:
  1533     004F                     	ds	2
  1534     0051                     _attempt_no:
  1535     0051                     	ds	2
  1536     0053                     _index:
  1537     0053                     	ds	2
  1538     0055                     write_event@address:
  1539     0055                     	ds	2
  1540     0057                     _event_count:
  1541     0057                     	ds	2
  1542     0059                     _adc_val:
  1543     0059                     	ds	2
  1544     005B                     _access:
  1545     005B                     	ds	1
  1546     005C                     _time:
  1547     005C                     	ds	9
  1548     0065                     _speed:
  1549     0065                     	ds	3
  1550     0068                     _clock_reg:
  1551     0068                     	ds	3
  1552                           
  1553                           	psect	dataBANK0
  1554     006B                     __pdataBANK0:
  1555     006B                     _delay:
  1556     006B                     	ds	2
  1557     006D                     read_digital_keypad@once:
  1558     006D                     	ds	1
  1559                           
  1560                           	psect	bssBANK1
  1561     00A0                     __pbssBANK1:
  1562     00A0                     _user_entered_password:
  1563     00A0                     	ds	5
  1564     00A5                     _logs:
  1565     00A5                     	ds	17
  1566     00B6                     read_event@event:
  1567     00B6                     	ds	11
  1568     00C1                     collect_password@password:
  1569     00C1                     	ds	5
  1570                           
  1571                           	psect	dataBANK1
  1572     00C6                     __pdataBANK1:
  1573     00C6                     _event:
  1574     00C6                     	ds	16
  1575     00D6                     _menu_options:
  1576     00D6                     	ds	10
  1577     00E0                     _original_password:
  1578     00E0                     	ds	5
  1579                           
  1580                           	psect	inittext
  1581     1422                     init_fetch0:	
  1582                           ;	Called with low address in FSR and high address in W
  1583                           
  1584     1422  087E               	movf	btemp,w
  1585     1423  008A               	movwf	10
  1586     1424  087F               	movf	btemp+1,w
  1587     1425  0082               	movwf	2
  1588     1426                     init_ram0:	
  1589                           ;Called with:
  1590                           ;	high address of idata address in btemp 
  1591                           ;	low address of idata address in btemp+1 
  1592                           ;	low address of data in FSR
  1593                           ;	high address + 1 of data in btemp-1
  1594                           
  1595     1426  160A  118A  2422  160A  118A  	fcall	init_fetch0
  1596     142B  0080               	movwf	0
  1597     142C  0A84               	incf	4,f
  1598     142D  0804               	movf	4,w
  1599     142E  067D               	xorwf	btemp+-1,w
  1600     142F  1903               	btfsc	3,2
  1601     1430  3400               	retlw	0
  1602     1431  0AFF               	incf	btemp+1,f
  1603     1432  1903               	btfsc	3,2
  1604     1433  0AFE               	incf	btemp,f
  1605     1434  2C26               	goto	init_ram0
  1606                           
  1607                           	psect	clrtext
  1608     13D2                     clear_ram0:	
  1609                           ;	Called with FSR containing the base address, and
  1610                           ;	W with the last address+1
  1611                           
  1612     13D2  0064               	clrwdt	;clear the watchdog before getting into this loop
  1613     13D3                     clrloop0:
  1614     13D3  0180               	clrf	0	;clear RAM location pointed to by FSR
  1615     13D4  0A84               	incf	4,f	;increment pointer
  1616     13D5  0604               	xorwf	4,w	;XOR with final address
  1617     13D6  1903               	btfsc	3,2	;have we reached the end yet?
  1618     13D7  3400               	retlw	0	;all done for this memory range, return
  1619     13D8  0604               	xorwf	4,w	;XOR again to restore value
  1620     13D9  2BD3               	goto	clrloop0	;do the next byte
  1621                           
  1622                           	psect	cstackCOMMON
  1623     0070                     __pcstackCOMMON:
  1624     0070                     ?_init_adc:
  1625     0070                     ?_init_clcd:	
  1626                           ; 1 bytes @ 0x0
  1627                           
  1628     0070                     ?_init_digital_keypad:	
  1629                           ; 1 bytes @ 0x0
  1630                           
  1631     0070                     ?_init_ds1307:	
  1632                           ; 1 bytes @ 0x0
  1633                           
  1634     0070                     ?_read_digital_keypad:	
  1635                           ; 1 bytes @ 0x0
  1636                           
  1637     0070                     ?_dashboard:	
  1638                           ; 1 bytes @ 0x0
  1639                           
  1640     0070                     ?_main_menu:	
  1641                           ; 1 bytes @ 0x0
  1642                           
  1643     0070                     ?_i2c_stop:	
  1644                           ; 1 bytes @ 0x0
  1645                           
  1646     0070                     ?_read_ds1307:	
  1647                           ; 1 bytes @ 0x0
  1648                           
  1649     0070                     ?_read_external_eeprom:	
  1650                           ; 1 bytes @ 0x0
  1651                           
  1652     0070                     ?_auth_user:	
  1653                           ; 1 bytes @ 0x0
  1654                           
  1655     0070                     ?_view_log:	
  1656                           ; 1 bytes @ 0x0
  1657                           
  1658     0070                     ?_clear_log:	
  1659                           ; 1 bytes @ 0x0
  1660                           
  1661     0070                     ?_download_log:	
  1662                           ; 1 bytes @ 0x0
  1663                           
  1664     0070                     ?_set_time:	
  1665                           ; 1 bytes @ 0x0
  1666                           
  1667     0070                     ?_change_password:	
  1668                           ; 1 bytes @ 0x0
  1669                           
  1670     0070                     ?_put_char:	
  1671                           ; 1 bytes @ 0x0
  1672                           
  1673     0070                     ?_run_delay:	
  1674                           ; 1 bytes @ 0x0
  1675                           
  1676     0070                     ?_init_timer0:	
  1677                           ; 1 bytes @ 0x0
  1678                           
  1679     0070                     ?_init_config:	
  1680                           ; 1 bytes @ 0x0
  1681                           
  1682     0070                     ?_main:	
  1683                           ; 1 bytes @ 0x0
  1684                           
  1685     0070                     ?_init_display_controller:	
  1686                           ; 1 bytes @ 0x0
  1687                           
  1688     0070                     ?_clear_screen:	
  1689                           ; 1 bytes @ 0x0
  1690                           
  1691     0070                     ?_i2c_wait_for_idle:	
  1692                           ; 1 bytes @ 0x0
  1693                           
  1694     0070                     ?_i2c_start:	
  1695                           ; 1 bytes @ 0x0
  1696                           
  1697     0070                     ?_i2c_rep_start:	
  1698                           ; 1 bytes @ 0x0
  1699                           
  1700     0070                     ?_i2c_read:	
  1701                           ; 1 bytes @ 0x0
  1702                           
  1703     0070                     ?_write_event:	
  1704                           ; 1 bytes @ 0x0
  1705                           
  1706     0070                     ?_read_and_format_log:	
  1707                           ; 1 bytes @ 0x0
  1708                           
  1709     0070                     ?_isr:	
  1710                           ; 1 bytes @ 0x0
  1711                           
  1712     0070                     ?_i2c_write:	
  1713                           ; 1 bytes @ 0x0
  1714                           
  1715     0070                     ??_isr:	
  1716                           ; 2 bytes @ 0x0
  1717                           
  1718                           
  1719                           ; 1 bytes @ 0x0
  1720     0070                     	ds	2
  1721     0072                     ?_change_original_password:
  1722     0072                     ?_clcd_write:	
  1723                           ; 1 bytes @ 0x2
  1724                           
  1725     0072                     ?_strcmp:	
  1726                           ; 1 bytes @ 0x2
  1727                           
  1728     0072                     ?_read_adc:	
  1729                           ; 2 bytes @ 0x2
  1730                           
  1731     0072                     ?___wmul:	
  1732                           ; 2 bytes @ 0x2
  1733                           
  1734     0072                     ?___lwdiv:	
  1735                           ; 2 bytes @ 0x2
  1736                           
  1737     0072                     ?___lwmod:	
  1738                           ; 2 bytes @ 0x2
  1739                           
  1740     0072                     ?___lldiv:	
  1741                           ; 2 bytes @ 0x2
  1742                           
  1743     0072                     ?___xxtofl:	
  1744                           ; 4 bytes @ 0x2
  1745                           
  1746     0072                     clcd_write@mode:	
  1747                           ; 4 bytes @ 0x2
  1748                           
  1749     0072                     i2c_read@ack:	
  1750                           ; 1 bytes @ 0x2
  1751                           
  1752     0072                     i2c_write@data:	
  1753                           ; 1 bytes @ 0x2
  1754                           
  1755     0072                     put_char@data:	
  1756                           ; 1 bytes @ 0x2
  1757                           
  1758     0072                     change_original_password@new_password:	
  1759                           ; 1 bytes @ 0x2
  1760                           
  1761     0072                     strcmp@l:	
  1762                           ; 1 bytes @ 0x2
  1763                           
  1764     0072                     ___wmul@multiplier:	
  1765                           ; 1 bytes @ 0x2
  1766                           
  1767     0072                     ___lwdiv@divisor:	
  1768                           ; 2 bytes @ 0x2
  1769                           
  1770     0072                     ___lwmod@divisor:	
  1771                           ; 2 bytes @ 0x2
  1772                           
  1773     0072                     ___lldiv@divisor:	
  1774                           ; 2 bytes @ 0x2
  1775                           
  1776     0072                     ___xxtofl@val:	
  1777                           ; 4 bytes @ 0x2
  1778                           
  1779     0072                     ??_init_adc:	
  1780                           ; 4 bytes @ 0x2
  1781                           
  1782     0072                     ??_init_digital_keypad:	
  1783                           ; 1 bytes @ 0x2
  1784                           
  1785     0072                     ??_read_digital_keypad:	
  1786                           ; 1 bytes @ 0x2
  1787                           
  1788     0072                     ??_i2c_stop:	
  1789                           ; 1 bytes @ 0x2
  1790                           
  1791     0072                     ??_put_char:	
  1792                           ; 1 bytes @ 0x2
  1793                           
  1794     0072                     ??_init_timer0:	
  1795                           ; 1 bytes @ 0x2
  1796                           
  1797     0072                     ??_i2c_wait_for_idle:	
  1798                           ; 1 bytes @ 0x2
  1799                           
  1800     0072                     ??_i2c_start:	
  1801                           ; 1 bytes @ 0x2
  1802                           
  1803     0072                     ??_i2c_rep_start:	
  1804                           ; 1 bytes @ 0x2
  1805                           
  1806     0072                     ??_i2c_read:	
  1807                           ; 1 bytes @ 0x2
  1808                           
  1809     0072                     ??_i2c_write:	
  1810                           ; 1 bytes @ 0x2
  1811                           
  1812                           
  1813                           ; 1 bytes @ 0x2
  1814     0072                     	ds	1
  1815     0073                     ?_write_external_eeprom:
  1816     0073                     ?_put_s:	
  1817                           ; 1 bytes @ 0x3
  1818                           
  1819     0073                     read_digital_keypad@mode:	
  1820                           ; 1 bytes @ 0x3
  1821                           
  1822     0073                     i2c_read@data:	
  1823                           ; 1 bytes @ 0x3
  1824                           
  1825     0073                     write_external_eeprom@data:	
  1826                           ; 1 bytes @ 0x3
  1827                           
  1828     0073                     strcmp@r:	
  1829                           ; 1 bytes @ 0x3
  1830                           
  1831     0073                     put_s@s:	
  1832                           ; 1 bytes @ 0x3
  1833                           
  1834     0073                     ??_change_original_password:	
  1835                           ; 2 bytes @ 0x3
  1836                           
  1837     0073                     ??_clcd_write:	
  1838                           ; 1 bytes @ 0x3
  1839                           
  1840                           
  1841                           ; 1 bytes @ 0x3
  1842     0073                     	ds	1
  1843     0074                     read_ds1307@addr:
  1844     0074                     write_external_eeprom@address:	
  1845                           ; 1 bytes @ 0x4
  1846                           
  1847     0074                     read_external_eeprom@address:	
  1848                           ; 1 bytes @ 0x4
  1849                           
  1850     0074                     change_original_password@i:	
  1851                           ; 1 bytes @ 0x4
  1852                           
  1853     0074                     ___wmul@multiplicand:	
  1854                           ; 2 bytes @ 0x4
  1855                           
  1856     0074                     ___lwdiv@dividend:	
  1857                           ; 2 bytes @ 0x4
  1858                           
  1859     0074                     ___lwmod@dividend:	
  1860                           ; 2 bytes @ 0x4
  1861                           
  1862     0074                     ??_read_ds1307:	
  1863                           ; 2 bytes @ 0x4
  1864                           
  1865     0074                     ??_read_external_eeprom:	
  1866                           ; 1 bytes @ 0x4
  1867                           
  1868     0074                     ??_write_external_eeprom:	
  1869                           ; 1 bytes @ 0x4
  1870                           
  1871     0074                     ??_strcmp:	
  1872                           ; 1 bytes @ 0x4
  1873                           
  1874     0074                     ??_read_adc:	
  1875                           ; 1 bytes @ 0x4
  1876                           
  1877                           
  1878                           ; 1 bytes @ 0x4
  1879     0074                     	ds	1
  1880     0075                     clcd_write@byte:
  1881     0075                     read_ds1307@data:	
  1882                           ; 1 bytes @ 0x5
  1883                           
  1884     0075                     read_external_eeprom@data:	
  1885                           ; 1 bytes @ 0x5
  1886                           
  1887     0075                     read_adc@adc_reg_val:	
  1888                           ; 1 bytes @ 0x5
  1889                           
  1890     0075                     write_external_eeprom@wait:	
  1891                           ; 2 bytes @ 0x5
  1892                           
  1893     0075                     ??_put_s:	
  1894                           ; 2 bytes @ 0x5
  1895                           
  1896                           
  1897                           ; 1 bytes @ 0x5
  1898     0075                     	ds	1
  1899     0076                     ?_clcd_print:
  1900     0076                     ?_get_time:	
  1901                           ; 1 bytes @ 0x6
  1902                           
  1903     0076                     get_time@clock_reg:	
  1904                           ; 1 bytes @ 0x6
  1905                           
  1906     0076                     ___lwmod@counter:	
  1907                           ; 1 bytes @ 0x6
  1908                           
  1909     0076                     clcd_print@str:	
  1910                           ; 1 bytes @ 0x6
  1911                           
  1912     0076                     ___wmul@product:	
  1913                           ; 2 bytes @ 0x6
  1914                           
  1915     0076                     ___lwdiv@quotient:	
  1916                           ; 2 bytes @ 0x6
  1917                           
  1918     0076                     ___lldiv@dividend:	
  1919                           ; 2 bytes @ 0x6
  1920                           
  1921     0076                     ??_init_display_controller:	
  1922                           ; 4 bytes @ 0x6
  1923                           
  1924     0076                     ??_clear_screen:	
  1925                           ; 1 bytes @ 0x6
  1926                           
  1927     0076                     ??___wmul:	
  1928                           ; 1 bytes @ 0x6
  1929                           
  1930     0076                     ??___lwdiv:	
  1931                           ; 1 bytes @ 0x6
  1932                           
  1933     0076                     ??___lwmod:	
  1934                           ; 1 bytes @ 0x6
  1935                           
  1936     0076                     ??___xxtofl:	
  1937                           ; 1 bytes @ 0x6
  1938                           
  1939                           
  1940                           ; 1 bytes @ 0x6
  1941     0076                     	ds	1
  1942     0077                     read_adc@channel:
  1943     0077                     write_event@i:	
  1944                           ; 1 bytes @ 0x7
  1945                           
  1946     0077                     ??_get_time:	
  1947                           ; 2 bytes @ 0x7
  1948                           
  1949                           
  1950                           ; 1 bytes @ 0x7
  1951     0077                     	ds	1
  1952     0078                     ?_read_event:
  1953     0078                     clcd_print@addr:	
  1954                           ; 1 bytes @ 0x8
  1955                           
  1956     0078                     ___lwdiv@counter:	
  1957                           ; 1 bytes @ 0x8
  1958                           
  1959     0078                     read_event@addr:	
  1960                           ; 1 bytes @ 0x8
  1961                           
  1962     0078                     ??_init_clcd:	
  1963                           ; 2 bytes @ 0x8
  1964                           
  1965                           
  1966                           ; 1 bytes @ 0x8
  1967     0078                     	ds	1
  1968     0079                     ?_write_ds1307:
  1969     0079                     ?_clcd_putch:	
  1970                           ; 1 bytes @ 0x9
  1971                           
  1972     0079                     ?_display_time:	
  1973                           ; 1 bytes @ 0x9
  1974                           
  1975     0079                     clcd_putch@addr:	
  1976                           ; 1 bytes @ 0x9
  1977                           
  1978     0079                     write_ds1307@data:	
  1979                           ; 1 bytes @ 0x9
  1980                           
  1981     0079                     display_time@clock_reg:	
  1982                           ; 1 bytes @ 0x9
  1983                           
  1984     0079                     ??_clcd_print:	
  1985                           ; 1 bytes @ 0x9
  1986                           
  1987     0079                     ??_print_star:	
  1988                           ; 1 bytes @ 0x9
  1989                           
  1990     0079                     ??_display_indicator:	
  1991                           ; 1 bytes @ 0x9
  1992                           
  1993                           
  1994                           ; 1 bytes @ 0x9
  1995     0079                     	ds	1
  1996     007A                     ??_init_ds1307:
  1997     007A                     ??_write_ds1307:	
  1998                           ; 1 bytes @ 0xA
  1999                           
  2000     007A                     ??_strcpy:	
  2001                           ; 1 bytes @ 0xA
  2002                           
  2003     007A                     ??_read_event:	
  2004                           ; 1 bytes @ 0xA
  2005                           
  2006     007A                     ??_run_delay:	
  2007                           ; 1 bytes @ 0xA
  2008                           
  2009     007A                     ??_init_config:	
  2010                           ; 1 bytes @ 0xA
  2011                           
  2012     007A                     ??_main:	
  2013                           ; 1 bytes @ 0xA
  2014                           
  2015     007A                     ??_clcd_putch:	
  2016                           ; 1 bytes @ 0xA
  2017                           
  2018                           
  2019                           	psect	cstackBANK0
  2020     0020                     __pcstackBANK0:	
  2021                           ; 1 bytes @ 0xA
  2022                           
  2023     0020                     ?_print_star:
  2024     0020                     ?_display_indicator:	
  2025                           ; 1 bytes @ 0x0
  2026                           
  2027     0020                     clcd_putch@data:	
  2028                           ; 1 bytes @ 0x0
  2029                           
  2030     0020                     write_ds1307@addr:	
  2031                           ; 1 bytes @ 0x0
  2032                           
  2033     0020                     ___xxtofl@sign:	
  2034                           ; 1 bytes @ 0x0
  2035                           
  2036     0020                     read_event@i:	
  2037                           ; 1 bytes @ 0x0
  2038                           
  2039     0020                     print_star@position:	
  2040                           ; 2 bytes @ 0x0
  2041                           
  2042     0020                     display_indicator@pos:	
  2043                           ; 2 bytes @ 0x0
  2044                           
  2045     0020                     ??_clear_log:	
  2046                           ; 2 bytes @ 0x0
  2047                           
  2048     0020                     ??_display_time:	
  2049                           ; 1 bytes @ 0x0
  2050                           
  2051     0020                     ??_write_event:	
  2052                           ; 1 bytes @ 0x0
  2053                           
  2054     0020                     ??___lldiv:	
  2055                           ; 1 bytes @ 0x0
  2056                           
  2057                           
  2058                           ; 1 bytes @ 0x0
  2059     0020                     	ds	1
  2060     0021                     ?_collect_password:
  2061     0021                     init_ds1307@dummy:	
  2062                           ; 1 bytes @ 0x1
  2063                           
  2064     0021                     ___xxtofl@exp:	
  2065                           ; 1 bytes @ 0x1
  2066                           
  2067     0021                     collect_password@re_enter:	
  2068                           ; 1 bytes @ 0x1
  2069                           
  2070     0021                     ___lldiv@quotient:	
  2071                           ; 2 bytes @ 0x1
  2072                           
  2073     0021                     ??_auth_user:	
  2074                           ; 4 bytes @ 0x1
  2075                           
  2076                           
  2077                           ; 1 bytes @ 0x1
  2078     0021                     	ds	1
  2079     0022                     ___xxtofl@arg:
  2080     0022                     ??_set_time:	
  2081                           ; 4 bytes @ 0x2
  2082                           
  2083     0022                     ??_read_and_format_log:	
  2084                           ; 1 bytes @ 0x2
  2085                           
  2086                           
  2087                           ; 1 bytes @ 0x2
  2088     0022                     	ds	1
  2089     0023                     ??_collect_password:
  2090                           
  2091                           ; 1 bytes @ 0x3
  2092     0023                     	ds	1
  2093     0024                     read_and_format_log@log:
  2094     0024                     auth_user@key:	
  2095                           ; 1 bytes @ 0x4
  2096                           
  2097                           
  2098                           ; 1 bytes @ 0x4
  2099     0024                     	ds	1
  2100     0025                     ___lldiv@counter:
  2101     0025                     read_and_format_log@col:	
  2102                           ; 1 bytes @ 0x5
  2103                           
  2104     0025                     auth_user@i:	
  2105                           ; 2 bytes @ 0x5
  2106                           
  2107                           
  2108                           ; 2 bytes @ 0x5
  2109     0025                     	ds	1
  2110     0026                     ?_init_i2c:
  2111     0026                     ?_init_uart:	
  2112                           ; 1 bytes @ 0x6
  2113                           
  2114     0026                     ?___fldiv:	
  2115                           ; 1 bytes @ 0x6
  2116                           
  2117     0026                     set_time@key:	
  2118                           ; 4 bytes @ 0x6
  2119                           
  2120     0026                     collect_password@key:	
  2121                           ; 1 bytes @ 0x6
  2122                           
  2123     0026                     init_i2c@baud:	
  2124                           ; 1 bytes @ 0x6
  2125                           
  2126     0026                     init_uart@baud:	
  2127                           ; 4 bytes @ 0x6
  2128                           
  2129     0026                     ___fldiv@a:	
  2130                           ; 4 bytes @ 0x6
  2131                           
  2132                           
  2133                           ; 4 bytes @ 0x6
  2134     0026                     	ds	1
  2135     0027                     read_and_format_log@index:
  2136     0027                     set_time@hour:	
  2137                           ; 1 bytes @ 0x7
  2138                           
  2139     0027                     collect_password@curr_pass_index:	
  2140                           ; 2 bytes @ 0x7
  2141                           
  2142                           
  2143                           ; 2 bytes @ 0x7
  2144     0027                     	ds	1
  2145     0028                     read_and_format_log@i:
  2146                           
  2147                           ; 2 bytes @ 0x8
  2148     0028                     	ds	1
  2149     0029                     ?_strcpy:
  2150     0029                     strcpy@dest:	
  2151                           ; 1 bytes @ 0x9
  2152                           
  2153     0029                     set_time@min:	
  2154                           ; 1 bytes @ 0x9
  2155                           
  2156                           
  2157                           ; 2 bytes @ 0x9
  2158     0029                     	ds	1
  2159     002A                     strcpy@src:
  2160     002A                     ___fldiv@b:	
  2161                           ; 1 bytes @ 0xA
  2162                           
  2163     002A                     ??_init_i2c:	
  2164                           ; 4 bytes @ 0xA
  2165                           
  2166     002A                     ??_init_uart:	
  2167                           ; 1 bytes @ 0xA
  2168                           
  2169     002A                     ??_view_log:	
  2170                           ; 1 bytes @ 0xA
  2171                           
  2172     002A                     ??_download_log:	
  2173                           ; 1 bytes @ 0xA
  2174                           
  2175                           
  2176                           ; 1 bytes @ 0xA
  2177     002A                     	ds	1
  2178     002B                     strcpy@d:
  2179     002B                     set_time@sec:	
  2180                           ; 1 bytes @ 0xB
  2181                           
  2182                           
  2183                           ; 2 bytes @ 0xB
  2184     002B                     	ds	1
  2185     002C                     view_log@key:
  2186     002C                     ??_change_password:	
  2187                           ; 2 bytes @ 0xC
  2188                           
  2189                           
  2190                           ; 1 bytes @ 0xC
  2191     002C                     	ds	1
  2192     002D                     download_log@i:
  2193     002D                     set_time@indicator:	
  2194                           ; 2 bytes @ 0xD
  2195                           
  2196                           
  2197                           ; 2 bytes @ 0xD
  2198     002D                     	ds	1
  2199     002E                     view_log@curr_log:
  2200     002E                     ??___fldiv:	
  2201                           ; 2 bytes @ 0xE
  2202                           
  2203                           
  2204                           ; 1 bytes @ 0xE
  2205     002E                     	ds	1
  2206     002F                     change_password@new_password_re_enter:
  2207                           
  2208                           ; 5 bytes @ 0xF
  2209     002F                     	ds	4
  2210     0033                     ___fldiv@rem:
  2211                           
  2212                           ; 4 bytes @ 0x13
  2213     0033                     	ds	1
  2214     0034                     change_password@new_password:
  2215                           
  2216                           ; 5 bytes @ 0x14
  2217     0034                     	ds	3
  2218     0037                     ___fldiv@sign:
  2219                           
  2220                           ; 1 bytes @ 0x17
  2221     0037                     	ds	1
  2222     0038                     ___fldiv@new_exp:
  2223                           
  2224                           ; 2 bytes @ 0x18
  2225     0038                     	ds	1
  2226     0039                     ??_main_menu:
  2227                           
  2228                           ; 1 bytes @ 0x19
  2229     0039                     	ds	1
  2230     003A                     ___fldiv@grs:
  2231                           
  2232                           ; 4 bytes @ 0x1A
  2233     003A                     	ds	1
  2234     003B                     main_menu@key:
  2235                           
  2236                           ; 1 bytes @ 0x1B
  2237     003B                     	ds	1
  2238     003C                     main_menu@star:
  2239                           
  2240                           ; 1 bytes @ 0x1C
  2241     003C                     	ds	1
  2242     003D                     main_menu@selected_menu:
  2243                           
  2244                           ; 2 bytes @ 0x1D
  2245     003D                     	ds	1
  2246     003E                     ___fldiv@bexp:
  2247                           
  2248                           ; 1 bytes @ 0x1E
  2249     003E                     	ds	1
  2250     003F                     ___fldiv@aexp:
  2251     003F                     main_menu@menu_index:	
  2252                           ; 1 bytes @ 0x1F
  2253                           
  2254                           
  2255                           ; 2 bytes @ 0x1F
  2256     003F                     	ds	1
  2257     0040                     ?___fltol:
  2258     0040                     ___fltol@f1:	
  2259                           ; 4 bytes @ 0x20
  2260                           
  2261                           
  2262                           ; 4 bytes @ 0x20
  2263     0040                     	ds	4
  2264     0044                     ??___fltol:
  2265                           
  2266                           ; 1 bytes @ 0x24
  2267     0044                     	ds	4
  2268     0048                     ___fltol@sign1:
  2269                           
  2270                           ; 1 bytes @ 0x28
  2271     0048                     	ds	1
  2272     0049                     ___fltol@exp1:
  2273                           
  2274                           ; 1 bytes @ 0x29
  2275     0049                     	ds	1
  2276     004A                     ??_dashboard:
  2277                           
  2278                           ; 1 bytes @ 0x2A
  2279     004A                     	ds	2
  2280     004C                     dashboard@key:
  2281                           
  2282                           ; 1 bytes @ 0x2C
  2283     004C                     	ds	1
  2284     004D                     main@key:
  2285                           
  2286                           ; 1 bytes @ 0x2D
  2287     004D                     	ds	1
  2288     004E                     main@operation:
  2289                           
  2290                           ; 1 bytes @ 0x2E
  2291     004E                     	ds	1
  2292                           
  2293                           	psect	maintext
  2294     1729                     __pmaintext:	
  2295 ;;
  2296 ;;Main: autosize = 0, tempsize = 0, incstack = 0, save=0
  2297 ;;
  2298 ;; *************** function _main *****************
  2299 ;; Defined at:
  2300 ;;		line 30 in file "main.c"
  2301 ;; Parameters:    Size  Location     Type
  2302 ;;		None
  2303 ;; Auto vars:     Size  Location     Type
  2304 ;;  operation       1   46[BANK0 ] unsigned char 
  2305 ;;  key             1   45[BANK0 ] unsigned char 
  2306 ;; Return value:  Size  Location     Type
  2307 ;;                  1    wreg      void 
  2308 ;; Registers used:
  2309 ;;		wreg, fsr0l, fsr0h, status,2, status,0, pclath, btemp1, cstack
  2310 ;; Tracked objects:
  2311 ;;		On entry : B00/0
  2312 ;;		On exit  : 0/0
  2313 ;;		Unchanged: 0/0
  2314 ;; Data sizes:     COMMON   BANK0   BANK1   BANK3   BANK2
  2315 ;;      Params:         0       0       0       0       0
  2316 ;;      Locals:         0       2       0       0       0
  2317 ;;      Temps:          0       0       0       0       0
  2318 ;;      Totals:         0       2       0       0       0
  2319 ;;Total ram usage:        2 bytes
  2320 ;; Hardware stack levels required when called: 7
  2321 ;; This function calls:
  2322 ;;		_dashboard
  2323 ;;		_init_config
  2324 ;;		_main_menu
  2325 ;;		_read_digital_keypad
  2326 ;; This function is called by:
  2327 ;;		Startup code after reset
  2328 ;; This function uses a non-reentrant model
  2329 ;;
  2330                           
  2331     1729                     _main:	
  2332                           ;psect for function _main
  2333                           
  2334     1729                     l3987:	
  2335                           ;incstack = 0
  2336                           ; Regs used in _main: [wreg-fsr0h+status,2+status,0+pclath+btemp1+cstack]
  2337                           
  2338                           
  2339                           ;main.c: 33:     init_config();
  2340     1729  120A  158A  2001  160A  118A  	fcall	_init_config
  2341     172E                     l3989:
  2342                           
  2343                           ;main.c: 35:     unsigned char key, operation = 0;
  2344     172E  1283               	bcf	3,5	;RP0=0, select bank0
  2345     172F  1303               	bcf	3,6	;RP1=0, select bank0
  2346     1730  01CE               	clrf	main@operation
  2347     1731                     l3991:
  2348                           
  2349                           ;main.c: 38:     {;main.c: 39:         key = read_digital_keypad(1);
  2350     1731  3001               	movlw	1
  2351     1732  160A  118A  25E8  160A  118A  	fcall	_read_digital_keypad
  2352     1737  1283               	bcf	3,5	;RP0=0, select bank0
  2353     1738  1303               	bcf	3,6	;RP1=0, select bank0
  2354     1739  00CD               	movwf	main@key
  2355     173A                     l3993:
  2356                           
  2357                           ;main.c: 41:         if(key == 0x37)
  2358     173A  3037               	movlw	55
  2359     173B  064D               	xorwf	main@key,w
  2360     173C  1D03               	btfss	3,2
  2361     173D  2F3F               	goto	u4561
  2362     173E  2F40               	goto	u4560
  2363     173F                     u4561:
  2364     173F  2F42               	goto	l3997
  2365     1740                     u4560:
  2366     1740                     l3995:
  2367                           
  2368                           ;main.c: 42:         {;main.c: 43:             operation = 1;
  2369     1740  3001               	movlw	1
  2370     1741  00CE               	movwf	main@operation
  2371     1742                     l3997:
  2372                           
  2373                           ;main.c: 47:         if(operation == 0)
  2374     1742  084E               	movf	main@operation,w
  2375     1743  1D03               	btfss	3,2
  2376     1744  2F46               	goto	u4571
  2377     1745  2F47               	goto	u4570
  2378     1746                     u4571:
  2379     1746  2F4E               	goto	l4001
  2380     1747                     u4570:
  2381     1747                     l3999:
  2382                           
  2383                           ;main.c: 48:         {;main.c: 49:             dashboard(key);
  2384     1747  084D               	movf	main@key,w
  2385     1748  120A  158A  26F3  160A  118A  	fcall	_dashboard
  2386                           
  2387                           ;main.c: 50:         }
  2388     174D  2F31               	goto	l3991
  2389     174E                     l4001:
  2390     174E  034E               	decf	main@operation,w
  2391     174F  1D03               	btfss	3,2
  2392     1750  2F52               	goto	u4581
  2393     1751  2F53               	goto	u4580
  2394     1752                     u4581:
  2395     1752  2F31               	goto	l3991
  2396     1753                     u4580:
  2397     1753                     l4003:
  2398                           
  2399                           ;main.c: 52:         {;main.c: 53:             main_menu();
  2400     1753  120A  158A  2603  160A  118A  	fcall	_main_menu
  2401     1758  2F2E               	goto	l3989
  2402     1759  120A  118A  280C   	ljmp	start
  2403     175C                     __end_of_main:
  2404                           
  2405                           	psect	text1
  2406     0E03                     __ptext1:	
  2407 ;; *************** function _main_menu *****************
  2408 ;; Defined at:
  2409 ;;		line 166 in file "dashboard.c"
  2410 ;; Parameters:    Size  Location     Type
  2411 ;;		None
  2412 ;; Auto vars:     Size  Location     Type
  2413 ;;  selected_men    2   29[BANK0 ] unsigned int 
  2414 ;;  menu_index      2   31[BANK0 ] unsigned int 
  2415 ;;  star            1   28[BANK0 ] unsigned char 
  2416 ;;  key             1   27[BANK0 ] unsigned char 
  2417 ;; Return value:  Size  Location     Type
  2418 ;;                  1    wreg      void 
  2419 ;; Registers used:
  2420 ;;		wreg, fsr0l, fsr0h, status,2, status,0, pclath, btemp1, cstack
  2421 ;; Tracked objects:
  2422 ;;		On entry : 0/0
  2423 ;;		On exit  : 0/0
  2424 ;;		Unchanged: 0/0
  2425 ;; Data sizes:     COMMON   BANK0   BANK1   BANK3   BANK2
  2426 ;;      Params:         0       0       0       0       0
  2427 ;;      Locals:         0       6       0       0       0
  2428 ;;      Temps:          0       2       0       0       0
  2429 ;;      Totals:         0       8       0       0       0
  2430 ;;Total ram usage:        8 bytes
  2431 ;; Hardware stack levels used: 1
  2432 ;; Hardware stack levels required when called: 6
  2433 ;; This function calls:
  2434 ;;		_auth_user
  2435 ;;		_change_password
  2436 ;;		_clcd_print
  2437 ;;		_clear_log
  2438 ;;		_clear_screen
  2439 ;;		_download_log
  2440 ;;		_print_star
  2441 ;;		_read_digital_keypad
  2442 ;;		_set_time
  2443 ;;		_view_log
  2444 ;; This function is called by:
  2445 ;;		_main
  2446 ;; This function uses a non-reentrant model
  2447 ;;
  2448                           
  2449     0E03                     _main_menu:	
  2450                           ;psect for function _main_menu
  2451                           
  2452     0E03                     l3915:	
  2453                           ;incstack = 0
  2454                           ; Regs used in _main_menu: [wreg-fsr0h+status,2+status,0+pclath+btemp1+cstack]
  2455                           
  2456                           
  2457                           ;dashboard.c: 168:  auth_user();
  2458     0E03  120A  118A  269B  120A  158A  	fcall	_auth_user
  2459     0E08                     l3917:
  2460                           
  2461                           ;dashboard.c: 169:  if(access == 0) return;
  2462     0E08  1283               	bcf	3,5	;RP0=0, select bank0
  2463     0E09  1303               	bcf	3,6	;RP1=0, select bank0
  2464     0E0A  085B               	movf	_access,w
  2465     0E0B  1D03               	btfss	3,2
  2466     0E0C  2E0E               	goto	u4421
  2467     0E0D  2E0F               	goto	u4420
  2468     0E0E                     u4421:
  2469     0E0E  2E10               	goto	l3921
  2470     0E0F                     u4420:
  2471     0E0F  2EF2               	goto	l303
  2472     0E10                     l3921:
  2473                           
  2474                           ;dashboard.c: 171:  unsigned int menu_index = 0;
  2475     0E10  01BF               	clrf	main_menu@menu_index
  2476     0E11  01C0               	clrf	main_menu@menu_index+1
  2477                           
  2478                           ;dashboard.c: 172:  unsigned char star = 0;
  2479     0E12  01BC               	clrf	main_menu@star
  2480     0E13                     l3923:
  2481                           
  2482                           ;dashboard.c: 173:  unsigned char key;;dashboard.c: 175:  clear_screen();
  2483     0E13  160A  118A  23CA  120A  158A  	fcall	_clear_screen
  2484     0E18                     l3925:
  2485                           
  2486                           ;dashboard.c: 179:   print_star(star);
  2487     0E18  1283               	bcf	3,5	;RP0=0, select bank0
  2488     0E19  1303               	bcf	3,6	;RP1=0, select bank0
  2489     0E1A  083C               	movf	main_menu@star,w
  2490     0E1B  00B9               	movwf	??_main_menu
  2491     0E1C  01BA               	clrf	??_main_menu+1
  2492     0E1D  0839               	movf	??_main_menu,w
  2493     0E1E  00A0               	movwf	print_star@position
  2494     0E1F  083A               	movf	??_main_menu+1,w
  2495     0E20  00A1               	movwf	print_star@position+1
  2496     0E21  160A  118A  2792  120A  158A  	fcall	_print_star
  2497     0E26                     l3927:
  2498                           
  2499                           ;dashboard.c: 180:   clcd_print(menu_options[menu_index], (0x80 + 2));
  2500     0E26  1283               	bcf	3,5	;RP0=0, select bank0
  2501     0E27  1303               	bcf	3,6	;RP1=0, select bank0
  2502     0E28  083F               	movf	main_menu@menu_index,w
  2503     0E29  00B9               	movwf	??_main_menu
  2504     0E2A  0739               	addwf	??_main_menu,w
  2505     0E2B  3ED6               	addlw	(low (_menu_options| 0))& (0+255)
  2506     0E2C  0084               	movwf	4
  2507     0E2D  1383               	bcf	3,7	;select IRP bank1
  2508     0E2E  0800               	movf	0,w
  2509     0E2F  00F6               	movwf	clcd_print@str
  2510     0E30  0A84               	incf	4,f
  2511     0E31  0800               	movf	0,w
  2512     0E32  0384               	decf	4,f
  2513     0E33  00F7               	movwf	clcd_print@str+1
  2514     0E34  3082               	movlw	130
  2515     0E35  00F8               	movwf	clcd_print@addr
  2516     0E36  160A  118A  2668  120A  158A  	fcall	_clcd_print
  2517     0E3B                     l3929:
  2518                           
  2519                           ;dashboard.c: 181:   clcd_print(menu_options[menu_index + 1], (0xC0 + 2));
  2520     0E3B  1283               	bcf	3,5	;RP0=0, select bank0
  2521     0E3C  1303               	bcf	3,6	;RP1=0, select bank0
  2522     0E3D  083F               	movf	main_menu@menu_index,w
  2523     0E3E  00B9               	movwf	??_main_menu
  2524     0E3F  0739               	addwf	??_main_menu,w
  2525     0E40  3ED8               	addlw	(low ((_menu_options| 0+2)))& (0+255)
  2526     0E41  0084               	movwf	4
  2527     0E42  1383               	bcf	3,7	;select IRP bank1
  2528     0E43  0800               	movf	0,w
  2529     0E44  00F6               	movwf	clcd_print@str
  2530     0E45  0A84               	incf	4,f
  2531     0E46  0800               	movf	0,w
  2532     0E47  0384               	decf	4,f
  2533     0E48  00F7               	movwf	clcd_print@str+1
  2534     0E49  30C2               	movlw	194
  2535     0E4A  00F8               	movwf	clcd_print@addr
  2536     0E4B  160A  118A  2668  120A  158A  	fcall	_clcd_print
  2537     0E50                     l3931:
  2538                           
  2539                           ;dashboard.c: 183:   key = read_digital_keypad(1);
  2540     0E50  3001               	movlw	1
  2541     0E51  160A  118A  25E8  120A  158A  	fcall	_read_digital_keypad
  2542     0E56  1283               	bcf	3,5	;RP0=0, select bank0
  2543     0E57  1303               	bcf	3,6	;RP1=0, select bank0
  2544     0E58  00BB               	movwf	main_menu@key
  2545     0E59                     l3933:
  2546                           
  2547                           ;dashboard.c: 185:   if(key == 0x3E){
  2548     0E59  303E               	movlw	62
  2549     0E5A  063B               	xorwf	main_menu@key,w
  2550     0E5B  1D03               	btfss	3,2
  2551     0E5C  2E5E               	goto	u4431
  2552     0E5D  2E5F               	goto	u4430
  2553     0E5E                     u4431:
  2554     0E5E  2E73               	goto	l3943
  2555     0E5F                     u4430:
  2556     0E5F                     l3935:
  2557                           
  2558                           ;dashboard.c: 186:    if(star == 1){
  2559     0E5F  033C               	decf	main_menu@star,w
  2560     0E60  1D03               	btfss	3,2
  2561     0E61  2E63               	goto	u4441
  2562     0E62  2E64               	goto	u4440
  2563     0E63                     u4441:
  2564     0E63  2E66               	goto	l3939
  2565     0E64                     u4440:
  2566     0E64                     l3937:
  2567                           
  2568                           ;dashboard.c: 187:     star = 0;
  2569     0E64  01BC               	clrf	main_menu@star
  2570                           
  2571                           ;dashboard.c: 188:    }
  2572     0E65  2E18               	goto	l3925
  2573     0E66                     l3939:
  2574     0E66  083F               	movf	main_menu@menu_index,w
  2575     0E67  0440               	iorwf	main_menu@menu_index+1,w
  2576     0E68  1903               	btfsc	3,2
  2577     0E69  2E6B               	goto	u4451
  2578     0E6A  2E6C               	goto	u4450
  2579     0E6B                     u4451:
  2580     0E6B  2E18               	goto	l3925
  2581     0E6C                     u4450:
  2582     0E6C                     l3941:
  2583     0E6C  3001               	movlw	1
  2584     0E6D  02BF               	subwf	main_menu@menu_index,f
  2585     0E6E  3000               	movlw	0
  2586     0E6F  1C03               	skipc
  2587     0E70  03C0               	decf	main_menu@menu_index+1,f
  2588     0E71  02C0               	subwf	main_menu@menu_index+1,f
  2589     0E72  2E18               	goto	l3925
  2590     0E73                     l3943:
  2591     0E73  303D               	movlw	61
  2592     0E74  063B               	xorwf	main_menu@key,w
  2593     0E75  1D03               	btfss	3,2
  2594     0E76  2E78               	goto	u4461
  2595     0E77  2E79               	goto	u4460
  2596     0E78                     u4461:
  2597     0E78  2E91               	goto	l3953
  2598     0E79                     u4460:
  2599     0E79                     l3945:
  2600                           
  2601                           ;dashboard.c: 194:    if(star == 0){
  2602     0E79  083C               	movf	main_menu@star,w
  2603     0E7A  1D03               	btfss	3,2
  2604     0E7B  2E7D               	goto	u4471
  2605     0E7C  2E7E               	goto	u4470
  2606     0E7D                     u4471:
  2607     0E7D  2E81               	goto	l3949
  2608     0E7E                     u4470:
  2609     0E7E                     l3947:
  2610                           
  2611                           ;dashboard.c: 195:     star = 1;
  2612     0E7E  3001               	movlw	1
  2613     0E7F  00BC               	movwf	main_menu@star
  2614                           
  2615                           ;dashboard.c: 196:    }
  2616     0E80  2E18               	goto	l3925
  2617     0E81                     l3949:
  2618     0E81  3000               	movlw	0
  2619     0E82  0240               	subwf	main_menu@menu_index+1,w
  2620     0E83  3003               	movlw	3
  2621     0E84  1903               	skipnz
  2622     0E85  023F               	subwf	main_menu@menu_index,w
  2623     0E86  1803               	skipnc
  2624     0E87  2E89               	goto	u4481
  2625     0E88  2E8A               	goto	u4480
  2626     0E89                     u4481:
  2627     0E89  2E18               	goto	l3925
  2628     0E8A                     u4480:
  2629     0E8A                     l3951:
  2630     0E8A  3001               	movlw	1
  2631     0E8B  07BF               	addwf	main_menu@menu_index,f
  2632     0E8C  1803               	skipnc
  2633     0E8D  0AC0               	incf	main_menu@menu_index+1,f
  2634     0E8E  3000               	movlw	0
  2635     0E8F  07C0               	addwf	main_menu@menu_index+1,f
  2636     0E90  2E18               	goto	l3925
  2637     0E91                     l3953:
  2638     0E91  3037               	movlw	55
  2639     0E92  063B               	xorwf	main_menu@key,w
  2640     0E93  1D03               	btfss	3,2
  2641     0E94  2E96               	goto	u4491
  2642     0E95  2E97               	goto	u4490
  2643     0E96                     u4491:
  2644     0E96  2EE4               	goto	l3979
  2645     0E97                     u4490:
  2646     0E97                     l3955:
  2647                           
  2648                           ;dashboard.c: 203:    unsigned int selected_menu = menu_index + star;
  2649     0E97  083C               	movf	main_menu@star,w
  2650     0E98  073F               	addwf	main_menu@menu_index,w
  2651     0E99  00BD               	movwf	main_menu@selected_menu
  2652     0E9A  0840               	movf	main_menu@menu_index+1,w
  2653     0E9B  1803               	skipnc
  2654     0E9C  0A40               	incf	main_menu@menu_index+1,w
  2655     0E9D  00BE               	movwf	main_menu@selected_menu+1
  2656     0E9E                     l3957:
  2657                           
  2658                           ;dashboard.c: 204:    clear_screen();
  2659     0E9E  160A  118A  23CA  120A  158A  	fcall	_clear_screen
  2660     0EA3                     l3959:
  2661                           
  2662                           ;dashboard.c: 206:    if(selected_menu == 0){
  2663     0EA3  1283               	bcf	3,5	;RP0=0, select bank0
  2664     0EA4  1303               	bcf	3,6	;RP1=0, select bank0
  2665     0EA5  083D               	movf	main_menu@selected_menu,w
  2666     0EA6  043E               	iorwf	main_menu@selected_menu+1,w
  2667     0EA7  1D03               	btfss	3,2
  2668     0EA8  2EAA               	goto	u4501
  2669     0EA9  2EAB               	goto	u4500
  2670     0EAA                     u4501:
  2671     0EAA  2EB1               	goto	l3963
  2672     0EAB                     u4500:
  2673     0EAB                     l3961:
  2674                           
  2675                           ;dashboard.c: 207:     view_log();
  2676     0EAB  120A  118A  245E  120A  158A  	fcall	_view_log
  2677                           
  2678                           ;dashboard.c: 208:    }
  2679     0EB0  2E18               	goto	l3925
  2680     0EB1                     l3963:
  2681     0EB1  033D               	decf	main_menu@selected_menu,w
  2682     0EB2  043E               	iorwf	main_menu@selected_menu+1,w
  2683     0EB3  1D03               	btfss	3,2
  2684     0EB4  2EB6               	goto	u4511
  2685     0EB5  2EB7               	goto	u4510
  2686     0EB6                     u4511:
  2687     0EB6  2EBD               	goto	l3967
  2688     0EB7                     u4510:
  2689     0EB7                     l3965:
  2690                           
  2691                           ;dashboard.c: 210:     clear_log();
  2692     0EB7  160A  118A  24B1  120A  158A  	fcall	_clear_log
  2693                           
  2694                           ;dashboard.c: 211:    }
  2695     0EBC  2E18               	goto	l3925
  2696     0EBD                     l3967:
  2697     0EBD  3002               	movlw	2
  2698     0EBE  063D               	xorwf	main_menu@selected_menu,w
  2699     0EBF  043E               	iorwf	main_menu@selected_menu+1,w
  2700     0EC0  1D03               	btfss	3,2
  2701     0EC1  2EC3               	goto	u4521
  2702     0EC2  2EC4               	goto	u4520
  2703     0EC3                     u4521:
  2704     0EC3  2ECA               	goto	l3971
  2705     0EC4                     u4520:
  2706     0EC4                     l3969:
  2707                           
  2708                           ;dashboard.c: 213:     download_log();
  2709     0EC4  120A  158A  215B  120A  158A  	fcall	_download_log
  2710                           
  2711                           ;dashboard.c: 214:    }
  2712     0EC9  2E18               	goto	l3925
  2713     0ECA                     l3971:
  2714     0ECA  3003               	movlw	3
  2715     0ECB  063D               	xorwf	main_menu@selected_menu,w
  2716     0ECC  043E               	iorwf	main_menu@selected_menu+1,w
  2717     0ECD  1D03               	btfss	3,2
  2718     0ECE  2ED0               	goto	u4531
  2719     0ECF  2ED1               	goto	u4530
  2720     0ED0                     u4531:
  2721     0ED0  2ED7               	goto	l3975
  2722     0ED1                     u4530:
  2723     0ED1                     l3973:
  2724                           
  2725                           ;dashboard.c: 216:     set_time();
  2726     0ED1  120A  118A  2040  120A  158A  	fcall	_set_time
  2727                           
  2728                           ;dashboard.c: 217:    }
  2729     0ED6  2E18               	goto	l3925
  2730     0ED7                     l3975:
  2731     0ED7  3004               	movlw	4
  2732     0ED8  063D               	xorwf	main_menu@selected_menu,w
  2733     0ED9  043E               	iorwf	main_menu@selected_menu+1,w
  2734     0EDA  1D03               	btfss	3,2
  2735     0EDB  2EDD               	goto	u4541
  2736     0EDC  2EDE               	goto	u4540
  2737     0EDD                     u4541:
  2738     0EDD  2E18               	goto	l3925
  2739     0EDE                     u4540:
  2740     0EDE                     l3977:
  2741                           
  2742                           ;dashboard.c: 219:     change_password();
  2743     0EDE  120A  158A  227F  120A  158A  	fcall	_change_password
  2744     0EE3  2E18               	goto	l3925
  2745     0EE4                     l3979:
  2746     0EE4  302F               	movlw	47
  2747     0EE5  063B               	xorwf	main_menu@key,w
  2748     0EE6  1D03               	btfss	3,2
  2749     0EE7  2EE9               	goto	u4551
  2750     0EE8  2EEA               	goto	u4550
  2751     0EE9                     u4551:
  2752     0EE9  2E18               	goto	l3925
  2753     0EEA                     u4550:
  2754     0EEA                     l3981:
  2755                           
  2756                           ;dashboard.c: 225:    clear_screen();
  2757     0EEA  160A  118A  23CA  120A  158A  	fcall	_clear_screen
  2758     0EEF                     l3983:
  2759                           
  2760                           ;dashboard.c: 226:    access = 0;
  2761     0EEF  1283               	bcf	3,5	;RP0=0, select bank0
  2762     0EF0  1303               	bcf	3,6	;RP1=0, select bank0
  2763     0EF1  01DB               	clrf	_access
  2764     0EF2                     l303:
  2765     0EF2  0008               	return
  2766     0EF3                     __end_of_main_menu:
  2767                           
  2768                           	psect	text2
  2769     045E                     __ptext2:	
  2770 ;; *************** function _view_log *****************
  2771 ;; Defined at:
  2772 ;;		line 255 in file "dashboard.c"
  2773 ;; Parameters:    Size  Location     Type
  2774 ;;		None
  2775 ;; Auto vars:     Size  Location     Type
  2776 ;;  curr_log        2   14[BANK0 ] unsigned int 
  2777 ;;  key             2   12[BANK0 ] unsigned int 
  2778 ;;  log             2    0        PTR unsigned char 
  2779 ;; Return value:  Size  Location     Type
  2780 ;;                  1    wreg      void 
  2781 ;; Registers used:
  2782 ;;		wreg, fsr0l, fsr0h, status,2, status,0, pclath, btemp1, cstack
  2783 ;; Tracked objects:
  2784 ;;		On entry : 0/0
  2785 ;;		On exit  : 0/0
  2786 ;;		Unchanged: 0/0
  2787 ;; Data sizes:     COMMON   BANK0   BANK1   BANK3   BANK2
  2788 ;;      Params:         0       0       0       0       0
  2789 ;;      Locals:         0       4       0       0       0
  2790 ;;      Temps:          0       2       0       0       0
  2791 ;;      Totals:         0       6       0       0       0
  2792 ;;Total ram usage:        6 bytes
  2793 ;; Hardware stack levels used: 1
  2794 ;; Hardware stack levels required when called: 2
  2795 ;; This function calls:
  2796 ;;		_clcd_print
  2797 ;;		_read_and_format_log
  2798 ;;		_read_digital_keypad
  2799 ;; This function is called by:
  2800 ;;		_main_menu
  2801 ;; This function uses a non-reentrant model
  2802 ;;
  2803                           
  2804     045E                     _view_log:	
  2805                           ;psect for function _view_log
  2806                           
  2807     045E                     l3679:	
  2808                           ;incstack = 0
  2809                           ; Regs used in _view_log: [wreg-fsr0h+status,2+status,0+pclath+btemp1+cstack]
  2810                           
  2811                           
  2812                           ;dashboard.c: 258:  char *log;;dashboard.c: 259:  unsigned int curr_log = 0;
  2813     045E  1283               	bcf	3,5	;RP0=0, select bank0
  2814     045F  1303               	bcf	3,6	;RP1=0, select bank0
  2815     0460  01AE               	clrf	view_log@curr_log
  2816     0461  01AF               	clrf	view_log@curr_log+1
  2817     0462                     l3681:
  2818                           
  2819                           ;dashboard.c: 260:  unsigned int key;;dashboard.c: 263:  read_and_format_log(curr_log);
  2820     0462  3000               	movlw	0
  2821     0463  120A  158A  2366  120A  118A  	fcall	_read_and_format_log
  2822     0468                     l3683:
  2823                           
  2824                           ;dashboard.c: 268:   if(event_count == 0){
  2825     0468  1283               	bcf	3,5	;RP0=0, select bank0
  2826     0469  1303               	bcf	3,6	;RP1=0, select bank0
  2827     046A  0857               	movf	_event_count,w
  2828     046B  0458               	iorwf	_event_count+1,w
  2829     046C  1D03               	btfss	3,2
  2830     046D  2C6F               	goto	u4061
  2831     046E  2C70               	goto	u4060
  2832     046F                     u4061:
  2833     046F  2C87               	goto	l3687
  2834     0470                     u4060:
  2835     0470                     l3685:
  2836                           
  2837                           ;dashboard.c: 269:    clcd_print("No Logs", (0x80 + 0));
  2838     0470  3078               	movlw	low (STR_19| (0+32768))
  2839     0471  00F6               	movwf	clcd_print@str
  2840     0472  3086               	movlw	high (STR_19| (0+32768))
  2841     0473  00F7               	movwf	clcd_print@str+1
  2842     0474  3080               	movlw	128
  2843     0475  00F8               	movwf	clcd_print@addr
  2844     0476  160A  118A  2668  120A  118A  	fcall	_clcd_print
  2845                           
  2846                           ;dashboard.c: 270:    clcd_print("Available", (0xC0 + 0));
  2847     047B  3065               	movlw	low (STR_20| (0+32768))
  2848     047C  00F6               	movwf	clcd_print@str
  2849     047D  3086               	movlw	high (STR_20| (0+32768))
  2850     047E  00F7               	movwf	clcd_print@str+1
  2851     047F  30C0               	movlw	192
  2852     0480  00F8               	movwf	clcd_print@addr
  2853     0481  160A  118A  2668  120A  118A  	fcall	_clcd_print
  2854                           
  2855                           ;dashboard.c: 271:   }
  2856     0486  2C9D               	goto	l3689
  2857     0487                     l3687:
  2858                           
  2859                           ;dashboard.c: 274:    clcd_print("# TIME     EV SP", (0x80 + 0));
  2860     0487  30BE               	movlw	low (STR_21| (0+32768))
  2861     0488  00F6               	movwf	clcd_print@str
  2862     0489  3085               	movlw	high (STR_21| (0+32768))
  2863     048A  00F7               	movwf	clcd_print@str+1
  2864     048B  3080               	movlw	128
  2865     048C  00F8               	movwf	clcd_print@addr
  2866     048D  160A  118A  2668  120A  118A  	fcall	_clcd_print
  2867                           
  2868                           ;dashboard.c: 275:    clcd_print(logs, (0xC0 + 0));
  2869     0492  30A5               	movlw	(low (_logs| 0))& (0+255)
  2870     0493  00F6               	movwf	clcd_print@str
  2871     0494  3000               	movlw	0
  2872     0495  00F7               	movwf	clcd_print@str+1
  2873     0496  30C0               	movlw	192
  2874     0497  00F8               	movwf	clcd_print@addr
  2875     0498  160A  118A  2668  120A  118A  	fcall	_clcd_print
  2876     049D                     l3689:
  2877                           
  2878                           ;dashboard.c: 279:   key = read_digital_keypad(1);
  2879     049D  3001               	movlw	1
  2880     049E  160A  118A  25E8  120A  118A  	fcall	_read_digital_keypad
  2881     04A3  1283               	bcf	3,5	;RP0=0, select bank0
  2882     04A4  1303               	bcf	3,6	;RP1=0, select bank0
  2883     04A5  00AA               	movwf	??_view_log
  2884     04A6  01AB               	clrf	??_view_log+1
  2885     04A7  082A               	movf	??_view_log,w
  2886     04A8  00AC               	movwf	view_log@key
  2887     04A9  082B               	movf	??_view_log+1,w
  2888     04AA  00AD               	movwf	view_log@key+1
  2889     04AB                     l3691:
  2890                           
  2891                           ;dashboard.c: 281:   if(key == 0x3E){
  2892     04AB  303E               	movlw	62
  2893     04AC  062C               	xorwf	view_log@key,w
  2894     04AD  042D               	iorwf	view_log@key+1,w
  2895     04AE  1D03               	btfss	3,2
  2896     04AF  2CB1               	goto	u4071
  2897     04B0  2CB2               	goto	u4070
  2898     04B1                     u4071:
  2899     04B1  2CC5               	goto	l3699
  2900     04B2                     u4070:
  2901     04B2                     l3693:
  2902                           
  2903                           ;dashboard.c: 282:    if(curr_log > 0) curr_log--;
  2904     04B2  082E               	movf	view_log@curr_log,w
  2905     04B3  042F               	iorwf	view_log@curr_log+1,w
  2906     04B4  1903               	btfsc	3,2
  2907     04B5  2CB7               	goto	u4081
  2908     04B6  2CB8               	goto	u4080
  2909     04B7                     u4081:
  2910     04B7  2CBE               	goto	l3697
  2911     04B8                     u4080:
  2912     04B8                     l3695:
  2913     04B8  3001               	movlw	1
  2914     04B9  02AE               	subwf	view_log@curr_log,f
  2915     04BA  3000               	movlw	0
  2916     04BB  1C03               	skipc
  2917     04BC  03AF               	decf	view_log@curr_log+1,f
  2918     04BD  02AF               	subwf	view_log@curr_log+1,f
  2919     04BE                     l3697:
  2920                           
  2921                           ;dashboard.c: 283:    read_and_format_log(curr_log);
  2922     04BE  082E               	movf	view_log@curr_log,w
  2923     04BF  120A  158A  2366  120A  118A  	fcall	_read_and_format_log
  2924                           
  2925                           ;dashboard.c: 284:   }
  2926     04C4  2C68               	goto	l3683
  2927     04C5                     l3699:
  2928     04C5  303D               	movlw	61
  2929     04C6  062C               	xorwf	view_log@key,w
  2930     04C7  042D               	iorwf	view_log@key+1,w
  2931     04C8  1D03               	btfss	3,2
  2932     04C9  2CCB               	goto	u4091
  2933     04CA  2CCC               	goto	u4090
  2934     04CB                     u4091:
  2935     04CB  2CEB               	goto	l3707
  2936     04CC                     u4090:
  2937     04CC                     l3701:
  2938                           
  2939                           ;dashboard.c: 287:    if(curr_log < event_count - 1) curr_log++;
  2940     04CC  0857               	movf	_event_count,w
  2941     04CD  3EFF               	addlw	255
  2942     04CE  00AA               	movwf	??_view_log
  2943     04CF  0858               	movf	_event_count+1,w
  2944     04D0  1803               	skipnc
  2945     04D1  3E01               	addlw	1
  2946     04D2  3EFF               	addlw	255
  2947     04D3  00AB               	movwf	??_view_log+1
  2948     04D4  082B               	movf	??_view_log+1,w
  2949     04D5  022F               	subwf	view_log@curr_log+1,w
  2950     04D6  1D03               	skipz
  2951     04D7  2CDA               	goto	u4105
  2952     04D8  082A               	movf	??_view_log,w
  2953     04D9  022E               	subwf	view_log@curr_log,w
  2954     04DA                     u4105:
  2955     04DA  1803               	skipnc
  2956     04DB  2CDD               	goto	u4101
  2957     04DC  2CDE               	goto	u4100
  2958     04DD                     u4101:
  2959     04DD  2CE4               	goto	l3705
  2960     04DE                     u4100:
  2961     04DE                     l3703:
  2962     04DE  3001               	movlw	1
  2963     04DF  07AE               	addwf	view_log@curr_log,f
  2964     04E0  1803               	skipnc
  2965     04E1  0AAF               	incf	view_log@curr_log+1,f
  2966     04E2  3000               	movlw	0
  2967     04E3  07AF               	addwf	view_log@curr_log+1,f
  2968     04E4                     l3705:
  2969                           
  2970                           ;dashboard.c: 288:    read_and_format_log(curr_log);
  2971     04E4  082E               	movf	view_log@curr_log,w
  2972     04E5  120A  158A  2366  120A  118A  	fcall	_read_and_format_log
  2973                           
  2974                           ;dashboard.c: 289:   }
  2975     04EA  2C68               	goto	l3683
  2976     04EB                     l3707:
  2977     04EB  302F               	movlw	47
  2978     04EC  062C               	xorwf	view_log@key,w
  2979     04ED  042D               	iorwf	view_log@key+1,w
  2980     04EE  1D03               	btfss	3,2
  2981     04EF  2CF1               	goto	u4111
  2982     04F0  2CF2               	goto	u4110
  2983     04F1                     u4111:
  2984     04F1  2C68               	goto	l3683
  2985     04F2                     u4110:
  2986     04F2                     l356:
  2987     04F2  0008               	return
  2988     04F3                     __end_of_view_log:
  2989                           
  2990                           	psect	text3
  2991     0040                     __ptext3:	
  2992 ;; *************** function _set_time *****************
  2993 ;; Defined at:
  2994 ;;		line 344 in file "dashboard.c"
  2995 ;; Parameters:    Size  Location     Type
  2996 ;;		None
  2997 ;; Auto vars:     Size  Location     Type
  2998 ;;  indicator       2   13[BANK0 ] unsigned int 
  2999 ;;  sec             2   11[BANK0 ] unsigned int 
  3000 ;;  min             2    9[BANK0 ] unsigned int 
  3001 ;;  hour            2    7[BANK0 ] unsigned int 
  3002 ;;  key             1    6[BANK0 ] unsigned char 
  3003 ;; Return value:  Size  Location     Type
  3004 ;;                  1    wreg      void 
  3005 ;; Registers used:
  3006 ;;		wreg, fsr0l, fsr0h, status,2, status,0, pclath, btemp1, cstack
  3007 ;; Tracked objects:
  3008 ;;		On entry : 0/0
  3009 ;;		On exit  : 0/0
  3010 ;;		Unchanged: 0/0
  3011 ;; Data sizes:     COMMON   BANK0   BANK1   BANK3   BANK2
  3012 ;;      Params:         0       0       0       0       0
  3013 ;;      Locals:         0       9       0       0       0
  3014 ;;      Temps:          0       4       0       0       0
  3015 ;;      Totals:         0      13       0       0       0
  3016 ;;Total ram usage:       13 bytes
  3017 ;; Hardware stack levels used: 1
  3018 ;; Hardware stack levels required when called: 3
  3019 ;; This function calls:
  3020 ;;		___lwdiv
  3021 ;;		___lwmod
  3022 ;;		___wmul
  3023 ;;		_clcd_print
  3024 ;;		_clcd_putch
  3025 ;;		_display_indicator
  3026 ;;		_read_digital_keypad
  3027 ;;		_write_ds1307
  3028 ;; This function is called by:
  3029 ;;		_main_menu
  3030 ;; This function uses a non-reentrant model
  3031 ;;
  3032                           
  3033     0040                     _set_time:	
  3034                           ;psect for function _set_time
  3035                           
  3036     0040                     l3733:	
  3037                           ;incstack = 0
  3038                           ; Regs used in _set_time: [wreg-fsr0h+status,2+status,0+pclath+btemp1+cstack]
  3039                           
  3040                           
  3041                           ;dashboard.c: 347:  unsigned int hour = ((time[0] - '0') * 10) + (time[1] - '0');
  3042     0040  1283               	bcf	3,5	;RP0=0, select bank0
  3043     0041  1303               	bcf	3,6	;RP1=0, select bank0
  3044     0042  085C               	movf	_time,w
  3045     0043  00A2               	movwf	??_set_time
  3046     0044  01A3               	clrf	??_set_time+1
  3047     0045  0822               	movf	??_set_time,w
  3048     0046  00F2               	movwf	___wmul@multiplier
  3049     0047  0823               	movf	??_set_time+1,w
  3050     0048  00F3               	movwf	___wmul@multiplier+1
  3051     0049  300A               	movlw	10
  3052     004A  00F4               	movwf	___wmul@multiplicand
  3053     004B  3000               	movlw	0
  3054     004C  00F5               	movwf	___wmul@multiplicand+1
  3055     004D  160A  118A  2575  120A  118A  	fcall	___wmul
  3056     0052  1283               	bcf	3,5	;RP0=0, select bank0
  3057     0053  1303               	bcf	3,6	;RP1=0, select bank0
  3058     0054  085D               	movf	_time+1,w
  3059     0055  0772               	addwf	?___wmul,w
  3060     0056  00A4               	movwf	??_set_time+2
  3061     0057  3000               	movlw	0
  3062     0058  1803               	skipnc
  3063     0059  3001               	movlw	1
  3064     005A  0773               	addwf	?___wmul+1,w
  3065     005B  00A5               	movwf	??_set_time+3
  3066     005C  0824               	movf	??_set_time+2,w
  3067     005D  3EF0               	addlw	240
  3068     005E  00A7               	movwf	set_time@hour
  3069     005F  0825               	movf	??_set_time+3,w
  3070     0060  1803               	skipnc
  3071     0061  3E01               	addlw	1
  3072     0062  3EFD               	addlw	253
  3073     0063  00A8               	movwf	set_time@hour+1
  3074                           
  3075                           ;dashboard.c: 348:  unsigned int min = ((time[3] - '0') * 10) + (time[4] - '0');
  3076     0064  085F               	movf	_time+3,w
  3077     0065  00A2               	movwf	??_set_time
  3078     0066  01A3               	clrf	??_set_time+1
  3079     0067  0822               	movf	??_set_time,w
  3080     0068  00F2               	movwf	___wmul@multiplier
  3081     0069  0823               	movf	??_set_time+1,w
  3082     006A  00F3               	movwf	___wmul@multiplier+1
  3083     006B  300A               	movlw	10
  3084     006C  00F4               	movwf	___wmul@multiplicand
  3085     006D  3000               	movlw	0
  3086     006E  00F5               	movwf	___wmul@multiplicand+1
  3087     006F  160A  118A  2575  120A  118A  	fcall	___wmul
  3088     0074  1283               	bcf	3,5	;RP0=0, select bank0
  3089     0075  1303               	bcf	3,6	;RP1=0, select bank0
  3090     0076  0860               	movf	_time+4,w
  3091     0077  0772               	addwf	?___wmul,w
  3092     0078  00A4               	movwf	??_set_time+2
  3093     0079  3000               	movlw	0
  3094     007A  1803               	skipnc
  3095     007B  3001               	movlw	1
  3096     007C  0773               	addwf	?___wmul+1,w
  3097     007D  00A5               	movwf	??_set_time+3
  3098     007E  0824               	movf	??_set_time+2,w
  3099     007F  3EF0               	addlw	240
  3100     0080  00A9               	movwf	set_time@min
  3101     0081  0825               	movf	??_set_time+3,w
  3102     0082  1803               	skipnc
  3103     0083  3E01               	addlw	1
  3104     0084  3EFD               	addlw	253
  3105     0085  00AA               	movwf	set_time@min+1
  3106                           
  3107                           ;dashboard.c: 349:  unsigned int sec = ((time[6] - '0') * 10) + (time[7] - '0');
  3108     0086  0862               	movf	_time+6,w
  3109     0087  00A2               	movwf	??_set_time
  3110     0088  01A3               	clrf	??_set_time+1
  3111     0089  0822               	movf	??_set_time,w
  3112     008A  00F2               	movwf	___wmul@multiplier
  3113     008B  0823               	movf	??_set_time+1,w
  3114     008C  00F3               	movwf	___wmul@multiplier+1
  3115     008D  300A               	movlw	10
  3116     008E  00F4               	movwf	___wmul@multiplicand
  3117     008F  3000               	movlw	0
  3118     0090  00F5               	movwf	___wmul@multiplicand+1
  3119     0091  160A  118A  2575  120A  118A  	fcall	___wmul
  3120     0096  1283               	bcf	3,5	;RP0=0, select bank0
  3121     0097  1303               	bcf	3,6	;RP1=0, select bank0
  3122     0098  0863               	movf	_time+7,w
  3123     0099  0772               	addwf	?___wmul,w
  3124     009A  00A4               	movwf	??_set_time+2
  3125     009B  3000               	movlw	0
  3126     009C  1803               	skipnc
  3127     009D  3001               	movlw	1
  3128     009E  0773               	addwf	?___wmul+1,w
  3129     009F  00A5               	movwf	??_set_time+3
  3130     00A0  0824               	movf	??_set_time+2,w
  3131     00A1  3EF0               	addlw	240
  3132     00A2  00AB               	movwf	set_time@sec
  3133     00A3  0825               	movf	??_set_time+3,w
  3134     00A4  1803               	skipnc
  3135     00A5  3E01               	addlw	1
  3136     00A6  3EFD               	addlw	253
  3137     00A7  00AC               	movwf	set_time@sec+1
  3138     00A8                     l3735:
  3139                           
  3140                           ;dashboard.c: 350:  unsigned int indicator = 0;
  3141     00A8  01AD               	clrf	set_time@indicator
  3142     00A9  01AE               	clrf	set_time@indicator+1
  3143     00AA                     l3737:
  3144                           
  3145                           ;dashboard.c: 351:  unsigned char key;;dashboard.c: 353:  clcd_print("    HH:MM:SS    ",
      +                           (0x80 + 0));
  3146     00AA  3069               	movlw	low (STR_29| (0+32768))
  3147     00AB  00F6               	movwf	clcd_print@str
  3148     00AC  3085               	movlw	high (STR_29| (0+32768))
  3149     00AD  00F7               	movwf	clcd_print@str+1
  3150     00AE  3080               	movlw	128
  3151     00AF  00F8               	movwf	clcd_print@addr
  3152     00B0  160A  118A  2668  120A  118A  	fcall	_clcd_print
  3153     00B5                     l3739:
  3154                           
  3155                           ;dashboard.c: 358:   clcd_putch((hour / 10) + '0', (0xC0 + 4));
  3156     00B5  30C4               	movlw	196
  3157     00B6  00F9               	movwf	clcd_putch@addr
  3158     00B7  300A               	movlw	10
  3159     00B8  00F2               	movwf	___lwdiv@divisor
  3160     00B9  3000               	movlw	0
  3161     00BA  00F3               	movwf	___lwdiv@divisor+1
  3162     00BB  1283               	bcf	3,5	;RP0=0, select bank0
  3163     00BC  1303               	bcf	3,6	;RP1=0, select bank0
  3164     00BD  0828               	movf	set_time@hour+1,w
  3165     00BE  00F5               	movwf	___lwdiv@dividend+1
  3166     00BF  0827               	movf	set_time@hour,w
  3167     00C0  00F4               	movwf	___lwdiv@dividend
  3168     00C1  120A  158A  206E  120A  118A  	fcall	___lwdiv
  3169     00C6  0872               	movf	?___lwdiv,w
  3170     00C7  3E30               	addlw	48
  3171     00C8  160A  118A  2449  120A  118A  	fcall	_clcd_putch
  3172     00CD                     l3741:
  3173                           
  3174                           ;dashboard.c: 359:   clcd_putch((hour % 10) + '0', (0xC0 + 5));
  3175     00CD  30C5               	movlw	197
  3176     00CE  00F9               	movwf	clcd_putch@addr
  3177     00CF  300A               	movlw	10
  3178     00D0  00F2               	movwf	___lwmod@divisor
  3179     00D1  3000               	movlw	0
  3180     00D2  00F3               	movwf	___lwmod@divisor+1
  3181     00D3  1283               	bcf	3,5	;RP0=0, select bank0
  3182     00D4  1303               	bcf	3,6	;RP1=0, select bank0
  3183     00D5  0828               	movf	set_time@hour+1,w
  3184     00D6  00F5               	movwf	___lwmod@dividend+1
  3185     00D7  0827               	movf	set_time@hour,w
  3186     00D8  00F4               	movwf	___lwmod@dividend
  3187     00D9  160A  118A  27C8  120A  118A  	fcall	___lwmod
  3188     00DE  0872               	movf	?___lwmod,w
  3189     00DF  3E30               	addlw	48
  3190     00E0  160A  118A  2449  120A  118A  	fcall	_clcd_putch
  3191     00E5                     l3743:
  3192                           
  3193                           ;dashboard.c: 360:   clcd_putch(':', (0xC0 + 6));
  3194     00E5  30C6               	movlw	198
  3195     00E6  00F9               	movwf	clcd_putch@addr
  3196     00E7  303A               	movlw	58
  3197     00E8  160A  118A  2449  120A  118A  	fcall	_clcd_putch
  3198     00ED                     l3745:
  3199                           
  3200                           ;dashboard.c: 363:   clcd_putch((min / 10) + '0', (0xC0 + 7));
  3201     00ED  30C7               	movlw	199
  3202     00EE  00F9               	movwf	clcd_putch@addr
  3203     00EF  300A               	movlw	10
  3204     00F0  00F2               	movwf	___lwdiv@divisor
  3205     00F1  3000               	movlw	0
  3206     00F2  00F3               	movwf	___lwdiv@divisor+1
  3207     00F3  1283               	bcf	3,5	;RP0=0, select bank0
  3208     00F4  1303               	bcf	3,6	;RP1=0, select bank0
  3209     00F5  082A               	movf	set_time@min+1,w
  3210     00F6  00F5               	movwf	___lwdiv@dividend+1
  3211     00F7  0829               	movf	set_time@min,w
  3212     00F8  00F4               	movwf	___lwdiv@dividend
  3213     00F9  120A  158A  206E  120A  118A  	fcall	___lwdiv
  3214     00FE  0872               	movf	?___lwdiv,w
  3215     00FF  3E30               	addlw	48
  3216     0100  160A  118A  2449  120A  118A  	fcall	_clcd_putch
  3217     0105                     l3747:
  3218                           
  3219                           ;dashboard.c: 364:   clcd_putch((min % 10) + '0', (0xC0 + 8));
  3220     0105  30C8               	movlw	200
  3221     0106  00F9               	movwf	clcd_putch@addr
  3222     0107  300A               	movlw	10
  3223     0108  00F2               	movwf	___lwmod@divisor
  3224     0109  3000               	movlw	0
  3225     010A  00F3               	movwf	___lwmod@divisor+1
  3226     010B  1283               	bcf	3,5	;RP0=0, select bank0
  3227     010C  1303               	bcf	3,6	;RP1=0, select bank0
  3228     010D  082A               	movf	set_time@min+1,w
  3229     010E  00F5               	movwf	___lwmod@dividend+1
  3230     010F  0829               	movf	set_time@min,w
  3231     0110  00F4               	movwf	___lwmod@dividend
  3232     0111  160A  118A  27C8  120A  118A  	fcall	___lwmod
  3233     0116  0872               	movf	?___lwmod,w
  3234     0117  3E30               	addlw	48
  3235     0118  160A  118A  2449  120A  118A  	fcall	_clcd_putch
  3236     011D                     l3749:
  3237                           
  3238                           ;dashboard.c: 365:   clcd_putch(':', (0xC0 + 9));
  3239     011D  30C9               	movlw	201
  3240     011E  00F9               	movwf	clcd_putch@addr
  3241     011F  303A               	movlw	58
  3242     0120  160A  118A  2449  120A  118A  	fcall	_clcd_putch
  3243     0125                     l3751:
  3244                           
  3245                           ;dashboard.c: 368:   clcd_putch((sec / 10) + '0', (0xC0 + 10));
  3246     0125  30CA               	movlw	202
  3247     0126  00F9               	movwf	clcd_putch@addr
  3248     0127  300A               	movlw	10
  3249     0128  00F2               	movwf	___lwdiv@divisor
  3250     0129  3000               	movlw	0
  3251     012A  00F3               	movwf	___lwdiv@divisor+1
  3252     012B  1283               	bcf	3,5	;RP0=0, select bank0
  3253     012C  1303               	bcf	3,6	;RP1=0, select bank0
  3254     012D  082C               	movf	set_time@sec+1,w
  3255     012E  00F5               	movwf	___lwdiv@dividend+1
  3256     012F  082B               	movf	set_time@sec,w
  3257     0130  00F4               	movwf	___lwdiv@dividend
  3258     0131  120A  158A  206E  120A  118A  	fcall	___lwdiv
  3259     0136  0872               	movf	?___lwdiv,w
  3260     0137  3E30               	addlw	48
  3261     0138  160A  118A  2449  120A  118A  	fcall	_clcd_putch
  3262     013D                     l3753:
  3263                           
  3264                           ;dashboard.c: 369:   clcd_putch((sec % 10) + '0', (0xC0 + 11));
  3265     013D  30CB               	movlw	203
  3266     013E  00F9               	movwf	clcd_putch@addr
  3267     013F  300A               	movlw	10
  3268     0140  00F2               	movwf	___lwmod@divisor
  3269     0141  3000               	movlw	0
  3270     0142  00F3               	movwf	___lwmod@divisor+1
  3271     0143  1283               	bcf	3,5	;RP0=0, select bank0
  3272     0144  1303               	bcf	3,6	;RP1=0, select bank0
  3273     0145  082C               	movf	set_time@sec+1,w
  3274     0146  00F5               	movwf	___lwmod@dividend+1
  3275     0147  082B               	movf	set_time@sec,w
  3276     0148  00F4               	movwf	___lwmod@dividend
  3277     0149  160A  118A  27C8  120A  118A  	fcall	___lwmod
  3278     014E  0872               	movf	?___lwmod,w
  3279     014F  3E30               	addlw	48
  3280     0150  160A  118A  2449  120A  118A  	fcall	_clcd_putch
  3281     0155                     l3755:
  3282                           
  3283                           ;dashboard.c: 371:   display_indicator(indicator);
  3284     0155  1283               	bcf	3,5	;RP0=0, select bank0
  3285     0156  1303               	bcf	3,6	;RP1=0, select bank0
  3286     0157  082E               	movf	set_time@indicator+1,w
  3287     0158  00A1               	movwf	display_indicator@pos+1
  3288     0159  082D               	movf	set_time@indicator,w
  3289     015A  00A0               	movwf	display_indicator@pos
  3290     015B  120A  158A  2035  120A  118A  	fcall	_display_indicator
  3291     0160                     l3757:
  3292                           
  3293                           ;dashboard.c: 375:   key = read_digital_keypad(1);
  3294     0160  3001               	movlw	1
  3295     0161  160A  118A  25E8  120A  118A  	fcall	_read_digital_keypad
  3296     0166  1283               	bcf	3,5	;RP0=0, select bank0
  3297     0167  1303               	bcf	3,6	;RP1=0, select bank0
  3298     0168  00A6               	movwf	set_time@key
  3299     0169                     l3759:
  3300                           
  3301                           ;dashboard.c: 377:   if(key == 0x3E){
  3302     0169  303E               	movlw	62
  3303     016A  0626               	xorwf	set_time@key,w
  3304     016B  1D03               	btfss	3,2
  3305     016C  296E               	goto	u4131
  3306     016D  296F               	goto	u4130
  3307     016E                     u4131:
  3308     016E  29C8               	goto	l3773
  3309     016F                     u4130:
  3310     016F                     l3761:
  3311                           
  3312                           ;dashboard.c: 378:    if(indicator == 0) hour = (hour + 1) % 24;
  3313     016F  082D               	movf	set_time@indicator,w
  3314     0170  042E               	iorwf	set_time@indicator+1,w
  3315     0171  1D03               	btfss	3,2
  3316     0172  2974               	goto	u4141
  3317     0173  2975               	goto	u4140
  3318     0174                     u4141:
  3319     0174  298C               	goto	l3765
  3320     0175                     u4140:
  3321     0175                     l3763:
  3322     0175  3018               	movlw	24
  3323     0176  00F2               	movwf	___lwmod@divisor
  3324     0177  3000               	movlw	0
  3325     0178  00F3               	movwf	___lwmod@divisor+1
  3326     0179  0827               	movf	set_time@hour,w
  3327     017A  3E01               	addlw	1
  3328     017B  00F4               	movwf	___lwmod@dividend
  3329     017C  0828               	movf	set_time@hour+1,w
  3330     017D  1803               	skipnc
  3331     017E  3E01               	addlw	1
  3332     017F  3E00               	addlw	0
  3333     0180  00F5               	movwf	___lwmod@dividend+1
  3334     0181  160A  118A  27C8  120A  118A  	fcall	___lwmod
  3335     0186  0873               	movf	?___lwmod+1,w
  3336     0187  1283               	bcf	3,5	;RP0=0, select bank0
  3337     0188  1303               	bcf	3,6	;RP1=0, select bank0
  3338     0189  00A8               	movwf	set_time@hour+1
  3339     018A  0872               	movf	?___lwmod,w
  3340     018B  00A7               	movwf	set_time@hour
  3341     018C                     l3765:
  3342                           
  3343                           ;dashboard.c: 380:    if(indicator == 1) min = (min + 1) % 60;
  3344     018C  032D               	decf	set_time@indicator,w
  3345     018D  042E               	iorwf	set_time@indicator+1,w
  3346     018E  1D03               	btfss	3,2
  3347     018F  2991               	goto	u4151
  3348     0190  2992               	goto	u4150
  3349     0191                     u4151:
  3350     0191  29A9               	goto	l3769
  3351     0192                     u4150:
  3352     0192                     l3767:
  3353     0192  303C               	movlw	60
  3354     0193  00F2               	movwf	___lwmod@divisor
  3355     0194  3000               	movlw	0
  3356     0195  00F3               	movwf	___lwmod@divisor+1
  3357     0196  0829               	movf	set_time@min,w
  3358     0197  3E01               	addlw	1
  3359     0198  00F4               	movwf	___lwmod@dividend
  3360     0199  082A               	movf	set_time@min+1,w
  3361     019A  1803               	skipnc
  3362     019B  3E01               	addlw	1
  3363     019C  3E00               	addlw	0
  3364     019D  00F5               	movwf	___lwmod@dividend+1
  3365     019E  160A  118A  27C8  120A  118A  	fcall	___lwmod
  3366     01A3  0873               	movf	?___lwmod+1,w
  3367     01A4  1283               	bcf	3,5	;RP0=0, select bank0
  3368     01A5  1303               	bcf	3,6	;RP1=0, select bank0
  3369     01A6  00AA               	movwf	set_time@min+1
  3370     01A7  0872               	movf	?___lwmod,w
  3371     01A8  00A9               	movwf	set_time@min
  3372     01A9                     l3769:
  3373                           
  3374                           ;dashboard.c: 382:    if(indicator == 2) sec = (sec + 1) % 60;
  3375     01A9  3002               	movlw	2
  3376     01AA  062D               	xorwf	set_time@indicator,w
  3377     01AB  042E               	iorwf	set_time@indicator+1,w
  3378     01AC  1D03               	btfss	3,2
  3379     01AD  29AF               	goto	u4161
  3380     01AE  29B0               	goto	u4160
  3381     01AF                     u4161:
  3382     01AF  28B5               	goto	l3739
  3383     01B0                     u4160:
  3384     01B0                     l3771:
  3385     01B0  303C               	movlw	60
  3386     01B1  00F2               	movwf	___lwmod@divisor
  3387     01B2  3000               	movlw	0
  3388     01B3  00F3               	movwf	___lwmod@divisor+1
  3389     01B4  082B               	movf	set_time@sec,w
  3390     01B5  3E01               	addlw	1
  3391     01B6  00F4               	movwf	___lwmod@dividend
  3392     01B7  082C               	movf	set_time@sec+1,w
  3393     01B8  1803               	skipnc
  3394     01B9  3E01               	addlw	1
  3395     01BA  3E00               	addlw	0
  3396     01BB  00F5               	movwf	___lwmod@dividend+1
  3397     01BC  160A  118A  27C8  120A  118A  	fcall	___lwmod
  3398     01C1  0873               	movf	?___lwmod+1,w
  3399     01C2  1283               	bcf	3,5	;RP0=0, select bank0
  3400     01C3  1303               	bcf	3,6	;RP1=0, select bank0
  3401     01C4  00AC               	movwf	set_time@sec+1
  3402     01C5  0872               	movf	?___lwmod,w
  3403     01C6  00AB               	movwf	set_time@sec
  3404     01C7  28B5               	goto	l3739
  3405     01C8                     l3773:
  3406     01C8  303D               	movlw	61
  3407     01C9  0626               	xorwf	set_time@key,w
  3408     01CA  1D03               	btfss	3,2
  3409     01CB  29CD               	goto	u4171
  3410     01CC  29CE               	goto	u4170
  3411     01CD                     u4171:
  3412     01CD  29E6               	goto	l3777
  3413     01CE                     u4170:
  3414     01CE                     l3775:
  3415                           
  3416                           ;dashboard.c: 386:    indicator = (indicator + 1) % 3;
  3417     01CE  3003               	movlw	3
  3418     01CF  00F2               	movwf	___lwmod@divisor
  3419     01D0  3000               	movlw	0
  3420     01D1  00F3               	movwf	___lwmod@divisor+1
  3421     01D2  082D               	movf	set_time@indicator,w
  3422     01D3  3E01               	addlw	1
  3423     01D4  00F4               	movwf	___lwmod@dividend
  3424     01D5  082E               	movf	set_time@indicator+1,w
  3425     01D6  1803               	skipnc
  3426     01D7  3E01               	addlw	1
  3427     01D8  3E00               	addlw	0
  3428     01D9  00F5               	movwf	___lwmod@dividend+1
  3429     01DA  160A  118A  27C8  120A  118A  	fcall	___lwmod
  3430     01DF  0873               	movf	?___lwmod+1,w
  3431     01E0  1283               	bcf	3,5	;RP0=0, select bank0
  3432     01E1  1303               	bcf	3,6	;RP1=0, select bank0
  3433     01E2  00AE               	movwf	set_time@indicator+1
  3434     01E3  0872               	movf	?___lwmod,w
  3435     01E4  00AD               	movwf	set_time@indicator
  3436                           
  3437                           ;dashboard.c: 387:   }
  3438     01E5  28B5               	goto	l3739
  3439     01E6                     l3777:
  3440     01E6  3037               	movlw	55
  3441     01E7  0626               	xorwf	set_time@key,w
  3442     01E8  1D03               	btfss	3,2
  3443     01E9  29EB               	goto	u4181
  3444     01EA  29EC               	goto	u4180
  3445     01EB                     u4181:
  3446     01EB  2A8D               	goto	l3785
  3447     01EC                     u4180:
  3448     01EC                     l3779:
  3449                           
  3450                           ;dashboard.c: 390:    write_ds1307(0x02, ((hour / 10) << 4) | (hour % 10));
  3451     01EC  300A               	movlw	10
  3452     01ED  00F2               	movwf	___lwmod@divisor
  3453     01EE  3000               	movlw	0
  3454     01EF  00F3               	movwf	___lwmod@divisor+1
  3455     01F0  0828               	movf	set_time@hour+1,w
  3456     01F1  00F5               	movwf	___lwmod@dividend+1
  3457     01F2  0827               	movf	set_time@hour,w
  3458     01F3  00F4               	movwf	___lwmod@dividend
  3459     01F4  160A  118A  27C8  120A  118A  	fcall	___lwmod
  3460     01F9  0872               	movf	?___lwmod,w
  3461     01FA  1283               	bcf	3,5	;RP0=0, select bank0
  3462     01FB  1303               	bcf	3,6	;RP1=0, select bank0
  3463     01FC  00A2               	movwf	??_set_time
  3464     01FD  0873               	movf	?___lwmod+1,w
  3465     01FE  00A3               	movwf	??_set_time+1
  3466     01FF  300A               	movlw	10
  3467     0200  00F2               	movwf	___lwdiv@divisor
  3468     0201  3000               	movlw	0
  3469     0202  00F3               	movwf	___lwdiv@divisor+1
  3470     0203  0828               	movf	set_time@hour+1,w
  3471     0204  00F5               	movwf	___lwdiv@dividend+1
  3472     0205  0827               	movf	set_time@hour,w
  3473     0206  00F4               	movwf	___lwdiv@dividend
  3474     0207  120A  158A  206E  120A  118A  	fcall	___lwdiv
  3475     020C  0872               	movf	?___lwdiv,w
  3476     020D  1283               	bcf	3,5	;RP0=0, select bank0
  3477     020E  1303               	bcf	3,6	;RP1=0, select bank0
  3478     020F  00A4               	movwf	??_set_time+2
  3479     0210  3003               	movlw	3
  3480     0211                     u4195:
  3481     0211  1003               	clrc
  3482     0212  0DA4               	rlf	??_set_time+2,f
  3483     0213  3EFF               	addlw	-1
  3484     0214  1D03               	skipz
  3485     0215  2A11               	goto	u4195
  3486     0216  1003               	clrc
  3487     0217  0D24               	rlf	??_set_time+2,w
  3488     0218  0422               	iorwf	??_set_time,w
  3489     0219  00F9               	movwf	write_ds1307@data
  3490     021A  3002               	movlw	2
  3491     021B  160A  118A  2530  120A  118A  	fcall	_write_ds1307
  3492                           
  3493                           ;dashboard.c: 391:    write_ds1307(0x01, ((min / 10) << 4) | (min % 10));
  3494     0220  300A               	movlw	10
  3495     0221  00F2               	movwf	___lwmod@divisor
  3496     0222  3000               	movlw	0
  3497     0223  00F3               	movwf	___lwmod@divisor+1
  3498     0224  1283               	bcf	3,5	;RP0=0, select bank0
  3499     0225  1303               	bcf	3,6	;RP1=0, select bank0
  3500     0226  082A               	movf	set_time@min+1,w
  3501     0227  00F5               	movwf	___lwmod@dividend+1
  3502     0228  0829               	movf	set_time@min,w
  3503     0229  00F4               	movwf	___lwmod@dividend
  3504     022A  160A  118A  27C8  120A  118A  	fcall	___lwmod
  3505     022F  0872               	movf	?___lwmod,w
  3506     0230  1283               	bcf	3,5	;RP0=0, select bank0
  3507     0231  1303               	bcf	3,6	;RP1=0, select bank0
  3508     0232  00A2               	movwf	??_set_time
  3509     0233  0873               	movf	?___lwmod+1,w
  3510     0234  00A3               	movwf	??_set_time+1
  3511     0235  300A               	movlw	10
  3512     0236  00F2               	movwf	___lwdiv@divisor
  3513     0237  3000               	movlw	0
  3514     0238  00F3               	movwf	___lwdiv@divisor+1
  3515     0239  082A               	movf	set_time@min+1,w
  3516     023A  00F5               	movwf	___lwdiv@dividend+1
  3517     023B  0829               	movf	set_time@min,w
  3518     023C  00F4               	movwf	___lwdiv@dividend
  3519     023D  120A  158A  206E  120A  118A  	fcall	___lwdiv
  3520     0242  0872               	movf	?___lwdiv,w
  3521     0243  1283               	bcf	3,5	;RP0=0, select bank0
  3522     0244  1303               	bcf	3,6	;RP1=0, select bank0
  3523     0245  00A4               	movwf	??_set_time+2
  3524     0246  3003               	movlw	3
  3525     0247                     u4205:
  3526     0247  1003               	clrc
  3527     0248  0DA4               	rlf	??_set_time+2,f
  3528     0249  3EFF               	addlw	-1
  3529     024A  1D03               	skipz
  3530     024B  2A47               	goto	u4205
  3531     024C  1003               	clrc
  3532     024D  0D24               	rlf	??_set_time+2,w
  3533     024E  0422               	iorwf	??_set_time,w
  3534     024F  00F9               	movwf	write_ds1307@data
  3535     0250  3001               	movlw	1
  3536     0251  160A  118A  2530  120A  118A  	fcall	_write_ds1307
  3537                           
  3538                           ;dashboard.c: 392:    write_ds1307(0x00, ((sec / 10) << 4) | (sec % 10));
  3539     0256  300A               	movlw	10
  3540     0257  00F2               	movwf	___lwmod@divisor
  3541     0258  3000               	movlw	0
  3542     0259  00F3               	movwf	___lwmod@divisor+1
  3543     025A  1283               	bcf	3,5	;RP0=0, select bank0
  3544     025B  1303               	bcf	3,6	;RP1=0, select bank0
  3545     025C  082C               	movf	set_time@sec+1,w
  3546     025D  00F5               	movwf	___lwmod@dividend+1
  3547     025E  082B               	movf	set_time@sec,w
  3548     025F  00F4               	movwf	___lwmod@dividend
  3549     0260  160A  118A  27C8  120A  118A  	fcall	___lwmod
  3550     0265  0872               	movf	?___lwmod,w
  3551     0266  1283               	bcf	3,5	;RP0=0, select bank0
  3552     0267  1303               	bcf	3,6	;RP1=0, select bank0
  3553     0268  00A2               	movwf	??_set_time
  3554     0269  0873               	movf	?___lwmod+1,w
  3555     026A  00A3               	movwf	??_set_time+1
  3556     026B  300A               	movlw	10
  3557     026C  00F2               	movwf	___lwdiv@divisor
  3558     026D  3000               	movlw	0
  3559     026E  00F3               	movwf	___lwdiv@divisor+1
  3560     026F  082C               	movf	set_time@sec+1,w
  3561     0270  00F5               	movwf	___lwdiv@dividend+1
  3562     0271  082B               	movf	set_time@sec,w
  3563     0272  00F4               	movwf	___lwdiv@dividend
  3564     0273  120A  158A  206E  120A  118A  	fcall	___lwdiv
  3565     0278  0872               	movf	?___lwdiv,w
  3566     0279  1283               	bcf	3,5	;RP0=0, select bank0
  3567     027A  1303               	bcf	3,6	;RP1=0, select bank0
  3568     027B  00A4               	movwf	??_set_time+2
  3569     027C  3003               	movlw	3
  3570     027D                     u4215:
  3571     027D  1003               	clrc
  3572     027E  0DA4               	rlf	??_set_time+2,f
  3573     027F  3EFF               	addlw	-1
  3574     0280  1D03               	skipz
  3575     0281  2A7D               	goto	u4215
  3576     0282  1003               	clrc
  3577     0283  0D24               	rlf	??_set_time+2,w
  3578     0284  0422               	iorwf	??_set_time,w
  3579     0285  00F9               	movwf	write_ds1307@data
  3580     0286  3000               	movlw	0
  3581     0287  160A  118A  2530  120A  118A  	fcall	_write_ds1307
  3582     028C  2A93               	goto	l387
  3583     028D                     l3785:
  3584     028D  302F               	movlw	47
  3585     028E  0626               	xorwf	set_time@key,w
  3586     028F  1D03               	btfss	3,2
  3587     0290  2A92               	goto	u4221
  3588     0291  2A93               	goto	u4220
  3589     0292                     u4221:
  3590     0292  28B5               	goto	l3739
  3591     0293                     u4220:
  3592     0293                     l387:
  3593     0293  0008               	return
  3594     0294                     __end_of_set_time:
  3595                           
  3596                           	psect	text4
  3597     0835                     __ptext4:	
  3598 ;; *************** function _display_indicator *****************
  3599 ;; Defined at:
  3600 ;;		line 328 in file "dashboard.c"
  3601 ;; Parameters:    Size  Location     Type
  3602 ;;  pos             2    0[BANK0 ] unsigned int 
  3603 ;; Auto vars:     Size  Location     Type
  3604 ;;		None
  3605 ;; Return value:  Size  Location     Type
  3606 ;;                  1    wreg      void 
  3607 ;; Registers used:
  3608 ;;		wreg, fsr0l, fsr0h, status,2, status,0, pclath, btemp1, cstack
  3609 ;; Tracked objects:
  3610 ;;		On entry : 0/0
  3611 ;;		On exit  : 0/0
  3612 ;;		Unchanged: 0/0
  3613 ;; Data sizes:     COMMON   BANK0   BANK1   BANK3   BANK2
  3614 ;;      Params:         0       2       0       0       0
  3615 ;;      Locals:         0       0       0       0       0
  3616 ;;      Temps:          0       0       0       0       0
  3617 ;;      Totals:         0       2       0       0       0
  3618 ;;Total ram usage:        2 bytes
  3619 ;; Hardware stack levels used: 1
  3620 ;; Hardware stack levels required when called: 2
  3621 ;; This function calls:
  3622 ;;		_clcd_print
  3623 ;; This function is called by:
  3624 ;;		_set_time
  3625 ;; This function uses a non-reentrant model
  3626 ;;
  3627                           
  3628     0835                     _display_indicator:	
  3629                           ;psect for function _display_indicator
  3630                           
  3631     0835                     l3429:	
  3632                           ;incstack = 0
  3633                           ; Regs used in _display_indicator: [wreg-fsr0h+status,2+status,0+pclath+btemp1+cstack]
  3634                           
  3635                           
  3636                           ;dashboard.c: 329:  if(pos == 0){
  3637     0835  1283               	bcf	3,5	;RP0=0, select bank0
  3638     0836  1303               	bcf	3,6	;RP1=0, select bank0
  3639     0837  0820               	movf	display_indicator@pos,w
  3640     0838  0421               	iorwf	display_indicator@pos+1,w
  3641     0839  1D03               	btfss	3,2
  3642     083A  283C               	goto	u3711
  3643     083B  283D               	goto	u3710
  3644     083C                     u3711:
  3645     083C  2849               	goto	l3433
  3646     083D                     u3710:
  3647     083D                     l3431:
  3648                           
  3649                           ;dashboard.c: 331:   clcd_print("  ", (0xC0 + 4));
  3650     083D  3044               	movlw	low ((STR_35+14)| (0+32768))
  3651     083E  00F6               	movwf	clcd_print@str
  3652     083F  3085               	movlw	high ((STR_35+14)| (0+32768))
  3653     0840  00F7               	movwf	clcd_print@str+1
  3654     0841  30C4               	movlw	196
  3655     0842  00F8               	movwf	clcd_print@addr
  3656     0843  160A  118A  2668  120A  158A  	fcall	_clcd_print
  3657                           
  3658                           ;dashboard.c: 332:  }
  3659     0848  286D               	goto	l375
  3660     0849                     l3433:
  3661     0849  0320               	decf	display_indicator@pos,w
  3662     084A  0421               	iorwf	display_indicator@pos+1,w
  3663     084B  1D03               	btfss	3,2
  3664     084C  284E               	goto	u3721
  3665     084D  284F               	goto	u3720
  3666     084E                     u3721:
  3667     084E  285B               	goto	l3437
  3668     084F                     u3720:
  3669     084F                     l3435:
  3670                           
  3671                           ;dashboard.c: 335:   clcd_print("  ", (0xC0 + 7));
  3672     084F  3044               	movlw	low ((STR_35+14)| (0+32768))
  3673     0850  00F6               	movwf	clcd_print@str
  3674     0851  3085               	movlw	high ((STR_35+14)| (0+32768))
  3675     0852  00F7               	movwf	clcd_print@str+1
  3676     0853  30C7               	movlw	199
  3677     0854  00F8               	movwf	clcd_print@addr
  3678     0855  160A  118A  2668  120A  158A  	fcall	_clcd_print
  3679                           
  3680                           ;dashboard.c: 336:  }
  3681     085A  286D               	goto	l375
  3682     085B                     l3437:
  3683     085B  3002               	movlw	2
  3684     085C  0620               	xorwf	display_indicator@pos,w
  3685     085D  0421               	iorwf	display_indicator@pos+1,w
  3686     085E  1D03               	btfss	3,2
  3687     085F  2861               	goto	u3731
  3688     0860  2862               	goto	u3730
  3689     0861                     u3731:
  3690     0861  286D               	goto	l375
  3691     0862                     u3730:
  3692     0862                     l3439:
  3693                           
  3694                           ;dashboard.c: 339:   clcd_print("  ", (0xC0 + 10));
  3695     0862  3044               	movlw	low ((STR_35+14)| (0+32768))
  3696     0863  00F6               	movwf	clcd_print@str
  3697     0864  3085               	movlw	high ((STR_35+14)| (0+32768))
  3698     0865  00F7               	movwf	clcd_print@str+1
  3699     0866  30CA               	movlw	202
  3700     0867  00F8               	movwf	clcd_print@addr
  3701     0868  160A  118A  2668  120A  158A  	fcall	_clcd_print
  3702     086D                     l375:
  3703     086D  0008               	return
  3704     086E                     __end_of_display_indicator:
  3705                           
  3706                           	psect	text5
  3707     1792                     __ptext5:	
  3708 ;; *************** function _print_star *****************
  3709 ;; Defined at:
  3710 ;;		line 154 in file "dashboard.c"
  3711 ;; Parameters:    Size  Location     Type
  3712 ;;  position        2    0[BANK0 ] unsigned int 
  3713 ;; Auto vars:     Size  Location     Type
  3714 ;;		None
  3715 ;; Return value:  Size  Location     Type
  3716 ;;                  1    wreg      void 
  3717 ;; Registers used:
  3718 ;;		wreg, fsr0l, fsr0h, status,2, status,0, pclath, btemp1, cstack
  3719 ;; Tracked objects:
  3720 ;;		On entry : 0/0
  3721 ;;		On exit  : 0/0
  3722 ;;		Unchanged: 0/0
  3723 ;; Data sizes:     COMMON   BANK0   BANK1   BANK3   BANK2
  3724 ;;      Params:         0       2       0       0       0
  3725 ;;      Locals:         0       0       0       0       0
  3726 ;;      Temps:          0       0       0       0       0
  3727 ;;      Totals:         0       2       0       0       0
  3728 ;;Total ram usage:        2 bytes
  3729 ;; Hardware stack levels used: 1
  3730 ;; Hardware stack levels required when called: 2
  3731 ;; This function calls:
  3732 ;;		_clcd_print
  3733 ;; This function is called by:
  3734 ;;		_main_menu
  3735 ;; This function uses a non-reentrant model
  3736 ;;
  3737                           
  3738     1792                     _print_star:	
  3739                           ;psect for function _print_star
  3740                           
  3741     1792                     l3593:	
  3742                           ;incstack = 0
  3743                           ; Regs used in _print_star: [wreg-fsr0h+status,2+status,0+pclath+btemp1+cstack]
  3744                           
  3745                           
  3746                           ;dashboard.c: 155:  if(position == 0){
  3747     1792  1283               	bcf	3,5	;RP0=0, select bank0
  3748     1793  1303               	bcf	3,6	;RP1=0, select bank0
  3749     1794  0820               	movf	print_star@position,w
  3750     1795  0421               	iorwf	print_star@position+1,w
  3751     1796  1D03               	btfss	3,2
  3752     1797  2F99               	goto	u3961
  3753     1798  2F9A               	goto	u3960
  3754     1799                     u3961:
  3755     1799  2FB1               	goto	l3597
  3756     179A                     u3960:
  3757     179A                     l3595:
  3758                           
  3759                           ;dashboard.c: 156:   clcd_print("* ", (0x80 + 0));
  3760     179A  3080               	movlw	low (STR_15| (0+32768))
  3761     179B  00F6               	movwf	clcd_print@str
  3762     179C  3086               	movlw	high (STR_15| (0+32768))
  3763     179D  00F7               	movwf	clcd_print@str+1
  3764     179E  3080               	movlw	128
  3765     179F  00F8               	movwf	clcd_print@addr
  3766     17A0  160A  118A  2668  160A  118A  	fcall	_clcd_print
  3767                           
  3768                           ;dashboard.c: 157:   clcd_print("  ", (0xC0 + 0));
  3769     17A5  3044               	movlw	low ((STR_35+14)| (0+32768))
  3770     17A6  00F6               	movwf	clcd_print@str
  3771     17A7  3085               	movlw	high ((STR_35+14)| (0+32768))
  3772     17A8  00F7               	movwf	clcd_print@str+1
  3773     17A9  30C0               	movlw	192
  3774     17AA  00F8               	movwf	clcd_print@addr
  3775     17AB  160A  118A  2668  160A  118A  	fcall	_clcd_print
  3776                           
  3777                           ;dashboard.c: 158:  }
  3778     17B0  2FC7               	goto	l299
  3779     17B1                     l3597:
  3780                           
  3781                           ;dashboard.c: 160:   clcd_print("* ", (0xC0 + 0));
  3782     17B1  3080               	movlw	low (STR_15| (0+32768))
  3783     17B2  00F6               	movwf	clcd_print@str
  3784     17B3  3086               	movlw	high (STR_15| (0+32768))
  3785     17B4  00F7               	movwf	clcd_print@str+1
  3786     17B5  30C0               	movlw	192
  3787     17B6  00F8               	movwf	clcd_print@addr
  3788     17B7  160A  118A  2668  160A  118A  	fcall	_clcd_print
  3789                           
  3790                           ;dashboard.c: 161:   clcd_print("  ", (0x80 + 0));
  3791     17BC  3044               	movlw	low ((STR_35+14)| (0+32768))
  3792     17BD  00F6               	movwf	clcd_print@str
  3793     17BE  3085               	movlw	high ((STR_35+14)| (0+32768))
  3794     17BF  00F7               	movwf	clcd_print@str+1
  3795     17C0  3080               	movlw	128
  3796     17C1  00F8               	movwf	clcd_print@addr
  3797     17C2  160A  118A  2668  160A  118A  	fcall	_clcd_print
  3798     17C7                     l299:
  3799     17C7  0008               	return
  3800     17C8                     __end_of_print_star:
  3801                           
  3802                           	psect	text6
  3803     095B                     __ptext6:	
  3804 ;; *************** function _download_log *****************
  3805 ;; Defined at:
  3806 ;;		line 308 in file "dashboard.c"
  3807 ;; Parameters:    Size  Location     Type
  3808 ;;		None
  3809 ;; Auto vars:     Size  Location     Type
  3810 ;;  i               2   13[BANK0 ] unsigned int 
  3811 ;; Return value:  Size  Location     Type
  3812 ;;                  1    wreg      void 
  3813 ;; Registers used:
  3814 ;;		wreg, fsr0l, fsr0h, status,2, status,0, pclath, btemp1, cstack
  3815 ;; Tracked objects:
  3816 ;;		On entry : 0/0
  3817 ;;		On exit  : 0/0
  3818 ;;		Unchanged: 0/0
  3819 ;; Data sizes:     COMMON   BANK0   BANK1   BANK3   BANK2
  3820 ;;      Params:         0       0       0       0       0
  3821 ;;      Locals:         0       2       0       0       0
  3822 ;;      Temps:          0       3       0       0       0
  3823 ;;      Totals:         0       5       0       0       0
  3824 ;;Total ram usage:        5 bytes
  3825 ;; Hardware stack levels used: 1
  3826 ;; Hardware stack levels required when called: 5
  3827 ;; This function calls:
  3828 ;;		_clcd_print
  3829 ;;		_put_char
  3830 ;;		_put_s
  3831 ;;		_read_and_format_log
  3832 ;; This function is called by:
  3833 ;;		_main_menu
  3834 ;; This function uses a non-reentrant model
  3835 ;;
  3836                           
  3837     095B                     _download_log:	
  3838                           ;psect for function _download_log
  3839                           
  3840     095B                     l3719:	
  3841                           ;incstack = 0
  3842                           ; Regs used in _download_log: [wreg-fsr0h+status,2+status,0+pclath+btemp1+cstack]
  3843                           
  3844                           
  3845                           ;dashboard.c: 310:  clcd_print("Logs are", (0x80 + 0));
  3846     095B  306F               	movlw	low (STR_23| (0+32768))
  3847     095C  00F6               	movwf	clcd_print@str
  3848     095D  3086               	movlw	high (STR_23| (0+32768))
  3849     095E  00F7               	movwf	clcd_print@str+1
  3850     095F  3080               	movlw	128
  3851     0960  00F8               	movwf	clcd_print@addr
  3852     0961  160A  118A  2668  120A  158A  	fcall	_clcd_print
  3853                           
  3854                           ;dashboard.c: 311:  clcd_print("Downloading...", (0xC0 + 0));
  3855     0966  3048               	movlw	low (STR_24| (0+32768))
  3856     0967  00F6               	movwf	clcd_print@str
  3857     0968  3086               	movlw	high (STR_24| (0+32768))
  3858     0969  00F7               	movwf	clcd_print@str+1
  3859     096A  30C0               	movlw	192
  3860     096B  00F8               	movwf	clcd_print@addr
  3861     096C  160A  118A  2668  120A  158A  	fcall	_clcd_print
  3862                           
  3863                           ;dashboard.c: 314:  put_s("# TIME     EV SP\n");
  3864     0971  3000               	movlw	low (STR_25| (0+32768))
  3865     0972  00F3               	movwf	put_s@s
  3866     0973  3085               	movlw	high (STR_25| (0+32768))
  3867     0974  00F4               	movwf	put_s@s+1
  3868     0975  160A  118A  259A  120A  158A  	fcall	_put_s
  3869     097A                     l3721:
  3870                           
  3871                           ;dashboard.c: 317:  for(unsigned int i = 0; i < event_count; i++){
  3872     097A  1283               	bcf	3,5	;RP0=0, select bank0
  3873     097B  1303               	bcf	3,6	;RP1=0, select bank0
  3874     097C  01AD               	clrf	download_log@i
  3875     097D  01AE               	clrf	download_log@i+1
  3876     097E  29AB               	goto	l3731
  3877     097F                     l3723:
  3878                           
  3879                           ;dashboard.c: 318:   read_and_format_log(i);
  3880     097F  082D               	movf	download_log@i,w
  3881     0980  120A  158A  2366  120A  158A  	fcall	_read_and_format_log
  3882                           
  3883                           ;dashboard.c: 319:   put_s(logs);
  3884     0985  30A5               	movlw	(low (_logs| 0))& (0+255)
  3885     0986  00F3               	movwf	put_s@s
  3886     0987  3000               	movlw	0
  3887     0988  00F4               	movwf	put_s@s+1
  3888     0989  160A  118A  259A  120A  158A  	fcall	_put_s
  3889     098E                     l3725:
  3890                           
  3891                           ;dashboard.c: 320:   put_char('\n');
  3892     098E  300A               	movlw	10
  3893     098F  160A  118A  2417  120A  158A  	fcall	_put_char
  3894     0994                     l3727:
  3895                           
  3896                           ;dashboard.c: 322:   _delay((unsigned long)((500)*(20000000/4000.0)));
  3897     0994  300D               	movlw	13
  3898     0995  1283               	bcf	3,5	;RP0=0, select bank0
  3899     0996  1303               	bcf	3,6	;RP1=0, select bank0
  3900     0997  00AC               	movwf	??_download_log+2
  3901     0998  30AF               	movlw	175
  3902     0999  00AB               	movwf	??_download_log+1
  3903     099A  30B5               	movlw	181
  3904     099B  00AA               	movwf	??_download_log
  3905     099C                     u4597:
  3906     099C  0BAA               	decfsz	??_download_log,f
  3907     099D  299C               	goto	u4597
  3908     099E  0BAB               	decfsz	??_download_log+1,f
  3909     099F  299C               	goto	u4597
  3910     09A0  0BAC               	decfsz	??_download_log+2,f
  3911     09A1  299C               	goto	u4597
  3912     09A2  29A3               	nop2
  3913     09A3                     l3729:
  3914                           
  3915                           ;dashboard.c: 323:  }
  3916     09A3  3001               	movlw	1
  3917     09A4  1283               	bcf	3,5	;RP0=0, select bank0
  3918     09A5  1303               	bcf	3,6	;RP1=0, select bank0
  3919     09A6  07AD               	addwf	download_log@i,f
  3920     09A7  1803               	skipnc
  3921     09A8  0AAE               	incf	download_log@i+1,f
  3922     09A9  3000               	movlw	0
  3923     09AA  07AE               	addwf	download_log@i+1,f
  3924     09AB                     l3731:
  3925     09AB  0858               	movf	_event_count+1,w
  3926     09AC  022E               	subwf	download_log@i+1,w
  3927     09AD  1D03               	skipz
  3928     09AE  29B1               	goto	u4125
  3929     09AF  0857               	movf	_event_count,w
  3930     09B0  022D               	subwf	download_log@i,w
  3931     09B1                     u4125:
  3932     09B1  1C03               	skipc
  3933     09B2  29B4               	goto	u4121
  3934     09B3  29B5               	goto	u4120
  3935     09B4                     u4121:
  3936     09B4  297F               	goto	l3723
  3937     09B5                     u4120:
  3938     09B5                     l367:
  3939     09B5  0008               	return
  3940     09B6                     __end_of_download_log:
  3941                           
  3942                           	psect	text7
  3943     0B66                     __ptext7:	
  3944 ;; *************** function _read_and_format_log *****************
  3945 ;; Defined at:
  3946 ;;		line 233 in file "dashboard.c"
  3947 ;; Parameters:    Size  Location     Type
  3948 ;;  index           1    wreg     unsigned char 
  3949 ;; Auto vars:     Size  Location     Type
  3950 ;;  index           1    7[BANK0 ] unsigned char 
  3951 ;;  i               2    8[BANK0 ] unsigned int 
  3952 ;;  col             2    5[BANK0 ] unsigned int 
  3953 ;;  log             1    4[BANK0 ] PTR unsigned char 
  3954 ;;		 -> read_event@event(11), 
  3955 ;; Return value:  Size  Location     Type
  3956 ;;                  1    wreg      void 
  3957 ;; Registers used:
  3958 ;;		wreg, fsr0l, fsr0h, status,2, status,0, pclath, btemp1, cstack
  3959 ;; Tracked objects:
  3960 ;;		On entry : 0/0
  3961 ;;		On exit  : 0/0
  3962 ;;		Unchanged: 0/0
  3963 ;; Data sizes:     COMMON   BANK0   BANK1   BANK3   BANK2
  3964 ;;      Params:         0       0       0       0       0
  3965 ;;      Locals:         0       6       0       0       0
  3966 ;;      Temps:          0       2       0       0       0
  3967 ;;      Totals:         0       8       0       0       0
  3968 ;;Total ram usage:        8 bytes
  3969 ;; Hardware stack levels used: 1
  3970 ;; Hardware stack levels required when called: 1
  3971 ;; This function calls:
  3972 ;;		___wmul
  3973 ;;		_read_event
  3974 ;; This function is called by:
  3975 ;;		_view_log
  3976 ;;		_download_log
  3977 ;; This function uses a non-reentrant model
  3978 ;;
  3979                           
  3980     0B66                     _read_and_format_log:	
  3981                           ;psect for function _read_and_format_log
  3982                           
  3983                           
  3984                           ;incstack = 0
  3985                           ; Regs used in _read_and_format_log: [wreg-fsr0h+status,2+status,0+pclath+btemp1+cstack]
  3986                           ;read_and_format_log@index stored from wreg
  3987     0B66  1283               	bcf	3,5	;RP0=0, select bank0
  3988     0B67  1303               	bcf	3,6	;RP1=0, select bank0
  3989     0B68  00A7               	movwf	read_and_format_log@index
  3990     0B69                     l3391:
  3991                           
  3992                           ;dashboard.c: 235:  char *log = read_event(index * 10);
  3993     0B69  0827               	movf	read_and_format_log@index,w
  3994     0B6A  00A2               	movwf	??_read_and_format_log
  3995     0B6B  01A3               	clrf	??_read_and_format_log+1
  3996     0B6C  0822               	movf	??_read_and_format_log,w
  3997     0B6D  00F2               	movwf	___wmul@multiplier
  3998     0B6E  0823               	movf	??_read_and_format_log+1,w
  3999     0B6F  00F3               	movwf	___wmul@multiplier+1
  4000     0B70  300A               	movlw	10
  4001     0B71  00F4               	movwf	___wmul@multiplicand
  4002     0B72  3000               	movlw	0
  4003     0B73  00F5               	movwf	___wmul@multiplicand+1
  4004     0B74  160A  118A  2575  120A  158A  	fcall	___wmul
  4005     0B79  0873               	movf	?___wmul+1,w
  4006     0B7A  00F9               	movwf	read_event@addr+1
  4007     0B7B  0872               	movf	?___wmul,w
  4008     0B7C  00F8               	movwf	read_event@addr
  4009     0B7D  160A  118A  2552  120A  158A  	fcall	_read_event
  4010     0B82  1283               	bcf	3,5	;RP0=0, select bank0
  4011     0B83  1303               	bcf	3,6	;RP1=0, select bank0
  4012     0B84  00A4               	movwf	read_and_format_log@log
  4013     0B85                     l3393:
  4014                           
  4015                           ;dashboard.c: 236:  unsigned int col = 0;
  4016     0B85  01A5               	clrf	read_and_format_log@col
  4017     0B86  01A6               	clrf	read_and_format_log@col+1
  4018     0B87                     l3395:
  4019                           
  4020                           ;dashboard.c: 238:  for(unsigned int i = 0; i < 16; i++){
  4021     0B87  01A8               	clrf	read_and_format_log@i
  4022     0B88  01A9               	clrf	read_and_format_log@i+1
  4023     0B89                     l3401:
  4024                           
  4025                           ;dashboard.c: 240:   if(i == 0) logs[i] = index + '0';
  4026     0B89  0828               	movf	read_and_format_log@i,w
  4027     0B8A  0429               	iorwf	read_and_format_log@i+1,w
  4028     0B8B  1D03               	btfss	3,2
  4029     0B8C  2B8E               	goto	u3641
  4030     0B8D  2B8F               	goto	u3640
  4031     0B8E                     u3641:
  4032     0B8E  2B97               	goto	l3405
  4033     0B8F                     u3640:
  4034     0B8F                     l3403:
  4035     0B8F  0828               	movf	read_and_format_log@i,w
  4036     0B90  3EA5               	addlw	(low (_logs| 0))& (0+255)
  4037     0B91  0084               	movwf	4
  4038     0B92  0827               	movf	read_and_format_log@index,w
  4039     0B93  3E30               	addlw	48
  4040     0B94  1383               	bcf	3,7	;select IRP bank1
  4041     0B95  0080               	movwf	0
  4042     0B96  2BDA               	goto	l3423
  4043     0B97                     l3405:
  4044     0B97  3004               	movlw	4
  4045     0B98  0628               	xorwf	read_and_format_log@i,w
  4046     0B99  0429               	iorwf	read_and_format_log@i+1,w
  4047     0B9A  1903               	btfsc	3,2
  4048     0B9B  2B9D               	goto	u3651
  4049     0B9C  2B9E               	goto	u3650
  4050     0B9D                     u3651:
  4051     0B9D  2BA5               	goto	l3409
  4052     0B9E                     u3650:
  4053     0B9E                     l3407:
  4054     0B9E  3007               	movlw	7
  4055     0B9F  0628               	xorwf	read_and_format_log@i,w
  4056     0BA0  0429               	iorwf	read_and_format_log@i+1,w
  4057     0BA1  1D03               	btfss	3,2
  4058     0BA2  2BA4               	goto	u3661
  4059     0BA3  2BA5               	goto	u3660
  4060     0BA4                     u3661:
  4061     0BA4  2BAC               	goto	l3411
  4062     0BA5                     u3660:
  4063     0BA5                     l3409:
  4064     0BA5  0828               	movf	read_and_format_log@i,w
  4065     0BA6  3EA5               	addlw	(low (_logs| 0))& (0+255)
  4066     0BA7  0084               	movwf	4
  4067     0BA8  303A               	movlw	58
  4068     0BA9  1383               	bcf	3,7	;select IRP bank1
  4069     0BAA  0080               	movwf	0
  4070     0BAB  2BDA               	goto	l3423
  4071     0BAC                     l3411:
  4072     0BAC  0328               	decf	read_and_format_log@i,w
  4073     0BAD  0429               	iorwf	read_and_format_log@i+1,w
  4074     0BAE  1903               	btfsc	3,2
  4075     0BAF  2BB1               	goto	u3671
  4076     0BB0  2BB2               	goto	u3670
  4077     0BB1                     u3671:
  4078     0BB1  2BC0               	goto	l3417
  4079     0BB2                     u3670:
  4080     0BB2                     l3413:
  4081     0BB2  300A               	movlw	10
  4082     0BB3  0628               	xorwf	read_and_format_log@i,w
  4083     0BB4  0429               	iorwf	read_and_format_log@i+1,w
  4084     0BB5  1903               	btfsc	3,2
  4085     0BB6  2BB8               	goto	u3681
  4086     0BB7  2BB9               	goto	u3680
  4087     0BB8                     u3681:
  4088     0BB8  2BC0               	goto	l3417
  4089     0BB9                     u3680:
  4090     0BB9                     l3415:
  4091     0BB9  300D               	movlw	13
  4092     0BBA  0628               	xorwf	read_and_format_log@i,w
  4093     0BBB  0429               	iorwf	read_and_format_log@i+1,w
  4094     0BBC  1D03               	btfss	3,2
  4095     0BBD  2BBF               	goto	u3691
  4096     0BBE  2BC0               	goto	u3690
  4097     0BBF                     u3691:
  4098     0BBF  2BC7               	goto	l3419
  4099     0BC0                     u3690:
  4100     0BC0                     l3417:
  4101     0BC0  0828               	movf	read_and_format_log@i,w
  4102     0BC1  3EA5               	addlw	(low (_logs| 0))& (0+255)
  4103     0BC2  0084               	movwf	4
  4104     0BC3  3020               	movlw	32
  4105     0BC4  1383               	bcf	3,7	;select IRP bank1
  4106     0BC5  0080               	movwf	0
  4107     0BC6  2BDA               	goto	l3423
  4108     0BC7                     l3419:
  4109                           
  4110                           ;dashboard.c: 247:    logs[i] = log[col++];
  4111     0BC7  0825               	movf	read_and_format_log@col,w
  4112     0BC8  0724               	addwf	read_and_format_log@log,w
  4113     0BC9  00A2               	movwf	??_read_and_format_log
  4114     0BCA  0822               	movf	??_read_and_format_log,w
  4115     0BCB  0084               	movwf	4
  4116     0BCC  1383               	bcf	3,7	;select IRP bank0
  4117     0BCD  0800               	movf	0,w
  4118     0BCE  00FF               	movwf	btemp1
  4119     0BCF  0828               	movf	read_and_format_log@i,w
  4120     0BD0  3EA5               	addlw	(low (_logs| 0))& (0+255)
  4121     0BD1  0084               	movwf	4
  4122     0BD2  087F               	movf	btemp1,w
  4123     0BD3  0080               	movwf	0
  4124     0BD4                     l3421:
  4125     0BD4  3001               	movlw	1
  4126     0BD5  07A5               	addwf	read_and_format_log@col,f
  4127     0BD6  1803               	skipnc
  4128     0BD7  0AA6               	incf	read_and_format_log@col+1,f
  4129     0BD8  3000               	movlw	0
  4130     0BD9  07A6               	addwf	read_and_format_log@col+1,f
  4131     0BDA                     l3423:
  4132                           
  4133                           ;dashboard.c: 249:  }
  4134     0BDA  3001               	movlw	1
  4135     0BDB  07A8               	addwf	read_and_format_log@i,f
  4136     0BDC  1803               	skipnc
  4137     0BDD  0AA9               	incf	read_and_format_log@i+1,f
  4138     0BDE  3000               	movlw	0
  4139     0BDF  07A9               	addwf	read_and_format_log@i+1,f
  4140     0BE0                     l3425:
  4141     0BE0  3000               	movlw	0
  4142     0BE1  0229               	subwf	read_and_format_log@i+1,w
  4143     0BE2  3010               	movlw	16
  4144     0BE3  1903               	skipnz
  4145     0BE4  0228               	subwf	read_and_format_log@i,w
  4146     0BE5  1C03               	skipc
  4147     0BE6  2BE8               	goto	u3701
  4148     0BE7  2BE9               	goto	u3700
  4149     0BE8                     u3701:
  4150     0BE8  2B89               	goto	l3401
  4151     0BE9                     u3700:
  4152     0BE9                     l3427:
  4153                           
  4154                           ;dashboard.c: 251:  logs[16] = '\0';
  4155     0BE9  1683               	bsf	3,5	;RP0=1, select bank1
  4156     0BEA  1303               	bcf	3,6	;RP1=0, select bank1
  4157     0BEB  01B5               	clrf	(_logs^(0+128)+16)
  4158     0BEC                     l343:
  4159     0BEC  0008               	return
  4160     0BED                     __end_of_read_and_format_log:
  4161                           
  4162                           	psect	text8
  4163     1552                     __ptext8:	
  4164 ;; *************** function _read_event *****************
  4165 ;; Defined at:
  4166 ;;		line 53 in file "dashboard.c"
  4167 ;; Parameters:    Size  Location     Type
  4168 ;;  addr            2    8[COMMON] unsigned int 
  4169 ;; Auto vars:     Size  Location     Type
  4170 ;;  i               2    0[BANK0 ] unsigned int 
  4171 ;; Return value:  Size  Location     Type
  4172 ;;                  1    8[COMMON] PTR unsigned char 
  4173 ;; Registers used:
  4174 ;;		wreg, fsr0l, fsr0h, status,2, status,0, pclath, cstack
  4175 ;; Tracked objects:
  4176 ;;		On entry : 0/0
  4177 ;;		On exit  : 0/0
  4178 ;;		Unchanged: 0/0
  4179 ;; Data sizes:     COMMON   BANK0   BANK1   BANK3   BANK2
  4180 ;;      Params:         2       0       0       0       0
  4181 ;;      Locals:         0       2       0       0       0
  4182 ;;      Temps:          0       0       0       0       0
  4183 ;;      Totals:         2       2       0       0       0
  4184 ;;Total ram usage:        4 bytes
  4185 ;; Hardware stack levels used: 1
  4186 ;; Hardware stack levels required when called: 3
  4187 ;; This function calls:
  4188 ;;		_read_external_eeprom
  4189 ;; This function is called by:
  4190 ;;		_read_and_format_log
  4191 ;; This function uses a non-reentrant model
  4192 ;;
  4193                           
  4194     1552                     _read_event:	
  4195                           ;psect for function _read_event
  4196                           
  4197     1552                     l3335:	
  4198                           ;incstack = 0
  4199                           ; Regs used in _read_event: [wreg-fsr0h+status,2+status,0+pclath+cstack]
  4200                           
  4201                           
  4202                           ;dashboard.c: 54:  static char event[11];;dashboard.c: 56:  for(unsigned int i = 0; i < 
      +                          10; i++){
  4203     1552  1283               	bcf	3,5	;RP0=0, select bank0
  4204     1553  1303               	bcf	3,6	;RP1=0, select bank0
  4205     1554  01A0               	clrf	read_event@i
  4206     1555  01A1               	clrf	read_event@i+1
  4207     1556                     l3341:
  4208                           
  4209                           ;dashboard.c: 57:   event[i] = read_external_eeprom(addr + i);
  4210     1556  0820               	movf	read_event@i,w
  4211     1557  3EB6               	addlw	(low (read_event@event| 0))& (0+255)
  4212     1558  0084               	movwf	4
  4213     1559  0820               	movf	read_event@i,w
  4214     155A  0778               	addwf	read_event@addr,w
  4215     155B  160A  118A  263D  160A  118A  	fcall	_read_external_eeprom
  4216     1560  1383               	bcf	3,7	;select IRP bank1
  4217     1561  0080               	movwf	0
  4218     1562                     l3343:
  4219                           
  4220                           ;dashboard.c: 58:  }
  4221     1562  3001               	movlw	1
  4222     1563  1283               	bcf	3,5	;RP0=0, select bank0
  4223     1564  1303               	bcf	3,6	;RP1=0, select bank0
  4224     1565  07A0               	addwf	read_event@i,f
  4225     1566  1803               	skipnc
  4226     1567  0AA1               	incf	read_event@i+1,f
  4227     1568  3000               	movlw	0
  4228     1569  07A1               	addwf	read_event@i+1,f
  4229     156A                     l3345:
  4230     156A  3000               	movlw	0
  4231     156B  0221               	subwf	read_event@i+1,w
  4232     156C  300A               	movlw	10
  4233     156D  1903               	skipnz
  4234     156E  0220               	subwf	read_event@i,w
  4235     156F  1C03               	skipc
  4236     1570  2D72               	goto	u3621
  4237     1571  2D73               	goto	u3620
  4238     1572                     u3621:
  4239     1572  2D56               	goto	l3341
  4240     1573                     u3620:
  4241     1573                     l3347:
  4242                           
  4243                           ;dashboard.c: 60:  return event;
  4244     1573  30B6               	movlw	(low (read_event@event| 0))& (0+255)
  4245     1574                     l266:
  4246     1574  0008               	return
  4247     1575                     __end_of_read_event:
  4248                           
  4249                           	psect	text9
  4250     163D                     __ptext9:	
  4251 ;; *************** function _read_external_eeprom *****************
  4252 ;; Defined at:
  4253 ;;		line 16 in file "external_eeprom.c"
  4254 ;; Parameters:    Size  Location     Type
  4255 ;;  address         1    wreg     unsigned char 
  4256 ;; Auto vars:     Size  Location     Type
  4257 ;;  address         1    4[COMMON] unsigned char 
  4258 ;;  data            1    5[COMMON] unsigned char 
  4259 ;; Return value:  Size  Location     Type
  4260 ;;                  1    wreg      unsigned char 
  4261 ;; Registers used:
  4262 ;;		wreg, status,2, status,0, pclath, cstack
  4263 ;; Tracked objects:
  4264 ;;		On entry : 0/0
  4265 ;;		On exit  : 0/0
  4266 ;;		Unchanged: 0/0
  4267 ;; Data sizes:     COMMON   BANK0   BANK1   BANK3   BANK2
  4268 ;;      Params:         0       0       0       0       0
  4269 ;;      Locals:         2       0       0       0       0
  4270 ;;      Temps:          0       0       0       0       0
  4271 ;;      Totals:         2       0       0       0       0
  4272 ;;Total ram usage:        2 bytes
  4273 ;; Hardware stack levels used: 1
  4274 ;; Hardware stack levels required when called: 2
  4275 ;; This function calls:
  4276 ;;		_i2c_read
  4277 ;;		_i2c_rep_start
  4278 ;;		_i2c_start
  4279 ;;		_i2c_stop
  4280 ;;		_i2c_write
  4281 ;; This function is called by:
  4282 ;;		_read_event
  4283 ;; This function uses a non-reentrant model
  4284 ;;
  4285                           
  4286     163D                     _read_external_eeprom:	
  4287                           ;psect for function _read_external_eeprom
  4288                           
  4289                           
  4290                           ;incstack = 0
  4291                           ; Regs used in _read_external_eeprom: [wreg+status,2+status,0+pclath+cstack]
  4292                           ;read_external_eeprom@address stored from wreg
  4293     163D  00F4               	movwf	read_external_eeprom@address
  4294     163E                     l3319:
  4295                           
  4296                           ;external_eeprom.c: 16: unsigned char read_external_eeprom(unsigned char address);extern
      +                          al_eeprom.c: 17: {;external_eeprom.c: 18:     unsigned char data;;external_eeprom.c: 20:
      +                               i2c_start();
  4297     163E  160A  118A  23DA  160A  118A  	fcall	_i2c_start
  4298                           
  4299                           ;external_eeprom.c: 21:     i2c_write(0xA0);
  4300     1643  30A0               	movlw	160
  4301     1644  160A  118A  2401  160A  118A  	fcall	_i2c_write
  4302                           
  4303                           ;external_eeprom.c: 22:     i2c_write(address);
  4304     1649  0874               	movf	read_external_eeprom@address,w
  4305     164A  160A  118A  2401  160A  118A  	fcall	_i2c_write
  4306                           
  4307                           ;external_eeprom.c: 23:     i2c_rep_start();
  4308     164F  160A  118A  23F6  160A  118A  	fcall	_i2c_rep_start
  4309                           
  4310                           ;external_eeprom.c: 24:     i2c_write(0xA1);
  4311     1654  30A1               	movlw	161
  4312     1655  160A  118A  2401  160A  118A  	fcall	_i2c_write
  4313                           
  4314                           ;external_eeprom.c: 25:     data = i2c_read(0);
  4315     165A  3000               	movlw	0
  4316     165B  160A  118A  250F  160A  118A  	fcall	_i2c_read
  4317     1660  00F5               	movwf	read_external_eeprom@data
  4318                           
  4319                           ;external_eeprom.c: 26:     i2c_stop();
  4320     1661  160A  118A  23E3  160A  118A  	fcall	_i2c_stop
  4321     1666                     l3321:
  4322                           
  4323                           ;external_eeprom.c: 28:     return data;
  4324     1666  0875               	movf	read_external_eeprom@data,w
  4325     1667                     l429:
  4326     1667  0008               	return
  4327     1668                     __end_of_read_external_eeprom:
  4328                           
  4329                           	psect	text10
  4330     1575                     __ptext10:	
  4331 ;; *************** function ___wmul *****************
  4332 ;; Defined at:
  4333 ;;		line 15 in file "/opt/microchip/xc8/v3.10/pic/sources/c99/common/Umul16.c"
  4334 ;; Parameters:    Size  Location     Type
  4335 ;;  multiplier      2    2[COMMON] unsigned int 
  4336 ;;  multiplicand    2    4[COMMON] unsigned int 
  4337 ;; Auto vars:     Size  Location     Type
  4338 ;;  product         2    6[COMMON] unsigned int 
  4339 ;; Return value:  Size  Location     Type
  4340 ;;                  2    2[COMMON] unsigned int 
  4341 ;; Registers used:
  4342 ;;		wreg, status,2, status,0
  4343 ;; Tracked objects:
  4344 ;;		On entry : 0/0
  4345 ;;		On exit  : 0/0
  4346 ;;		Unchanged: 0/0
  4347 ;; Data sizes:     COMMON   BANK0   BANK1   BANK3   BANK2
  4348 ;;      Params:         4       0       0       0       0
  4349 ;;      Locals:         2       0       0       0       0
  4350 ;;      Temps:          0       0       0       0       0
  4351 ;;      Totals:         6       0       0       0       0
  4352 ;;Total ram usage:        6 bytes
  4353 ;; Hardware stack levels used: 1
  4354 ;; Hardware stack levels required when called: 1
  4355 ;; This function calls:
  4356 ;;		Nothing
  4357 ;; This function is called by:
  4358 ;;		_read_and_format_log
  4359 ;;		_set_time
  4360 ;; This function uses a non-reentrant model
  4361 ;;
  4362                           
  4363     1575                     ___wmul:	
  4364                           ;psect for function ___wmul
  4365                           
  4366     1575                     l2305:	
  4367                           ;incstack = 0
  4368                           ; Regs used in ___wmul: [wreg+status,2+status,0]
  4369                           
  4370     1575  01F6               	clrf	___wmul@product
  4371     1576  01F7               	clrf	___wmul@product+1
  4372     1577                     l2307:
  4373     1577  1C72               	btfss	___wmul@multiplier,0
  4374     1578  2D7A               	goto	u1911
  4375     1579  2D7B               	goto	u1910
  4376     157A                     u1911:
  4377     157A  2D81               	goto	l629
  4378     157B                     u1910:
  4379     157B                     l2309:
  4380     157B  0874               	movf	___wmul@multiplicand,w
  4381     157C  07F6               	addwf	___wmul@product,f
  4382     157D  1803               	skipnc
  4383     157E  0AF7               	incf	___wmul@product+1,f
  4384     157F  0875               	movf	___wmul@multiplicand+1,w
  4385     1580  07F7               	addwf	___wmul@product+1,f
  4386     1581                     l629:
  4387     1581  3001               	movlw	1
  4388     1582                     u1925:
  4389     1582  1003               	clrc
  4390     1583  0DF4               	rlf	___wmul@multiplicand,f
  4391     1584  0DF5               	rlf	___wmul@multiplicand+1,f
  4392     1585  3EFF               	addlw	-1
  4393     1586  1D03               	skipz
  4394     1587  2D82               	goto	u1925
  4395     1588                     l2311:
  4396     1588  3001               	movlw	1
  4397     1589                     u1935:
  4398     1589  1003               	clrc
  4399     158A  0CF3               	rrf	___wmul@multiplier+1,f
  4400     158B  0CF2               	rrf	___wmul@multiplier,f
  4401     158C  3EFF               	addlw	-1
  4402     158D  1D03               	skipz
  4403     158E  2D89               	goto	u1935
  4404     158F                     l2313:
  4405     158F  0872               	movf	___wmul@multiplier,w
  4406     1590  0473               	iorwf	___wmul@multiplier+1,w
  4407     1591  1D03               	btfss	3,2
  4408     1592  2D94               	goto	u1941
  4409     1593  2D95               	goto	u1940
  4410     1594                     u1941:
  4411     1594  2D77               	goto	l2307
  4412     1595                     u1940:
  4413     1595                     l2315:
  4414     1595  0877               	movf	___wmul@product+1,w
  4415     1596  00F3               	movwf	?___wmul+1
  4416     1597  0876               	movf	___wmul@product,w
  4417     1598  00F2               	movwf	?___wmul
  4418     1599                     l631:
  4419     1599  0008               	return
  4420     159A                     __end_of___wmul:
  4421                           
  4422                           	psect	text11
  4423     159A                     __ptext11:	
  4424 ;; *************** function _put_s *****************
  4425 ;; Defined at:
  4426 ;;		line 46 in file "uart.c"
  4427 ;; Parameters:    Size  Location     Type
  4428 ;;  s               2    3[COMMON] PTR const unsigned char 
  4429 ;;		 -> STR_25(18), logs(17), 
  4430 ;; Auto vars:     Size  Location     Type
  4431 ;;		None
  4432 ;; Return value:  Size  Location     Type
  4433 ;;                  1    wreg      void 
  4434 ;; Registers used:
  4435 ;;		wreg, fsr0l, fsr0h, status,2, status,0, pclath, btemp1, cstack
  4436 ;; Tracked objects:
  4437 ;;		On entry : 0/0
  4438 ;;		On exit  : 0/0
  4439 ;;		Unchanged: 0/0
  4440 ;; Data sizes:     COMMON   BANK0   BANK1   BANK3   BANK2
  4441 ;;      Params:         2       0       0       0       0
  4442 ;;      Locals:         0       0       0       0       0
  4443 ;;      Temps:          0       0       0       0       0
  4444 ;;      Totals:         2       0       0       0       0
  4445 ;;Total ram usage:        2 bytes
  4446 ;; Hardware stack levels used: 1
  4447 ;; Hardware stack levels required when called: 2
  4448 ;; This function calls:
  4449 ;;		_put_char
  4450 ;; This function is called by:
  4451 ;;		_download_log
  4452 ;; This function uses a non-reentrant model
  4453 ;;
  4454                           
  4455     159A                     _put_s:	
  4456                           ;psect for function _put_s
  4457                           
  4458     159A                     l2445:	
  4459                           ;incstack = 0
  4460                           ; Regs used in _put_s: [wreg-fsr0h+status,2+status,0+pclath+btemp1+cstack]
  4461                           
  4462                           
  4463                           ;uart.c: 46: void put_s(const char *s);uart.c: 47: {;uart.c: 48:     while (*s)
  4464     159A  2DAF               	goto	l2451
  4465     159B                     l2447:
  4466                           
  4467                           ;uart.c: 49:     {;uart.c: 50:         put_char(*s++);
  4468     159B  0874               	movf	put_s@s+1,w
  4469     159C  00FF               	movwf	btemp1
  4470     159D  0873               	movf	put_s@s,w
  4471     159E  0084               	movwf	4
  4472     159F  160A  118A  2000  160A  118A  	fcall	stringtab
  4473     15A4  160A  118A  2417  160A  118A  	fcall	_put_char
  4474     15A9                     l2449:
  4475     15A9  3001               	movlw	1
  4476     15AA  07F3               	addwf	put_s@s,f
  4477     15AB  1803               	skipnc
  4478     15AC  0AF4               	incf	put_s@s+1,f
  4479     15AD  3000               	movlw	0
  4480     15AE  07F4               	addwf	put_s@s+1,f
  4481     15AF                     l2451:
  4482                           
  4483                           ;uart.c: 48:     while (*s)
  4484     15AF  0874               	movf	put_s@s+1,w
  4485     15B0  1283               	bcf	3,5	;RP0=0, select bank0
  4486     15B1  1303               	bcf	3,6	;RP1=0, select bank0
  4487     15B2  00FF               	movwf	btemp1
  4488     15B3  0873               	movf	put_s@s,w
  4489     15B4  0084               	movwf	4
  4490     15B5  160A  118A  2000  160A  118A  	fcall	stringtab
  4491     15BA  3A00               	xorlw	0
  4492     15BB  1D03               	skipz
  4493     15BC  2DBE               	goto	u2161
  4494     15BD  2DBF               	goto	u2160
  4495     15BE                     u2161:
  4496     15BE  2D9B               	goto	l2447
  4497     15BF                     u2160:
  4498     15BF                     l464:
  4499     15BF  0008               	return
  4500     15C0                     __end_of_put_s:
  4501                           
  4502                           	psect	text12
  4503     1417                     __ptext12:	
  4504 ;; *************** function _put_char *****************
  4505 ;; Defined at:
  4506 ;;		line 31 in file "uart.c"
  4507 ;; Parameters:    Size  Location     Type
  4508 ;;  data            1    wreg     unsigned char 
  4509 ;; Auto vars:     Size  Location     Type
  4510 ;;  data            1    2[COMMON] unsigned char 
  4511 ;; Return value:  Size  Location     Type
  4512 ;;                  1    wreg      void 
  4513 ;; Registers used:
  4514 ;;		wreg
  4515 ;; Tracked objects:
  4516 ;;		On entry : 0/0
  4517 ;;		On exit  : 0/0
  4518 ;;		Unchanged: 0/0
  4519 ;; Data sizes:     COMMON   BANK0   BANK1   BANK3   BANK2
  4520 ;;      Params:         0       0       0       0       0
  4521 ;;      Locals:         1       0       0       0       0
  4522 ;;      Temps:          0       0       0       0       0
  4523 ;;      Totals:         1       0       0       0       0
  4524 ;;Total ram usage:        1 bytes
  4525 ;; Hardware stack levels used: 1
  4526 ;; Hardware stack levels required when called: 1
  4527 ;; This function calls:
  4528 ;;		Nothing
  4529 ;; This function is called by:
  4530 ;;		_download_log
  4531 ;;		_put_s
  4532 ;; This function uses a non-reentrant model
  4533 ;;
  4534                           
  4535     1417                     _put_char:	
  4536                           ;psect for function _put_char
  4537                           
  4538                           
  4539                           ;incstack = 0
  4540                           ; Regs used in _put_char: [wreg]
  4541                           ;put_char@data stored from wreg
  4542     1417  00F2               	movwf	put_char@data
  4543     1418                     l2301:
  4544                           
  4545                           ;uart.c: 31: void put_char(unsigned char data);uart.c: 32: {;uart.c: 34:     TXREG = dat
      +                          a;
  4546     1418  0872               	movf	put_char@data,w
  4547     1419  1283               	bcf	3,5	;RP0=0, select bank0
  4548     141A  1303               	bcf	3,6	;RP1=0, select bank0
  4549     141B  0099               	movwf	25	;volatile
  4550     141C                     l456:	
  4551                           ;uart.c: 40:     } while (TXIF != 1);
  4552                           
  4553     141C  1E0C               	btfss	12,4	;volatile
  4554     141D  2C1F               	goto	u1901
  4555     141E  2C20               	goto	u1900
  4556     141F                     u1901:
  4557     141F  2C1C               	goto	l456
  4558     1420                     u1900:
  4559     1420                     l457:
  4560                           
  4561                           ;uart.c: 43:     TXIF = 0;
  4562     1420  120C               	bcf	12,4	;volatile
  4563     1421                     l458:
  4564     1421  0008               	return
  4565     1422                     __end_of_put_char:
  4566                           
  4567                           	psect	text13
  4568     14B1                     __ptext13:	
  4569 ;; *************** function _clear_log *****************
  4570 ;; Defined at:
  4571 ;;		line 300 in file "dashboard.c"
  4572 ;; Parameters:    Size  Location     Type
  4573 ;;		None
  4574 ;; Auto vars:     Size  Location     Type
  4575 ;;		None
  4576 ;; Return value:  Size  Location     Type
  4577 ;;                  1    wreg      void 
  4578 ;; Registers used:
  4579 ;;		wreg, fsr0l, fsr0h, status,2, status,0, pclath, btemp1, cstack
  4580 ;; Tracked objects:
  4581 ;;		On entry : 0/0
  4582 ;;		On exit  : 0/0
  4583 ;;		Unchanged: 0/0
  4584 ;; Data sizes:     COMMON   BANK0   BANK1   BANK3   BANK2
  4585 ;;      Params:         0       0       0       0       0
  4586 ;;      Locals:         0       0       0       0       0
  4587 ;;      Temps:          0       3       0       0       0
  4588 ;;      Totals:         0       3       0       0       0
  4589 ;;Total ram usage:        3 bytes
  4590 ;; Hardware stack levels used: 1
  4591 ;; Hardware stack levels required when called: 2
  4592 ;; This function calls:
  4593 ;;		_clcd_print
  4594 ;; This function is called by:
  4595 ;;		_main_menu
  4596 ;; This function uses a non-reentrant model
  4597 ;;
  4598                           
  4599     14B1                     _clear_log:	
  4600                           ;psect for function _clear_log
  4601                           
  4602     14B1                     l3711:	
  4603                           ;incstack = 0
  4604                           ; Regs used in _clear_log: [wreg-fsr0h+status,2+status,0+pclath+btemp1+cstack]
  4605                           
  4606                           
  4607                           ;dashboard.c: 301:  event_count = 0;
  4608     14B1  1283               	bcf	3,5	;RP0=0, select bank0
  4609     14B2  1303               	bcf	3,6	;RP1=0, select bank0
  4610     14B3  01D7               	clrf	_event_count
  4611     14B4  01D8               	clrf	_event_count+1
  4612     14B5                     l3713:
  4613                           
  4614                           ;dashboard.c: 302:  clcd_print("Clearing Logs...", (0x80 + 0));
  4615     14B5  308B               	movlw	low (STR_22| (0+32768))
  4616     14B6  00F6               	movwf	clcd_print@str
  4617     14B7  3085               	movlw	high (STR_22| (0+32768))
  4618     14B8  00F7               	movwf	clcd_print@str+1
  4619     14B9  3080               	movlw	128
  4620     14BA  00F8               	movwf	clcd_print@addr
  4621     14BB  160A  118A  2668  160A  118A  	fcall	_clcd_print
  4622     14C0                     l3715:
  4623                           
  4624                           ;dashboard.c: 303:  _delay((unsigned long)((500)*(20000000/4000.0)));
  4625     14C0  300D               	movlw	13
  4626     14C1  1283               	bcf	3,5	;RP0=0, select bank0
  4627     14C2  1303               	bcf	3,6	;RP1=0, select bank0
  4628     14C3  00A2               	movwf	??_clear_log+2
  4629     14C4  30AF               	movlw	175
  4630     14C5  00A1               	movwf	??_clear_log+1
  4631     14C6  30B5               	movlw	181
  4632     14C7  00A0               	movwf	??_clear_log
  4633     14C8                     u4607:
  4634     14C8  0BA0               	decfsz	??_clear_log,f
  4635     14C9  2CC8               	goto	u4607
  4636     14CA  0BA1               	decfsz	??_clear_log+1,f
  4637     14CB  2CC8               	goto	u4607
  4638     14CC  0BA2               	decfsz	??_clear_log+2,f
  4639     14CD  2CC8               	goto	u4607
  4640     14CE  2CCF               	nop2
  4641     14CF                     l361:
  4642     14CF  0008               	return
  4643     14D0                     __end_of_clear_log:
  4644                           
  4645                           	psect	text14
  4646     0A7F                     __ptext14:	
  4647 ;; *************** function _change_password *****************
  4648 ;; Defined at:
  4649 ;;		line 448 in file "dashboard.c"
  4650 ;; Parameters:    Size  Location     Type
  4651 ;;		None
  4652 ;; Auto vars:     Size  Location     Type
  4653 ;;  new_password    5   20[BANK0 ] unsigned char [5]
  4654 ;;  new_password    5   15[BANK0 ] unsigned char [5]
  4655 ;; Return value:  Size  Location     Type
  4656 ;;                  1    wreg      void 
  4657 ;; Registers used:
  4658 ;;		wreg, fsr0l, fsr0h, status,2, status,0, pclath, btemp1, cstack
  4659 ;; Tracked objects:
  4660 ;;		On entry : 0/0
  4661 ;;		On exit  : 0/0
  4662 ;;		Unchanged: 0/0
  4663 ;; Data sizes:     COMMON   BANK0   BANK1   BANK3   BANK2
  4664 ;;      Params:         0       0       0       0       0
  4665 ;;      Locals:         0      10       0       0       0
  4666 ;;      Temps:          0       3       0       0       0
  4667 ;;      Totals:         0      13       0       0       0
  4668 ;;Total ram usage:       13 bytes
  4669 ;; Hardware stack levels used: 1
  4670 ;; Hardware stack levels required when called: 3
  4671 ;; This function calls:
  4672 ;;		_change_original_password
  4673 ;;		_clcd_print
  4674 ;;		_clear_screen
  4675 ;;		_collect_password
  4676 ;;		_strcmp
  4677 ;;		_strcpy
  4678 ;; This function is called by:
  4679 ;;		_main_menu
  4680 ;; This function uses a non-reentrant model
  4681 ;;
  4682                           
  4683     0A7F                     _change_password:	
  4684                           ;psect for function _change_password
  4685                           
  4686     0A7F                     l3789:	
  4687                           ;incstack = 0
  4688                           ; Regs used in _change_password: [wreg-fsr0h+status,2+status,0+pclath+btemp1+cstack]
  4689                           
  4690                           
  4691                           ;dashboard.c: 450:  char new_password[5];;dashboard.c: 451:  char new_password_re_enter[
      +                          5];;dashboard.c: 453:  strcpy(new_password, collect_password(0));
  4692     0A7F  3034               	movlw	(low (change_password@new_password| 0))& (0+255)
  4693     0A80  1283               	bcf	3,5	;RP0=0, select bank0
  4694     0A81  1303               	bcf	3,6	;RP1=0, select bank0
  4695     0A82  00A9               	movwf	strcpy@dest
  4696     0A83  3000               	movlw	0
  4697     0A84  00A1               	movwf	collect_password@re_enter
  4698     0A85  00A2               	movwf	collect_password@re_enter+1
  4699     0A86  120A  158A  23ED  120A  158A  	fcall	_collect_password
  4700     0A8B  1283               	bcf	3,5	;RP0=0, select bank0
  4701     0A8C  1303               	bcf	3,6	;RP1=0, select bank0
  4702     0A8D  00AA               	movwf	strcpy@src
  4703     0A8E  160A  118A  245E  120A  158A  	fcall	_strcpy
  4704     0A93                     l3791:
  4705                           
  4706                           ;dashboard.c: 454:  clear_screen();
  4707     0A93  160A  118A  23CA  120A  158A  	fcall	_clear_screen
  4708     0A98                     l3793:
  4709                           
  4710                           ;dashboard.c: 455:  strcpy(new_password_re_enter, collect_password(1));
  4711     0A98  302F               	movlw	(low (change_password@new_password_re_enter| 0))& (0+255)
  4712     0A99  1283               	bcf	3,5	;RP0=0, select bank0
  4713     0A9A  1303               	bcf	3,6	;RP1=0, select bank0
  4714     0A9B  00A9               	movwf	strcpy@dest
  4715     0A9C  3001               	movlw	1
  4716     0A9D  00A1               	movwf	collect_password@re_enter
  4717     0A9E  3000               	movlw	0
  4718     0A9F  00A2               	movwf	collect_password@re_enter+1
  4719     0AA0  120A  158A  23ED  120A  158A  	fcall	_collect_password
  4720     0AA5  1283               	bcf	3,5	;RP0=0, select bank0
  4721     0AA6  1303               	bcf	3,6	;RP1=0, select bank0
  4722     0AA7  00AA               	movwf	strcpy@src
  4723     0AA8  160A  118A  245E  120A  158A  	fcall	_strcpy
  4724                           
  4725                           ;dashboard.c: 456:  clear_screen();
  4726     0AAD  160A  118A  23CA  120A  158A  	fcall	_clear_screen
  4727     0AB2                     l3795:
  4728                           
  4729                           ;dashboard.c: 459:  if(strcmp(new_password, new_password_re_enter) == 0){
  4730     0AB2  3034               	movlw	(low (change_password@new_password| 0))& (0+255)
  4731     0AB3  00F2               	movwf	strcmp@l
  4732     0AB4  302F               	movlw	(low (change_password@new_password_re_enter| 0))& (0+255)
  4733     0AB5  00F3               	movwf	strcmp@r
  4734     0AB6  120A  118A  27D8  120A  158A  	fcall	_strcmp
  4735     0ABB  0872               	movf	?_strcmp,w
  4736     0ABC  0473               	iorwf	?_strcmp+1,w
  4737     0ABD  1D03               	btfss	3,2
  4738     0ABE  2AC0               	goto	u4231
  4739     0ABF  2AC1               	goto	u4230
  4740     0AC0                     u4231:
  4741     0AC0  2AE3               	goto	l3805
  4742     0AC1                     u4230:
  4743     0AC1                     l3797:
  4744                           
  4745                           ;dashboard.c: 460:   change_original_password(new_password);
  4746     0AC1  3034               	movlw	(low (change_password@new_password| 0))& (0+255)
  4747     0AC2  00F2               	movwf	change_original_password@new_password
  4748     0AC3  160A  118A  2492  120A  158A  	fcall	_change_original_password
  4749                           
  4750                           ;dashboard.c: 461:   clcd_print("PASSWORD CHANGED", (0x80 + 0));
  4751     0AC8  309C               	movlw	low (STR_32| (0+32768))
  4752     0AC9  00F6               	movwf	clcd_print@str
  4753     0ACA  3085               	movlw	high (STR_32| (0+32768))
  4754     0ACB  00F7               	movwf	clcd_print@str+1
  4755     0ACC  3080               	movlw	128
  4756     0ACD  00F8               	movwf	clcd_print@addr
  4757     0ACE  160A  118A  2668  120A  158A  	fcall	_clcd_print
  4758     0AD3                     l3799:
  4759                           
  4760                           ;dashboard.c: 462:   _delay((unsigned long)((1500)*(20000000/4000.0)));
  4761     0AD3  3027               	movlw	39
  4762     0AD4  1283               	bcf	3,5	;RP0=0, select bank0
  4763     0AD5  1303               	bcf	3,6	;RP1=0, select bank0
  4764     0AD6  00AE               	movwf	??_change_password+2
  4765     0AD7  300D               	movlw	13
  4766     0AD8  00AD               	movwf	??_change_password+1
  4767     0AD9  3025               	movlw	37
  4768     0ADA  00AC               	movwf	??_change_password
  4769     0ADB                     u4617:
  4770     0ADB  0BAC               	decfsz	??_change_password,f
  4771     0ADC  2ADB               	goto	u4617
  4772     0ADD  0BAD               	decfsz	??_change_password+1,f
  4773     0ADE  2ADB               	goto	u4617
  4774     0ADF  0BAE               	decfsz	??_change_password+2,f
  4775     0AE0  2ADB               	goto	u4617
  4776     0AE1  2AE2               	nop2
  4777     0AE2  2AEF               	goto	l409
  4778     0AE3                     l3805:
  4779                           
  4780                           ;dashboard.c: 466:   clcd_print("PASSWORD MISMATCH", (0x80 + 0));
  4781     0AE3  3012               	movlw	low (STR_33| (0+32768))
  4782     0AE4  00F6               	movwf	clcd_print@str
  4783     0AE5  3085               	movlw	high (STR_33| (0+32768))
  4784     0AE6  00F7               	movwf	clcd_print@str+1
  4785     0AE7  3080               	movlw	128
  4786     0AE8  00F8               	movwf	clcd_print@addr
  4787     0AE9  160A  118A  2668  120A  158A  	fcall	_clcd_print
  4788     0AEE  2AD3               	goto	l3799
  4789     0AEF                     l409:
  4790     0AEF  0008               	return
  4791     0AF0                     __end_of_change_password:
  4792                           
  4793                           	psect	text15
  4794     145E                     __ptext15:	
  4795 ;; *************** function _strcpy *****************
  4796 ;; Defined at:
  4797 ;;		line 3 in file "/opt/microchip/xc8/v3.10/pic/sources/c99/common/strcpy.c"
  4798 ;; Parameters:    Size  Location     Type
  4799 ;;  dest            1    9[BANK0 ] PTR unsigned char 
  4800 ;;		 -> change_password@new_password_re_enter(5), change_password@new_password(5), 
  4801 ;;  src             1   10[BANK0 ] PTR const unsigned char 
  4802 ;;		 -> collect_password@password(5), 
  4803 ;; Auto vars:     Size  Location     Type
  4804 ;;  d               1   11[BANK0 ] PTR unsigned char 
  4805 ;;		 -> change_password@new_password_re_enter(5), change_password@new_password(5), 
  4806 ;; Return value:  Size  Location     Type
  4807 ;;                  1    9[BANK0 ] PTR unsigned char 
  4808 ;; Registers used:
  4809 ;;		wreg, fsr0l, fsr0h, status,2, status,0, btemp1
  4810 ;; Tracked objects:
  4811 ;;		On entry : 0/0
  4812 ;;		On exit  : 0/0
  4813 ;;		Unchanged: 0/0
  4814 ;; Data sizes:     COMMON   BANK0   BANK1   BANK3   BANK2
  4815 ;;      Params:         0       2       0       0       0
  4816 ;;      Locals:         0       1       0       0       0
  4817 ;;      Temps:          0       0       0       0       0
  4818 ;;      Totals:         0       3       0       0       0
  4819 ;;Total ram usage:        3 bytes
  4820 ;; Hardware stack levels used: 1
  4821 ;; Hardware stack levels required when called: 1
  4822 ;; This function calls:
  4823 ;;		Nothing
  4824 ;; This function is called by:
  4825 ;;		_change_password
  4826 ;; This function uses a non-reentrant model
  4827 ;;
  4828                           
  4829     145E                     _strcpy:	
  4830                           ;psect for function _strcpy
  4831                           
  4832     145E                     l3479:	
  4833                           ;incstack = 0
  4834                           ; Regs used in _strcpy: [wreg-fsr0h+status,2+status,0+btemp1]
  4835                           
  4836     145E  1283               	bcf	3,5	;RP0=0, select bank0
  4837     145F  1303               	bcf	3,6	;RP1=0, select bank0
  4838     1460  0829               	movf	strcpy@dest,w
  4839     1461  00AB               	movwf	strcpy@d
  4840     1462                     l3481:
  4841     1462  082A               	movf	strcpy@src,w
  4842     1463  0AAA               	incf	strcpy@src,f
  4843     1464  0084               	movwf	4
  4844     1465  1383               	bcf	3,7	;select IRP bank0
  4845     1466  0800               	movf	0,w
  4846     1467  00FF               	movwf	btemp1
  4847     1468  082B               	movf	strcpy@d,w
  4848     1469  0AAB               	incf	strcpy@d,f
  4849     146A  0084               	movwf	4
  4850     146B  087F               	movf	btemp1,w
  4851     146C  0080               	movwf	0
  4852     146D  0800               	movf	0,w
  4853     146E  1D03               	btfss	3,2
  4854     146F  2C71               	goto	u3781
  4855     1470  2C72               	goto	u3780
  4856     1471                     u3781:
  4857     1471  2C62               	goto	l3481
  4858     1472                     u3780:
  4859     1472                     l1099:
  4860     1472  0008               	return
  4861     1473                     __end_of_strcpy:
  4862                           
  4863                           	psect	text16
  4864     07D8                     __ptext16:	
  4865 ;; *************** function _strcmp *****************
  4866 ;; Defined at:
  4867 ;;		line 3 in file "/opt/microchip/xc8/v3.10/pic/sources/c99/common/strcmp.c"
  4868 ;; Parameters:    Size  Location     Type
  4869 ;;  l               1    2[COMMON] PTR const unsigned char 
  4870 ;;		 -> change_password@new_password(5), 
  4871 ;;  r               1    3[COMMON] PTR const unsigned char 
  4872 ;;		 -> change_password@new_password_re_enter(5), 
  4873 ;; Auto vars:     Size  Location     Type
  4874 ;;		None
  4875 ;; Return value:  Size  Location     Type
  4876 ;;                  2    2[COMMON] int 
  4877 ;; Registers used:
  4878 ;;		wreg, fsr0l, fsr0h, status,2, status,0
  4879 ;; Tracked objects:
  4880 ;;		On entry : 0/0
  4881 ;;		On exit  : 0/0
  4882 ;;		Unchanged: 0/0
  4883 ;; Data sizes:     COMMON   BANK0   BANK1   BANK3   BANK2
  4884 ;;      Params:         2       0       0       0       0
  4885 ;;      Locals:         0       0       0       0       0
  4886 ;;      Temps:          2       0       0       0       0
  4887 ;;      Totals:         4       0       0       0       0
  4888 ;;Total ram usage:        4 bytes
  4889 ;; Hardware stack levels used: 1
  4890 ;; Hardware stack levels required when called: 1
  4891 ;; This function calls:
  4892 ;;		Nothing
  4893 ;; This function is called by:
  4894 ;;		_change_password
  4895 ;; This function uses a non-reentrant model
  4896 ;;
  4897                           
  4898     07D8                     _strcmp:	
  4899                           ;psect for function _strcmp
  4900                           
  4901     07D8                     l2507:	
  4902                           ;incstack = 0
  4903                           ; Regs used in _strcmp: [wreg-fsr0h+status,2+status,0]
  4904                           
  4905     07D8  2FDD               	goto	l2511
  4906     07D9                     l2509:
  4907     07D9  3001               	movlw	1
  4908     07DA  07F2               	addwf	strcmp@l,f
  4909     07DB  3001               	movlw	1
  4910     07DC  07F3               	addwf	strcmp@r,f
  4911     07DD                     l2511:
  4912     07DD  0873               	movf	strcmp@r,w
  4913     07DE  0084               	movwf	4
  4914     07DF  1383               	bcf	3,7	;select IRP bank0
  4915     07E0  0800               	movf	0,w
  4916     07E1  00F4               	movwf	??_strcmp
  4917     07E2  0872               	movf	strcmp@l,w
  4918     07E3  0084               	movwf	4
  4919     07E4  0800               	movf	0,w
  4920     07E5  0674               	xorwf	??_strcmp,w
  4921     07E6  1D03               	skipz
  4922     07E7  2FE9               	goto	u2251
  4923     07E8  2FEA               	goto	u2250
  4924     07E9                     u2251:
  4925     07E9  2FF1               	goto	l2515
  4926     07EA                     u2250:
  4927     07EA                     l2513:
  4928     07EA  0872               	movf	strcmp@l,w
  4929     07EB  0084               	movwf	4
  4930     07EC  0800               	movf	0,w
  4931     07ED  1D03               	btfss	3,2
  4932     07EE  2FF0               	goto	u2261
  4933     07EF  2FF1               	goto	u2260
  4934     07F0                     u2261:
  4935     07F0  2FD9               	goto	l2509
  4936     07F1                     u2260:
  4937     07F1                     l2515:
  4938     07F1  0873               	movf	strcmp@r,w
  4939     07F2  0084               	movwf	4
  4940     07F3  0800               	movf	0,w
  4941     07F4  00F4               	movwf	??_strcmp
  4942     07F5  0872               	movf	strcmp@l,w
  4943     07F6  0084               	movwf	4
  4944     07F7  0800               	movf	0,w
  4945     07F8  00F5               	movwf	??_strcmp+1
  4946     07F9  0874               	movf	??_strcmp,w
  4947     07FA  0275               	subwf	??_strcmp+1,w
  4948     07FB  00F2               	movwf	?_strcmp
  4949     07FC  01F3               	clrf	?_strcmp+1
  4950     07FD  1C03               	skipc
  4951     07FE  03F3               	decf	?_strcmp+1,f
  4952     07FF                     l1093:
  4953     07FF  0008               	return
  4954     0800                     __end_of_strcmp:
  4955                           
  4956                           	psect	text17
  4957     0BED                     __ptext17:	
  4958 ;; *************** function _collect_password *****************
  4959 ;; Defined at:
  4960 ;;		line 405 in file "dashboard.c"
  4961 ;; Parameters:    Size  Location     Type
  4962 ;;  re_enter        2    1[BANK0 ] unsigned int 
  4963 ;; Auto vars:     Size  Location     Type
  4964 ;;  curr_pass_in    2    7[BANK0 ] unsigned int 
  4965 ;;  key             1    6[BANK0 ] unsigned char 
  4966 ;; Return value:  Size  Location     Type
  4967 ;;                  1    1[BANK0 ] PTR unsigned char 
  4968 ;; Registers used:
  4969 ;;		wreg, fsr0l, fsr0h, status,2, status,0, pclath, btemp1, cstack
  4970 ;; Tracked objects:
  4971 ;;		On entry : 0/0
  4972 ;;		On exit  : 0/0
  4973 ;;		Unchanged: 0/0
  4974 ;; Data sizes:     COMMON   BANK0   BANK1   BANK3   BANK2
  4975 ;;      Params:         0       2       0       0       0
  4976 ;;      Locals:         0       3       0       0       0
  4977 ;;      Temps:          0       3       0       0       0
  4978 ;;      Totals:         0       8       0       0       0
  4979 ;;Total ram usage:        8 bytes
  4980 ;; Hardware stack levels used: 1
  4981 ;; Hardware stack levels required when called: 2
  4982 ;; This function calls:
  4983 ;;		_clcd_print
  4984 ;;		_clcd_putch
  4985 ;;		_read_digital_keypad
  4986 ;; This function is called by:
  4987 ;;		_change_password
  4988 ;; This function uses a non-reentrant model
  4989 ;;
  4990                           
  4991     0BED                     _collect_password:	
  4992                           ;psect for function _collect_password
  4993                           
  4994     0BED                     l3441:	
  4995                           ;incstack = 0
  4996                           ; Regs used in _collect_password: [wreg-fsr0h+status,2+status,0+pclath+btemp1+cstack]
  4997                           
  4998                           
  4999                           ;dashboard.c: 407:  if(re_enter){
  5000     0BED  1283               	bcf	3,5	;RP0=0, select bank0
  5001     0BEE  1303               	bcf	3,6	;RP1=0, select bank0
  5002     0BEF  0821               	movf	collect_password@re_enter,w
  5003     0BF0  0422               	iorwf	collect_password@re_enter+1,w
  5004     0BF1  1903               	btfsc	3,2
  5005     0BF2  2BF4               	goto	u3741
  5006     0BF3  2BF5               	goto	u3740
  5007     0BF4                     u3741:
  5008     0BF4  2C01               	goto	l3445
  5009     0BF5                     u3740:
  5010     0BF5                     l3443:
  5011                           
  5012                           ;dashboard.c: 408:   clcd_print("RE-ENTER NEW PASS", (0x80 + 0));
  5013     0BF5  3024               	movlw	low (STR_30| (0+32768))
  5014     0BF6  00F6               	movwf	clcd_print@str
  5015     0BF7  3085               	movlw	high (STR_30| (0+32768))
  5016     0BF8  00F7               	movwf	clcd_print@str+1
  5017     0BF9  3080               	movlw	128
  5018     0BFA  00F8               	movwf	clcd_print@addr
  5019     0BFB  160A  118A  2668  120A  158A  	fcall	_clcd_print
  5020                           
  5021                           ;dashboard.c: 409:  }
  5022     0C00  2C0C               	goto	l3447
  5023     0C01                     l3445:
  5024                           
  5025                           ;dashboard.c: 411:   clcd_print(" ENTER NEW PASS ", (0x80 + 0));
  5026     0C01  307A               	movlw	low (STR_31| (0+32768))
  5027     0C02  00F6               	movwf	clcd_print@str
  5028     0C03  3085               	movlw	high (STR_31| (0+32768))
  5029     0C04  00F7               	movwf	clcd_print@str+1
  5030     0C05  3080               	movlw	128
  5031     0C06  00F8               	movwf	clcd_print@addr
  5032     0C07  160A  118A  2668  120A  158A  	fcall	_clcd_print
  5033     0C0C                     l3447:
  5034                           
  5035                           ;dashboard.c: 415:  static char password[5];;dashboard.c: 416:  unsigned int curr_pass_i
      +                          ndex = 0;
  5036     0C0C  1283               	bcf	3,5	;RP0=0, select bank0
  5037     0C0D  1303               	bcf	3,6	;RP1=0, select bank0
  5038     0C0E  01A7               	clrf	collect_password@curr_pass_index
  5039     0C0F  01A8               	clrf	collect_password@curr_pass_index+1
  5040     0C10                     l3449:
  5041                           
  5042                           ;dashboard.c: 421:   key = read_digital_keypad(1);
  5043     0C10  3001               	movlw	1
  5044     0C11  160A  118A  25E8  120A  158A  	fcall	_read_digital_keypad
  5045     0C16  1283               	bcf	3,5	;RP0=0, select bank0
  5046     0C17  1303               	bcf	3,6	;RP1=0, select bank0
  5047     0C18  00A6               	movwf	collect_password@key
  5048     0C19                     l3451:
  5049                           
  5050                           ;dashboard.c: 424:   clcd_putch('_', (0xC0 + curr_pass_index));
  5051     0C19  0827               	movf	collect_password@curr_pass_index,w
  5052     0C1A  3EC0               	addlw	192
  5053     0C1B  00F9               	movwf	clcd_putch@addr
  5054     0C1C  305F               	movlw	95
  5055     0C1D  160A  118A  2449  120A  158A  	fcall	_clcd_putch
  5056     0C22                     l3453:
  5057                           
  5058                           ;dashboard.c: 425:   clcd_putch(' ', (0xC0 + curr_pass_index));
  5059     0C22  1283               	bcf	3,5	;RP0=0, select bank0
  5060     0C23  1303               	bcf	3,6	;RP1=0, select bank0
  5061     0C24  0827               	movf	collect_password@curr_pass_index,w
  5062     0C25  3EC0               	addlw	192
  5063     0C26  00F9               	movwf	clcd_putch@addr
  5064     0C27  3020               	movlw	32
  5065     0C28  160A  118A  2449  120A  158A  	fcall	_clcd_putch
  5066     0C2D                     l3455:
  5067                           
  5068                           ;dashboard.c: 427:   if(key == 0x3E){
  5069     0C2D  303E               	movlw	62
  5070     0C2E  1283               	bcf	3,5	;RP0=0, select bank0
  5071     0C2F  1303               	bcf	3,6	;RP1=0, select bank0
  5072     0C30  0626               	xorwf	collect_password@key,w
  5073     0C31  1D03               	btfss	3,2
  5074     0C32  2C34               	goto	u3751
  5075     0C33  2C35               	goto	u3750
  5076     0C34                     u3751:
  5077     0C34  2C4D               	goto	l3463
  5078     0C35                     u3750:
  5079     0C35                     l3457:
  5080                           
  5081                           ;dashboard.c: 428:    clcd_putch('*', (0xC0 + curr_pass_index));
  5082     0C35  0827               	movf	collect_password@curr_pass_index,w
  5083     0C36  3EC0               	addlw	192
  5084     0C37  00F9               	movwf	clcd_putch@addr
  5085     0C38  302A               	movlw	42
  5086     0C39  160A  118A  2449  120A  158A  	fcall	_clcd_putch
  5087     0C3E                     l3459:
  5088                           
  5089                           ;dashboard.c: 429:    password[curr_pass_index++] = '0';
  5090     0C3E  1283               	bcf	3,5	;RP0=0, select bank0
  5091     0C3F  1303               	bcf	3,6	;RP1=0, select bank0
  5092     0C40  0827               	movf	collect_password@curr_pass_index,w
  5093     0C41  3EC1               	addlw	(low (collect_password@password| 0))& (0+255)
  5094     0C42  0084               	movwf	4
  5095     0C43  3030               	movlw	48
  5096     0C44  1383               	bcf	3,7	;select IRP bank1
  5097     0C45  0080               	movwf	0
  5098     0C46                     l3461:
  5099     0C46  3001               	movlw	1
  5100     0C47  07A7               	addwf	collect_password@curr_pass_index,f
  5101     0C48  1803               	skipnc
  5102     0C49  0AA8               	incf	collect_password@curr_pass_index+1,f
  5103     0C4A  3000               	movlw	0
  5104     0C4B  07A8               	addwf	collect_password@curr_pass_index+1,f
  5105                           
  5106                           ;dashboard.c: 430:   }
  5107     0C4C  2C65               	goto	l3471
  5108     0C4D                     l3463:
  5109     0C4D  303D               	movlw	61
  5110     0C4E  0626               	xorwf	collect_password@key,w
  5111     0C4F  1D03               	btfss	3,2
  5112     0C50  2C52               	goto	u3761
  5113     0C51  2C53               	goto	u3760
  5114     0C52                     u3761:
  5115     0C52  2C65               	goto	l3471
  5116     0C53                     u3760:
  5117     0C53                     l3465:
  5118                           
  5119                           ;dashboard.c: 432:    clcd_putch('*', (0xC0 + curr_pass_index));
  5120     0C53  0827               	movf	collect_password@curr_pass_index,w
  5121     0C54  3EC0               	addlw	192
  5122     0C55  00F9               	movwf	clcd_putch@addr
  5123     0C56  302A               	movlw	42
  5124     0C57  160A  118A  2449  120A  158A  	fcall	_clcd_putch
  5125     0C5C                     l3467:
  5126                           
  5127                           ;dashboard.c: 433:    password[curr_pass_index++] = '1';
  5128     0C5C  1283               	bcf	3,5	;RP0=0, select bank0
  5129     0C5D  1303               	bcf	3,6	;RP1=0, select bank0
  5130     0C5E  0827               	movf	collect_password@curr_pass_index,w
  5131     0C5F  3EC1               	addlw	(low (collect_password@password| 0))& (0+255)
  5132     0C60  0084               	movwf	4
  5133     0C61  3031               	movlw	49
  5134     0C62  1383               	bcf	3,7	;select IRP bank1
  5135     0C63  0080               	movwf	0
  5136     0C64  2C46               	goto	l3461
  5137     0C65                     l3471:
  5138                           
  5139                           ;dashboard.c: 437:   if(curr_pass_index > 3){
  5140     0C65  3000               	movlw	0
  5141     0C66  0228               	subwf	collect_password@curr_pass_index+1,w
  5142     0C67  3004               	movlw	4
  5143     0C68  1903               	skipnz
  5144     0C69  0227               	subwf	collect_password@curr_pass_index,w
  5145     0C6A  1C03               	skipc
  5146     0C6B  2C6D               	goto	u3771
  5147     0C6C  2C6E               	goto	u3770
  5148     0C6D                     u3771:
  5149     0C6D  2C10               	goto	l3449
  5150     0C6E                     u3770:
  5151     0C6E                     l3473:
  5152                           
  5153                           ;dashboard.c: 438:    _delay((unsigned long)((1000)*(20000000/4000.0)));
  5154     0C6E  301A               	movlw	26
  5155     0C6F  1283               	bcf	3,5	;RP0=0, select bank0
  5156     0C70  1303               	bcf	3,6	;RP1=0, select bank0
  5157     0C71  00A5               	movwf	??_collect_password+2
  5158     0C72  305E               	movlw	94
  5159     0C73  00A4               	movwf	??_collect_password+1
  5160     0C74  306D               	movlw	109
  5161     0C75  00A3               	movwf	??_collect_password
  5162     0C76                     u4627:
  5163     0C76  0BA3               	decfsz	??_collect_password,f
  5164     0C77  2C76               	goto	u4627
  5165     0C78  0BA4               	decfsz	??_collect_password+1,f
  5166     0C79  2C76               	goto	u4627
  5167     0C7A  0BA5               	decfsz	??_collect_password+2,f
  5168     0C7B  2C76               	goto	u4627
  5169     0C7C  2C7D               	nop2
  5170     0C7D                     l3475:	
  5171                           ;dashboard.c: 439:    break;
  5172                           
  5173                           
  5174                           ;dashboard.c: 443:  return password;
  5175     0C7D  30C1               	movlw	(low (collect_password@password| 0))& (0+255)
  5176     0C7E                     l405:
  5177     0C7E  0008               	return
  5178     0C7F                     __end_of_collect_password:
  5179                           
  5180                           	psect	text18
  5181     13CA                     __ptext18:	
  5182 ;; *************** function _clear_screen *****************
  5183 ;; Defined at:
  5184 ;;		line 75 in file "clcd.c"
  5185 ;; Parameters:    Size  Location     Type
  5186 ;;		None
  5187 ;; Auto vars:     Size  Location     Type
  5188 ;;		None
  5189 ;; Return value:  Size  Location     Type
  5190 ;;                  1    wreg      void 
  5191 ;; Registers used:
  5192 ;;		wreg, status,2, status,0, pclath, cstack
  5193 ;; Tracked objects:
  5194 ;;		On entry : 0/0
  5195 ;;		On exit  : 0/0
  5196 ;;		Unchanged: 0/0
  5197 ;; Data sizes:     COMMON   BANK0   BANK1   BANK3   BANK2
  5198 ;;      Params:         0       0       0       0       0
  5199 ;;      Locals:         0       0       0       0       0
  5200 ;;      Temps:          0       0       0       0       0
  5201 ;;      Totals:         0       0       0       0       0
  5202 ;;Total ram usage:        0 bytes
  5203 ;; Hardware stack levels used: 1
  5204 ;; Hardware stack levels required when called: 1
  5205 ;; This function calls:
  5206 ;;		_clcd_write
  5207 ;; This function is called by:
  5208 ;;		_main_menu
  5209 ;;		_change_password
  5210 ;; This function uses a non-reentrant model
  5211 ;;
  5212                           
  5213     13CA                     _clear_screen:	
  5214                           ;psect for function _clear_screen
  5215                           
  5216     13CA                     l3375:	
  5217                           ;incstack = 0
  5218                           ; Regs used in _clear_screen: [wreg+status,2+status,0+pclath+cstack]
  5219                           
  5220                           
  5221                           ;clcd.c: 76:     clcd_write(0x01, 0);
  5222     13CA  01F2               	clrf	clcd_write@mode
  5223     13CB  3001               	movlw	1
  5224     13CC  160A  118A  275C  160A  118A  	fcall	_clcd_write
  5225     13D1                     l87:
  5226     13D1  0008               	return
  5227     13D2                     __end_of_clear_screen:
  5228                           
  5229                           	psect	text19
  5230     1492                     __ptext19:	
  5231 ;; *************** function _change_original_password *****************
  5232 ;; Defined at:
  5233 ;;		line 117 in file "auth.c"
  5234 ;; Parameters:    Size  Location     Type
  5235 ;;  new_password    1    2[COMMON] PTR unsigned char 
  5236 ;;		 -> change_password@new_password(5), 
  5237 ;; Auto vars:     Size  Location     Type
  5238 ;;  i               2    4[COMMON] unsigned int 
  5239 ;; Return value:  Size  Location     Type
  5240 ;;                  1    wreg      void 
  5241 ;; Registers used:
  5242 ;;		wreg, fsr0l, fsr0h, status,2, status,0, btemp1
  5243 ;; Tracked objects:
  5244 ;;		On entry : 0/0
  5245 ;;		On exit  : 0/0
  5246 ;;		Unchanged: 0/0
  5247 ;; Data sizes:     COMMON   BANK0   BANK1   BANK3   BANK2
  5248 ;;      Params:         1       0       0       0       0
  5249 ;;      Locals:         2       0       0       0       0
  5250 ;;      Temps:          1       0       0       0       0
  5251 ;;      Totals:         4       0       0       0       0
  5252 ;;Total ram usage:        4 bytes
  5253 ;; Hardware stack levels used: 1
  5254 ;; Hardware stack levels required when called: 1
  5255 ;; This function calls:
  5256 ;;		Nothing
  5257 ;; This function is called by:
  5258 ;;		_change_password
  5259 ;; This function uses a non-reentrant model
  5260 ;;
  5261                           
  5262     1492                     _change_original_password:	
  5263                           ;psect for function _change_original_password
  5264                           
  5265     1492                     l2519:	
  5266                           ;incstack = 0
  5267                           ; Regs used in _change_original_password: [wreg-fsr0h+status,2+status,0+btemp1]
  5268                           
  5269                           
  5270                           ;auth.c: 119:     for(unsigned int i = 0; i < 5; i++){
  5271     1492  01F4               	clrf	change_original_password@i
  5272     1493  01F5               	clrf	change_original_password@i+1
  5273     1494                     l2525:
  5274                           
  5275                           ;auth.c: 120:         original_password[i] = new_password[i];
  5276     1494  0874               	movf	change_original_password@i,w
  5277     1495  0772               	addwf	change_original_password@new_password,w
  5278     1496  00F3               	movwf	??_change_original_password
  5279     1497  0873               	movf	??_change_original_password,w
  5280     1498  0084               	movwf	4
  5281     1499  1383               	bcf	3,7	;select IRP bank0
  5282     149A  0800               	movf	0,w
  5283     149B  00FF               	movwf	btemp1
  5284     149C  0874               	movf	change_original_password@i,w
  5285     149D  3EE0               	addlw	(low (_original_password| 0))& (0+255)
  5286     149E  0084               	movwf	4
  5287     149F  087F               	movf	btemp1,w
  5288     14A0  0080               	movwf	0
  5289     14A1                     l2527:
  5290                           
  5291                           ;auth.c: 121:     }
  5292     14A1  3001               	movlw	1
  5293     14A2  07F4               	addwf	change_original_password@i,f
  5294     14A3  1803               	skipnc
  5295     14A4  0AF5               	incf	change_original_password@i+1,f
  5296     14A5  3000               	movlw	0
  5297     14A6  07F5               	addwf	change_original_password@i+1,f
  5298     14A7                     l2529:
  5299     14A7  3000               	movlw	0
  5300     14A8  0275               	subwf	change_original_password@i+1,w
  5301     14A9  3005               	movlw	5
  5302     14AA  1903               	skipnz
  5303     14AB  0274               	subwf	change_original_password@i,w
  5304     14AC  1C03               	skipc
  5305     14AD  2CAF               	goto	u2271
  5306     14AE  2CB0               	goto	u2270
  5307     14AF                     u2271:
  5308     14AF  2C94               	goto	l2525
  5309     14B0                     u2270:
  5310     14B0                     l517:
  5311     14B0  0008               	return
  5312     14B1                     __end_of_change_original_password:
  5313                           
  5314                           	psect	text20
  5315     069B                     __ptext20:	
  5316 ;; *************** function _auth_user *****************
  5317 ;; Defined at:
  5318 ;;		line 28 in file "auth.c"
  5319 ;; Parameters:    Size  Location     Type
  5320 ;;		None
  5321 ;; Auto vars:     Size  Location     Type
  5322 ;;  i               2    5[BANK0 ] unsigned int 
  5323 ;;  key             1    4[BANK0 ] unsigned char 
  5324 ;; Return value:  Size  Location     Type
  5325 ;;                  1    wreg      void 
  5326 ;; Registers used:
  5327 ;;		wreg, fsr0l, fsr0h, status,2, status,0, pclath, btemp1, cstack
  5328 ;; Tracked objects:
  5329 ;;		On entry : 0/0
  5330 ;;		On exit  : 0/0
  5331 ;;		Unchanged: 0/0
  5332 ;; Data sizes:     COMMON   BANK0   BANK1   BANK3   BANK2
  5333 ;;      Params:         0       0       0       0       0
  5334 ;;      Locals:         0       3       0       0       0
  5335 ;;      Temps:          0       3       0       0       0
  5336 ;;      Totals:         0       6       0       0       0
  5337 ;;Total ram usage:        6 bytes
  5338 ;; Hardware stack levels used: 1
  5339 ;; Hardware stack levels required when called: 3
  5340 ;; This function calls:
  5341 ;;		_clcd_print
  5342 ;;		_clcd_putch
  5343 ;;		_read_digital_keypad
  5344 ;;		_run_delay
  5345 ;; This function is called by:
  5346 ;;		_main_menu
  5347 ;; This function uses a non-reentrant model
  5348 ;;
  5349                           
  5350     069B                     _auth_user:	
  5351                           ;psect for function _auth_user
  5352                           
  5353     069B                     l3599:	
  5354                           ;incstack = 0
  5355                           ; Regs used in _auth_user: [wreg-fsr0h+status,2+status,0+pclath+btemp1+cstack]
  5356                           
  5357                           
  5358                           ;auth.c: 30:     unsigned char key;;auth.c: 31:     index = 0;
  5359     069B  1283               	bcf	3,5	;RP0=0, select bank0
  5360     069C  1303               	bcf	3,6	;RP1=0, select bank0
  5361     069D  01D3               	clrf	_index
  5362     069E  01D4               	clrf	_index+1
  5363     069F                     l3601:
  5364                           
  5365                           ;auth.c: 35:         clcd_print(" ENTER PASSWORD ", (0x80 + 0));
  5366     069F  3058               	movlw	low (STR_34| (0+32768))
  5367     06A0  00F6               	movwf	clcd_print@str
  5368     06A1  3085               	movlw	high (STR_34| (0+32768))
  5369     06A2  00F7               	movwf	clcd_print@str+1
  5370     06A3  3080               	movlw	128
  5371     06A4  00F8               	movwf	clcd_print@addr
  5372     06A5  160A  118A  2668  120A  118A  	fcall	_clcd_print
  5373     06AA                     l3603:
  5374                           
  5375                           ;auth.c: 36:         if(index == 0) clcd_print("                ", (0xC0 + 0));
  5376     06AA  1283               	bcf	3,5	;RP0=0, select bank0
  5377     06AB  1303               	bcf	3,6	;RP1=0, select bank0
  5378     06AC  0853               	movf	_index,w
  5379     06AD  0454               	iorwf	_index+1,w
  5380     06AE  1D03               	btfss	3,2
  5381     06AF  2EB1               	goto	u3971
  5382     06B0  2EB2               	goto	u3970
  5383     06B1                     u3971:
  5384     06B1  2EBD               	goto	l3607
  5385     06B2                     u3970:
  5386     06B2                     l3605:
  5387     06B2  3036               	movlw	low (STR_35| (0+32768))
  5388     06B3  00F6               	movwf	clcd_print@str
  5389     06B4  3085               	movlw	high (STR_35| (0+32768))
  5390     06B5  00F7               	movwf	clcd_print@str+1
  5391     06B6  30C0               	movlw	192
  5392     06B7  00F8               	movwf	clcd_print@addr
  5393     06B8  160A  118A  2668  120A  118A  	fcall	_clcd_print
  5394     06BD                     l3607:
  5395                           
  5396                           ;auth.c: 39:         key = read_digital_keypad(1);
  5397     06BD  3001               	movlw	1
  5398     06BE  160A  118A  25E8  120A  118A  	fcall	_read_digital_keypad
  5399     06C3  1283               	bcf	3,5	;RP0=0, select bank0
  5400     06C4  1303               	bcf	3,6	;RP1=0, select bank0
  5401     06C5  00A4               	movwf	auth_user@key
  5402     06C6                     l3609:
  5403                           
  5404                           ;auth.c: 40:         _delay((unsigned long)((100)*(20000000/4000.0)));
  5405     06C6  3003               	movlw	3
  5406     06C7  1283               	bcf	3,5	;RP0=0, select bank0
  5407     06C8  1303               	bcf	3,6	;RP1=0, select bank0
  5408     06C9  00A3               	movwf	??_auth_user+2
  5409     06CA  308A               	movlw	138
  5410     06CB  00A2               	movwf	??_auth_user+1
  5411     06CC  3055               	movlw	85
  5412     06CD  00A1               	movwf	??_auth_user
  5413     06CE                     u4637:
  5414     06CE  0BA1               	decfsz	??_auth_user,f
  5415     06CF  2ECE               	goto	u4637
  5416     06D0  0BA2               	decfsz	??_auth_user+1,f
  5417     06D1  2ECE               	goto	u4637
  5418     06D2  0BA3               	decfsz	??_auth_user+2,f
  5419     06D3  2ECE               	goto	u4637
  5420     06D4                     l3611:
  5421                           
  5422                           ;auth.c: 42:         if(key == 0x3E){
  5423     06D4  303E               	movlw	62
  5424     06D5  1283               	bcf	3,5	;RP0=0, select bank0
  5425     06D6  1303               	bcf	3,6	;RP1=0, select bank0
  5426     06D7  0624               	xorwf	auth_user@key,w
  5427     06D8  1D03               	btfss	3,2
  5428     06D9  2EDB               	goto	u3981
  5429     06DA  2EDC               	goto	u3980
  5430     06DB                     u3981:
  5431     06DB  2EF2               	goto	l3619
  5432     06DC                     u3980:
  5433     06DC                     l3613:
  5434                           
  5435                           ;auth.c: 43:             user_entered_password[index++] = '0';
  5436     06DC  0853               	movf	_index,w
  5437     06DD  3EA0               	addlw	(low (_user_entered_password| 0))& (0+255)
  5438     06DE  0084               	movwf	4
  5439     06DF  3030               	movlw	48
  5440     06E0  1383               	bcf	3,7	;select IRP bank1
  5441     06E1  0080               	movwf	0
  5442     06E2                     l3615:
  5443     06E2  3001               	movlw	1
  5444     06E3  07D3               	addwf	_index,f
  5445     06E4  1803               	skipnc
  5446     06E5  0AD4               	incf	_index+1,f
  5447     06E6  3000               	movlw	0
  5448     06E7  07D4               	addwf	_index+1,f
  5449     06E8                     l3617:
  5450                           
  5451                           ;auth.c: 44:             clcd_putch('*', (0xC0 + index));
  5452     06E8  0853               	movf	_index,w
  5453     06E9  3EC0               	addlw	192
  5454     06EA  00F9               	movwf	clcd_putch@addr
  5455     06EB  302A               	movlw	42
  5456     06EC  160A  118A  2449  120A  118A  	fcall	_clcd_putch
  5457                           
  5458                           ;auth.c: 45:         }
  5459     06F1  2F0D               	goto	l3627
  5460     06F2                     l3619:
  5461     06F2  303D               	movlw	61
  5462     06F3  0624               	xorwf	auth_user@key,w
  5463     06F4  1D03               	btfss	3,2
  5464     06F5  2EF7               	goto	u3991
  5465     06F6  2EF8               	goto	u3990
  5466     06F7                     u3991:
  5467     06F7  2F0D               	goto	l3627
  5468     06F8                     u3990:
  5469     06F8                     l3621:
  5470                           
  5471                           ;auth.c: 48:             user_entered_password[index++] = '1';
  5472     06F8  0853               	movf	_index,w
  5473     06F9  3EA0               	addlw	(low (_user_entered_password| 0))& (0+255)
  5474     06FA  0084               	movwf	4
  5475     06FB  3031               	movlw	49
  5476     06FC  1383               	bcf	3,7	;select IRP bank1
  5477     06FD  0080               	movwf	0
  5478     06FE                     l3623:
  5479     06FE  3001               	movlw	1
  5480     06FF  07D3               	addwf	_index,f
  5481     0700  1803               	skipnc
  5482     0701  0AD4               	incf	_index+1,f
  5483     0702  3000               	movlw	0
  5484     0703  07D4               	addwf	_index+1,f
  5485     0704                     l3625:
  5486                           
  5487                           ;auth.c: 49:             clcd_putch('*', (0xC0 + index));
  5488     0704  0853               	movf	_index,w
  5489     0705  3EC0               	addlw	192
  5490     0706  00F9               	movwf	clcd_putch@addr
  5491     0707  302A               	movlw	42
  5492     0708  160A  118A  2449  120A  118A  	fcall	_clcd_putch
  5493     070D                     l3627:
  5494                           
  5495                           ;auth.c: 52:         if(index > 3){
  5496     070D  3000               	movlw	0
  5497     070E  1283               	bcf	3,5	;RP0=0, select bank0
  5498     070F  1303               	bcf	3,6	;RP1=0, select bank0
  5499     0710  0254               	subwf	_index+1,w
  5500     0711  3004               	movlw	4
  5501     0712  1903               	skipnz
  5502     0713  0253               	subwf	_index,w
  5503     0714  1C03               	skipc
  5504     0715  2F17               	goto	u4001
  5505     0716  2F18               	goto	u4000
  5506     0717                     u4001:
  5507     0717  2F2C               	goto	l3633
  5508     0718                     u4000:
  5509     0718                     l3629:
  5510                           
  5511                           ;auth.c: 53:             user_entered_password[index] = '\0';
  5512     0718  0853               	movf	_index,w
  5513     0719  3EA0               	addlw	(low (_user_entered_password| 0))& (0+255)
  5514     071A  0084               	movwf	4
  5515     071B  1383               	bcf	3,7	;select IRP bank1
  5516     071C  0180               	clrf	0
  5517     071D                     l3631:
  5518                           
  5519                           ;auth.c: 54:             _delay((unsigned long)((1000)*(20000000/4000.0)));
  5520     071D  301A               	movlw	26
  5521     071E  1283               	bcf	3,5	;RP0=0, select bank0
  5522     071F  1303               	bcf	3,6	;RP1=0, select bank0
  5523     0720  00A3               	movwf	??_auth_user+2
  5524     0721  305E               	movlw	94
  5525     0722  00A2               	movwf	??_auth_user+1
  5526     0723  306D               	movlw	109
  5527     0724  00A1               	movwf	??_auth_user
  5528     0725                     u4647:
  5529     0725  0BA1               	decfsz	??_auth_user,f
  5530     0726  2F25               	goto	u4647
  5531     0727  0BA2               	decfsz	??_auth_user+1,f
  5532     0728  2F25               	goto	u4647
  5533     0729  0BA3               	decfsz	??_auth_user+2,f
  5534     072A  2F25               	goto	u4647
  5535     072B  2F2C               	nop2
  5536     072C                     l3633:
  5537                           
  5538                           ;auth.c: 59:         if(index == 4){
  5539     072C  3004               	movlw	4
  5540     072D  1283               	bcf	3,5	;RP0=0, select bank0
  5541     072E  1303               	bcf	3,6	;RP1=0, select bank0
  5542     072F  0653               	xorwf	_index,w
  5543     0730  0454               	iorwf	_index+1,w
  5544     0731  1D03               	btfss	3,2
  5545     0732  2F34               	goto	u4011
  5546     0733  2F35               	goto	u4010
  5547     0734                     u4011:
  5548     0734  2E9F               	goto	l3601
  5549     0735                     u4010:
  5550     0735                     l3635:
  5551                           
  5552                           ;auth.c: 61:             unsigned int i = 0;
  5553     0735  01A5               	clrf	auth_user@i
  5554     0736  01A6               	clrf	auth_user@i+1
  5555     0737                     l3641:
  5556                           
  5557                           ;auth.c: 63:                 if(user_entered_password[i] != original_password[i]){
  5558     0737  0825               	movf	auth_user@i,w
  5559     0738  3EE0               	addlw	(low (_original_password| 0))& (0+255)
  5560     0739  0084               	movwf	4
  5561     073A  1383               	bcf	3,7	;select IRP bank1
  5562     073B  0800               	movf	0,w
  5563     073C  00A1               	movwf	??_auth_user
  5564     073D  0825               	movf	auth_user@i,w
  5565     073E  3EA0               	addlw	(low (_user_entered_password| 0))& (0+255)
  5566     073F  0084               	movwf	4
  5567     0740  0800               	movf	0,w
  5568     0741  0621               	xorwf	??_auth_user,w
  5569     0742  1903               	skipnz
  5570     0743  2F45               	goto	u4021
  5571     0744  2F46               	goto	u4020
  5572     0745                     u4021:
  5573     0745  2F47               	goto	l3645
  5574     0746                     u4020:
  5575     0746  2F56               	goto	l3647
  5576     0747                     l3645:
  5577                           
  5578                           ;auth.c: 66:             }
  5579     0747  3001               	movlw	1
  5580     0748  07A5               	addwf	auth_user@i,f
  5581     0749  1803               	skipnc
  5582     074A  0AA6               	incf	auth_user@i+1,f
  5583     074B  3000               	movlw	0
  5584     074C  07A6               	addwf	auth_user@i+1,f
  5585     074D  3000               	movlw	0
  5586     074E  0226               	subwf	auth_user@i+1,w
  5587     074F  3004               	movlw	4
  5588     0750  1903               	skipnz
  5589     0751  0225               	subwf	auth_user@i,w
  5590     0752  1C03               	skipc
  5591     0753  2F55               	goto	u4031
  5592     0754  2F56               	goto	u4030
  5593     0755                     u4031:
  5594     0755  2F37               	goto	l3641
  5595     0756                     u4030:
  5596     0756                     l3647:
  5597                           
  5598                           ;auth.c: 69:             if(i == 4){
  5599     0756  3004               	movlw	4
  5600     0757  0625               	xorwf	auth_user@i,w
  5601     0758  0426               	iorwf	auth_user@i+1,w
  5602     0759  1D03               	btfss	3,2
  5603     075A  2F5C               	goto	u4041
  5604     075B  2F5D               	goto	u4040
  5605     075C                     u4041:
  5606     075C  2F7A               	goto	l3659
  5607     075D                     u4040:
  5608     075D                     l3649:
  5609                           
  5610                           ;auth.c: 70:                 access = 1;
  5611     075D  3001               	movlw	1
  5612     075E  00DB               	movwf	_access
  5613     075F                     l3651:
  5614                           
  5615                           ;auth.c: 71:                 clcd_print("Access Granted.", (0xC0 + 0));
  5616     075F  30CF               	movlw	low (STR_36| (0+32768))
  5617     0760  00F6               	movwf	clcd_print@str
  5618     0761  3085               	movlw	high (STR_36| (0+32768))
  5619     0762  00F7               	movwf	clcd_print@str+1
  5620     0763  30C0               	movlw	192
  5621     0764  00F8               	movwf	clcd_print@addr
  5622     0765  160A  118A  2668  120A  118A  	fcall	_clcd_print
  5623     076A                     l3653:
  5624                           
  5625                           ;auth.c: 72:                 _delay((unsigned long)((500)*(20000000/4000.0)));
  5626     076A  300D               	movlw	13
  5627     076B  1283               	bcf	3,5	;RP0=0, select bank0
  5628     076C  1303               	bcf	3,6	;RP1=0, select bank0
  5629     076D  00A3               	movwf	??_auth_user+2
  5630     076E  30AF               	movlw	175
  5631     076F  00A2               	movwf	??_auth_user+1
  5632     0770  30B5               	movlw	181
  5633     0771  00A1               	movwf	??_auth_user
  5634     0772                     u4657:
  5635     0772  0BA1               	decfsz	??_auth_user,f
  5636     0773  2F72               	goto	u4657
  5637     0774  0BA2               	decfsz	??_auth_user+1,f
  5638     0775  2F72               	goto	u4657
  5639     0776  0BA3               	decfsz	??_auth_user+2,f
  5640     0777  2F72               	goto	u4657
  5641     0778  2F79               	nop2
  5642     0779  2FD7               	goto	l502
  5643     077A                     l3659:
  5644                           
  5645                           ;auth.c: 76:                 access = 0;
  5646     077A  01DB               	clrf	_access
  5647     077B                     l3661:
  5648                           
  5649                           ;auth.c: 77:                 clcd_print("Access Denied.",(0xC0 + 0));
  5650     077B  30EE               	movlw	low (STR_37| (0+32768))
  5651     077C  00F6               	movwf	clcd_print@str
  5652     077D  3085               	movlw	high (STR_37| (0+32768))
  5653     077E  00F7               	movwf	clcd_print@str+1
  5654     077F  30C0               	movlw	192
  5655     0780  00F8               	movwf	clcd_print@addr
  5656     0781  160A  118A  2668  120A  118A  	fcall	_clcd_print
  5657     0786                     l3663:
  5658                           
  5659                           ;auth.c: 78:                 _delay((unsigned long)((1500)*(20000000/4000.0)));
  5660     0786  3027               	movlw	39
  5661     0787  1283               	bcf	3,5	;RP0=0, select bank0
  5662     0788  1303               	bcf	3,6	;RP1=0, select bank0
  5663     0789  00A3               	movwf	??_auth_user+2
  5664     078A  300D               	movlw	13
  5665     078B  00A2               	movwf	??_auth_user+1
  5666     078C  3025               	movlw	37
  5667     078D  00A1               	movwf	??_auth_user
  5668     078E                     u4667:
  5669     078E  0BA1               	decfsz	??_auth_user,f
  5670     078F  2F8E               	goto	u4667
  5671     0790  0BA2               	decfsz	??_auth_user+1,f
  5672     0791  2F8E               	goto	u4667
  5673     0792  0BA3               	decfsz	??_auth_user+2,f
  5674     0793  2F8E               	goto	u4667
  5675     0794  2F95               	nop2
  5676     0795                     l3665:
  5677                           
  5678                           ;auth.c: 80:                 attempt_no++;
  5679     0795  3001               	movlw	1
  5680     0796  1283               	bcf	3,5	;RP0=0, select bank0
  5681     0797  1303               	bcf	3,6	;RP1=0, select bank0
  5682     0798  07D1               	addwf	_attempt_no,f
  5683     0799  1803               	skipnc
  5684     079A  0AD2               	incf	_attempt_no+1,f
  5685     079B  3000               	movlw	0
  5686     079C  07D2               	addwf	_attempt_no+1,f
  5687     079D                     l3667:
  5688                           
  5689                           ;auth.c: 81:                 index = 0;
  5690     079D  01D3               	clrf	_index
  5691     079E  01D4               	clrf	_index+1
  5692                           
  5693                           ;auth.c: 83:                 clcd_print("Attempt Left:", (0xC0 + 0));
  5694     079F  3057               	movlw	low (STR_38| (0+32768))
  5695     07A0  00F6               	movwf	clcd_print@str
  5696     07A1  3086               	movlw	high (STR_38| (0+32768))
  5697     07A2  00F7               	movwf	clcd_print@str+1
  5698     07A3  30C0               	movlw	192
  5699     07A4  00F8               	movwf	clcd_print@addr
  5700     07A5  160A  118A  2668  120A  118A  	fcall	_clcd_print
  5701     07AA                     l3669:
  5702                           
  5703                           ;auth.c: 84:                 clcd_putch((3 - attempt_no) + '0', (0xC0 + 13));
  5704     07AA  30CD               	movlw	205
  5705     07AB  00F9               	movwf	clcd_putch@addr
  5706     07AC  1283               	bcf	3,5	;RP0=0, select bank0
  5707     07AD  1303               	bcf	3,6	;RP1=0, select bank0
  5708     07AE  0851               	movf	_attempt_no,w
  5709     07AF  3C33               	sublw	51
  5710     07B0  160A  118A  2449  120A  118A  	fcall	_clcd_putch
  5711     07B5                     l3671:
  5712                           
  5713                           ;auth.c: 85:                 _delay((unsigned long)((1500)*(20000000/4000.0)));
  5714     07B5  3027               	movlw	39
  5715     07B6  1283               	bcf	3,5	;RP0=0, select bank0
  5716     07B7  1303               	bcf	3,6	;RP1=0, select bank0
  5717     07B8  00A3               	movwf	??_auth_user+2
  5718     07B9  300D               	movlw	13
  5719     07BA  00A2               	movwf	??_auth_user+1
  5720     07BB  3025               	movlw	37
  5721     07BC  00A1               	movwf	??_auth_user
  5722     07BD                     u4677:
  5723     07BD  0BA1               	decfsz	??_auth_user,f
  5724     07BE  2FBD               	goto	u4677
  5725     07BF  0BA2               	decfsz	??_auth_user+1,f
  5726     07C0  2FBD               	goto	u4677
  5727     07C1  0BA3               	decfsz	??_auth_user+2,f
  5728     07C2  2FBD               	goto	u4677
  5729     07C3  2FC4               	nop2
  5730     07C4                     l3673:
  5731                           
  5732                           ;auth.c: 87:                 if(attempt_no == 3){
  5733     07C4  3003               	movlw	3
  5734     07C5  1283               	bcf	3,5	;RP0=0, select bank0
  5735     07C6  1303               	bcf	3,6	;RP1=0, select bank0
  5736     07C7  0651               	xorwf	_attempt_no,w
  5737     07C8  0452               	iorwf	_attempt_no+1,w
  5738     07C9  1D03               	btfss	3,2
  5739     07CA  2FCC               	goto	u4051
  5740     07CB  2FCD               	goto	u4050
  5741     07CC                     u4051:
  5742     07CC  2E9F               	goto	l3601
  5743     07CD                     u4050:
  5744     07CD                     l3675:
  5745                           
  5746                           ;auth.c: 88:                     run_delay();
  5747     07CD  120A  158A  2102  120A  118A  	fcall	_run_delay
  5748     07D2                     l3677:
  5749                           
  5750                           ;auth.c: 89:                     attempt_no = 0;
  5751     07D2  1283               	bcf	3,5	;RP0=0, select bank0
  5752     07D3  1303               	bcf	3,6	;RP1=0, select bank0
  5753     07D4  01D1               	clrf	_attempt_no
  5754     07D5  01D2               	clrf	_attempt_no+1
  5755     07D6  2E9F               	goto	l3601
  5756     07D7                     l502:
  5757     07D7  0008               	return
  5758     07D8                     __end_of_auth_user:
  5759                           
  5760                           	psect	text21
  5761     0902                     __ptext21:	
  5762 ;; *************** function _run_delay *****************
  5763 ;; Defined at:
  5764 ;;		line 98 in file "auth.c"
  5765 ;; Parameters:    Size  Location     Type
  5766 ;;		None
  5767 ;; Auto vars:     Size  Location     Type
  5768 ;;		None
  5769 ;; Return value:  Size  Location     Type
  5770 ;;                  1    wreg      void 
  5771 ;; Registers used:
  5772 ;;		wreg, fsr0l, fsr0h, status,2, status,0, pclath, btemp1, cstack
  5773 ;; Tracked objects:
  5774 ;;		On entry : 0/0
  5775 ;;		On exit  : 0/0
  5776 ;;		Unchanged: 0/0
  5777 ;; Data sizes:     COMMON   BANK0   BANK1   BANK3   BANK2
  5778 ;;      Params:         0       0       0       0       0
  5779 ;;      Locals:         0       0       0       0       0
  5780 ;;      Temps:          0       0       0       0       0
  5781 ;;      Totals:         0       0       0       0       0
  5782 ;;Total ram usage:        0 bytes
  5783 ;; Hardware stack levels used: 1
  5784 ;; Hardware stack levels required when called: 2
  5785 ;; This function calls:
  5786 ;;		___lwdiv
  5787 ;;		___lwmod
  5788 ;;		_clcd_print
  5789 ;;		_clcd_putch
  5790 ;;		_init_timer0
  5791 ;; This function is called by:
  5792 ;;		_auth_user
  5793 ;; This function uses a non-reentrant model
  5794 ;;
  5795                           
  5796     0902                     _run_delay:	
  5797                           ;psect for function _run_delay
  5798                           
  5799     0902                     l3483:	
  5800                           ;incstack = 0
  5801                           ; Regs used in _run_delay: [wreg-fsr0h+status,2+status,0+pclath+btemp1+cstack]
  5802                           
  5803                           
  5804                           ;auth.c: 100:     init_timer0();
  5805     0902  160A  118A  23EC  120A  158A  	fcall	_init_timer0
  5806                           
  5807                           ;auth.c: 102:     while(delay){
  5808     0907  294E               	goto	l3491
  5809     0908                     l3485:
  5810                           
  5811                           ;auth.c: 103:         clcd_print(" ENTERING WAIT  ", (0x80 + 0));
  5812     0908  3047               	movlw	low (STR_39| (0+32768))
  5813     0909  00F6               	movwf	clcd_print@str
  5814     090A  3085               	movlw	high (STR_39| (0+32768))
  5815     090B  00F7               	movwf	clcd_print@str+1
  5816     090C  3080               	movlw	128
  5817     090D  00F8               	movwf	clcd_print@addr
  5818     090E  160A  118A  2668  120A  158A  	fcall	_clcd_print
  5819                           
  5820                           ;auth.c: 104:         clcd_print("Seconds left: ", (0xC0 + 0));
  5821     0913  30DF               	movlw	low (STR_40| (0+32768))
  5822     0914  00F6               	movwf	clcd_print@str
  5823     0915  3085               	movlw	high (STR_40| (0+32768))
  5824     0916  00F7               	movwf	clcd_print@str+1
  5825     0917  30C0               	movlw	192
  5826     0918  00F8               	movwf	clcd_print@addr
  5827     0919  160A  118A  2668  120A  158A  	fcall	_clcd_print
  5828     091E                     l3487:
  5829                           
  5830                           ;auth.c: 107:         clcd_putch((delay / 10) + '0', (0xC0 + 14));
  5831     091E  30CE               	movlw	206
  5832     091F  00F9               	movwf	clcd_putch@addr
  5833     0920  300A               	movlw	10
  5834     0921  00F2               	movwf	___lwdiv@divisor
  5835     0922  3000               	movlw	0
  5836     0923  00F3               	movwf	___lwdiv@divisor+1
  5837     0924  1283               	bcf	3,5	;RP0=0, select bank0
  5838     0925  1303               	bcf	3,6	;RP1=0, select bank0
  5839     0926  086C               	movf	_delay+1,w
  5840     0927  00F5               	movwf	___lwdiv@dividend+1
  5841     0928  086B               	movf	_delay,w
  5842     0929  00F4               	movwf	___lwdiv@dividend
  5843     092A  120A  158A  206E  120A  158A  	fcall	___lwdiv
  5844     092F  0872               	movf	?___lwdiv,w
  5845     0930  3E30               	addlw	48
  5846     0931  160A  118A  2449  120A  158A  	fcall	_clcd_putch
  5847     0936                     l3489:
  5848                           
  5849                           ;auth.c: 108:         clcd_putch((delay % 10) + '0', (0xC0 + 15));
  5850     0936  30CF               	movlw	207
  5851     0937  00F9               	movwf	clcd_putch@addr
  5852     0938  300A               	movlw	10
  5853     0939  00F2               	movwf	___lwmod@divisor
  5854     093A  3000               	movlw	0
  5855     093B  00F3               	movwf	___lwmod@divisor+1
  5856     093C  1283               	bcf	3,5	;RP0=0, select bank0
  5857     093D  1303               	bcf	3,6	;RP1=0, select bank0
  5858     093E  086C               	movf	_delay+1,w
  5859     093F  00F5               	movwf	___lwmod@dividend+1
  5860     0940  086B               	movf	_delay,w
  5861     0941  00F4               	movwf	___lwmod@dividend
  5862     0942  160A  118A  27C8  120A  158A  	fcall	___lwmod
  5863     0947  0872               	movf	?___lwmod,w
  5864     0948  3E30               	addlw	48
  5865     0949  160A  118A  2449  120A  158A  	fcall	_clcd_putch
  5866     094E                     l3491:
  5867                           
  5868                           ;auth.c: 102:     while(delay){
  5869     094E  1283               	bcf	3,5	;RP0=0, select bank0
  5870     094F  1303               	bcf	3,6	;RP1=0, select bank0
  5871     0950  086B               	movf	_delay,w
  5872     0951  046C               	iorwf	_delay+1,w
  5873     0952  1D03               	btfss	3,2
  5874     0953  2955               	goto	u3791
  5875     0954  2956               	goto	u3790
  5876     0955                     u3791:
  5877     0955  2908               	goto	l3485
  5878     0956                     u3790:
  5879     0956                     l3493:
  5880                           
  5881                           ;auth.c: 111:     delay = 30;
  5882     0956  301E               	movlw	30
  5883     0957  00EB               	movwf	_delay
  5884     0958  3000               	movlw	0
  5885     0959  00EC               	movwf	_delay+1
  5886     095A                     l512:
  5887     095A  0008               	return
  5888     095B                     __end_of_run_delay:
  5889                           
  5890                           	psect	text22
  5891     13EC                     __ptext22:	
  5892 ;; *************** function _init_timer0 *****************
  5893 ;; Defined at:
  5894 ;;		line 3 in file "timers.c"
  5895 ;; Parameters:    Size  Location     Type
  5896 ;;		None
  5897 ;; Auto vars:     Size  Location     Type
  5898 ;;		None
  5899 ;; Return value:  Size  Location     Type
  5900 ;;                  1    wreg      void 
  5901 ;; Registers used:
  5902 ;;		None
  5903 ;; Tracked objects:
  5904 ;;		On entry : 0/0
  5905 ;;		On exit  : 0/0
  5906 ;;		Unchanged: 0/0
  5907 ;; Data sizes:     COMMON   BANK0   BANK1   BANK3   BANK2
  5908 ;;      Params:         0       0       0       0       0
  5909 ;;      Locals:         0       0       0       0       0
  5910 ;;      Temps:          0       0       0       0       0
  5911 ;;      Totals:         0       0       0       0       0
  5912 ;;Total ram usage:        0 bytes
  5913 ;; Hardware stack levels used: 1
  5914 ;; Hardware stack levels required when called: 1
  5915 ;; This function calls:
  5916 ;;		Nothing
  5917 ;; This function is called by:
  5918 ;;		_run_delay
  5919 ;; This function uses a non-reentrant model
  5920 ;;
  5921                           
  5922     13EC                     _init_timer0:	
  5923                           ;psect for function _init_timer0
  5924                           
  5925     13EC                     l2303:	
  5926                           ;incstack = 0
  5927                           ; Regs used in _init_timer0: []
  5928                           
  5929                           
  5930                           ;timers.c: 6:     T0CS = 0;
  5931     13EC  1683               	bsf	3,5	;RP0=1, select bank1
  5932     13ED  1303               	bcf	3,6	;RP1=0, select bank1
  5933     13EE  1281               	bcf	1,5	;volatile
  5934                           
  5935                           ;timers.c: 9:     PSA = 1;
  5936     13EF  1581               	bsf	1,3	;volatile
  5937                           
  5938                           ;timers.c: 11:     TMR0 = 6;
  5939     13F0  3006               	movlw	6
  5940     13F1  1283               	bcf	3,5	;RP0=0, select bank0
  5941     13F2  1303               	bcf	3,6	;RP1=0, select bank0
  5942     13F3  0081               	movwf	1	;volatile
  5943                           
  5944                           ;timers.c: 14:     TMR0IE = 1;
  5945     13F4  168B               	bsf	11,5	;volatile
  5946     13F5                     l528:
  5947     13F5  0008               	return
  5948     13F6                     __end_of_init_timer0:
  5949                           
  5950                           	psect	text23
  5951     1449                     __ptext23:	
  5952 ;; *************** function _clcd_putch *****************
  5953 ;; Defined at:
  5954 ;;		line 57 in file "clcd.c"
  5955 ;; Parameters:    Size  Location     Type
  5956 ;;  data            1    wreg     const unsigned char 
  5957 ;;  addr            1    9[COMMON] unsigned char 
  5958 ;; Auto vars:     Size  Location     Type
  5959 ;;  data            1    0[BANK0 ] const unsigned char 
  5960 ;; Return value:  Size  Location     Type
  5961 ;;                  1    wreg      void 
  5962 ;; Registers used:
  5963 ;;		wreg, status,2, status,0, pclath, cstack
  5964 ;; Tracked objects:
  5965 ;;		On entry : 0/0
  5966 ;;		On exit  : 0/0
  5967 ;;		Unchanged: 0/0
  5968 ;; Data sizes:     COMMON   BANK0   BANK1   BANK3   BANK2
  5969 ;;      Params:         1       0       0       0       0
  5970 ;;      Locals:         0       1       0       0       0
  5971 ;;      Temps:          0       0       0       0       0
  5972 ;;      Totals:         1       1       0       0       0
  5973 ;;Total ram usage:        2 bytes
  5974 ;; Hardware stack levels used: 1
  5975 ;; Hardware stack levels required when called: 1
  5976 ;; This function calls:
  5977 ;;		_clcd_write
  5978 ;; This function is called by:
  5979 ;;		_set_time
  5980 ;;		_collect_password
  5981 ;;		_auth_user
  5982 ;;		_run_delay
  5983 ;; This function uses a non-reentrant model
  5984 ;;
  5985                           
  5986     1449                     _clcd_putch:	
  5987                           ;psect for function _clcd_putch
  5988                           
  5989                           
  5990                           ;incstack = 0
  5991                           ; Regs used in _clcd_putch: [wreg+status,2+status,0+pclath+cstack]
  5992                           ;clcd_putch@data stored from wreg
  5993     1449  1283               	bcf	3,5	;RP0=0, select bank0
  5994     144A  1303               	bcf	3,6	;RP1=0, select bank0
  5995     144B  00A0               	movwf	clcd_putch@data
  5996     144C                     l3325:
  5997                           
  5998                           ;clcd.c: 57: void clcd_putch(const char data, unsigned char addr);clcd.c: 58: {;clcd.c: 
      +                          59:     clcd_write(addr, 0);
  5999     144C  01F2               	clrf	clcd_write@mode
  6000     144D  0879               	movf	clcd_putch@addr,w
  6001     144E  160A  118A  275C  160A  118A  	fcall	_clcd_write
  6002                           
  6003                           ;clcd.c: 60:     clcd_write(data, 1);
  6004     1453  01F2               	clrf	clcd_write@mode
  6005     1454  0AF2               	incf	clcd_write@mode,f
  6006     1455  1283               	bcf	3,5	;RP0=0, select bank0
  6007     1456  1303               	bcf	3,6	;RP1=0, select bank0
  6008     1457  0820               	movf	clcd_putch@data,w
  6009     1458  160A  118A  275C  160A  118A  	fcall	_clcd_write
  6010     145D                     l78:
  6011     145D  0008               	return
  6012     145E                     __end_of_clcd_putch:
  6013                           
  6014                           	psect	text24
  6015     15E8                     __ptext24:	
  6016 ;; *************** function _read_digital_keypad *****************
  6017 ;; Defined at:
  6018 ;;		line 10 in file "digital_keypad.c"
  6019 ;; Parameters:    Size  Location     Type
  6020 ;;  mode            1    wreg     unsigned char 
  6021 ;; Auto vars:     Size  Location     Type
  6022 ;;  mode            1    3[COMMON] unsigned char 
  6023 ;; Return value:  Size  Location     Type
  6024 ;;                  1    wreg      unsigned char 
  6025 ;; Registers used:
  6026 ;;		wreg, status,2, status,0
  6027 ;; Tracked objects:
  6028 ;;		On entry : 0/0
  6029 ;;		On exit  : 0/0
  6030 ;;		Unchanged: 0/0
  6031 ;; Data sizes:     COMMON   BANK0   BANK1   BANK3   BANK2
  6032 ;;      Params:         0       0       0       0       0
  6033 ;;      Locals:         1       0       0       0       0
  6034 ;;      Temps:          1       0       0       0       0
  6035 ;;      Totals:         2       0       0       0       0
  6036 ;;Total ram usage:        2 bytes
  6037 ;; Hardware stack levels used: 1
  6038 ;; Hardware stack levels required when called: 1
  6039 ;; This function calls:
  6040 ;;		Nothing
  6041 ;; This function is called by:
  6042 ;;		_main
  6043 ;;		_main_menu
  6044 ;;		_view_log
  6045 ;;		_set_time
  6046 ;;		_collect_password
  6047 ;;		_auth_user
  6048 ;; This function uses a non-reentrant model
  6049 ;;
  6050                           
  6051     15E8                     _read_digital_keypad:	
  6052                           ;psect for function _read_digital_keypad
  6053                           
  6054                           
  6055                           ;incstack = 0
  6056                           ; Regs used in _read_digital_keypad: [wreg+status,2+status,0]
  6057                           ;read_digital_keypad@mode stored from wreg
  6058     15E8  00F3               	movwf	read_digital_keypad@mode
  6059     15E9                     l2247:
  6060                           
  6061                           ;digital_keypad.c: 10: unsigned char read_digital_keypad(unsigned char mode);digital_key
      +                          pad.c: 11: {;digital_keypad.c: 12:     static unsigned char once = 1;;digital_keypad.c: 
      +                          14:     if (mode == 0)
  6062     15E9  0873               	movf	read_digital_keypad@mode,w
  6063     15EA  1D03               	btfss	3,2
  6064     15EB  2DED               	goto	u1841
  6065     15EC  2DEE               	goto	u1840
  6066     15ED                     u1841:
  6067     15ED  2DF3               	goto	l2255
  6068     15EE                     u1840:
  6069     15EE                     l2249:
  6070                           
  6071                           ;digital_keypad.c: 15:     {;digital_keypad.c: 16:         return PORTB & 0x3F;
  6072     15EE  1283               	bcf	3,5	;RP0=0, select bank0
  6073     15EF  1303               	bcf	3,6	;RP1=0, select bank0
  6074     15F0  0806               	movf	6,w	;volatile
  6075     15F1  393F               	andlw	63
  6076     15F2  2E11               	goto	l48
  6077     15F3                     l2255:
  6078                           
  6079                           ;digital_keypad.c: 19:     {;digital_keypad.c: 20:         if (((PORTB & 0x3F) != 0x3F) 
      +                          && once)
  6080     15F3  303F               	movlw	63
  6081     15F4  1283               	bcf	3,5	;RP0=0, select bank0
  6082     15F5  1303               	bcf	3,6	;RP1=0, select bank0
  6083     15F6  0506               	andwf	6,w	;volatile
  6084     15F7  00F2               	movwf	??_read_digital_keypad
  6085     15F8  303F               	movlw	63
  6086     15F9  0672               	xorwf	??_read_digital_keypad,w
  6087     15FA  1903               	btfsc	3,2
  6088     15FB  2DFD               	goto	u1851
  6089     15FC  2DFE               	goto	u1850
  6090     15FD                     u1851:
  6091     15FD  2E05               	goto	l2267
  6092     15FE                     u1850:
  6093     15FE                     l2257:
  6094     15FE  086D               	movf	read_digital_keypad@once,w
  6095     15FF  1903               	btfsc	3,2
  6096     1600  2E02               	goto	u1861
  6097     1601  2E03               	goto	u1860
  6098     1602                     u1861:
  6099     1602  2E05               	goto	l2267
  6100     1603                     u1860:
  6101     1603                     l2259:
  6102                           
  6103                           ;digital_keypad.c: 21:         {;digital_keypad.c: 22:             once = 0;
  6104     1603  01ED               	clrf	read_digital_keypad@once
  6105     1604  2DEE               	goto	l2249
  6106     1605                     l2267:
  6107     1605  303F               	movlw	63
  6108     1606  0506               	andwf	6,w	;volatile
  6109     1607  00F2               	movwf	??_read_digital_keypad
  6110     1608  303F               	movlw	63
  6111     1609  0672               	xorwf	??_read_digital_keypad,w
  6112     160A  1D03               	btfss	3,2
  6113     160B  2E0D               	goto	u1871
  6114     160C  2E0E               	goto	u1870
  6115     160D                     u1871:
  6116     160D  2E10               	goto	l2271
  6117     160E                     u1870:
  6118     160E                     l2269:
  6119                           
  6120                           ;digital_keypad.c: 27:         {;digital_keypad.c: 28:             once = 1;
  6121     160E  3001               	movlw	1
  6122     160F  00ED               	movwf	read_digital_keypad@once
  6123     1610                     l2271:
  6124                           
  6125                           ;digital_keypad.c: 32:     return 0x3F;
  6126     1610  303F               	movlw	63
  6127     1611                     l48:
  6128     1611  0008               	return
  6129     1612                     __end_of_read_digital_keypad:
  6130                           
  6131                           	psect	text25
  6132     0801                     __ptext25:	
  6133 ;; *************** function _init_config *****************
  6134 ;; Defined at:
  6135 ;;		line 18 in file "main.c"
  6136 ;; Parameters:    Size  Location     Type
  6137 ;;		None
  6138 ;; Auto vars:     Size  Location     Type
  6139 ;;		None
  6140 ;; Return value:  Size  Location     Type
  6141 ;;                  1    wreg      void 
  6142 ;; Registers used:
  6143 ;;		wreg, status,2, status,0, pclath, cstack
  6144 ;; Tracked objects:
  6145 ;;		On entry : 0/0
  6146 ;;		On exit  : 0/0
  6147 ;;		Unchanged: 0/0
  6148 ;; Data sizes:     COMMON   BANK0   BANK1   BANK3   BANK2
  6149 ;;      Params:         0       0       0       0       0
  6150 ;;      Locals:         0       0       0       0       0
  6151 ;;      Temps:          0       0       0       0       0
  6152 ;;      Totals:         0       0       0       0       0
  6153 ;;Total ram usage:        0 bytes
  6154 ;; Hardware stack levels used: 1
  6155 ;; Hardware stack levels required when called: 4
  6156 ;; This function calls:
  6157 ;;		_init_adc
  6158 ;;		_init_clcd
  6159 ;;		_init_digital_keypad
  6160 ;;		_init_ds1307
  6161 ;;		_init_i2c
  6162 ;;		_init_uart
  6163 ;; This function is called by:
  6164 ;;		_main
  6165 ;; This function uses a non-reentrant model
  6166 ;;
  6167                           
  6168     0801                     _init_config:	
  6169                           ;psect for function _init_config
  6170                           
  6171     0801                     l3847:	
  6172                           ;incstack = 0
  6173                           ; Regs used in _init_config: [wreg+status,2+status,0+pclath+cstack]
  6174                           
  6175                           
  6176                           ;main.c: 20:     init_adc();
  6177     0801  160A  118A  23C3  120A  158A  	fcall	_init_adc
  6178     0806                     l3849:
  6179                           
  6180                           ;main.c: 21:     init_clcd();
  6181     0806  160A  118A  240C  120A  158A  	fcall	_init_clcd
  6182     080B                     l3851:
  6183                           
  6184                           ;main.c: 22:     init_digital_keypad();
  6185     080B  160A  118A  23BD  120A  158A  	fcall	_init_digital_keypad
  6186     0810                     l3853:
  6187                           
  6188                           ;main.c: 23:     init_i2c(100000);
  6189     0810  3000               	movlw	0
  6190     0811  1283               	bcf	3,5	;RP0=0, select bank0
  6191     0812  1303               	bcf	3,6	;RP1=0, select bank0
  6192     0813  00A9               	movwf	init_i2c@baud+3
  6193     0814  3001               	movlw	1
  6194     0815  00A8               	movwf	init_i2c@baud+2
  6195     0816  3086               	movlw	134
  6196     0817  00A7               	movwf	init_i2c@baud+1
  6197     0818  30A0               	movlw	160
  6198     0819  00A6               	movwf	init_i2c@baud
  6199     081A  160A  118A  26F7  120A  158A  	fcall	_init_i2c
  6200     081F                     l3855:
  6201                           
  6202                           ;main.c: 24:     init_ds1307();
  6203     081F  160A  118A  2435  120A  158A  	fcall	_init_ds1307
  6204     0824                     l3857:
  6205                           
  6206                           ;main.c: 25:     init_uart(9600);
  6207     0824  3000               	movlw	0
  6208     0825  1283               	bcf	3,5	;RP0=0, select bank0
  6209     0826  1303               	bcf	3,6	;RP1=0, select bank0
  6210     0827  00A9               	movwf	init_uart@baud+3
  6211     0828  3000               	movlw	0
  6212     0829  00A8               	movwf	init_uart@baud+2
  6213     082A  3025               	movlw	37
  6214     082B  00A7               	movwf	init_uart@baud+1
  6215     082C  3080               	movlw	128
  6216     082D  00A6               	movwf	init_uart@baud
  6217     082E  160A  118A  26C7  120A  158A  	fcall	_init_uart
  6218     0833                     l3859:
  6219                           
  6220                           ;main.c: 27:     GIE = 1;
  6221     0833  178B               	bsf	11,7	;volatile
  6222     0834                     l23:
  6223     0834  0008               	return
  6224     0835                     __end_of_init_config:
  6225                           
  6226                           	psect	text26
  6227     16C7                     __ptext26:	
  6228 ;; *************** function _init_uart *****************
  6229 ;; Defined at:
  6230 ;;		line 4 in file "uart.c"
  6231 ;; Parameters:    Size  Location     Type
  6232 ;;  baud            4    6[BANK0 ] unsigned long 
  6233 ;; Auto vars:     Size  Location     Type
  6234 ;;		None
  6235 ;; Return value:  Size  Location     Type
  6236 ;;                  1    wreg      void 
  6237 ;; Registers used:
  6238 ;;		wreg, status,2, status,0, pclath, cstack
  6239 ;; Tracked objects:
  6240 ;;		On entry : 0/0
  6241 ;;		On exit  : 0/0
  6242 ;;		Unchanged: 0/0
  6243 ;; Data sizes:     COMMON   BANK0   BANK1   BANK3   BANK2
  6244 ;;      Params:         0       4       0       0       0
  6245 ;;      Locals:         0       0       0       0       0
  6246 ;;      Temps:          0       4       0       0       0
  6247 ;;      Totals:         0       8       0       0       0
  6248 ;;Total ram usage:        8 bytes
  6249 ;; Hardware stack levels used: 1
  6250 ;; Hardware stack levels required when called: 2
  6251 ;; This function calls:
  6252 ;;		___lldiv
  6253 ;; This function is called by:
  6254 ;;		_init_config
  6255 ;; This function uses a non-reentrant model
  6256 ;;
  6257                           
  6258     16C7                     _init_uart:	
  6259                           ;psect for function _init_uart
  6260                           
  6261     16C7                     l3541:	
  6262                           ;incstack = 0
  6263                           ; Regs used in _init_uart: [wreg+status,2+status,0+pclath+cstack]
  6264                           
  6265                           
  6266                           ;uart.c: 4: void init_uart(unsigned long baud);uart.c: 5: {;uart.c: 7:     SPEN = 1;
  6267     16C7  1283               	bcf	3,5	;RP0=0, select bank0
  6268     16C8  1303               	bcf	3,6	;RP1=0, select bank0
  6269     16C9  1798               	bsf	24,7	;volatile
  6270                           
  6271                           ;uart.c: 10:     CREN = 1;
  6272     16CA  1618               	bsf	24,4	;volatile
  6273     16CB                     l3543:
  6274                           
  6275                           ;uart.c: 13:     SPBRG = (20000000 / (16 * baud)) - 1;
  6276     16CB  0826               	movf	init_uart@baud,w
  6277     16CC  00AA               	movwf	??_init_uart
  6278     16CD  0827               	movf	init_uart@baud+1,w
  6279     16CE  00AB               	movwf	??_init_uart+1
  6280     16CF  0828               	movf	init_uart@baud+2,w
  6281     16D0  00AC               	movwf	??_init_uart+2
  6282     16D1  0829               	movf	init_uart@baud+3,w
  6283     16D2  00AD               	movwf	??_init_uart+3
  6284     16D3  3004               	movlw	4
  6285     16D4                     u3885:
  6286     16D4  1003               	clrc
  6287     16D5  0DAA               	rlf	??_init_uart,f
  6288     16D6  0DAB               	rlf	??_init_uart+1,f
  6289     16D7  0DAC               	rlf	??_init_uart+2,f
  6290     16D8  0DAD               	rlf	??_init_uart+3,f
  6291     16D9                     u3880:
  6292     16D9  3EFF               	addlw	-1
  6293     16DA  1D03               	skipz
  6294     16DB  2ED4               	goto	u3885
  6295     16DC  082D               	movf	??_init_uart+3,w
  6296     16DD  00F5               	movwf	___lldiv@divisor+3
  6297     16DE  082C               	movf	??_init_uart+2,w
  6298     16DF  00F4               	movwf	___lldiv@divisor+2
  6299     16E0  082B               	movf	??_init_uart+1,w
  6300     16E1  00F3               	movwf	___lldiv@divisor+1
  6301     16E2  082A               	movf	??_init_uart,w
  6302     16E3  00F2               	movwf	___lldiv@divisor
  6303     16E4  3001               	movlw	1
  6304     16E5  00F9               	movwf	___lldiv@dividend+3
  6305     16E6  3031               	movlw	49
  6306     16E7  00F8               	movwf	___lldiv@dividend+2
  6307     16E8  302D               	movlw	45
  6308     16E9  00F7               	movwf	___lldiv@dividend+1
  6309     16EA  3000               	movlw	0
  6310     16EB  00F6               	movwf	___lldiv@dividend
  6311     16EC  120A  158A  2219  160A  118A  	fcall	___lldiv
  6312     16F1  0872               	movf	?___lldiv,w
  6313     16F2  3EFF               	addlw	255
  6314     16F3  1683               	bsf	3,5	;RP0=1, select bank1
  6315     16F4  1303               	bcf	3,6	;RP1=0, select bank1
  6316     16F5  0099               	movwf	25	;volatile
  6317     16F6                     l446:
  6318     16F6  0008               	return
  6319     16F7                     __end_of_init_uart:
  6320                           
  6321                           	psect	text27
  6322     16F7                     __ptext27:	
  6323 ;; *************** function _init_i2c *****************
  6324 ;; Defined at:
  6325 ;;		line 4 in file "i2c.c"
  6326 ;; Parameters:    Size  Location     Type
  6327 ;;  baud            4    6[BANK0 ] unsigned long 
  6328 ;; Auto vars:     Size  Location     Type
  6329 ;;		None
  6330 ;; Return value:  Size  Location     Type
  6331 ;;                  1    wreg      void 
  6332 ;; Registers used:
  6333 ;;		wreg, status,2, status,0, pclath, cstack
  6334 ;; Tracked objects:
  6335 ;;		On entry : 0/0
  6336 ;;		On exit  : 0/0
  6337 ;;		Unchanged: 0/0
  6338 ;; Data sizes:     COMMON   BANK0   BANK1   BANK3   BANK2
  6339 ;;      Params:         0       4       0       0       0
  6340 ;;      Locals:         0       0       0       0       0
  6341 ;;      Temps:          0       4       0       0       0
  6342 ;;      Totals:         0       8       0       0       0
  6343 ;;Total ram usage:        8 bytes
  6344 ;; Hardware stack levels used: 1
  6345 ;; Hardware stack levels required when called: 2
  6346 ;; This function calls:
  6347 ;;		___lldiv
  6348 ;; This function is called by:
  6349 ;;		_init_config
  6350 ;; This function uses a non-reentrant model
  6351 ;;
  6352                           
  6353     16F7                     _init_i2c:	
  6354                           ;psect for function _init_i2c
  6355                           
  6356     16F7                     l3529:	
  6357                           ;incstack = 0
  6358                           ; Regs used in _init_i2c: [wreg+status,2+status,0+pclath+cstack]
  6359                           
  6360                           
  6361                           ;i2c.c: 4: void init_i2c(unsigned long baud);i2c.c: 5: {;i2c.c: 7:     SSPM3 = 1;
  6362     16F7  1283               	bcf	3,5	;RP0=0, select bank0
  6363     16F8  1303               	bcf	3,6	;RP1=0, select bank0
  6364     16F9  1594               	bsf	20,3	;volatile
  6365     16FA                     l3531:
  6366                           
  6367                           ;i2c.c: 10:     SSPADD = (unsigned char)(20000000 / (4 * baud)) - 1;
  6368     16FA  0826               	movf	init_i2c@baud,w
  6369     16FB  00AA               	movwf	??_init_i2c
  6370     16FC  0827               	movf	init_i2c@baud+1,w
  6371     16FD  00AB               	movwf	??_init_i2c+1
  6372     16FE  0828               	movf	init_i2c@baud+2,w
  6373     16FF  00AC               	movwf	??_init_i2c+2
  6374     1700  0829               	movf	init_i2c@baud+3,w
  6375     1701  00AD               	movwf	??_init_i2c+3
  6376     1702  3002               	movlw	2
  6377     1703                     u3875:
  6378     1703  1003               	clrc
  6379     1704  0DAA               	rlf	??_init_i2c,f
  6380     1705  0DAB               	rlf	??_init_i2c+1,f
  6381     1706  0DAC               	rlf	??_init_i2c+2,f
  6382     1707  0DAD               	rlf	??_init_i2c+3,f
  6383     1708                     u3870:
  6384     1708  3EFF               	addlw	-1
  6385     1709  1D03               	skipz
  6386     170A  2F03               	goto	u3875
  6387     170B  082D               	movf	??_init_i2c+3,w
  6388     170C  00F5               	movwf	___lldiv@divisor+3
  6389     170D  082C               	movf	??_init_i2c+2,w
  6390     170E  00F4               	movwf	___lldiv@divisor+2
  6391     170F  082B               	movf	??_init_i2c+1,w
  6392     1710  00F3               	movwf	___lldiv@divisor+1
  6393     1711  082A               	movf	??_init_i2c,w
  6394     1712  00F2               	movwf	___lldiv@divisor
  6395     1713  3001               	movlw	1
  6396     1714  00F9               	movwf	___lldiv@dividend+3
  6397     1715  3031               	movlw	49
  6398     1716  00F8               	movwf	___lldiv@dividend+2
  6399     1717  302D               	movlw	45
  6400     1718  00F7               	movwf	___lldiv@dividend+1
  6401     1719  3000               	movlw	0
  6402     171A  00F6               	movwf	___lldiv@dividend
  6403     171B  120A  158A  2219  160A  118A  	fcall	___lldiv
  6404     1720  0872               	movf	?___lldiv,w
  6405     1721  3EFF               	addlw	255
  6406     1722  1683               	bsf	3,5	;RP0=1, select bank1
  6407     1723  1303               	bcf	3,6	;RP1=0, select bank1
  6408     1724  0093               	movwf	19	;volatile
  6409     1725                     l3533:
  6410                           
  6411                           ;i2c.c: 13:     SSPEN = 1;
  6412     1725  1283               	bcf	3,5	;RP0=0, select bank0
  6413     1726  1303               	bcf	3,6	;RP1=0, select bank0
  6414     1727  1694               	bsf	20,5	;volatile
  6415     1728                     l116:
  6416     1728  0008               	return
  6417     1729                     __end_of_init_i2c:
  6418                           
  6419                           	psect	text28
  6420     0A19                     __ptext28:	
  6421 ;; *************** function ___lldiv *****************
  6422 ;; Defined at:
  6423 ;;		line 5 in file "/opt/microchip/xc8/v3.10/pic/sources/c99/common/__lldiv.c"
  6424 ;; Parameters:    Size  Location     Type
  6425 ;;  divisor         4    2[COMMON] unsigned long 
  6426 ;;  dividend        4    6[COMMON] unsigned long 
  6427 ;; Auto vars:     Size  Location     Type
  6428 ;;  quotient        4    1[BANK0 ] unsigned long 
  6429 ;;  counter         1    5[BANK0 ] unsigned char 
  6430 ;; Return value:  Size  Location     Type
  6431 ;;                  4    2[COMMON] unsigned long 
  6432 ;; Registers used:
  6433 ;;		wreg, status,2, status,0
  6434 ;; Tracked objects:
  6435 ;;		On entry : 0/0
  6436 ;;		On exit  : 0/0
  6437 ;;		Unchanged: 0/0
  6438 ;; Data sizes:     COMMON   BANK0   BANK1   BANK3   BANK2
  6439 ;;      Params:         8       0       0       0       0
  6440 ;;      Locals:         0       5       0       0       0
  6441 ;;      Temps:          0       1       0       0       0
  6442 ;;      Totals:         8       6       0       0       0
  6443 ;;Total ram usage:       14 bytes
  6444 ;; Hardware stack levels used: 1
  6445 ;; Hardware stack levels required when called: 1
  6446 ;; This function calls:
  6447 ;;		Nothing
  6448 ;; This function is called by:
  6449 ;;		_init_i2c
  6450 ;;		_init_uart
  6451 ;; This function uses a non-reentrant model
  6452 ;;
  6453                           
  6454     0A19                     ___lldiv:	
  6455                           ;psect for function ___lldiv
  6456                           
  6457     0A19                     l3497:	
  6458                           ;incstack = 0
  6459                           ; Regs used in ___lldiv: [wreg+status,2+status,0]
  6460                           
  6461     0A19  3000               	movlw	0
  6462     0A1A  1283               	bcf	3,5	;RP0=0, select bank0
  6463     0A1B  1303               	bcf	3,6	;RP1=0, select bank0
  6464     0A1C  00A4               	movwf	___lldiv@quotient+3
  6465     0A1D  3000               	movlw	0
  6466     0A1E  00A3               	movwf	___lldiv@quotient+2
  6467     0A1F  3000               	movlw	0
  6468     0A20  00A2               	movwf	___lldiv@quotient+1
  6469     0A21  3000               	movlw	0
  6470     0A22  00A1               	movwf	___lldiv@quotient
  6471     0A23  0875               	movf	___lldiv@divisor+3,w
  6472     0A24  0474               	iorwf	___lldiv@divisor+2,w
  6473     0A25  0473               	iorwf	___lldiv@divisor+1,w
  6474     0A26  0472               	iorwf	___lldiv@divisor,w
  6475     0A27  1903               	skipnz
  6476     0A28  2A2A               	goto	u3801
  6477     0A29  2A2B               	goto	u3800
  6478     0A2A                     u3801:
  6479     0A2A  2A76               	goto	l3517
  6480     0A2B                     u3800:
  6481     0A2B                     l3499:
  6482     0A2B  3001               	movlw	1
  6483     0A2C  00A5               	movwf	___lldiv@counter
  6484     0A2D  2A39               	goto	l3503
  6485     0A2E                     l3501:
  6486     0A2E  3001               	movlw	1
  6487     0A2F  00A0               	movwf	??___lldiv
  6488     0A30                     u3815:
  6489     0A30  1003               	clrc
  6490     0A31  0DF2               	rlf	___lldiv@divisor,f
  6491     0A32  0DF3               	rlf	___lldiv@divisor+1,f
  6492     0A33  0DF4               	rlf	___lldiv@divisor+2,f
  6493     0A34  0DF5               	rlf	___lldiv@divisor+3,f
  6494     0A35  0BA0               	decfsz	??___lldiv,f
  6495     0A36  2A30               	goto	u3815
  6496     0A37  3001               	movlw	1
  6497     0A38  07A5               	addwf	___lldiv@counter,f
  6498     0A39                     l3503:
  6499     0A39  1FF5               	btfss	___lldiv@divisor+3,7
  6500     0A3A  2A3C               	goto	u3821
  6501     0A3B  2A3D               	goto	u3820
  6502     0A3C                     u3821:
  6503     0A3C  2A2E               	goto	l3501
  6504     0A3D                     u3820:
  6505     0A3D                     l3505:
  6506     0A3D  3001               	movlw	1
  6507     0A3E  00A0               	movwf	??___lldiv
  6508     0A3F                     u3835:
  6509     0A3F  1003               	clrc
  6510     0A40  0DA1               	rlf	___lldiv@quotient,f
  6511     0A41  0DA2               	rlf	___lldiv@quotient+1,f
  6512     0A42  0DA3               	rlf	___lldiv@quotient+2,f
  6513     0A43  0DA4               	rlf	___lldiv@quotient+3,f
  6514     0A44  0BA0               	decfsz	??___lldiv,f
  6515     0A45  2A3F               	goto	u3835
  6516     0A46                     l3507:
  6517     0A46  0875               	movf	___lldiv@divisor+3,w
  6518     0A47  0279               	subwf	___lldiv@dividend+3,w
  6519     0A48  1D03               	skipz
  6520     0A49  2A54               	goto	u3845
  6521     0A4A  0874               	movf	___lldiv@divisor+2,w
  6522     0A4B  0278               	subwf	___lldiv@dividend+2,w
  6523     0A4C  1D03               	skipz
  6524     0A4D  2A54               	goto	u3845
  6525     0A4E  0873               	movf	___lldiv@divisor+1,w
  6526     0A4F  0277               	subwf	___lldiv@dividend+1,w
  6527     0A50  1D03               	skipz
  6528     0A51  2A54               	goto	u3845
  6529     0A52  0872               	movf	___lldiv@divisor,w
  6530     0A53  0276               	subwf	___lldiv@dividend,w
  6531     0A54                     u3845:
  6532     0A54  1C03               	skipc
  6533     0A55  2A57               	goto	u3841
  6534     0A56  2A58               	goto	u3840
  6535     0A57                     u3841:
  6536     0A57  2A67               	goto	l3513
  6537     0A58                     u3840:
  6538     0A58                     l3509:
  6539     0A58  0872               	movf	___lldiv@divisor,w
  6540     0A59  02F6               	subwf	___lldiv@dividend,f
  6541     0A5A  0873               	movf	___lldiv@divisor+1,w
  6542     0A5B  1C03               	skipc
  6543     0A5C  0F73               	incfsz	___lldiv@divisor+1,w
  6544     0A5D  02F7               	subwf	___lldiv@dividend+1,f
  6545     0A5E  0874               	movf	___lldiv@divisor+2,w
  6546     0A5F  1C03               	skipc
  6547     0A60  0F74               	incfsz	___lldiv@divisor+2,w
  6548     0A61  02F8               	subwf	___lldiv@dividend+2,f
  6549     0A62  0875               	movf	___lldiv@divisor+3,w
  6550     0A63  1C03               	skipc
  6551     0A64  0F75               	incfsz	___lldiv@divisor+3,w
  6552     0A65  02F9               	subwf	___lldiv@dividend+3,f
  6553     0A66                     l3511:
  6554     0A66  1421               	bsf	___lldiv@quotient,0
  6555     0A67                     l3513:
  6556     0A67  3001               	movlw	1
  6557     0A68                     u3855:
  6558     0A68  1003               	clrc
  6559     0A69  0CF5               	rrf	___lldiv@divisor+3,f
  6560     0A6A  0CF4               	rrf	___lldiv@divisor+2,f
  6561     0A6B  0CF3               	rrf	___lldiv@divisor+1,f
  6562     0A6C  0CF2               	rrf	___lldiv@divisor,f
  6563     0A6D  3EFF               	addlw	-1
  6564     0A6E  1D03               	skipz
  6565     0A6F  2A68               	goto	u3855
  6566     0A70                     l3515:
  6567     0A70  3001               	movlw	1
  6568     0A71  02A5               	subwf	___lldiv@counter,f
  6569     0A72  1D03               	btfss	3,2
  6570     0A73  2A75               	goto	u3861
  6571     0A74  2A76               	goto	u3860
  6572     0A75                     u3861:
  6573     0A75  2A3D               	goto	l3505
  6574     0A76                     u3860:
  6575     0A76                     l3517:
  6576     0A76  0824               	movf	___lldiv@quotient+3,w
  6577     0A77  00F5               	movwf	?___lldiv+3
  6578     0A78  0823               	movf	___lldiv@quotient+2,w
  6579     0A79  00F4               	movwf	?___lldiv+2
  6580     0A7A  0822               	movf	___lldiv@quotient+1,w
  6581     0A7B  00F3               	movwf	?___lldiv+1
  6582     0A7C  0821               	movf	___lldiv@quotient,w
  6583     0A7D  00F2               	movwf	?___lldiv
  6584     0A7E                     l665:
  6585     0A7E  0008               	return
  6586     0A7F                     __end_of___lldiv:
  6587                           
  6588                           	psect	text29
  6589     1435                     __ptext29:	
  6590 ;; *************** function _init_ds1307 *****************
  6591 ;; Defined at:
  6592 ;;		line 8 in file "ds1307.c"
  6593 ;; Parameters:    Size  Location     Type
  6594 ;;		None
  6595 ;; Auto vars:     Size  Location     Type
  6596 ;;  dummy           1    1[BANK0 ] unsigned char 
  6597 ;; Return value:  Size  Location     Type
  6598 ;;                  1    wreg      void 
  6599 ;; Registers used:
  6600 ;;		wreg, status,2, status,0, pclath, cstack
  6601 ;; Tracked objects:
  6602 ;;		On entry : 0/0
  6603 ;;		On exit  : 0/0
  6604 ;;		Unchanged: 0/0
  6605 ;; Data sizes:     COMMON   BANK0   BANK1   BANK3   BANK2
  6606 ;;      Params:         0       0       0       0       0
  6607 ;;      Locals:         0       1       0       0       0
  6608 ;;      Temps:          0       0       0       0       0
  6609 ;;      Totals:         0       1       0       0       0
  6610 ;;Total ram usage:        1 bytes
  6611 ;; Hardware stack levels used: 1
  6612 ;; Hardware stack levels required when called: 3
  6613 ;; This function calls:
  6614 ;;		_read_ds1307
  6615 ;;		_write_ds1307
  6616 ;; This function is called by:
  6617 ;;		_init_config
  6618 ;; This function uses a non-reentrant model
  6619 ;;
  6620                           
  6621     1435                     _init_ds1307:	
  6622                           ;psect for function _init_ds1307
  6623                           
  6624     1435                     l3535:	
  6625                           ;incstack = 0
  6626                           ; Regs used in _init_ds1307: [wreg+status,2+status,0+pclath+cstack]
  6627                           
  6628                           
  6629                           ;ds1307.c: 10:     unsigned char dummy;;ds1307.c: 12:     dummy = read_ds1307(0x00);
  6630     1435  3000               	movlw	0
  6631     1436  160A  118A  2612  160A  118A  	fcall	_read_ds1307
  6632     143B  1283               	bcf	3,5	;RP0=0, select bank0
  6633     143C  1303               	bcf	3,6	;RP1=0, select bank0
  6634     143D  00A1               	movwf	init_ds1307@dummy
  6635     143E                     l3537:
  6636                           
  6637                           ;ds1307.c: 13:     dummy = dummy & 0x7F;
  6638     143E  307F               	movlw	127
  6639     143F  05A1               	andwf	init_ds1307@dummy,f
  6640     1440                     l3539:
  6641                           
  6642                           ;ds1307.c: 14:     write_ds1307(0x00, dummy);
  6643     1440  0821               	movf	init_ds1307@dummy,w
  6644     1441  00F9               	movwf	write_ds1307@data
  6645     1442  3000               	movlw	0
  6646     1443  160A  118A  2530  160A  118A  	fcall	_write_ds1307
  6647     1448                     l160:
  6648     1448  0008               	return
  6649     1449                     __end_of_init_ds1307:
  6650                           
  6651                           	psect	text30
  6652     1530                     __ptext30:	
  6653 ;; *************** function _write_ds1307 *****************
  6654 ;; Defined at:
  6655 ;;		line 32 in file "ds1307.c"
  6656 ;; Parameters:    Size  Location     Type
  6657 ;;  addr            1    wreg     unsigned char 
  6658 ;;  data            1    9[COMMON] unsigned char 
  6659 ;; Auto vars:     Size  Location     Type
  6660 ;;  addr            1    0[BANK0 ] unsigned char 
  6661 ;; Return value:  Size  Location     Type
  6662 ;;                  1    wreg      void 
  6663 ;; Registers used:
  6664 ;;		wreg, status,2, status,0, pclath, cstack
  6665 ;; Tracked objects:
  6666 ;;		On entry : 0/0
  6667 ;;		On exit  : 0/0
  6668 ;;		Unchanged: 0/0
  6669 ;; Data sizes:     COMMON   BANK0   BANK1   BANK3   BANK2
  6670 ;;      Params:         1       0       0       0       0
  6671 ;;      Locals:         0       1       0       0       0
  6672 ;;      Temps:          0       0       0       0       0
  6673 ;;      Totals:         1       1       0       0       0
  6674 ;;Total ram usage:        2 bytes
  6675 ;; Hardware stack levels used: 1
  6676 ;; Hardware stack levels required when called: 1
  6677 ;; This function calls:
  6678 ;;		_i2c_start
  6679 ;;		_i2c_stop
  6680 ;;		_i2c_write
  6681 ;; This function is called by:
  6682 ;;		_init_ds1307
  6683 ;;		_set_time
  6684 ;; This function uses a non-reentrant model
  6685 ;;
  6686                           
  6687     1530                     _write_ds1307:	
  6688                           ;psect for function _write_ds1307
  6689                           
  6690                           
  6691                           ;incstack = 0
  6692                           ; Regs used in _write_ds1307: [wreg+status,2+status,0+pclath+cstack]
  6693                           ;write_ds1307@addr stored from wreg
  6694     1530  1283               	bcf	3,5	;RP0=0, select bank0
  6695     1531  1303               	bcf	3,6	;RP1=0, select bank0
  6696     1532  00A0               	movwf	write_ds1307@addr
  6697     1533                     l3383:
  6698                           
  6699                           ;ds1307.c: 32: void write_ds1307(unsigned char addr, unsigned char data);ds1307.c: 33: {
      +                          ;ds1307.c: 34:     i2c_start();
  6700     1533  160A  118A  23DA  160A  118A  	fcall	_i2c_start
  6701                           
  6702                           ;ds1307.c: 35:     i2c_write(0b11010000);
  6703     1538  30D0               	movlw	208
  6704     1539  160A  118A  2401  160A  118A  	fcall	_i2c_write
  6705                           
  6706                           ;ds1307.c: 36:     i2c_write(addr);
  6707     153E  1283               	bcf	3,5	;RP0=0, select bank0
  6708     153F  1303               	bcf	3,6	;RP1=0, select bank0
  6709     1540  0820               	movf	write_ds1307@addr,w
  6710     1541  160A  118A  2401  160A  118A  	fcall	_i2c_write
  6711                           
  6712                           ;ds1307.c: 37:     i2c_write(data);
  6713     1546  0879               	movf	write_ds1307@data,w
  6714     1547  160A  118A  2401  160A  118A  	fcall	_i2c_write
  6715                           
  6716                           ;ds1307.c: 38:     i2c_stop();
  6717     154C  160A  118A  23E3  160A  118A  	fcall	_i2c_stop
  6718     1551                     l166:
  6719     1551  0008               	return
  6720     1552                     __end_of_write_ds1307:
  6721                           
  6722                           	psect	text31
  6723     13BD                     __ptext31:	
  6724 ;; *************** function _init_digital_keypad *****************
  6725 ;; Defined at:
  6726 ;;		line 4 in file "digital_keypad.c"
  6727 ;; Parameters:    Size  Location     Type
  6728 ;;		None
  6729 ;; Auto vars:     Size  Location     Type
  6730 ;;		None
  6731 ;; Return value:  Size  Location     Type
  6732 ;;                  1    wreg      void 
  6733 ;; Registers used:
  6734 ;;		wreg, status,2
  6735 ;; Tracked objects:
  6736 ;;		On entry : 0/0
  6737 ;;		On exit  : 0/0
  6738 ;;		Unchanged: 0/0
  6739 ;; Data sizes:     COMMON   BANK0   BANK1   BANK3   BANK2
  6740 ;;      Params:         0       0       0       0       0
  6741 ;;      Locals:         0       0       0       0       0
  6742 ;;      Temps:          0       0       0       0       0
  6743 ;;      Totals:         0       0       0       0       0
  6744 ;;Total ram usage:        0 bytes
  6745 ;; Hardware stack levels used: 1
  6746 ;; Hardware stack levels required when called: 1
  6747 ;; This function calls:
  6748 ;;		Nothing
  6749 ;; This function is called by:
  6750 ;;		_init_config
  6751 ;; This function uses a non-reentrant model
  6752 ;;
  6753                           
  6754     13BD                     _init_digital_keypad:	
  6755                           ;psect for function _init_digital_keypad
  6756                           
  6757     13BD                     l2579:	
  6758                           ;incstack = 0
  6759                           ; Regs used in _init_digital_keypad: [wreg+status,2]
  6760                           
  6761                           
  6762                           ;digital_keypad.c: 7:     TRISB = TRISB | 0x3F;
  6763     13BD  1683               	bsf	3,5	;RP0=1, select bank1
  6764     13BE  1303               	bcf	3,6	;RP1=0, select bank1
  6765     13BF  0806               	movf	6,w	;volatile
  6766     13C0  383F               	iorlw	63
  6767     13C1  0086               	movwf	6	;volatile
  6768     13C2                     l42:
  6769     13C2  0008               	return
  6770     13C3                     __end_of_init_digital_keypad:
  6771                           
  6772                           	psect	text32
  6773     140C                     __ptext32:	
  6774 ;; *************** function _init_clcd *****************
  6775 ;; Defined at:
  6776 ;;		line 45 in file "clcd.c"
  6777 ;; Parameters:    Size  Location     Type
  6778 ;;		None
  6779 ;; Auto vars:     Size  Location     Type
  6780 ;;		None
  6781 ;; Return value:  Size  Location     Type
  6782 ;;                  1    wreg      void 
  6783 ;; Registers used:
  6784 ;;		wreg, status,2, status,0, pclath, cstack
  6785 ;; Tracked objects:
  6786 ;;		On entry : 0/0
  6787 ;;		On exit  : 0/0
  6788 ;;		Unchanged: 0/0
  6789 ;; Data sizes:     COMMON   BANK0   BANK1   BANK3   BANK2
  6790 ;;      Params:         0       0       0       0       0
  6791 ;;      Locals:         0       0       0       0       0
  6792 ;;      Temps:          0       0       0       0       0
  6793 ;;      Totals:         0       0       0       0       0
  6794 ;;Total ram usage:        0 bytes
  6795 ;; Hardware stack levels used: 1
  6796 ;; Hardware stack levels required when called: 3
  6797 ;; This function calls:
  6798 ;;		_init_display_controller
  6799 ;; This function is called by:
  6800 ;;		_init_config
  6801 ;; This function uses a non-reentrant model
  6802 ;;
  6803                           
  6804     140C                     _init_clcd:	
  6805                           ;psect for function _init_clcd
  6806                           
  6807     140C                     l3521:	
  6808                           ;incstack = 0
  6809                           ; Regs used in _init_clcd: [wreg+status,2+status,0+pclath+cstack]
  6810                           
  6811                           
  6812                           ;clcd.c: 48:     TRISD = 0x00;
  6813     140C  1683               	bsf	3,5	;RP0=1, select bank1
  6814     140D  1303               	bcf	3,6	;RP1=0, select bank1
  6815     140E  0188               	clrf	8	;volatile
  6816     140F                     l3523:
  6817                           
  6818                           ;clcd.c: 51:     TRISE2 = 0;
  6819     140F  1109               	bcf	9,2	;volatile
  6820     1410                     l3525:
  6821                           
  6822                           ;clcd.c: 52:     TRISE1 = 0;
  6823     1410  1089               	bcf	9,1	;volatile
  6824     1411                     l3527:
  6825                           
  6826                           ;clcd.c: 54:     init_display_controller();
  6827     1411  120A  158A  21B6  160A  118A  	fcall	_init_display_controller
  6828     1416                     l75:
  6829     1416  0008               	return
  6830     1417                     __end_of_init_clcd:
  6831                           
  6832                           	psect	text33
  6833     09B6                     __ptext33:	
  6834 ;; *************** function _init_display_controller *****************
  6835 ;; Defined at:
  6836 ;;		line 22 in file "clcd.c"
  6837 ;; Parameters:    Size  Location     Type
  6838 ;;		None
  6839 ;; Auto vars:     Size  Location     Type
  6840 ;;		None
  6841 ;; Return value:  Size  Location     Type
  6842 ;;                  1    wreg      void 
  6843 ;; Registers used:
  6844 ;;		wreg, status,2, status,0, pclath, cstack
  6845 ;; Tracked objects:
  6846 ;;		On entry : 0/0
  6847 ;;		On exit  : 0/0
  6848 ;;		Unchanged: 0/0
  6849 ;; Data sizes:     COMMON   BANK0   BANK1   BANK3   BANK2
  6850 ;;      Params:         0       0       0       0       0
  6851 ;;      Locals:         0       0       0       0       0
  6852 ;;      Temps:          2       0       0       0       0
  6853 ;;      Totals:         2       0       0       0       0
  6854 ;;Total ram usage:        2 bytes
  6855 ;; Hardware stack levels used: 1
  6856 ;; Hardware stack levels required when called: 2
  6857 ;; This function calls:
  6858 ;;		_clcd_write
  6859 ;; This function is called by:
  6860 ;;		_init_clcd
  6861 ;; This function uses a non-reentrant model
  6862 ;;
  6863                           
  6864     09B6                     _init_display_controller:	
  6865                           ;psect for function _init_display_controller
  6866                           
  6867     09B6                     l3351:	
  6868                           ;incstack = 0
  6869                           ; Regs used in _init_display_controller: [wreg+status,2+status,0+pclath+cstack]
  6870                           
  6871                           
  6872                           ;clcd.c: 25:     _delay((unsigned long)((30)*(20000000/4000.0)));
  6873     09B6  30C3               	movlw	195
  6874     09B7  00F7               	movwf	??_init_display_controller+1
  6875     09B8  30CD               	movlw	205
  6876     09B9  00F6               	movwf	??_init_display_controller
  6877     09BA                     u4687:
  6878     09BA  0BF6               	decfsz	??_init_display_controller,f
  6879     09BB  29BA               	goto	u4687
  6880     09BC  0BF7               	decfsz	??_init_display_controller+1,f
  6881     09BD  29BA               	goto	u4687
  6882     09BE                     l3353:
  6883                           
  6884                           ;clcd.c: 28:     clcd_write(0x33, 0);
  6885     09BE  01F2               	clrf	clcd_write@mode
  6886     09BF  3033               	movlw	51
  6887     09C0  160A  118A  275C  120A  158A  	fcall	_clcd_write
  6888     09C5                     l3355:
  6889                           
  6890                           ;clcd.c: 29:     _delay((unsigned long)((4100)*(20000000/4000000.0)));
  6891     09C5  301B               	movlw	27
  6892     09C6  00F7               	movwf	??_init_display_controller+1
  6893     09C7  309E               	movlw	158
  6894     09C8  00F6               	movwf	??_init_display_controller
  6895     09C9                     u4697:
  6896     09C9  0BF6               	decfsz	??_init_display_controller,f
  6897     09CA  29C9               	goto	u4697
  6898     09CB  0BF7               	decfsz	??_init_display_controller+1,f
  6899     09CC  29C9               	goto	u4697
  6900     09CD  0000               	nop
  6901                           
  6902                           ;clcd.c: 30:     clcd_write(0x33, 0);
  6903     09CE  01F2               	clrf	clcd_write@mode
  6904     09CF  3033               	movlw	51
  6905     09D0  160A  118A  275C  120A  158A  	fcall	_clcd_write
  6906     09D5                     l3357:
  6907                           
  6908                           ;clcd.c: 31:     _delay((unsigned long)((100)*(20000000/4000000.0)));
  6909     09D5  30A6               	movlw	166
  6910     09D6  00F6               	movwf	??_init_display_controller
  6911     09D7                     u4707:
  6912     09D7  0BF6               	decfsz	??_init_display_controller,f
  6913     09D8  29D7               	goto	u4707
  6914     09D9  0000               	nop
  6915     09DA                     l3359:
  6916                           
  6917                           ;clcd.c: 32:     clcd_write(0x33, 0);
  6918     09DA  01F2               	clrf	clcd_write@mode
  6919     09DB  3033               	movlw	51
  6920     09DC  160A  118A  275C  120A  158A  	fcall	_clcd_write
  6921     09E1                     l3361:
  6922                           
  6923                           ;clcd.c: 33:     _delay((unsigned long)((1)*(20000000/4000000.0)));
  6924     09E1  29E2               	nop2	;2 cycle nop
  6925     09E2  29E3               	nop2	;2 cycle nop
  6926     09E3  0000               	nop
  6927     09E4                     l3363:
  6928                           
  6929                           ;clcd.c: 35:     clcd_write(0x02, 0);
  6930     09E4  01F2               	clrf	clcd_write@mode
  6931     09E5  3002               	movlw	2
  6932     09E6  160A  118A  275C  120A  158A  	fcall	_clcd_write
  6933     09EB                     l3365:
  6934                           
  6935                           ;clcd.c: 36:     _delay((unsigned long)((100)*(20000000/4000000.0)));
  6936     09EB  30A6               	movlw	166
  6937     09EC  00F6               	movwf	??_init_display_controller
  6938     09ED                     u4717:
  6939     09ED  0BF6               	decfsz	??_init_display_controller,f
  6940     09EE  29ED               	goto	u4717
  6941     09EF  0000               	nop
  6942                           
  6943                           ;clcd.c: 37:     clcd_write(0x28, 0);
  6944     09F0  01F2               	clrf	clcd_write@mode
  6945     09F1  3028               	movlw	40
  6946     09F2  160A  118A  275C  120A  158A  	fcall	_clcd_write
  6947     09F7                     l3367:
  6948                           
  6949                           ;clcd.c: 38:     _delay((unsigned long)((100)*(20000000/4000000.0)));
  6950     09F7  30A6               	movlw	166
  6951     09F8  00F6               	movwf	??_init_display_controller
  6952     09F9                     u4727:
  6953     09F9  0BF6               	decfsz	??_init_display_controller,f
  6954     09FA  29F9               	goto	u4727
  6955     09FB  0000               	nop
  6956     09FC                     l3369:
  6957                           
  6958                           ;clcd.c: 39:     clcd_write(0x01, 0);
  6959     09FC  01F2               	clrf	clcd_write@mode
  6960     09FD  3001               	movlw	1
  6961     09FE  160A  118A  275C  120A  158A  	fcall	_clcd_write
  6962                           
  6963                           ;clcd.c: 40:     _delay((unsigned long)((500)*(20000000/4000000.0)));
  6964     0A03  3004               	movlw	4
  6965     0A04  00F7               	movwf	??_init_display_controller+1
  6966     0A05  303D               	movlw	61
  6967     0A06  00F6               	movwf	??_init_display_controller
  6968     0A07                     u4737:
  6969     0A07  0BF6               	decfsz	??_init_display_controller,f
  6970     0A08  2A07               	goto	u4737
  6971     0A09  0BF7               	decfsz	??_init_display_controller+1,f
  6972     0A0A  2A07               	goto	u4737
  6973     0A0B  2A0C               	nop2
  6974     0A0C                     l3371:
  6975                           
  6976                           ;clcd.c: 41:     clcd_write(0x0C, 0);
  6977     0A0C  01F2               	clrf	clcd_write@mode
  6978     0A0D  300C               	movlw	12
  6979     0A0E  160A  118A  275C  120A  158A  	fcall	_clcd_write
  6980     0A13                     l3373:
  6981                           
  6982                           ;clcd.c: 42:     _delay((unsigned long)((100)*(20000000/4000000.0)));
  6983     0A13  30A6               	movlw	166
  6984     0A14  00F6               	movwf	??_init_display_controller
  6985     0A15                     u4747:
  6986     0A15  0BF6               	decfsz	??_init_display_controller,f
  6987     0A16  2A15               	goto	u4747
  6988     0A17  0000               	nop
  6989     0A18                     l72:
  6990     0A18  0008               	return
  6991     0A19                     __end_of_init_display_controller:
  6992                           
  6993                           	psect	text34
  6994     13C3                     __ptext34:	
  6995 ;; *************** function _init_adc *****************
  6996 ;; Defined at:
  6997 ;;		line 4 in file "adc.c"
  6998 ;; Parameters:    Size  Location     Type
  6999 ;;		None
  7000 ;; Auto vars:     Size  Location     Type
  7001 ;;		None
  7002 ;; Return value:  Size  Location     Type
  7003 ;;                  1    wreg      void 
  7004 ;; Registers used:
  7005 ;;		None
  7006 ;; Tracked objects:
  7007 ;;		On entry : 0/0
  7008 ;;		On exit  : 0/0
  7009 ;;		Unchanged: 0/0
  7010 ;; Data sizes:     COMMON   BANK0   BANK1   BANK3   BANK2
  7011 ;;      Params:         0       0       0       0       0
  7012 ;;      Locals:         0       0       0       0       0
  7013 ;;      Temps:          0       0       0       0       0
  7014 ;;      Totals:         0       0       0       0       0
  7015 ;;Total ram usage:        0 bytes
  7016 ;; Hardware stack levels used: 1
  7017 ;; Hardware stack levels required when called: 1
  7018 ;; This function calls:
  7019 ;;		Nothing
  7020 ;; This function is called by:
  7021 ;;		_init_config
  7022 ;; This function uses a non-reentrant model
  7023 ;;
  7024                           
  7025     13C3                     _init_adc:	
  7026                           ;psect for function _init_adc
  7027                           
  7028     13C3                     l2569:	
  7029                           ;incstack = 0
  7030                           ; Regs used in _init_adc: []
  7031                           
  7032                           
  7033                           ;adc.c: 7:     ADFM = 1;
  7034     13C3  1683               	bsf	3,5	;RP0=1, select bank1
  7035     13C4  1303               	bcf	3,6	;RP1=0, select bank1
  7036     13C5  179F               	bsf	31,7	;volatile
  7037                           
  7038                           ;adc.c: 10:     ADON = 1;
  7039     13C6  1283               	bcf	3,5	;RP0=0, select bank0
  7040     13C7  1303               	bcf	3,6	;RP1=0, select bank0
  7041     13C8  141F               	bsf	31,0	;volatile
  7042     13C9                     l189:
  7043     13C9  0008               	return
  7044     13CA                     __end_of_init_adc:
  7045                           
  7046                           	psect	text35
  7047     0EF3                     __ptext35:	
  7048 ;; *************** function _dashboard *****************
  7049 ;; Defined at:
  7050 ;;		line 93 in file "dashboard.c"
  7051 ;; Parameters:    Size  Location     Type
  7052 ;;  key             1    wreg     unsigned char 
  7053 ;; Auto vars:     Size  Location     Type
  7054 ;;  key             1   44[BANK0 ] unsigned char 
  7055 ;; Return value:  Size  Location     Type
  7056 ;;                  1    wreg      void 
  7057 ;; Registers used:
  7058 ;;		wreg, fsr0l, fsr0h, status,2, status,0, pclath, btemp1, cstack
  7059 ;; Tracked objects:
  7060 ;;		On entry : 0/0
  7061 ;;		On exit  : 0/0
  7062 ;;		Unchanged: 0/0
  7063 ;; Data sizes:     COMMON   BANK0   BANK1   BANK3   BANK2
  7064 ;;      Params:         0       0       0       0       0
  7065 ;;      Locals:         0       1       0       0       0
  7066 ;;      Temps:          0       2       0       0       0
  7067 ;;      Totals:         0       3       0       0       0
  7068 ;;Total ram usage:        3 bytes
  7069 ;; Hardware stack levels used: 1
  7070 ;; Hardware stack levels required when called: 6
  7071 ;; This function calls:
  7072 ;;		___fldiv
  7073 ;;		___fltol
  7074 ;;		___lwdiv
  7075 ;;		___lwmod
  7076 ;;		___xxtofl
  7077 ;;		_clcd_print
  7078 ;;		_display_time
  7079 ;;		_get_time
  7080 ;;		_read_adc
  7081 ;;		_write_event
  7082 ;; This function is called by:
  7083 ;;		_main
  7084 ;; This function uses a non-reentrant model
  7085 ;;
  7086                           
  7087     0EF3                     _dashboard:	
  7088                           ;psect for function _dashboard
  7089                           
  7090                           
  7091                           ;incstack = 0
  7092                           ; Regs used in _dashboard: [wreg-fsr0h+status,2+status,0+pclath+btemp1+cstack]
  7093                           ;dashboard@key stored from wreg
  7094     0EF3  1283               	bcf	3,5	;RP0=0, select bank0
  7095     0EF4  1303               	bcf	3,6	;RP1=0, select bank0
  7096     0EF5  00CC               	movwf	dashboard@key
  7097     0EF6                     l3861:
  7098                           
  7099                           ;dashboard.c: 95:  clcd_print(" TIME     EV  SP", (0x80 + 0));
  7100     0EF6  30AD               	movlw	low (STR_14| (0+32768))
  7101     0EF7  00F6               	movwf	clcd_print@str
  7102     0EF8  3085               	movlw	high (STR_14| (0+32768))
  7103     0EF9  00F7               	movwf	clcd_print@str+1
  7104     0EFA  3080               	movlw	128
  7105     0EFB  00F8               	movwf	clcd_print@addr
  7106     0EFC  160A  118A  2668  120A  158A  	fcall	_clcd_print
  7107     0F01                     l3863:
  7108                           
  7109                           ;dashboard.c: 99:  get_time(clock_reg);
  7110     0F01  3068               	movlw	(low (_clock_reg| 0))& (0+255)
  7111     0F02  00F6               	movwf	get_time@clock_reg
  7112     0F03  160A  118A  24EF  120A  158A  	fcall	_get_time
  7113     0F08                     l3865:
  7114                           
  7115                           ;dashboard.c: 100:  display_time(clock_reg);
  7116     0F08  3068               	movlw	(low (_clock_reg| 0))& (0+255)
  7117     0F09  00F9               	movwf	display_time@clock_reg
  7118     0F0A  120A  158A  20B0  120A  158A  	fcall	_display_time
  7119     0F0F                     l3867:
  7120                           
  7121                           ;dashboard.c: 104:  if(key == 0x3E){
  7122     0F0F  303E               	movlw	62
  7123     0F10  1283               	bcf	3,5	;RP0=0, select bank0
  7124     0F11  1303               	bcf	3,6	;RP1=0, select bank0
  7125     0F12  064C               	xorwf	dashboard@key,w
  7126     0F13  1D03               	btfss	3,2
  7127     0F14  2F16               	goto	u4341
  7128     0F15  2F17               	goto	u4340
  7129     0F16                     u4341:
  7130     0F16  2F3C               	goto	l3879
  7131     0F17                     u4340:
  7132     0F17                     l3869:
  7133                           
  7134                           ;dashboard.c: 107:   if(pos == 7){
  7135     0F17  3007               	movlw	7
  7136     0F18  067A               	xorwf	_pos,w
  7137     0F19  047B               	iorwf	_pos+1,w
  7138     0F1A  1D03               	btfss	3,2
  7139     0F1B  2F1D               	goto	u4351
  7140     0F1C  2F1E               	goto	u4350
  7141     0F1D                     u4351:
  7142     0F1D  2F23               	goto	l3873
  7143     0F1E                     u4350:
  7144     0F1E                     l3871:
  7145                           
  7146                           ;dashboard.c: 108:    pos = 1;
  7147     0F1E  3001               	movlw	1
  7148     0F1F  00FA               	movwf	_pos
  7149     0F20  3000               	movlw	0
  7150     0F21  00FB               	movwf	_pos+1
  7151                           
  7152                           ;dashboard.c: 109:   }
  7153     0F22  2F69               	goto	l3897
  7154     0F23                     l3873:
  7155     0F23  087B               	movf	_pos+1,w
  7156     0F24  3A80               	xorlw	128
  7157     0F25  00FF               	movwf	btemp1
  7158     0F26  3080               	movlw	128
  7159     0F27  027F               	subwf	btemp1,w
  7160     0F28  1D03               	skipz
  7161     0F29  2F2C               	goto	u4365
  7162     0F2A  3006               	movlw	6
  7163     0F2B  027A               	subwf	_pos,w
  7164     0F2C                     u4365:
  7165     0F2C  1803               	skipnc
  7166     0F2D  2F2F               	goto	u4361
  7167     0F2E  2F30               	goto	u4360
  7168     0F2F                     u4361:
  7169     0F2F  2F69               	goto	l3897
  7170     0F30                     u4360:
  7171     0F30                     l3875:
  7172                           
  7173                           ;dashboard.c: 111:    pos++;
  7174     0F30  3001               	movlw	1
  7175     0F31  07FA               	addwf	_pos,f
  7176     0F32  1803               	skipnc
  7177     0F33  0AFB               	incf	_pos+1,f
  7178     0F34  3000               	movlw	0
  7179     0F35  07FB               	addwf	_pos+1,f
  7180     0F36                     l3877:
  7181                           
  7182                           ;dashboard.c: 112:    write_event();
  7183     0F36  120A  158A  2535  120A  158A  	fcall	_write_event
  7184     0F3B  2F69               	goto	l3897
  7185     0F3C                     l3879:
  7186     0F3C  303D               	movlw	61
  7187     0F3D  064C               	xorwf	dashboard@key,w
  7188     0F3E  1D03               	btfss	3,2
  7189     0F3F  2F41               	goto	u4371
  7190     0F40  2F42               	goto	u4370
  7191     0F41                     u4371:
  7192     0F41  2F5E               	goto	l3891
  7193     0F42                     u4370:
  7194     0F42                     l3881:
  7195                           
  7196                           ;dashboard.c: 118:   if(pos == 7){
  7197     0F42  3007               	movlw	7
  7198     0F43  067A               	xorwf	_pos,w
  7199     0F44  047B               	iorwf	_pos+1,w
  7200     0F45  1D03               	btfss	3,2
  7201     0F46  2F48               	goto	u4381
  7202     0F47  2F49               	goto	u4380
  7203     0F48                     u4381:
  7204     0F48  2F4A               	goto	l3885
  7205     0F49                     u4380:
  7206     0F49  2F1E               	goto	l3871
  7207     0F4A                     l3885:
  7208     0F4A  087B               	movf	_pos+1,w
  7209     0F4B  3A80               	xorlw	128
  7210     0F4C  00FF               	movwf	btemp1
  7211     0F4D  3080               	movlw	128
  7212     0F4E  027F               	subwf	btemp1,w
  7213     0F4F  1D03               	skipz
  7214     0F50  2F53               	goto	u4395
  7215     0F51  3002               	movlw	2
  7216     0F52  027A               	subwf	_pos,w
  7217     0F53                     u4395:
  7218     0F53  1C03               	skipc
  7219     0F54  2F56               	goto	u4391
  7220     0F55  2F57               	goto	u4390
  7221     0F56                     u4391:
  7222     0F56  2F69               	goto	l3897
  7223     0F57                     u4390:
  7224     0F57                     l3887:
  7225                           
  7226                           ;dashboard.c: 122:    pos--;
  7227     0F57  30FF               	movlw	255
  7228     0F58  07FA               	addwf	_pos,f
  7229     0F59  1803               	skipnc
  7230     0F5A  0AFB               	incf	_pos+1,f
  7231     0F5B  30FF               	movlw	255
  7232     0F5C  07FB               	addwf	_pos+1,f
  7233     0F5D  2F36               	goto	l3877
  7234     0F5E                     l3891:
  7235     0F5E  303B               	movlw	59
  7236     0F5F  064C               	xorwf	dashboard@key,w
  7237     0F60  1D03               	btfss	3,2
  7238     0F61  2F63               	goto	u4401
  7239     0F62  2F64               	goto	u4400
  7240     0F63                     u4401:
  7241     0F63  2F69               	goto	l3897
  7242     0F64                     u4400:
  7243     0F64                     l3893:
  7244                           
  7245                           ;dashboard.c: 129:   pos = 7;
  7246     0F64  3007               	movlw	7
  7247     0F65  00FA               	movwf	_pos
  7248     0F66  3000               	movlw	0
  7249     0F67  00FB               	movwf	_pos+1
  7250     0F68  2F36               	goto	l3877
  7251     0F69                     l3897:
  7252                           
  7253                           ;dashboard.c: 134:  clcd_print(event[pos], (0xC0 + 10));
  7254     0F69  087A               	movf	_pos,w
  7255     0F6A  1283               	bcf	3,5	;RP0=0, select bank0
  7256     0F6B  1303               	bcf	3,6	;RP1=0, select bank0
  7257     0F6C  00CA               	movwf	??_dashboard
  7258     0F6D  074A               	addwf	??_dashboard,w
  7259     0F6E  3EC6               	addlw	(low (_event| 0))& (0+255)
  7260     0F6F  0084               	movwf	4
  7261     0F70  1383               	bcf	3,7	;select IRP bank1
  7262     0F71  0800               	movf	0,w
  7263     0F72  00F6               	movwf	clcd_print@str
  7264     0F73  0A84               	incf	4,f
  7265     0F74  0800               	movf	0,w
  7266     0F75  0384               	decf	4,f
  7267     0F76  00F7               	movwf	clcd_print@str+1
  7268     0F77  30CA               	movlw	202
  7269     0F78  00F8               	movwf	clcd_print@addr
  7270     0F79  160A  118A  2668  120A  158A  	fcall	_clcd_print
  7271     0F7E                     l3899:
  7272                           
  7273                           ;dashboard.c: 138:  adc_val = read_adc(0x00);
  7274     0F7E  3000               	movlw	0
  7275     0F7F  160A  118A  2473  120A  158A  	fcall	_read_adc
  7276     0F84  0873               	movf	?_read_adc+1,w
  7277     0F85  1283               	bcf	3,5	;RP0=0, select bank0
  7278     0F86  1303               	bcf	3,6	;RP1=0, select bank0
  7279     0F87  00DA               	movwf	_adc_val+1
  7280     0F88  0872               	movf	?_read_adc,w
  7281     0F89  00D9               	movwf	_adc_val
  7282     0F8A                     l3901:
  7283                           
  7284                           ;dashboard.c: 141:  adc_val = adc_val / 10.23;
  7285     0F8A  0859               	movf	_adc_val,w
  7286     0F8B  00F2               	movwf	___xxtofl@val
  7287     0F8C  085A               	movf	_adc_val+1,w
  7288     0F8D  00F3               	movwf	___xxtofl@val+1
  7289     0F8E  01F4               	clrf	___xxtofl@val+2
  7290     0F8F  01F5               	clrf	___xxtofl@val+3
  7291     0F90  3000               	movlw	0
  7292     0F91  120A  158A  247F  120A  158A  	fcall	___xxtofl
  7293     0F96  0875               	movf	?___xxtofl+3,w
  7294     0F97  1283               	bcf	3,5	;RP0=0, select bank0
  7295     0F98  1303               	bcf	3,6	;RP1=0, select bank0
  7296     0F99  00AD               	movwf	___fldiv@b+3
  7297     0F9A  0874               	movf	?___xxtofl+2,w
  7298     0F9B  00AC               	movwf	___fldiv@b+2
  7299     0F9C  0873               	movf	?___xxtofl+1,w
  7300     0F9D  00AB               	movwf	___fldiv@b+1
  7301     0F9E  0872               	movf	?___xxtofl,w
  7302     0F9F  00AA               	movwf	___fldiv@b
  7303     0FA0  3041               	movlw	65
  7304     0FA1  00A9               	movwf	___fldiv@a+3
  7305     0FA2  3023               	movlw	35
  7306     0FA3  00A8               	movwf	___fldiv@a+2
  7307     0FA4  30AE               	movlw	174
  7308     0FA5  00A7               	movwf	___fldiv@a+1
  7309     0FA6  3014               	movlw	20
  7310     0FA7  00A6               	movwf	___fldiv@a
  7311     0FA8  120A  118A  2294  120A  158A  	fcall	___fldiv
  7312     0FAD  1283               	bcf	3,5	;RP0=0, select bank0
  7313     0FAE  1303               	bcf	3,6	;RP1=0, select bank0
  7314     0FAF  0829               	movf	?___fldiv+3,w
  7315     0FB0  00C3               	movwf	___fltol@f1+3
  7316     0FB1  0828               	movf	?___fldiv+2,w
  7317     0FB2  00C2               	movwf	___fltol@f1+2
  7318     0FB3  0827               	movf	?___fldiv+1,w
  7319     0FB4  00C1               	movwf	___fltol@f1+1
  7320     0FB5  0826               	movf	?___fldiv,w
  7321     0FB6  00C0               	movwf	___fltol@f1
  7322     0FB7  120A  158A  22F0  120A  158A  	fcall	___fltol
  7323     0FBC  1283               	bcf	3,5	;RP0=0, select bank0
  7324     0FBD  1303               	bcf	3,6	;RP1=0, select bank0
  7325     0FBE  0841               	movf	?___fltol+1,w
  7326     0FBF  00DA               	movwf	_adc_val+1
  7327     0FC0  0840               	movf	?___fltol,w
  7328     0FC1  00D9               	movwf	_adc_val
  7329     0FC2                     l3903:
  7330                           
  7331                           ;dashboard.c: 144:  if(adc_val == 100) adc_val--;
  7332     0FC2  3064               	movlw	100
  7333     0FC3  0659               	xorwf	_adc_val,w
  7334     0FC4  045A               	iorwf	_adc_val+1,w
  7335     0FC5  1D03               	btfss	3,2
  7336     0FC6  2FC8               	goto	u4411
  7337     0FC7  2FC9               	goto	u4410
  7338     0FC8                     u4411:
  7339     0FC8  2FCF               	goto	l3907
  7340     0FC9                     u4410:
  7341     0FC9                     l3905:
  7342     0FC9  3001               	movlw	1
  7343     0FCA  02D9               	subwf	_adc_val,f
  7344     0FCB  3000               	movlw	0
  7345     0FCC  1C03               	skipc
  7346     0FCD  03DA               	decf	_adc_val+1,f
  7347     0FCE  02DA               	subwf	_adc_val+1,f
  7348     0FCF                     l3907:
  7349                           
  7350                           ;dashboard.c: 146:  speed[0] = (adc_val / 10) + '0';
  7351     0FCF  300A               	movlw	10
  7352     0FD0  00F2               	movwf	___lwdiv@divisor
  7353     0FD1  3000               	movlw	0
  7354     0FD2  00F3               	movwf	___lwdiv@divisor+1
  7355     0FD3  085A               	movf	_adc_val+1,w
  7356     0FD4  00F5               	movwf	___lwdiv@dividend+1
  7357     0FD5  0859               	movf	_adc_val,w
  7358     0FD6  00F4               	movwf	___lwdiv@dividend
  7359     0FD7  120A  158A  206E  120A  158A  	fcall	___lwdiv
  7360     0FDC  0872               	movf	?___lwdiv,w
  7361     0FDD  3E30               	addlw	48
  7362     0FDE  1283               	bcf	3,5	;RP0=0, select bank0
  7363     0FDF  1303               	bcf	3,6	;RP1=0, select bank0
  7364     0FE0  00E5               	movwf	_speed
  7365     0FE1                     l3909:
  7366                           
  7367                           ;dashboard.c: 147:  speed[1] = (adc_val % 10) + '0';
  7368     0FE1  300A               	movlw	10
  7369     0FE2  00F2               	movwf	___lwmod@divisor
  7370     0FE3  3000               	movlw	0
  7371     0FE4  00F3               	movwf	___lwmod@divisor+1
  7372     0FE5  085A               	movf	_adc_val+1,w
  7373     0FE6  00F5               	movwf	___lwmod@dividend+1
  7374     0FE7  0859               	movf	_adc_val,w
  7375     0FE8  00F4               	movwf	___lwmod@dividend
  7376     0FE9  160A  118A  27C8  120A  158A  	fcall	___lwmod
  7377     0FEE  0872               	movf	?___lwmod,w
  7378     0FEF  3E30               	addlw	48
  7379     0FF0  1283               	bcf	3,5	;RP0=0, select bank0
  7380     0FF1  1303               	bcf	3,6	;RP1=0, select bank0
  7381     0FF2  00E6               	movwf	_speed+1
  7382     0FF3                     l3911:
  7383                           
  7384                           ;dashboard.c: 148:  speed[2] = '\0';
  7385     0FF3  01E7               	clrf	_speed+2
  7386     0FF4                     l3913:
  7387                           
  7388                           ;dashboard.c: 150:  clcd_print(speed, (0xC0 + 14));
  7389     0FF4  3065               	movlw	(low (_speed| 0))& (0+255)
  7390     0FF5  00F6               	movwf	clcd_print@str
  7391     0FF6  3000               	movlw	0
  7392     0FF7  00F7               	movwf	clcd_print@str+1
  7393     0FF8  30CE               	movlw	206
  7394     0FF9  00F8               	movwf	clcd_print@addr
  7395     0FFA  160A  118A  2668  120A  158A  	fcall	_clcd_print
  7396     0FFF                     l294:
  7397     0FFF  0008               	return
  7398     1000                     __end_of_dashboard:
  7399                           
  7400                           	psect	text36
  7401     0D35                     __ptext36:	
  7402 ;; *************** function _write_event *****************
  7403 ;; Defined at:
  7404 ;;		line 65 in file "dashboard.c"
  7405 ;; Parameters:    Size  Location     Type
  7406 ;;		None
  7407 ;; Auto vars:     Size  Location     Type
  7408 ;;  i               2    7[COMMON] unsigned int 
  7409 ;; Return value:  Size  Location     Type
  7410 ;;                  1    wreg      void 
  7411 ;; Registers used:
  7412 ;;		wreg, fsr0l, fsr0h, status,2, status,0, pclath, btemp1, cstack
  7413 ;; Tracked objects:
  7414 ;;		On entry : 0/0
  7415 ;;		On exit  : 0/0
  7416 ;;		Unchanged: 0/0
  7417 ;; Data sizes:     COMMON   BANK0   BANK1   BANK3   BANK2
  7418 ;;      Params:         0       0       0       0       0
  7419 ;;      Locals:         2       0       0       0       0
  7420 ;;      Temps:          0       7       0       0       0
  7421 ;;      Totals:         2       7       0       0       0
  7422 ;;Total ram usage:        9 bytes
  7423 ;; Hardware stack levels used: 1
  7424 ;; Hardware stack levels required when called: 3
  7425 ;; This function calls:
  7426 ;;		___lwmod
  7427 ;;		_write_external_eeprom
  7428 ;; This function is called by:
  7429 ;;		_dashboard
  7430 ;; This function uses a non-reentrant model
  7431 ;;
  7432                           
  7433     0D35                     _write_event:	
  7434                           ;psect for function _write_event
  7435                           
  7436     0D35                     l3557:	
  7437                           ;incstack = 0
  7438                           ; Regs used in _write_event: [wreg-fsr0h+status,2+status,0+pclath+btemp1+cstack]
  7439                           
  7440                           
  7441                           ;dashboard.c: 67:  static unsigned int address = 0x00;;dashboard.c: 73:  if(address == 1
      +                          00) address = 0x00;
  7442     0D35  3064               	movlw	100
  7443     0D36  1283               	bcf	3,5	;RP0=0, select bank0
  7444     0D37  1303               	bcf	3,6	;RP1=0, select bank0
  7445     0D38  0655               	xorwf	write_event@address,w
  7446     0D39  0456               	iorwf	write_event@address+1,w
  7447     0D3A  1D03               	btfss	3,2
  7448     0D3B  2D3D               	goto	u3921
  7449     0D3C  2D3E               	goto	u3920
  7450     0D3D                     u3921:
  7451     0D3D  2D40               	goto	l271
  7452     0D3E                     u3920:
  7453     0D3E                     l3559:
  7454     0D3E  01D5               	clrf	write_event@address
  7455     0D3F  01D6               	clrf	write_event@address+1
  7456     0D40                     l271:
  7457                           
  7458                           ;dashboard.c: 76:  for(unsigned int i = 0; i < 8; i++){
  7459     0D40  01F7               	clrf	write_event@i
  7460     0D41  01F8               	clrf	write_event@i+1
  7461     0D42                     l3565:
  7462                           
  7463                           ;dashboard.c: 77:   if(i == 2 || i == 5) continue;
  7464     0D42  3002               	movlw	2
  7465     0D43  0677               	xorwf	write_event@i,w
  7466     0D44  0478               	iorwf	write_event@i+1,w
  7467     0D45  1903               	btfsc	3,2
  7468     0D46  2D48               	goto	u3931
  7469     0D47  2D49               	goto	u3930
  7470     0D48                     u3931:
  7471     0D48  2D67               	goto	l3575
  7472     0D49                     u3930:
  7473     0D49                     l3567:
  7474     0D49  3005               	movlw	5
  7475     0D4A  0677               	xorwf	write_event@i,w
  7476     0D4B  0478               	iorwf	write_event@i+1,w
  7477     0D4C  1D03               	btfss	3,2
  7478     0D4D  2D4F               	goto	u3941
  7479     0D4E  2D50               	goto	u3940
  7480     0D4F                     u3941:
  7481     0D4F  2D51               	goto	l3571
  7482     0D50                     u3940:
  7483     0D50  2D67               	goto	l3575
  7484     0D51                     l3571:
  7485     0D51  0877               	movf	write_event@i,w
  7486     0D52  3E5C               	addlw	(low (_time| 0))& (0+255)
  7487     0D53  0084               	movwf	4
  7488     0D54  1383               	bcf	3,7	;select IRP bank0
  7489     0D55  0800               	movf	0,w
  7490     0D56  00F3               	movwf	write_external_eeprom@data
  7491     0D57  1283               	bcf	3,5	;RP0=0, select bank0
  7492     0D58  1303               	bcf	3,6	;RP1=0, select bank0
  7493     0D59  0855               	movf	write_event@address,w
  7494     0D5A  160A  118A  2697  120A  158A  	fcall	_write_external_eeprom
  7495     0D5F                     l3573:
  7496     0D5F  3001               	movlw	1
  7497     0D60  1283               	bcf	3,5	;RP0=0, select bank0
  7498     0D61  1303               	bcf	3,6	;RP1=0, select bank0
  7499     0D62  07D5               	addwf	write_event@address,f
  7500     0D63  1803               	skipnc
  7501     0D64  0AD6               	incf	write_event@address+1,f
  7502     0D65  3000               	movlw	0
  7503     0D66  07D6               	addwf	write_event@address+1,f
  7504     0D67                     l3575:
  7505     0D67  3001               	movlw	1
  7506     0D68  07F7               	addwf	write_event@i,f
  7507     0D69  1803               	skipnc
  7508     0D6A  0AF8               	incf	write_event@i+1,f
  7509     0D6B  3000               	movlw	0
  7510     0D6C  07F8               	addwf	write_event@i+1,f
  7511     0D6D                     l3577:
  7512     0D6D  3000               	movlw	0
  7513     0D6E  0278               	subwf	write_event@i+1,w
  7514     0D6F  3008               	movlw	8
  7515     0D70  1903               	skipnz
  7516     0D71  0277               	subwf	write_event@i,w
  7517     0D72  1C03               	skipc
  7518     0D73  2D75               	goto	u3951
  7519     0D74  2D76               	goto	u3950
  7520     0D75                     u3951:
  7521     0D75  2D42               	goto	l3565
  7522     0D76                     u3950:
  7523     0D76                     l3579:
  7524                           
  7525                           ;dashboard.c: 82:  write_external_eeprom(address++, event[pos][0]);
  7526     0D76  087A               	movf	_pos,w
  7527     0D77  1283               	bcf	3,5	;RP0=0, select bank0
  7528     0D78  1303               	bcf	3,6	;RP1=0, select bank0
  7529     0D79  00A0               	movwf	??_write_event
  7530     0D7A  0720               	addwf	??_write_event,w
  7531     0D7B  3EC6               	addlw	(low (_event| 0))& (0+255)
  7532     0D7C  0084               	movwf	4
  7533     0D7D  1383               	bcf	3,7	;select IRP bank1
  7534     0D7E  0800               	movf	0,w
  7535     0D7F  00A1               	movwf	??_write_event+1
  7536     0D80  0A84               	incf	4,f
  7537     0D81  0800               	movf	0,w
  7538     0D82  00A2               	movwf	??_write_event+2
  7539     0D83  0822               	movf	??_write_event+2,w
  7540     0D84  00FF               	movwf	btemp1
  7541     0D85  0821               	movf	??_write_event+1,w
  7542     0D86  0084               	movwf	4
  7543     0D87  160A  118A  2000  120A  158A  	fcall	stringtab
  7544     0D8C  00F3               	movwf	write_external_eeprom@data
  7545     0D8D  0855               	movf	write_event@address,w
  7546     0D8E  160A  118A  2697  120A  158A  	fcall	_write_external_eeprom
  7547     0D93                     l3581:
  7548     0D93  3001               	movlw	1
  7549     0D94  1283               	bcf	3,5	;RP0=0, select bank0
  7550     0D95  1303               	bcf	3,6	;RP1=0, select bank0
  7551     0D96  07D5               	addwf	write_event@address,f
  7552     0D97  1803               	skipnc
  7553     0D98  0AD6               	incf	write_event@address+1,f
  7554     0D99  3000               	movlw	0
  7555     0D9A  07D6               	addwf	write_event@address+1,f
  7556     0D9B                     l3583:
  7557                           
  7558                           ;dashboard.c: 83:  write_external_eeprom(address++, event[pos][1]);
  7559     0D9B  3001               	movlw	1
  7560     0D9C  00A0               	movwf	??_write_event
  7561     0D9D  087A               	movf	_pos,w
  7562     0D9E  00A1               	movwf	??_write_event+1
  7563     0D9F  0721               	addwf	??_write_event+1,w
  7564     0DA0  3EC6               	addlw	(low (_event| 0))& (0+255)
  7565     0DA1  0084               	movwf	4
  7566     0DA2  1383               	bcf	3,7	;select IRP bank1
  7567     0DA3  0800               	movf	0,w
  7568     0DA4  00A2               	movwf	??_write_event+2
  7569     0DA5  0A84               	incf	4,f
  7570     0DA6  0800               	movf	0,w
  7571     0DA7  00A3               	movwf	??_write_event+3
  7572     0DA8  0820               	movf	??_write_event,w
  7573     0DA9  0722               	addwf	??_write_event+2,w
  7574     0DAA  00A5               	movwf	??_write_event+5
  7575     0DAB  0823               	movf	??_write_event+3,w
  7576     0DAC  00A4               	movwf	??_write_event+4
  7577     0DAD  1803               	skipnc
  7578     0DAE  0AA4               	incf	??_write_event+4,f
  7579     0DAF  1BA0               	btfsc	??_write_event,7
  7580     0DB0  03A4               	decf	??_write_event+4,f
  7581     0DB1  0824               	movf	??_write_event+4,w
  7582     0DB2  00A6               	movwf	??_write_event+6
  7583     0DB3  0826               	movf	??_write_event+6,w
  7584     0DB4  00FF               	movwf	btemp1
  7585     0DB5  0825               	movf	??_write_event+5,w
  7586     0DB6  0084               	movwf	4
  7587     0DB7  160A  118A  2000  120A  158A  	fcall	stringtab
  7588     0DBC  00F3               	movwf	write_external_eeprom@data
  7589     0DBD  0855               	movf	write_event@address,w
  7590     0DBE  160A  118A  2697  120A  158A  	fcall	_write_external_eeprom
  7591     0DC3  3001               	movlw	1
  7592     0DC4  1283               	bcf	3,5	;RP0=0, select bank0
  7593     0DC5  1303               	bcf	3,6	;RP1=0, select bank0
  7594     0DC6  07D5               	addwf	write_event@address,f
  7595     0DC7  1803               	skipnc
  7596     0DC8  0AD6               	incf	write_event@address+1,f
  7597     0DC9  3000               	movlw	0
  7598     0DCA  07D6               	addwf	write_event@address+1,f
  7599     0DCB                     l3585:
  7600                           
  7601                           ;dashboard.c: 86:  write_external_eeprom(address++, speed[0]);
  7602     0DCB  0865               	movf	_speed,w
  7603     0DCC  00F3               	movwf	write_external_eeprom@data
  7604     0DCD  0855               	movf	write_event@address,w
  7605     0DCE  160A  118A  2697  120A  158A  	fcall	_write_external_eeprom
  7606     0DD3                     l3587:
  7607     0DD3  3001               	movlw	1
  7608     0DD4  1283               	bcf	3,5	;RP0=0, select bank0
  7609     0DD5  1303               	bcf	3,6	;RP1=0, select bank0
  7610     0DD6  07D5               	addwf	write_event@address,f
  7611     0DD7  1803               	skipnc
  7612     0DD8  0AD6               	incf	write_event@address+1,f
  7613     0DD9  3000               	movlw	0
  7614     0DDA  07D6               	addwf	write_event@address+1,f
  7615                           
  7616                           ;dashboard.c: 87:  write_external_eeprom(address++, speed[1]);
  7617     0DDB  0866               	movf	_speed+1,w
  7618     0DDC  00F3               	movwf	write_external_eeprom@data
  7619     0DDD  0855               	movf	write_event@address,w
  7620     0DDE  160A  118A  2697  120A  158A  	fcall	_write_external_eeprom
  7621     0DE3                     l3589:
  7622     0DE3  3001               	movlw	1
  7623     0DE4  1283               	bcf	3,5	;RP0=0, select bank0
  7624     0DE5  1303               	bcf	3,6	;RP1=0, select bank0
  7625     0DE6  07D5               	addwf	write_event@address,f
  7626     0DE7  1803               	skipnc
  7627     0DE8  0AD6               	incf	write_event@address+1,f
  7628     0DE9  3000               	movlw	0
  7629     0DEA  07D6               	addwf	write_event@address+1,f
  7630     0DEB                     l3591:
  7631                           
  7632                           ;dashboard.c: 89:  event_count = (event_count + 1) % 10;
  7633     0DEB  300A               	movlw	10
  7634     0DEC  00F2               	movwf	___lwmod@divisor
  7635     0DED  3000               	movlw	0
  7636     0DEE  00F3               	movwf	___lwmod@divisor+1
  7637     0DEF  0857               	movf	_event_count,w
  7638     0DF0  3E01               	addlw	1
  7639     0DF1  00F4               	movwf	___lwmod@dividend
  7640     0DF2  0858               	movf	_event_count+1,w
  7641     0DF3  1803               	skipnc
  7642     0DF4  3E01               	addlw	1
  7643     0DF5  3E00               	addlw	0
  7644     0DF6  00F5               	movwf	___lwmod@dividend+1
  7645     0DF7  160A  118A  27C8  120A  158A  	fcall	___lwmod
  7646     0DFC  0873               	movf	?___lwmod+1,w
  7647     0DFD  1283               	bcf	3,5	;RP0=0, select bank0
  7648     0DFE  1303               	bcf	3,6	;RP1=0, select bank0
  7649     0DFF  00D8               	movwf	_event_count+1
  7650     0E00  0872               	movf	?___lwmod,w
  7651     0E01  00D7               	movwf	_event_count
  7652     0E02                     l279:
  7653     0E02  0008               	return
  7654     0E03                     __end_of_write_event:
  7655                           
  7656                           	psect	text37
  7657     1697                     __ptext37:	
  7658 ;; *************** function _write_external_eeprom *****************
  7659 ;; Defined at:
  7660 ;;		line 6 in file "external_eeprom.c"
  7661 ;; Parameters:    Size  Location     Type
  7662 ;;  address         1    wreg     unsigned char 
  7663 ;;  data            1    3[COMMON] unsigned char 
  7664 ;; Auto vars:     Size  Location     Type
  7665 ;;  address         1    4[COMMON] unsigned char 
  7666 ;;  wait            2    5[COMMON] unsigned int 
  7667 ;; Return value:  Size  Location     Type
  7668 ;;                  1    wreg      void 
  7669 ;; Registers used:
  7670 ;;		wreg, status,2, status,0, pclath, cstack
  7671 ;; Tracked objects:
  7672 ;;		On entry : 0/0
  7673 ;;		On exit  : 0/0
  7674 ;;		Unchanged: 0/0
  7675 ;; Data sizes:     COMMON   BANK0   BANK1   BANK3   BANK2
  7676 ;;      Params:         1       0       0       0       0
  7677 ;;      Locals:         3       0       0       0       0
  7678 ;;      Temps:          0       0       0       0       0
  7679 ;;      Totals:         4       0       0       0       0
  7680 ;;Total ram usage:        4 bytes
  7681 ;; Hardware stack levels used: 1
  7682 ;; Hardware stack levels required when called: 2
  7683 ;; This function calls:
  7684 ;;		_i2c_start
  7685 ;;		_i2c_stop
  7686 ;;		_i2c_write
  7687 ;; This function is called by:
  7688 ;;		_write_event
  7689 ;; This function uses a non-reentrant model
  7690 ;;
  7691                           
  7692     1697                     _write_external_eeprom:	
  7693                           ;psect for function _write_external_eeprom
  7694                           
  7695                           
  7696                           ;incstack = 0
  7697                           ; Regs used in _write_external_eeprom: [wreg+status,2+status,0+pclath+cstack]
  7698                           ;write_external_eeprom@address stored from wreg
  7699     1697  00F4               	movwf	write_external_eeprom@address
  7700     1698                     l3385:
  7701                           
  7702                           ;external_eeprom.c: 6: void write_external_eeprom(unsigned char address, unsigned char d
      +                          ata);external_eeprom.c: 7: {;external_eeprom.c: 8:     i2c_start();
  7703     1698  160A  118A  23DA  160A  118A  	fcall	_i2c_start
  7704                           
  7705                           ;external_eeprom.c: 9:     i2c_write(0xA0);
  7706     169D  30A0               	movlw	160
  7707     169E  160A  118A  2401  160A  118A  	fcall	_i2c_write
  7708                           
  7709                           ;external_eeprom.c: 10:     i2c_write(address);
  7710     16A3  0874               	movf	write_external_eeprom@address,w
  7711     16A4  160A  118A  2401  160A  118A  	fcall	_i2c_write
  7712                           
  7713                           ;external_eeprom.c: 11:     i2c_write(data);
  7714     16A9  0873               	movf	write_external_eeprom@data,w
  7715     16AA  160A  118A  2401  160A  118A  	fcall	_i2c_write
  7716                           
  7717                           ;external_eeprom.c: 12:     i2c_stop();
  7718     16AF  160A  118A  23E3  160A  118A  	fcall	_i2c_stop
  7719     16B4                     l3387:
  7720                           
  7721                           ;external_eeprom.c: 13:     for (unsigned int wait = 3000;wait--;);
  7722     16B4  30B8               	movlw	184
  7723     16B5  00F5               	movwf	write_external_eeprom@wait
  7724     16B6  300B               	movlw	11
  7725     16B7  00F6               	movwf	write_external_eeprom@wait+1
  7726     16B8                     l3389:
  7727     16B8  3001               	movlw	1
  7728     16B9  02F5               	subwf	write_external_eeprom@wait,f
  7729     16BA  3000               	movlw	0
  7730     16BB  1C03               	skipc
  7731     16BC  03F6               	decf	write_external_eeprom@wait+1,f
  7732     16BD  02F6               	subwf	write_external_eeprom@wait+1,f
  7733     16BE  0A75               	incf	write_external_eeprom@wait,w
  7734     16BF  1D03               	skipz
  7735     16C0  2EC5               	goto	u3631
  7736     16C1  0A76               	incf	write_external_eeprom@wait+1,w
  7737     16C2  1D03               	btfss	3,2
  7738     16C3  2EC5               	goto	u3631
  7739     16C4  2EC6               	goto	u3630
  7740     16C5                     u3631:
  7741     16C5  2EB8               	goto	l3389
  7742     16C6                     u3630:
  7743     16C6                     l426:
  7744     16C6  0008               	return
  7745     16C7                     __end_of_write_external_eeprom:
  7746                           
  7747                           	psect	text38
  7748     17C8                     __ptext38:	
  7749 ;; *************** function ___lwmod *****************
  7750 ;; Defined at:
  7751 ;;		line 5 in file "/opt/microchip/xc8/v3.10/pic/sources/c99/common/lwmod.c"
  7752 ;; Parameters:    Size  Location     Type
  7753 ;;  divisor         2    2[COMMON] unsigned int 
  7754 ;;  dividend        2    4[COMMON] unsigned int 
  7755 ;; Auto vars:     Size  Location     Type
  7756 ;;  counter         1    6[COMMON] unsigned char 
  7757 ;; Return value:  Size  Location     Type
  7758 ;;                  2    2[COMMON] unsigned int 
  7759 ;; Registers used:
  7760 ;;		wreg, status,2, status,0
  7761 ;; Tracked objects:
  7762 ;;		On entry : 0/0
  7763 ;;		On exit  : 0/0
  7764 ;;		Unchanged: 0/0
  7765 ;; Data sizes:     COMMON   BANK0   BANK1   BANK3   BANK2
  7766 ;;      Params:         4       0       0       0       0
  7767 ;;      Locals:         1       0       0       0       0
  7768 ;;      Temps:          0       0       0       0       0
  7769 ;;      Totals:         5       0       0       0       0
  7770 ;;Total ram usage:        5 bytes
  7771 ;; Hardware stack levels used: 1
  7772 ;; Hardware stack levels required when called: 1
  7773 ;; This function calls:
  7774 ;;		Nothing
  7775 ;; This function is called by:
  7776 ;;		_write_event
  7777 ;;		_dashboard
  7778 ;;		_set_time
  7779 ;;		_run_delay
  7780 ;; This function uses a non-reentrant model
  7781 ;;
  7782                           
  7783     17C8                     ___lwmod:	
  7784                           ;psect for function ___lwmod
  7785                           
  7786     17C8                     l2345:	
  7787                           ;incstack = 0
  7788                           ; Regs used in ___lwmod: [wreg+status,2+status,0]
  7789                           
  7790     17C8  0872               	movf	___lwmod@divisor,w
  7791     17C9  0473               	iorwf	___lwmod@divisor+1,w
  7792     17CA  1903               	btfsc	3,2
  7793     17CB  2FCD               	goto	u2021
  7794     17CC  2FCE               	goto	u2020
  7795     17CD                     u2021:
  7796     17CD  2FFB               	goto	l2363
  7797     17CE                     u2020:
  7798     17CE                     l2347:
  7799     17CE  3001               	movlw	1
  7800     17CF  00F6               	movwf	___lwmod@counter
  7801     17D0  2FDA               	goto	l2353
  7802     17D1                     l2349:
  7803     17D1  3001               	movlw	1
  7804     17D2                     u2035:
  7805     17D2  1003               	clrc
  7806     17D3  0DF2               	rlf	___lwmod@divisor,f
  7807     17D4  0DF3               	rlf	___lwmod@divisor+1,f
  7808     17D5  3EFF               	addlw	-1
  7809     17D6  1D03               	skipz
  7810     17D7  2FD2               	goto	u2035
  7811     17D8                     l2351:
  7812     17D8  3001               	movlw	1
  7813     17D9  07F6               	addwf	___lwmod@counter,f
  7814     17DA                     l2353:
  7815     17DA  1FF3               	btfss	___lwmod@divisor+1,7
  7816     17DB  2FDD               	goto	u2041
  7817     17DC  2FDE               	goto	u2040
  7818     17DD                     u2041:
  7819     17DD  2FD1               	goto	l2349
  7820     17DE                     u2040:
  7821     17DE                     l2355:
  7822     17DE  0873               	movf	___lwmod@divisor+1,w
  7823     17DF  0275               	subwf	___lwmod@dividend+1,w
  7824     17E0  1D03               	skipz
  7825     17E1  2FE4               	goto	u2055
  7826     17E2  0872               	movf	___lwmod@divisor,w
  7827     17E3  0274               	subwf	___lwmod@dividend,w
  7828     17E4                     u2055:
  7829     17E4  1C03               	skipc
  7830     17E5  2FE7               	goto	u2051
  7831     17E6  2FE8               	goto	u2050
  7832     17E7                     u2051:
  7833     17E7  2FEE               	goto	l2359
  7834     17E8                     u2050:
  7835     17E8                     l2357:
  7836     17E8  0872               	movf	___lwmod@divisor,w
  7837     17E9  02F4               	subwf	___lwmod@dividend,f
  7838     17EA  0873               	movf	___lwmod@divisor+1,w
  7839     17EB  1C03               	skipc
  7840     17EC  03F5               	decf	___lwmod@dividend+1,f
  7841     17ED  02F5               	subwf	___lwmod@dividend+1,f
  7842     17EE                     l2359:
  7843     17EE  3001               	movlw	1
  7844     17EF                     u2065:
  7845     17EF  1003               	clrc
  7846     17F0  0CF3               	rrf	___lwmod@divisor+1,f
  7847     17F1  0CF2               	rrf	___lwmod@divisor,f
  7848     17F2  3EFF               	addlw	-1
  7849     17F3  1D03               	skipz
  7850     17F4  2FEF               	goto	u2065
  7851     17F5                     l2361:
  7852     17F5  3001               	movlw	1
  7853     17F6  02F6               	subwf	___lwmod@counter,f
  7854     17F7  1D03               	btfss	3,2
  7855     17F8  2FFA               	goto	u2071
  7856     17F9  2FFB               	goto	u2070
  7857     17FA                     u2071:
  7858     17FA  2FDE               	goto	l2355
  7859     17FB                     u2070:
  7860     17FB                     l2363:
  7861     17FB  0875               	movf	___lwmod@dividend+1,w
  7862     17FC  00F3               	movwf	?___lwmod+1
  7863     17FD  0874               	movf	___lwmod@dividend,w
  7864     17FE  00F2               	movwf	?___lwmod
  7865     17FF                     l919:
  7866     17FF  0008               	return
  7867     1800                     __end_of___lwmod:
  7868                           
  7869                           	psect	text39
  7870     1473                     __ptext39:	
  7871 ;; *************** function _read_adc *****************
  7872 ;; Defined at:
  7873 ;;		line 13 in file "adc.c"
  7874 ;; Parameters:    Size  Location     Type
  7875 ;;  channel         1    wreg     unsigned char 
  7876 ;; Auto vars:     Size  Location     Type
  7877 ;;  channel         1    7[COMMON] unsigned char 
  7878 ;;  adc_reg_val     2    5[COMMON] unsigned short 
  7879 ;; Return value:  Size  Location     Type
  7880 ;;                  2    2[COMMON] unsigned short 
  7881 ;; Registers used:
  7882 ;;		wreg, status,2, status,0
  7883 ;; Tracked objects:
  7884 ;;		On entry : 0/0
  7885 ;;		On exit  : 0/0
  7886 ;;		Unchanged: 0/0
  7887 ;; Data sizes:     COMMON   BANK0   BANK1   BANK3   BANK2
  7888 ;;      Params:         2       0       0       0       0
  7889 ;;      Locals:         3       0       0       0       0
  7890 ;;      Temps:          1       0       0       0       0
  7891 ;;      Totals:         6       0       0       0       0
  7892 ;;Total ram usage:        6 bytes
  7893 ;; Hardware stack levels used: 1
  7894 ;; Hardware stack levels required when called: 1
  7895 ;; This function calls:
  7896 ;;		Nothing
  7897 ;; This function is called by:
  7898 ;;		_dashboard
  7899 ;; This function uses a non-reentrant model
  7900 ;;
  7901                           
  7902     1473                     _read_adc:	
  7903                           ;psect for function _read_adc
  7904                           
  7905                           
  7906                           ;incstack = 0
  7907                           ; Regs used in _read_adc: [wreg+status,2+status,0]
  7908                           ;read_adc@channel stored from wreg
  7909     1473  00F7               	movwf	read_adc@channel
  7910     1474                     l2609:
  7911                           
  7912                           ;adc.c: 13: unsigned short read_adc(unsigned char channel);adc.c: 14: {;adc.c: 15:     u
      +                          nsigned short adc_reg_val;;adc.c: 18:     ADCON0 = (ADCON0 & 0xC7) | (channel << 3);
  7913     1474  0877               	movf	read_adc@channel,w
  7914     1475  00F4               	movwf	??_read_adc
  7915     1476  3003               	movlw	3
  7916     1477                     u2415:
  7917     1477  1003               	clrc
  7918     1478  0DF4               	rlf	??_read_adc,f
  7919     1479  3EFF               	addlw	-1
  7920     147A  1D03               	skipz
  7921     147B  2C77               	goto	u2415
  7922     147C  1283               	bcf	3,5	;RP0=0, select bank0
  7923     147D  1303               	bcf	3,6	;RP1=0, select bank0
  7924     147E  081F               	movf	31,w	;volatile
  7925     147F  39C7               	andlw	199
  7926     1480  0474               	iorwf	??_read_adc,w
  7927     1481  009F               	movwf	31	;volatile
  7928     1482                     l2611:
  7929                           
  7930                           ;adc.c: 21:     GO = 1;
  7931     1482  151F               	bsf	31,2	;volatile
  7932     1483                     l192:	
  7933                           ;adc.c: 23:     while (nDONE);
  7934                           
  7935     1483  191F               	btfsc	31,2	;volatile
  7936     1484  2C86               	goto	u2421
  7937     1485  2C87               	goto	u2420
  7938     1486                     u2421:
  7939     1486  2C83               	goto	l192
  7940     1487                     u2420:
  7941     1487                     l2613:
  7942                           
  7943                           ;adc.c: 25:     adc_reg_val = (ADRESH << 8) | ADRESL;
  7944     1487  081E               	movf	30,w	;volatile
  7945     1488  00F6               	movwf	read_adc@adc_reg_val+1
  7946     1489  1683               	bsf	3,5	;RP0=1, select bank1
  7947     148A  1303               	bcf	3,6	;RP1=0, select bank1
  7948     148B  081E               	movf	30,w	;volatile
  7949     148C  00F5               	movwf	read_adc@adc_reg_val
  7950                           
  7951                           ;adc.c: 27:     return adc_reg_val;
  7952     148D  0876               	movf	read_adc@adc_reg_val+1,w
  7953     148E  00F3               	movwf	?_read_adc+1
  7954     148F  0875               	movf	read_adc@adc_reg_val,w
  7955     1490  00F2               	movwf	?_read_adc
  7956     1491                     l195:
  7957     1491  0008               	return
  7958     1492                     __end_of_read_adc:
  7959                           
  7960                           	psect	text40
  7961     14EF                     __ptext40:	
  7962 ;; *************** function _get_time *****************
  7963 ;; Defined at:
  7964 ;;		line 41 in file "ds1307.c"
  7965 ;; Parameters:    Size  Location     Type
  7966 ;;  clock_reg       1    6[COMMON] PTR unsigned char 
  7967 ;;		 -> clock_reg(3), 
  7968 ;; Auto vars:     Size  Location     Type
  7969 ;;		None
  7970 ;; Return value:  Size  Location     Type
  7971 ;;                  1    wreg      void 
  7972 ;; Registers used:
  7973 ;;		wreg, fsr0l, fsr0h, status,2, status,0, pclath, cstack
  7974 ;; Tracked objects:
  7975 ;;		On entry : 0/0
  7976 ;;		On exit  : 0/0
  7977 ;;		Unchanged: 0/0
  7978 ;; Data sizes:     COMMON   BANK0   BANK1   BANK3   BANK2
  7979 ;;      Params:         1       0       0       0       0
  7980 ;;      Locals:         0       0       0       0       0
  7981 ;;      Temps:          0       0       0       0       0
  7982 ;;      Totals:         1       0       0       0       0
  7983 ;;Total ram usage:        1 bytes
  7984 ;; Hardware stack levels used: 1
  7985 ;; Hardware stack levels required when called: 5
  7986 ;; This function calls:
  7987 ;;		_read_ds1307
  7988 ;; This function is called by:
  7989 ;;		_dashboard
  7990 ;; This function uses a non-reentrant model
  7991 ;;
  7992                           
  7993     14EF                     _get_time:	
  7994                           ;psect for function _get_time
  7995                           
  7996     14EF                     l3545:	
  7997                           ;incstack = 0
  7998                           ; Regs used in _get_time: [wreg-fsr0h+status,2+status,0+pclath+cstack]
  7999                           
  8000                           
  8001                           ;ds1307.c: 41: void get_time(unsigned char *clock_reg);ds1307.c: 42: {;ds1307.c: 43:    
      +                           clock_reg[0] = read_ds1307(0x02);
  8002     14EF  0876               	movf	get_time@clock_reg,w
  8003     14F0  0084               	movwf	4
  8004     14F1  3002               	movlw	2
  8005     14F2  160A  118A  2612  160A  118A  	fcall	_read_ds1307
  8006     14F7  1383               	bcf	3,7	;select IRP bank0
  8007     14F8  0080               	movwf	0
  8008                           
  8009                           ;ds1307.c: 44:     clock_reg[1] = read_ds1307(0x01);
  8010     14F9  0A76               	incf	get_time@clock_reg,w
  8011     14FA  0084               	movwf	4
  8012     14FB  3001               	movlw	1
  8013     14FC  160A  118A  2612  160A  118A  	fcall	_read_ds1307
  8014     1501  1383               	bcf	3,7	;select IRP bank0
  8015     1502  0080               	movwf	0
  8016                           
  8017                           ;ds1307.c: 45:     clock_reg[2] = read_ds1307(0x00);
  8018     1503  0876               	movf	get_time@clock_reg,w
  8019     1504  3E02               	addlw	2
  8020     1505  0084               	movwf	4
  8021     1506  3000               	movlw	0
  8022     1507  160A  118A  2612  160A  118A  	fcall	_read_ds1307
  8023     150C  1383               	bcf	3,7	;select IRP bank0
  8024     150D  0080               	movwf	0
  8025     150E                     l169:
  8026     150E  0008               	return
  8027     150F                     __end_of_get_time:
  8028                           
  8029                           	psect	text41
  8030     1612                     __ptext41:	
  8031 ;; *************** function _read_ds1307 *****************
  8032 ;; Defined at:
  8033 ;;		line 17 in file "ds1307.c"
  8034 ;; Parameters:    Size  Location     Type
  8035 ;;  addr            1    wreg     unsigned char 
  8036 ;; Auto vars:     Size  Location     Type
  8037 ;;  addr            1    4[COMMON] unsigned char 
  8038 ;;  data            1    5[COMMON] unsigned char 
  8039 ;; Return value:  Size  Location     Type
  8040 ;;                  1    wreg      unsigned char 
  8041 ;; Registers used:
  8042 ;;		wreg, status,2, status,0, pclath, cstack
  8043 ;; Tracked objects:
  8044 ;;		On entry : 0/0
  8045 ;;		On exit  : 0/0
  8046 ;;		Unchanged: 0/0
  8047 ;; Data sizes:     COMMON   BANK0   BANK1   BANK3   BANK2
  8048 ;;      Params:         0       0       0       0       0
  8049 ;;      Locals:         2       0       0       0       0
  8050 ;;      Temps:          0       0       0       0       0
  8051 ;;      Totals:         2       0       0       0       0
  8052 ;;Total ram usage:        2 bytes
  8053 ;; Hardware stack levels used: 1
  8054 ;; Hardware stack levels required when called: 1
  8055 ;; This function calls:
  8056 ;;		_i2c_read
  8057 ;;		_i2c_rep_start
  8058 ;;		_i2c_start
  8059 ;;		_i2c_stop
  8060 ;;		_i2c_write
  8061 ;; This function is called by:
  8062 ;;		_init_ds1307
  8063 ;;		_get_time
  8064 ;; This function uses a non-reentrant model
  8065 ;;
  8066                           
  8067     1612                     _read_ds1307:	
  8068                           ;psect for function _read_ds1307
  8069                           
  8070                           
  8071                           ;incstack = 0
  8072                           ; Regs used in _read_ds1307: [wreg+status,2+status,0+pclath+cstack]
  8073                           ;read_ds1307@addr stored from wreg
  8074     1612  00F4               	movwf	read_ds1307@addr
  8075     1613                     l3377:
  8076                           
  8077                           ;ds1307.c: 17: unsigned char read_ds1307(unsigned char addr);ds1307.c: 18: {;ds1307.c: 1
      +                          9:     unsigned char data;;ds1307.c: 21:     i2c_start();
  8078     1613  160A  118A  23DA  160A  118A  	fcall	_i2c_start
  8079                           
  8080                           ;ds1307.c: 22:     i2c_write(0b11010000);
  8081     1618  30D0               	movlw	208
  8082     1619  160A  118A  2401  160A  118A  	fcall	_i2c_write
  8083                           
  8084                           ;ds1307.c: 23:     i2c_write(addr);
  8085     161E  0874               	movf	read_ds1307@addr,w
  8086     161F  160A  118A  2401  160A  118A  	fcall	_i2c_write
  8087                           
  8088                           ;ds1307.c: 24:     i2c_rep_start();
  8089     1624  160A  118A  23F6  160A  118A  	fcall	_i2c_rep_start
  8090                           
  8091                           ;ds1307.c: 25:     i2c_write(0b11010001);
  8092     1629  30D1               	movlw	209
  8093     162A  160A  118A  2401  160A  118A  	fcall	_i2c_write
  8094                           
  8095                           ;ds1307.c: 26:     data = i2c_read(0);
  8096     162F  3000               	movlw	0
  8097     1630  160A  118A  250F  160A  118A  	fcall	_i2c_read
  8098     1635  00F5               	movwf	read_ds1307@data
  8099                           
  8100                           ;ds1307.c: 27:     i2c_stop();
  8101     1636  160A  118A  23E3  160A  118A  	fcall	_i2c_stop
  8102     163B                     l3379:
  8103                           
  8104                           ;ds1307.c: 29:     return data;
  8105     163B  0875               	movf	read_ds1307@data,w
  8106     163C                     l163:
  8107     163C  0008               	return
  8108     163D                     __end_of_read_ds1307:
  8109                           
  8110                           	psect	text42
  8111     1401                     __ptext42:	
  8112 ;; *************** function _i2c_write *****************
  8113 ;; Defined at:
  8114 ;;		line 65 in file "i2c.c"
  8115 ;; Parameters:    Size  Location     Type
  8116 ;;  data            1    wreg     unsigned char 
  8117 ;; Auto vars:     Size  Location     Type
  8118 ;;  data            1    2[COMMON] unsigned char 
  8119 ;; Return value:  Size  Location     Type
  8120 ;;                  2  138[None  ] int 
  8121 ;; Registers used:
  8122 ;;		wreg, status,2, status,0, pclath, cstack
  8123 ;; Tracked objects:
  8124 ;;		On entry : 0/0
  8125 ;;		On exit  : 0/0
  8126 ;;		Unchanged: 0/0
  8127 ;; Data sizes:     COMMON   BANK0   BANK1   BANK3   BANK2
  8128 ;;      Params:         0       0       0       0       0
  8129 ;;      Locals:         1       0       0       0       0
  8130 ;;      Temps:          0       0       0       0       0
  8131 ;;      Totals:         1       0       0       0       0
  8132 ;;Total ram usage:        1 bytes
  8133 ;; Hardware stack levels used: 1
  8134 ;; Hardware stack levels required when called: 1
  8135 ;; This function calls:
  8136 ;;		_i2c_wait_for_idle
  8137 ;; This function is called by:
  8138 ;;		_read_ds1307
  8139 ;;		_write_ds1307
  8140 ;;		_write_external_eeprom
  8141 ;;		_read_external_eeprom
  8142 ;; This function uses a non-reentrant model
  8143 ;;
  8144                           
  8145     1401                     _i2c_write:	
  8146                           ;psect for function _i2c_write
  8147                           
  8148                           
  8149                           ;incstack = 0
  8150                           ; Regs used in _i2c_write: [wreg+status,2+status,0+pclath+cstack]
  8151                           ;i2c_write@data stored from wreg
  8152     1401  00F2               	movwf	i2c_write@data
  8153     1402                     l3291:
  8154                           
  8155                           ;i2c.c: 65: int i2c_write(unsigned char data);i2c.c: 66: {;i2c.c: 67:     i2c_wait_for_i
      +                          dle();
  8156     1402  120A  118A  24F3  160A  118A  	fcall	_i2c_wait_for_idle
  8157     1407                     l3293:
  8158                           
  8159                           ;i2c.c: 68:     SSPBUF = data;
  8160     1407  0872               	movf	i2c_write@data,w
  8161     1408  1283               	bcf	3,5	;RP0=0, select bank0
  8162     1409  1303               	bcf	3,6	;RP1=0, select bank0
  8163     140A  0093               	movwf	19	;volatile
  8164     140B                     l3295:
  8165     140B                     l139:	
  8166                           ;i2c.c: 70:     return !ACKSTAT;;	Return value of _i2c_write is never used
  8167                           
  8168     140B  0008               	return
  8169     140C                     __end_of_i2c_write:
  8170                           
  8171                           	psect	text43
  8172     13F6                     __ptext43:	
  8173 ;; *************** function _i2c_rep_start *****************
  8174 ;; Defined at:
  8175 ;;		line 28 in file "i2c.c"
  8176 ;; Parameters:    Size  Location     Type
  8177 ;;		None
  8178 ;; Auto vars:     Size  Location     Type
  8179 ;;		None
  8180 ;; Return value:  Size  Location     Type
  8181 ;;                  1    wreg      void 
  8182 ;; Registers used:
  8183 ;;		wreg, status,2, status,0, pclath, cstack
  8184 ;; Tracked objects:
  8185 ;;		On entry : 0/0
  8186 ;;		On exit  : 0/0
  8187 ;;		Unchanged: 0/0
  8188 ;; Data sizes:     COMMON   BANK0   BANK1   BANK3   BANK2
  8189 ;;      Params:         0       0       0       0       0
  8190 ;;      Locals:         0       0       0       0       0
  8191 ;;      Temps:          0       0       0       0       0
  8192 ;;      Totals:         0       0       0       0       0
  8193 ;;Total ram usage:        0 bytes
  8194 ;; Hardware stack levels used: 1
  8195 ;; Hardware stack levels required when called: 1
  8196 ;; This function calls:
  8197 ;;		_i2c_start
  8198 ;;		_i2c_stop
  8199 ;; This function is called by:
  8200 ;;		_read_ds1307
  8201 ;;		_read_external_eeprom
  8202 ;; This function uses a non-reentrant model
  8203 ;;
  8204                           
  8205     13F6                     _i2c_rep_start:	
  8206                           ;psect for function _i2c_rep_start
  8207                           
  8208     13F6                     l3275:	
  8209                           ;incstack = 0
  8210                           ; Regs used in _i2c_rep_start: [wreg+status,2+status,0+pclath+cstack]
  8211                           
  8212                           
  8213                           ;i2c.c: 30:     i2c_stop();
  8214     13F6  160A  118A  23E3  160A  118A  	fcall	_i2c_stop
  8215                           
  8216                           ;i2c.c: 31:     i2c_start();
  8217     13FB  160A  118A  23DA  160A  118A  	fcall	_i2c_start
  8218     1400                     l128:
  8219     1400  0008               	return
  8220     1401                     __end_of_i2c_rep_start:
  8221                           
  8222                           	psect	text44
  8223     13E3                     __ptext44:	
  8224 ;; *************** function _i2c_stop *****************
  8225 ;; Defined at:
  8226 ;;		line 35 in file "i2c.c"
  8227 ;; Parameters:    Size  Location     Type
  8228 ;;		None
  8229 ;; Auto vars:     Size  Location     Type
  8230 ;;		None
  8231 ;; Return value:  Size  Location     Type
  8232 ;;                  1    wreg      void 
  8233 ;; Registers used:
  8234 ;;		wreg, status,2, status,0, pclath, cstack
  8235 ;; Tracked objects:
  8236 ;;		On entry : 0/0
  8237 ;;		On exit  : 0/0
  8238 ;;		Unchanged: 0/0
  8239 ;; Data sizes:     COMMON   BANK0   BANK1   BANK3   BANK2
  8240 ;;      Params:         0       0       0       0       0
  8241 ;;      Locals:         0       0       0       0       0
  8242 ;;      Temps:          0       0       0       0       0
  8243 ;;      Totals:         0       0       0       0       0
  8244 ;;Total ram usage:        0 bytes
  8245 ;; Hardware stack levels used: 1
  8246 ;; Hardware stack levels required when called: 1
  8247 ;; This function calls:
  8248 ;;		_i2c_wait_for_idle
  8249 ;; This function is called by:
  8250 ;;		_i2c_rep_start
  8251 ;;		_read_ds1307
  8252 ;;		_write_ds1307
  8253 ;;		_write_external_eeprom
  8254 ;;		_read_external_eeprom
  8255 ;; This function uses a non-reentrant model
  8256 ;;
  8257                           
  8258     13E3                     _i2c_stop:	
  8259                           ;psect for function _i2c_stop
  8260                           
  8261     13E3                     l3271:	
  8262                           ;incstack = 0
  8263                           ; Regs used in _i2c_stop: [wreg+status,2+status,0+pclath+cstack]
  8264                           
  8265                           
  8266                           ;i2c.c: 37:     i2c_wait_for_idle();
  8267     13E3  120A  118A  24F3  160A  118A  	fcall	_i2c_wait_for_idle
  8268     13E8                     l3273:
  8269                           
  8270                           ;i2c.c: 38:     PEN = 1;
  8271     13E8  1683               	bsf	3,5	;RP0=1, select bank1
  8272     13E9  1303               	bcf	3,6	;RP1=0, select bank1
  8273     13EA  1511               	bsf	17,2	;volatile
  8274     13EB                     l131:
  8275     13EB  0008               	return
  8276     13EC                     __end_of_i2c_stop:
  8277                           
  8278                           	psect	text45
  8279     13DA                     __ptext45:	
  8280 ;; *************** function _i2c_start *****************
  8281 ;; Defined at:
  8282 ;;		line 22 in file "i2c.c"
  8283 ;; Parameters:    Size  Location     Type
  8284 ;;		None
  8285 ;; Auto vars:     Size  Location     Type
  8286 ;;		None
  8287 ;; Return value:  Size  Location     Type
  8288 ;;                  1    wreg      void 
  8289 ;; Registers used:
  8290 ;;		wreg, status,2, status,0, pclath, cstack
  8291 ;; Tracked objects:
  8292 ;;		On entry : 0/0
  8293 ;;		On exit  : 0/0
  8294 ;;		Unchanged: 0/0
  8295 ;; Data sizes:     COMMON   BANK0   BANK1   BANK3   BANK2
  8296 ;;      Params:         0       0       0       0       0
  8297 ;;      Locals:         0       0       0       0       0
  8298 ;;      Temps:          0       0       0       0       0
  8299 ;;      Totals:         0       0       0       0       0
  8300 ;;Total ram usage:        0 bytes
  8301 ;; Hardware stack levels used: 1
  8302 ;; Hardware stack levels required when called: 1
  8303 ;; This function calls:
  8304 ;;		_i2c_wait_for_idle
  8305 ;; This function is called by:
  8306 ;;		_i2c_rep_start
  8307 ;;		_read_ds1307
  8308 ;;		_write_ds1307
  8309 ;;		_write_external_eeprom
  8310 ;;		_read_external_eeprom
  8311 ;; This function uses a non-reentrant model
  8312 ;;
  8313                           
  8314     13DA                     _i2c_start:	
  8315                           ;psect for function _i2c_start
  8316                           
  8317     13DA                     l3267:	
  8318                           ;incstack = 0
  8319                           ; Regs used in _i2c_start: [wreg+status,2+status,0+pclath+cstack]
  8320                           
  8321                           
  8322                           ;i2c.c: 24:     i2c_wait_for_idle();
  8323     13DA  120A  118A  24F3  160A  118A  	fcall	_i2c_wait_for_idle
  8324     13DF                     l3269:
  8325                           
  8326                           ;i2c.c: 25:     SEN = 1;
  8327     13DF  1683               	bsf	3,5	;RP0=1, select bank1
  8328     13E0  1303               	bcf	3,6	;RP1=0, select bank1
  8329     13E1  1411               	bsf	17,0	;volatile
  8330     13E2                     l125:
  8331     13E2  0008               	return
  8332     13E3                     __end_of_i2c_start:
  8333                           
  8334                           	psect	text46
  8335     150F                     __ptext46:	
  8336 ;; *************** function _i2c_read *****************
  8337 ;; Defined at:
  8338 ;;		line 41 in file "i2c.c"
  8339 ;; Parameters:    Size  Location     Type
  8340 ;;  ack             1    wreg     unsigned char 
  8341 ;; Auto vars:     Size  Location     Type
  8342 ;;  ack             1    2[COMMON] unsigned char 
  8343 ;;  data            1    3[COMMON] unsigned char 
  8344 ;; Return value:  Size  Location     Type
  8345 ;;                  1    wreg      unsigned char 
  8346 ;; Registers used:
  8347 ;;		wreg, status,2, status,0, pclath, cstack
  8348 ;; Tracked objects:
  8349 ;;		On entry : 0/0
  8350 ;;		On exit  : 0/0
  8351 ;;		Unchanged: 0/0
  8352 ;; Data sizes:     COMMON   BANK0   BANK1   BANK3   BANK2
  8353 ;;      Params:         0       0       0       0       0
  8354 ;;      Locals:         2       0       0       0       0
  8355 ;;      Temps:          0       0       0       0       0
  8356 ;;      Totals:         2       0       0       0       0
  8357 ;;Total ram usage:        2 bytes
  8358 ;; Hardware stack levels used: 1
  8359 ;; Hardware stack levels required when called: 1
  8360 ;; This function calls:
  8361 ;;		_i2c_wait_for_idle
  8362 ;; This function is called by:
  8363 ;;		_read_ds1307
  8364 ;;		_read_external_eeprom
  8365 ;; This function uses a non-reentrant model
  8366 ;;
  8367                           
  8368     150F                     _i2c_read:	
  8369                           ;psect for function _i2c_read
  8370                           
  8371                           
  8372                           ;incstack = 0
  8373                           ; Regs used in _i2c_read: [wreg+status,2+status,0+pclath+cstack]
  8374                           ;i2c_read@ack stored from wreg
  8375     150F  00F2               	movwf	i2c_read@ack
  8376     1510                     l3277:
  8377                           
  8378                           ;i2c.c: 41: unsigned char i2c_read(unsigned char ack);i2c.c: 42: {;i2c.c: 43:     unsign
      +                          ed char data;;i2c.c: 45:     i2c_wait_for_idle();
  8379     1510  120A  118A  24F3  160A  118A  	fcall	_i2c_wait_for_idle
  8380     1515                     l3279:
  8381                           
  8382                           ;i2c.c: 46:     RCEN = 1;
  8383     1515  1683               	bsf	3,5	;RP0=1, select bank1
  8384     1516  1303               	bcf	3,6	;RP1=0, select bank1
  8385     1517  1591               	bsf	17,3	;volatile
  8386                           
  8387                           ;i2c.c: 48:     i2c_wait_for_idle();
  8388     1518  120A  118A  24F3  160A  118A  	fcall	_i2c_wait_for_idle
  8389     151D                     l3281:
  8390                           
  8391                           ;i2c.c: 49:     data = SSPBUF;
  8392     151D  1283               	bcf	3,5	;RP0=0, select bank0
  8393     151E  1303               	bcf	3,6	;RP1=0, select bank0
  8394     151F  0813               	movf	19,w	;volatile
  8395     1520  00F3               	movwf	i2c_read@data
  8396     1521                     l3283:
  8397                           
  8398                           ;i2c.c: 51:     if (ack == 1)
  8399     1521  0372               	decf	i2c_read@ack,w
  8400     1522  1D03               	btfss	3,2
  8401     1523  2D25               	goto	u3571
  8402     1524  2D26               	goto	u3570
  8403     1525                     u3571:
  8404     1525  2D2A               	goto	l134
  8405     1526                     u3570:
  8406     1526                     l3285:
  8407                           
  8408                           ;i2c.c: 52:     {;i2c.c: 53:         ACKDT = 1;
  8409     1526  1683               	bsf	3,5	;RP0=1, select bank1
  8410     1527  1303               	bcf	3,6	;RP1=0, select bank1
  8411     1528  1691               	bsf	17,5	;volatile
  8412                           
  8413                           ;i2c.c: 54:     }
  8414     1529  2D2D               	goto	l135
  8415     152A                     l134:	
  8416                           ;i2c.c: 55:     else
  8417                           
  8418                           
  8419                           ;i2c.c: 56:     {;i2c.c: 57:         ACKDT = 0;
  8420     152A  1683               	bsf	3,5	;RP0=1, select bank1
  8421     152B  1303               	bcf	3,6	;RP1=0, select bank1
  8422     152C  1291               	bcf	17,5	;volatile
  8423     152D                     l135:	
  8424                           ;i2c.c: 58:     }
  8425                           
  8426                           
  8427                           ;i2c.c: 60:     ACKEN = 1;
  8428     152D  1611               	bsf	17,4	;volatile
  8429     152E                     l3287:
  8430                           
  8431                           ;i2c.c: 62:     return data;
  8432     152E  0873               	movf	i2c_read@data,w
  8433     152F                     l136:
  8434     152F  0008               	return
  8435     1530                     __end_of_i2c_read:
  8436                           
  8437                           	psect	text47
  8438     04F3                     __ptext47:	
  8439 ;; *************** function _i2c_wait_for_idle *****************
  8440 ;; Defined at:
  8441 ;;		line 16 in file "i2c.c"
  8442 ;; Parameters:    Size  Location     Type
  8443 ;;		None
  8444 ;; Auto vars:     Size  Location     Type
  8445 ;;		None
  8446 ;; Return value:  Size  Location     Type
  8447 ;;                  1    wreg      void 
  8448 ;; Registers used:
  8449 ;;		wreg, status,2
  8450 ;; Tracked objects:
  8451 ;;		On entry : 0/0
  8452 ;;		On exit  : 0/0
  8453 ;;		Unchanged: 0/0
  8454 ;; Data sizes:     COMMON   BANK0   BANK1   BANK3   BANK2
  8455 ;;      Params:         0       0       0       0       0
  8456 ;;      Locals:         0       0       0       0       0
  8457 ;;      Temps:          0       0       0       0       0
  8458 ;;      Totals:         0       0       0       0       0
  8459 ;;Total ram usage:        0 bytes
  8460 ;; Hardware stack levels used: 1
  8461 ;; Hardware stack levels required when called: 1
  8462 ;; This function calls:
  8463 ;;		Nothing
  8464 ;; This function is called by:
  8465 ;;		_i2c_start
  8466 ;;		_i2c_stop
  8467 ;;		_i2c_read
  8468 ;;		_i2c_write
  8469 ;; This function uses a non-reentrant model
  8470 ;;
  8471                           
  8472     04F3                     _i2c_wait_for_idle:	
  8473                           ;psect for function _i2c_wait_for_idle
  8474                           
  8475     04F3                     l3263:	
  8476                           ;incstack = 0
  8477 ;; hardware stack exceeded
  8478                           ; Regs used in _i2c_wait_for_idle: [wreg+status,2]
  8479                           
  8480     04F3                     l119:	
  8481                           ;i2c.c: 19:     while (R_nW || (SSPCON2 & 0x1F));
  8482                           
  8483     04F3  1683               	bsf	3,5	;RP0=1, select bank1
  8484     04F4  1303               	bcf	3,6	;RP1=0, select bank1
  8485     04F5  1914               	btfsc	20,2	;volatile
  8486     04F6  2CF8               	goto	u3551
  8487     04F7  2CF9               	goto	u3550
  8488     04F8                     u3551:
  8489     04F8  2CF3               	goto	l119
  8490     04F9                     u3550:
  8491     04F9                     l3265:
  8492     04F9  0811               	movf	17,w	;volatile
  8493     04FA  391F               	andlw	31
  8494     04FB  1D03               	btfss	3,2
  8495     04FC  2CFE               	goto	u3561
  8496     04FD  2CFF               	goto	u3560
  8497     04FE                     u3561:
  8498     04FE  2CF3               	goto	l119
  8499     04FF                     u3560:
  8500     04FF                     l122:
  8501     04FF  0008               	return
  8502     0500                     __end_of_i2c_wait_for_idle:
  8503                           
  8504                           	psect	text48
  8505     08B0                     __ptext48:	
  8506 ;; *************** function _display_time *****************
  8507 ;; Defined at:
  8508 ;;		line 47 in file "ds1307.c"
  8509 ;; Parameters:    Size  Location     Type
  8510 ;;  clock_reg       1    9[COMMON] PTR unsigned char 
  8511 ;;		 -> clock_reg(3), 
  8512 ;; Auto vars:     Size  Location     Type
  8513 ;;		None
  8514 ;; Return value:  Size  Location     Type
  8515 ;;                  1    wreg      void 
  8516 ;; Registers used:
  8517 ;;		wreg, fsr0l, fsr0h, status,2, status,0, pclath, btemp1, cstack
  8518 ;; Tracked objects:
  8519 ;;		On entry : 0/0
  8520 ;;		On exit  : 0/0
  8521 ;;		Unchanged: 0/0
  8522 ;; Data sizes:     COMMON   BANK0   BANK1   BANK3   BANK2
  8523 ;;      Params:         1       0       0       0       0
  8524 ;;      Locals:         0       0       0       0       0
  8525 ;;      Temps:          0       1       0       0       0
  8526 ;;      Totals:         1       1       0       0       0
  8527 ;;Total ram usage:        2 bytes
  8528 ;; Hardware stack levels used: 1
  8529 ;; Hardware stack levels required when called: 2
  8530 ;; This function calls:
  8531 ;;		_clcd_print
  8532 ;; This function is called by:
  8533 ;;		_dashboard
  8534 ;; This function uses a non-reentrant model
  8535 ;;
  8536                           
  8537     08B0                     _display_time:	
  8538                           ;psect for function _display_time
  8539                           
  8540     08B0                     l3547:	
  8541                           ;incstack = 0
  8542                           ; Regs used in _display_time: [wreg-fsr0h+status,2+status,0+pclath+btemp1+cstack]
  8543                           
  8544                           
  8545                           ;ds1307.c: 47: void display_time(unsigned char *clock_reg);ds1307.c: 48: {;ds1307.c: 55:
      +                               time[0] = ((clock_reg[0] >> 4) & 0x03) + '0';
  8546     08B0  0879               	movf	display_time@clock_reg,w
  8547     08B1  0084               	movwf	4
  8548     08B2  1383               	bcf	3,7	;select IRP bank0
  8549     08B3  0800               	movf	0,w
  8550     08B4  1283               	bcf	3,5	;RP0=0, select bank0
  8551     08B5  1303               	bcf	3,6	;RP1=0, select bank0
  8552     08B6  00A0               	movwf	??_display_time
  8553     08B7  3004               	movlw	4
  8554     08B8                     u3895:
  8555     08B8  1003               	clrc
  8556     08B9  0CA0               	rrf	??_display_time,f
  8557     08BA  3EFF               	addlw	-1
  8558     08BB  1D03               	skipz
  8559     08BC  28B8               	goto	u3895
  8560     08BD  0820               	movf	??_display_time,w
  8561     08BE  3903               	andlw	3
  8562     08BF  3E30               	addlw	48
  8563     08C0  00DC               	movwf	_time
  8564                           
  8565                           ;ds1307.c: 56:     time[1] = (clock_reg[0] & 0x0F) + '0';
  8566     08C1  0879               	movf	display_time@clock_reg,w
  8567     08C2  0084               	movwf	4
  8568     08C3  0800               	movf	0,w
  8569     08C4  390F               	andlw	15
  8570     08C5  3E30               	addlw	48
  8571     08C6  00DD               	movwf	_time+1
  8572     08C7                     l3549:
  8573                           
  8574                           ;ds1307.c: 58:     time[2] = ':';
  8575     08C7  303A               	movlw	58
  8576     08C8  00DE               	movwf	_time+2
  8577                           
  8578                           ;ds1307.c: 60:     time[3] = ((clock_reg[1] >> 4) & 0x07) + '0';
  8579     08C9  0A79               	incf	display_time@clock_reg,w
  8580     08CA  0084               	movwf	4
  8581     08CB  0800               	movf	0,w
  8582     08CC  00A0               	movwf	??_display_time
  8583     08CD  3004               	movlw	4
  8584     08CE                     u3905:
  8585     08CE  1003               	clrc
  8586     08CF  0CA0               	rrf	??_display_time,f
  8587     08D0  3EFF               	addlw	-1
  8588     08D1  1D03               	skipz
  8589     08D2  28CE               	goto	u3905
  8590     08D3  0820               	movf	??_display_time,w
  8591     08D4  3907               	andlw	7
  8592     08D5  3E30               	addlw	48
  8593     08D6  00DF               	movwf	_time+3
  8594                           
  8595                           ;ds1307.c: 61:     time[4] = (clock_reg[1] & 0x0F) + '0';
  8596     08D7  0A79               	incf	display_time@clock_reg,w
  8597     08D8  0084               	movwf	4
  8598     08D9  0800               	movf	0,w
  8599     08DA  390F               	andlw	15
  8600     08DB  3E30               	addlw	48
  8601     08DC  00E0               	movwf	_time+4
  8602     08DD                     l3551:
  8603                           
  8604                           ;ds1307.c: 63:     time[5] = ':';
  8605     08DD  303A               	movlw	58
  8606     08DE  00E1               	movwf	_time+5
  8607                           
  8608                           ;ds1307.c: 65:     time[6] = ((clock_reg[2] >> 4) & 0x07) + '0';
  8609     08DF  0879               	movf	display_time@clock_reg,w
  8610     08E0  3E02               	addlw	2
  8611     08E1  0084               	movwf	4
  8612     08E2  0800               	movf	0,w
  8613     08E3  00A0               	movwf	??_display_time
  8614     08E4  3004               	movlw	4
  8615     08E5                     u3915:
  8616     08E5  1003               	clrc
  8617     08E6  0CA0               	rrf	??_display_time,f
  8618     08E7  3EFF               	addlw	-1
  8619     08E8  1D03               	skipz
  8620     08E9  28E5               	goto	u3915
  8621     08EA  0820               	movf	??_display_time,w
  8622     08EB  3907               	andlw	7
  8623     08EC  3E30               	addlw	48
  8624     08ED  00E2               	movwf	_time+6
  8625                           
  8626                           ;ds1307.c: 66:     time[7] = (clock_reg[2] & 0x0F) + '0';
  8627     08EE  0879               	movf	display_time@clock_reg,w
  8628     08EF  3E02               	addlw	2
  8629     08F0  0084               	movwf	4
  8630     08F1  0800               	movf	0,w
  8631     08F2  390F               	andlw	15
  8632     08F3  3E30               	addlw	48
  8633     08F4  00E3               	movwf	_time+7
  8634     08F5                     l3553:
  8635                           
  8636                           ;ds1307.c: 67:     time[8] = '\0';
  8637     08F5  01E4               	clrf	_time+8
  8638     08F6                     l3555:
  8639                           
  8640                           ;ds1307.c: 69:     clcd_print(time, (0xC0 + 0));
  8641     08F6  305C               	movlw	(low (_time| 0))& (0+255)
  8642     08F7  00F6               	movwf	clcd_print@str
  8643     08F8  3000               	movlw	0
  8644     08F9  00F7               	movwf	clcd_print@str+1
  8645     08FA  30C0               	movlw	192
  8646     08FB  00F8               	movwf	clcd_print@addr
  8647     08FC  160A  118A  2668  120A  158A  	fcall	_clcd_print
  8648     0901                     l172:
  8649     0901  0008               	return
  8650     0902                     __end_of_display_time:
  8651                           
  8652                           	psect	text49
  8653     1668                     __ptext49:	
  8654 ;; *************** function _clcd_print *****************
  8655 ;; Defined at:
  8656 ;;		line 63 in file "clcd.c"
  8657 ;; Parameters:    Size  Location     Type
  8658 ;;  str             2    6[COMMON] PTR const unsigned char 
  8659 ;;		 -> STR_40(15), STR_39(17), STR_38(14), STR_37(15), 
  8660 ;;		 -> STR_36(16), STR_35(17), STR_34(17), STR_33(18), 
  8661 ;;		 -> STR_32(17), STR_31(17), STR_30(18), STR_29(17), 
  8662 ;;		 -> STR_28(3), STR_27(3), STR_26(3), STR_24(15), 
  8663 ;;		 -> STR_23(9), STR_22(17), STR_21(17), STR_20(10), 
  8664 ;;		 -> STR_19(8), logs(17), STR_18(3), STR_17(3), 
  8665 ;;		 -> STR_16(3), STR_15(3), STR_14(17), speed(3), 
  8666 ;;		 -> STR_13(15), STR_12(15), STR_11(15), STR_10(15), 
  8667 ;;		 -> STR_9(15), STR_8(3), STR_7(3), STR_6(3), 
  8668 ;;		 -> STR_5(3), STR_4(3), STR_3(3), STR_2(3), 
  8669 ;;		 -> STR_1(3), time(9), 
  8670 ;;  addr            1    8[COMMON] unsigned char 
  8671 ;; Auto vars:     Size  Location     Type
  8672 ;;		None
  8673 ;; Return value:  Size  Location     Type
  8674 ;;                  1    wreg      void 
  8675 ;; Registers used:
  8676 ;;		wreg, fsr0l, fsr0h, status,2, status,0, pclath, btemp1, cstack
  8677 ;; Tracked objects:
  8678 ;;		On entry : 0/0
  8679 ;;		On exit  : 0/0
  8680 ;;		Unchanged: 0/0
  8681 ;; Data sizes:     COMMON   BANK0   BANK1   BANK3   BANK2
  8682 ;;      Params:         3       0       0       0       0
  8683 ;;      Locals:         0       0       0       0       0
  8684 ;;      Temps:          0       0       0       0       0
  8685 ;;      Totals:         3       0       0       0       0
  8686 ;;Total ram usage:        3 bytes
  8687 ;; Hardware stack levels used: 1
  8688 ;; Hardware stack levels required when called: 1
  8689 ;; This function calls:
  8690 ;;		_clcd_write
  8691 ;; This function is called by:
  8692 ;;		_display_time
  8693 ;;		_dashboard
  8694 ;;		_print_star
  8695 ;;		_main_menu
  8696 ;;		_view_log
  8697 ;;		_clear_log
  8698 ;;		_download_log
  8699 ;;		_display_indicator
  8700 ;;		_set_time
  8701 ;;		_collect_password
  8702 ;;		_change_password
  8703 ;;		_auth_user
  8704 ;;		_run_delay
  8705 ;; This function uses a non-reentrant model
  8706 ;;
  8707                           
  8708     1668                     _clcd_print:	
  8709                           ;psect for function _clcd_print
  8710                           
  8711     1668                     l3327:	
  8712                           ;incstack = 0
  8713                           ; Regs used in _clcd_print: [wreg-fsr0h+status,2+status,0+pclath+btemp1+cstack]
  8714                           
  8715                           
  8716                           ;clcd.c: 63: void clcd_print(const char *str, unsigned char addr);clcd.c: 64: {;clcd.c: 
      +                          65:     clcd_write(addr, 0);
  8717     1668  01F2               	clrf	clcd_write@mode
  8718     1669  0878               	movf	clcd_print@addr,w
  8719     166A  160A  118A  275C  160A  118A  	fcall	_clcd_write
  8720                           
  8721                           ;clcd.c: 67:     while (*str != '\0')
  8722     166F  2E86               	goto	l3333
  8723     1670                     l3329:
  8724                           
  8725                           ;clcd.c: 68:     {;clcd.c: 69:         clcd_write(*str, 1);
  8726     1670  01F2               	clrf	clcd_write@mode
  8727     1671  0AF2               	incf	clcd_write@mode,f
  8728     1672  0877               	movf	clcd_print@str+1,w
  8729     1673  00FF               	movwf	btemp1
  8730     1674  0876               	movf	clcd_print@str,w
  8731     1675  0084               	movwf	4
  8732     1676  160A  118A  2000  160A  118A  	fcall	stringtab
  8733     167B  160A  118A  275C  160A  118A  	fcall	_clcd_write
  8734     1680                     l3331:
  8735                           
  8736                           ;clcd.c: 70:         str++;
  8737     1680  3001               	movlw	1
  8738     1681  07F6               	addwf	clcd_print@str,f
  8739     1682  1803               	skipnc
  8740     1683  0AF7               	incf	clcd_print@str+1,f
  8741     1684  3000               	movlw	0
  8742     1685  07F7               	addwf	clcd_print@str+1,f
  8743     1686                     l3333:
  8744                           
  8745                           ;clcd.c: 67:     while (*str != '\0')
  8746     1686  0877               	movf	clcd_print@str+1,w
  8747     1687  1283               	bcf	3,5	;RP0=0, select bank0
  8748     1688  1303               	bcf	3,6	;RP1=0, select bank0
  8749     1689  00FF               	movwf	btemp1
  8750     168A  0876               	movf	clcd_print@str,w
  8751     168B  0084               	movwf	4
  8752     168C  160A  118A  2000  160A  118A  	fcall	stringtab
  8753     1691  3A00               	xorlw	0
  8754     1692  1D03               	skipz
  8755     1693  2E95               	goto	u3611
  8756     1694  2E96               	goto	u3610
  8757     1695                     u3611:
  8758     1695  2E70               	goto	l3329
  8759     1696                     u3610:
  8760     1696                     l84:
  8761     1696  0008               	return
  8762     1697                     __end_of_clcd_print:
  8763                           
  8764                           	psect	text50
  8765     175C                     __ptext50:	
  8766 ;; *************** function _clcd_write *****************
  8767 ;; Defined at:
  8768 ;;		line 5 in file "clcd.c"
  8769 ;; Parameters:    Size  Location     Type
  8770 ;;  byte            1    wreg     unsigned char 
  8771 ;;  mode            1    2[COMMON] unsigned char 
  8772 ;; Auto vars:     Size  Location     Type
  8773 ;;  byte            1    5[COMMON] unsigned char 
  8774 ;; Return value:  Size  Location     Type
  8775 ;;                  1    wreg      void 
  8776 ;; Registers used:
  8777 ;;		wreg, status,2, status,0
  8778 ;; Tracked objects:
  8779 ;;		On entry : 0/0
  8780 ;;		On exit  : 0/0
  8781 ;;		Unchanged: 0/0
  8782 ;; Data sizes:     COMMON   BANK0   BANK1   BANK3   BANK2
  8783 ;;      Params:         1       0       0       0       0
  8784 ;;      Locals:         1       0       0       0       0
  8785 ;;      Temps:          2       0       0       0       0
  8786 ;;      Totals:         4       0       0       0       0
  8787 ;;Total ram usage:        4 bytes
  8788 ;; Hardware stack levels used: 1
  8789 ;; Hardware stack levels required when called: 1
  8790 ;; This function calls:
  8791 ;;		Nothing
  8792 ;; This function is called by:
  8793 ;;		_init_display_controller
  8794 ;;		_clcd_putch
  8795 ;;		_clcd_print
  8796 ;;		_clear_screen
  8797 ;; This function uses a non-reentrant model
  8798 ;;
  8799                           
  8800     175C                     _clcd_write:	
  8801                           ;psect for function _clcd_write
  8802                           
  8803                           
  8804                           ;incstack = 0
  8805                           ; Regs used in _clcd_write: [wreg+status,2+status,0]
  8806                           ;clcd_write@byte stored from wreg
  8807     175C  00F5               	movwf	clcd_write@byte
  8808     175D                     l3299:
  8809                           
  8810                           ;clcd.c: 5: static void clcd_write(unsigned char byte, unsigned char mode);clcd.c: 6: {;
      +                          clcd.c: 7:     RE2 = mode;
  8811     175D  1872               	btfsc	clcd_write@mode,0
  8812     175E  2F60               	goto	u3581
  8813     175F  2F64               	goto	u3580
  8814     1760                     u3581:
  8815     1760  1283               	bcf	3,5	;RP0=0, select bank0
  8816     1761  1303               	bcf	3,6	;RP1=0, select bank0
  8817     1762  1509               	bsf	9,2	;volatile
  8818     1763  2F67               	goto	u3594
  8819     1764                     u3580:
  8820     1764  1283               	bcf	3,5	;RP0=0, select bank0
  8821     1765  1303               	bcf	3,6	;RP1=0, select bank0
  8822     1766  1109               	bcf	9,2	;volatile
  8823     1767                     u3594:
  8824     1767                     l3301:
  8825                           
  8826                           ;clcd.c: 9:     PORTD = byte & 0xF0;
  8827     1767  0875               	movf	clcd_write@byte,w
  8828     1768  39F0               	andlw	240
  8829     1769  0088               	movwf	8	;volatile
  8830     176A                     l3303:
  8831                           
  8832                           ;clcd.c: 10:     RE1 = 1;
  8833     176A  1489               	bsf	9,1	;volatile
  8834     176B                     l3305:
  8835                           
  8836                           ;clcd.c: 11:     _delay((unsigned long)((100)*(20000000/4000000.0)));
  8837     176B  30A6               	movlw	166
  8838     176C  00F3               	movwf	??_clcd_write
  8839     176D                     u4757:
  8840     176D  0BF3               	decfsz	??_clcd_write,f
  8841     176E  2F6D               	goto	u4757
  8842     176F  0000               	nop
  8843     1770                     l3307:
  8844                           
  8845                           ;clcd.c: 12:     RE1 = 0;
  8846     1770  1283               	bcf	3,5	;RP0=0, select bank0
  8847     1771  1303               	bcf	3,6	;RP1=0, select bank0
  8848     1772  1089               	bcf	9,1	;volatile
  8849     1773                     l3309:
  8850                           
  8851                           ;clcd.c: 14:     PORTD = (byte & 0x0F) << 4;
  8852     1773  0875               	movf	clcd_write@byte,w
  8853     1774  390F               	andlw	15
  8854     1775  00F3               	movwf	??_clcd_write
  8855     1776  3003               	movlw	3
  8856     1777                     u3605:
  8857     1777  1003               	clrc
  8858     1778  0DF3               	rlf	??_clcd_write,f
  8859     1779  3EFF               	addlw	-1
  8860     177A  1D03               	skipz
  8861     177B  2F77               	goto	u3605
  8862     177C  1003               	clrc
  8863     177D  0D73               	rlf	??_clcd_write,w
  8864     177E  0088               	movwf	8	;volatile
  8865     177F                     l3311:
  8866                           
  8867                           ;clcd.c: 15:     RE1 = 1;
  8868     177F  1489               	bsf	9,1	;volatile
  8869     1780                     l3313:
  8870                           
  8871                           ;clcd.c: 16:     _delay((unsigned long)((100)*(20000000/4000000.0)));
  8872     1780  30A6               	movlw	166
  8873     1781  00F3               	movwf	??_clcd_write
  8874     1782                     u4767:
  8875     1782  0BF3               	decfsz	??_clcd_write,f
  8876     1783  2F82               	goto	u4767
  8877     1784  0000               	nop
  8878     1785                     l3315:
  8879                           
  8880                           ;clcd.c: 17:     RE1 = 0;
  8881     1785  1283               	bcf	3,5	;RP0=0, select bank0
  8882     1786  1303               	bcf	3,6	;RP1=0, select bank0
  8883     1787  1089               	bcf	9,1	;volatile
  8884     1788                     l3317:
  8885                           
  8886                           ;clcd.c: 19:     _delay((unsigned long)((4100)*(20000000/4000000.0)));
  8887     1788  301B               	movlw	27
  8888     1789  00F4               	movwf	??_clcd_write+1
  8889     178A  309E               	movlw	158
  8890     178B  00F3               	movwf	??_clcd_write
  8891     178C                     u4777:
  8892     178C  0BF3               	decfsz	??_clcd_write,f
  8893     178D  2F8C               	goto	u4777
  8894     178E  0BF4               	decfsz	??_clcd_write+1,f
  8895     178F  2F8C               	goto	u4777
  8896     1790  0000               	nop
  8897     1791                     l69:
  8898     1791  0008               	return
  8899     1792                     __end_of_clcd_write:
  8900                           
  8901                           	psect	text51
  8902     0C7F                     __ptext51:	
  8903 ;; *************** function ___xxtofl *****************
  8904 ;; Defined at:
  8905 ;;		line 10 in file "/opt/microchip/xc8/v3.10/pic/sources/c99/common/xxtofl.c"
  8906 ;; Parameters:    Size  Location     Type
  8907 ;;  sign            1    wreg     unsigned char 
  8908 ;;  val             4    2[COMMON] long 
  8909 ;; Auto vars:     Size  Location     Type
  8910 ;;  sign            1    0[BANK0 ] unsigned char 
  8911 ;;  arg             4    2[BANK0 ] unsigned long 
  8912 ;;  exp             1    1[BANK0 ] unsigned char 
  8913 ;; Return value:  Size  Location     Type
  8914 ;;                  4    2[COMMON] unsigned char 
  8915 ;; Registers used:
  8916 ;;		wreg, status,2, status,0
  8917 ;; Tracked objects:
  8918 ;;		On entry : 0/0
  8919 ;;		On exit  : 0/0
  8920 ;;		Unchanged: 0/0
  8921 ;; Data sizes:     COMMON   BANK0   BANK1   BANK3   BANK2
  8922 ;;      Params:         4       0       0       0       0
  8923 ;;      Locals:         0       6       0       0       0
  8924 ;;      Temps:          4       0       0       0       0
  8925 ;;      Totals:         8       6       0       0       0
  8926 ;;Total ram usage:       14 bytes
  8927 ;; Hardware stack levels used: 1
  8928 ;; Hardware stack levels required when called: 1
  8929 ;; This function calls:
  8930 ;;		Nothing
  8931 ;; This function is called by:
  8932 ;;		_dashboard
  8933 ;; This function uses a non-reentrant model
  8934 ;;
  8935                           
  8936     0C7F                     ___xxtofl:	
  8937                           ;psect for function ___xxtofl
  8938                           
  8939                           
  8940                           ;incstack = 0
  8941                           ; Regs used in ___xxtofl: [wreg+status,2+status,0]
  8942                           ;___xxtofl@sign stored from wreg
  8943     0C7F  1283               	bcf	3,5	;RP0=0, select bank0
  8944     0C80  1303               	bcf	3,6	;RP1=0, select bank0
  8945     0C81  00A0               	movwf	___xxtofl@sign
  8946     0C82                     l3051:
  8947     0C82  0820               	movf	___xxtofl@sign,w
  8948     0C83  1903               	btfsc	3,2
  8949     0C84  2C86               	goto	u3141
  8950     0C85  2C87               	goto	u3140
  8951     0C86                     u3141:
  8952     0C86  2C9B               	goto	l3057
  8953     0C87                     u3140:
  8954     0C87                     l3053:
  8955     0C87  1FF5               	btfss	___xxtofl@val+3,7
  8956     0C88  2C8A               	goto	u3151
  8957     0C89  2C8B               	goto	u3150
  8958     0C8A                     u3151:
  8959     0C8A  2C9B               	goto	l3057
  8960     0C8B                     u3150:
  8961     0C8B                     l3055:
  8962     0C8B  0972               	comf	___xxtofl@val,w
  8963     0C8C  00A2               	movwf	___xxtofl@arg
  8964     0C8D  0973               	comf	___xxtofl@val+1,w
  8965     0C8E  00A3               	movwf	___xxtofl@arg+1
  8966     0C8F  0974               	comf	___xxtofl@val+2,w
  8967     0C90  00A4               	movwf	___xxtofl@arg+2
  8968     0C91  0975               	comf	___xxtofl@val+3,w
  8969     0C92  00A5               	movwf	___xxtofl@arg+3
  8970     0C93  0AA2               	incf	___xxtofl@arg,f
  8971     0C94  1903               	skipnz
  8972     0C95  0AA3               	incf	___xxtofl@arg+1,f
  8973     0C96  1903               	skipnz
  8974     0C97  0AA4               	incf	___xxtofl@arg+2,f
  8975     0C98  1903               	skipnz
  8976     0C99  0AA5               	incf	___xxtofl@arg+3,f
  8977     0C9A  2CA3               	goto	l1070
  8978     0C9B                     l3057:
  8979     0C9B  0875               	movf	___xxtofl@val+3,w
  8980     0C9C  00A5               	movwf	___xxtofl@arg+3
  8981     0C9D  0874               	movf	___xxtofl@val+2,w
  8982     0C9E  00A4               	movwf	___xxtofl@arg+2
  8983     0C9F  0873               	movf	___xxtofl@val+1,w
  8984     0CA0  00A3               	movwf	___xxtofl@arg+1
  8985     0CA1  0872               	movf	___xxtofl@val,w
  8986     0CA2  00A2               	movwf	___xxtofl@arg
  8987     0CA3                     l1070:
  8988     0CA3  0875               	movf	___xxtofl@val+3,w
  8989     0CA4  0474               	iorwf	___xxtofl@val+2,w
  8990     0CA5  0473               	iorwf	___xxtofl@val+1,w
  8991     0CA6  0472               	iorwf	___xxtofl@val,w
  8992     0CA7  1D03               	skipz
  8993     0CA8  2CAA               	goto	u3161
  8994     0CA9  2CAB               	goto	u3160
  8995     0CAA                     u3161:
  8996     0CAA  2CB4               	goto	l1071
  8997     0CAB                     u3160:
  8998     0CAB                     l3059:
  8999     0CAB  3000               	movlw	0
  9000     0CAC  00F5               	movwf	?___xxtofl+3
  9001     0CAD  3000               	movlw	0
  9002     0CAE  00F4               	movwf	?___xxtofl+2
  9003     0CAF  3000               	movlw	0
  9004     0CB0  00F3               	movwf	?___xxtofl+1
  9005     0CB1  3000               	movlw	0
  9006     0CB2  00F2               	movwf	?___xxtofl
  9007     0CB3  2D34               	goto	l1072
  9008     0CB4                     l1071:
  9009     0CB4  3096               	movlw	150
  9010     0CB5  00A1               	movwf	___xxtofl@exp
  9011     0CB6  2CC2               	goto	l3065
  9012     0CB7                     l3063:
  9013     0CB7  3001               	movlw	1
  9014     0CB8  07A1               	addwf	___xxtofl@exp,f
  9015     0CB9  3001               	movlw	1
  9016     0CBA                     u3175:
  9017     0CBA  1003               	clrc
  9018     0CBB  0CA5               	rrf	___xxtofl@arg+3,f
  9019     0CBC  0CA4               	rrf	___xxtofl@arg+2,f
  9020     0CBD  0CA3               	rrf	___xxtofl@arg+1,f
  9021     0CBE  0CA2               	rrf	___xxtofl@arg,f
  9022     0CBF  3EFF               	addlw	-1
  9023     0CC0  1D03               	skipz
  9024     0CC1  2CBA               	goto	u3175
  9025     0CC2                     l3065:
  9026     0CC2  30FE               	movlw	254
  9027     0CC3  0525               	andwf	___xxtofl@arg+3,w
  9028     0CC4  1D03               	btfss	3,2
  9029     0CC5  2CC7               	goto	u3181
  9030     0CC6  2CC8               	goto	u3180
  9031     0CC7                     u3181:
  9032     0CC7  2CB7               	goto	l3063
  9033     0CC8                     u3180:
  9034     0CC8  2CE2               	goto	l1076
  9035     0CC9                     l3067:
  9036     0CC9  3001               	movlw	1
  9037     0CCA  07A1               	addwf	___xxtofl@exp,f
  9038     0CCB                     l3069:
  9039     0CCB  3001               	movlw	1
  9040     0CCC  07A2               	addwf	___xxtofl@arg,f
  9041     0CCD  3000               	movlw	0
  9042     0CCE  1803               	skipnc
  9043     0CCF  3001               	movlw	1
  9044     0CD0  07A3               	addwf	___xxtofl@arg+1,f
  9045     0CD1  3000               	movlw	0
  9046     0CD2  1803               	skipnc
  9047     0CD3  3001               	movlw	1
  9048     0CD4  07A4               	addwf	___xxtofl@arg+2,f
  9049     0CD5  3000               	movlw	0
  9050     0CD6  1803               	skipnc
  9051     0CD7  3001               	movlw	1
  9052     0CD8  07A5               	addwf	___xxtofl@arg+3,f
  9053     0CD9                     l3071:
  9054     0CD9  3001               	movlw	1
  9055     0CDA                     u3195:
  9056     0CDA  1003               	clrc
  9057     0CDB  0CA5               	rrf	___xxtofl@arg+3,f
  9058     0CDC  0CA4               	rrf	___xxtofl@arg+2,f
  9059     0CDD  0CA3               	rrf	___xxtofl@arg+1,f
  9060     0CDE  0CA2               	rrf	___xxtofl@arg,f
  9061     0CDF  3EFF               	addlw	-1
  9062     0CE0  1D03               	skipz
  9063     0CE1  2CDA               	goto	u3195
  9064     0CE2                     l1076:
  9065     0CE2  30FF               	movlw	255
  9066     0CE3  0525               	andwf	___xxtofl@arg+3,w
  9067     0CE4  1D03               	btfss	3,2
  9068     0CE5  2CE7               	goto	u3201
  9069     0CE6  2CE8               	goto	u3200
  9070     0CE7                     u3201:
  9071     0CE7  2CC9               	goto	l3067
  9072     0CE8                     u3200:
  9073     0CE8  2CF4               	goto	l3075
  9074     0CE9                     l3073:
  9075     0CE9  3001               	movlw	1
  9076     0CEA  02A1               	subwf	___xxtofl@exp,f
  9077     0CEB  3001               	movlw	1
  9078     0CEC  00F6               	movwf	??___xxtofl
  9079     0CED                     u3215:
  9080     0CED  1003               	clrc
  9081     0CEE  0DA2               	rlf	___xxtofl@arg,f
  9082     0CEF  0DA3               	rlf	___xxtofl@arg+1,f
  9083     0CF0  0DA4               	rlf	___xxtofl@arg+2,f
  9084     0CF1  0DA5               	rlf	___xxtofl@arg+3,f
  9085     0CF2  0BF6               	decfsz	??___xxtofl,f
  9086     0CF3  2CED               	goto	u3215
  9087     0CF4                     l3075:
  9088     0CF4  1BA4               	btfsc	___xxtofl@arg+2,7
  9089     0CF5  2CF7               	goto	u3221
  9090     0CF6  2CF8               	goto	u3220
  9091     0CF7                     u3221:
  9092     0CF7  2CFE               	goto	l1083
  9093     0CF8                     u3220:
  9094     0CF8                     l3077:
  9095     0CF8  3002               	movlw	2
  9096     0CF9  0221               	subwf	___xxtofl@exp,w
  9097     0CFA  1803               	skipnc
  9098     0CFB  2CFD               	goto	u3231
  9099     0CFC  2CFE               	goto	u3230
  9100     0CFD                     u3231:
  9101     0CFD  2CE9               	goto	l3073
  9102     0CFE                     u3230:
  9103     0CFE                     l1083:
  9104     0CFE  1821               	btfsc	___xxtofl@exp,0
  9105     0CFF  2D01               	goto	u3241
  9106     0D00  2D02               	goto	u3240
  9107     0D01                     u3241:
  9108     0D01  2D0A               	goto	l1084
  9109     0D02                     u3240:
  9110     0D02                     l3079:
  9111     0D02  30FF               	movlw	255
  9112     0D03  05A2               	andwf	___xxtofl@arg,f
  9113     0D04  30FF               	movlw	255
  9114     0D05  05A3               	andwf	___xxtofl@arg+1,f
  9115     0D06  307F               	movlw	127
  9116     0D07  05A4               	andwf	___xxtofl@arg+2,f
  9117     0D08  30FF               	movlw	255
  9118     0D09  05A5               	andwf	___xxtofl@arg+3,f
  9119     0D0A                     l1084:
  9120     0D0A  1003               	clrc
  9121     0D0B  0CA1               	rrf	___xxtofl@exp,f
  9122     0D0C                     l3081:
  9123     0D0C  0821               	movf	___xxtofl@exp,w
  9124     0D0D  00F6               	movwf	??___xxtofl
  9125     0D0E  01F7               	clrf	??___xxtofl+1
  9126     0D0F  01F8               	clrf	??___xxtofl+2
  9127     0D10  01F9               	clrf	??___xxtofl+3
  9128     0D11  3018               	movlw	24
  9129     0D12                     u3255:
  9130     0D12  1003               	clrc
  9131     0D13  0DF6               	rlf	??___xxtofl,f
  9132     0D14  0DF7               	rlf	??___xxtofl+1,f
  9133     0D15  0DF8               	rlf	??___xxtofl+2,f
  9134     0D16  0DF9               	rlf	??___xxtofl+3,f
  9135     0D17                     u3250:
  9136     0D17  3EFF               	addlw	-1
  9137     0D18  1D03               	skipz
  9138     0D19  2D12               	goto	u3255
  9139     0D1A  0876               	movf	??___xxtofl,w
  9140     0D1B  04A2               	iorwf	___xxtofl@arg,f
  9141     0D1C  0877               	movf	??___xxtofl+1,w
  9142     0D1D  04A3               	iorwf	___xxtofl@arg+1,f
  9143     0D1E  0878               	movf	??___xxtofl+2,w
  9144     0D1F  04A4               	iorwf	___xxtofl@arg+2,f
  9145     0D20  0879               	movf	??___xxtofl+3,w
  9146     0D21  04A5               	iorwf	___xxtofl@arg+3,f
  9147     0D22                     l3083:
  9148     0D22  0820               	movf	___xxtofl@sign,w
  9149     0D23  1903               	btfsc	3,2
  9150     0D24  2D26               	goto	u3261
  9151     0D25  2D27               	goto	u3260
  9152     0D26                     u3261:
  9153     0D26  2D2C               	goto	l3089
  9154     0D27                     u3260:
  9155     0D27                     l3085:
  9156     0D27  1FF5               	btfss	___xxtofl@val+3,7
  9157     0D28  2D2A               	goto	u3271
  9158     0D29  2D2B               	goto	u3270
  9159     0D2A                     u3271:
  9160     0D2A  2D2C               	goto	l3089
  9161     0D2B                     u3270:
  9162     0D2B                     l3087:
  9163     0D2B  17A5               	bsf	___xxtofl@arg+3,7
  9164     0D2C                     l3089:
  9165     0D2C  0825               	movf	___xxtofl@arg+3,w
  9166     0D2D  00F5               	movwf	?___xxtofl+3
  9167     0D2E  0824               	movf	___xxtofl@arg+2,w
  9168     0D2F  00F4               	movwf	?___xxtofl+2
  9169     0D30  0823               	movf	___xxtofl@arg+1,w
  9170     0D31  00F3               	movwf	?___xxtofl+1
  9171     0D32  0822               	movf	___xxtofl@arg,w
  9172     0D33  00F2               	movwf	?___xxtofl
  9173     0D34                     l1072:
  9174     0D34  0008               	return
  9175     0D35                     __end_of___xxtofl:
  9176                           
  9177                           	psect	text52
  9178     086E                     __ptext52:	
  9179 ;; *************** function ___lwdiv *****************
  9180 ;; Defined at:
  9181 ;;		line 5 in file "/opt/microchip/xc8/v3.10/pic/sources/c99/common/lwdiv.c"
  9182 ;; Parameters:    Size  Location     Type
  9183 ;;  divisor         2    2[COMMON] unsigned int 
  9184 ;;  dividend        2    4[COMMON] unsigned int 
  9185 ;; Auto vars:     Size  Location     Type
  9186 ;;  quotient        2    6[COMMON] unsigned int 
  9187 ;;  counter         1    8[COMMON] unsigned char 
  9188 ;; Return value:  Size  Location     Type
  9189 ;;                  2    2[COMMON] unsigned int 
  9190 ;; Registers used:
  9191 ;;		wreg, status,2, status,0
  9192 ;; Tracked objects:
  9193 ;;		On entry : 0/0
  9194 ;;		On exit  : 0/0
  9195 ;;		Unchanged: 0/0
  9196 ;; Data sizes:     COMMON   BANK0   BANK1   BANK3   BANK2
  9197 ;;      Params:         4       0       0       0       0
  9198 ;;      Locals:         3       0       0       0       0
  9199 ;;      Temps:          0       0       0       0       0
  9200 ;;      Totals:         7       0       0       0       0
  9201 ;;Total ram usage:        7 bytes
  9202 ;; Hardware stack levels used: 1
  9203 ;; Hardware stack levels required when called: 1
  9204 ;; This function calls:
  9205 ;;		Nothing
  9206 ;; This function is called by:
  9207 ;;		_dashboard
  9208 ;;		_set_time
  9209 ;;		_run_delay
  9210 ;; This function uses a non-reentrant model
  9211 ;;
  9212                           
  9213     086E                     ___lwdiv:	
  9214                           ;psect for function ___lwdiv
  9215                           
  9216     086E                     l2319:	
  9217                           ;incstack = 0
  9218                           ; Regs used in ___lwdiv: [wreg+status,2+status,0]
  9219                           
  9220     086E  01F6               	clrf	___lwdiv@quotient
  9221     086F  01F7               	clrf	___lwdiv@quotient+1
  9222     0870                     l2321:
  9223     0870  0872               	movf	___lwdiv@divisor,w
  9224     0871  0473               	iorwf	___lwdiv@divisor+1,w
  9225     0872  1903               	btfsc	3,2
  9226     0873  2875               	goto	u1951
  9227     0874  2876               	goto	u1950
  9228     0875                     u1951:
  9229     0875  28AB               	goto	l2341
  9230     0876                     u1950:
  9231     0876                     l2323:
  9232     0876  3001               	movlw	1
  9233     0877  00F8               	movwf	___lwdiv@counter
  9234     0878  2882               	goto	l2329
  9235     0879                     l2325:
  9236     0879  3001               	movlw	1
  9237     087A                     u1965:
  9238     087A  1003               	clrc
  9239     087B  0DF2               	rlf	___lwdiv@divisor,f
  9240     087C  0DF3               	rlf	___lwdiv@divisor+1,f
  9241     087D  3EFF               	addlw	-1
  9242     087E  1D03               	skipz
  9243     087F  287A               	goto	u1965
  9244     0880                     l2327:
  9245     0880  3001               	movlw	1
  9246     0881  07F8               	addwf	___lwdiv@counter,f
  9247     0882                     l2329:
  9248     0882  1FF3               	btfss	___lwdiv@divisor+1,7
  9249     0883  2885               	goto	u1971
  9250     0884  2886               	goto	u1970
  9251     0885                     u1971:
  9252     0885  2879               	goto	l2325
  9253     0886                     u1970:
  9254     0886                     l2331:
  9255     0886  3001               	movlw	1
  9256     0887                     u1985:
  9257     0887  1003               	clrc
  9258     0888  0DF6               	rlf	___lwdiv@quotient,f
  9259     0889  0DF7               	rlf	___lwdiv@quotient+1,f
  9260     088A  3EFF               	addlw	-1
  9261     088B  1D03               	skipz
  9262     088C  2887               	goto	u1985
  9263     088D  0873               	movf	___lwdiv@divisor+1,w
  9264     088E  0275               	subwf	___lwdiv@dividend+1,w
  9265     088F  1D03               	skipz
  9266     0890  2893               	goto	u1995
  9267     0891  0872               	movf	___lwdiv@divisor,w
  9268     0892  0274               	subwf	___lwdiv@dividend,w
  9269     0893                     u1995:
  9270     0893  1C03               	skipc
  9271     0894  2896               	goto	u1991
  9272     0895  2897               	goto	u1990
  9273     0896                     u1991:
  9274     0896  289E               	goto	l2337
  9275     0897                     u1990:
  9276     0897                     l2333:
  9277     0897  0872               	movf	___lwdiv@divisor,w
  9278     0898  02F4               	subwf	___lwdiv@dividend,f
  9279     0899  0873               	movf	___lwdiv@divisor+1,w
  9280     089A  1C03               	skipc
  9281     089B  03F5               	decf	___lwdiv@dividend+1,f
  9282     089C  02F5               	subwf	___lwdiv@dividend+1,f
  9283     089D                     l2335:
  9284     089D  1476               	bsf	___lwdiv@quotient,0
  9285     089E                     l2337:
  9286     089E  3001               	movlw	1
  9287     089F                     u2005:
  9288     089F  1003               	clrc
  9289     08A0  0CF3               	rrf	___lwdiv@divisor+1,f
  9290     08A1  0CF2               	rrf	___lwdiv@divisor,f
  9291     08A2  3EFF               	addlw	-1
  9292     08A3  1D03               	skipz
  9293     08A4  289F               	goto	u2005
  9294     08A5                     l2339:
  9295     08A5  3001               	movlw	1
  9296     08A6  02F8               	subwf	___lwdiv@counter,f
  9297     08A7  1D03               	btfss	3,2
  9298     08A8  28AA               	goto	u2011
  9299     08A9  28AB               	goto	u2010
  9300     08AA                     u2011:
  9301     08AA  2886               	goto	l2331
  9302     08AB                     u2010:
  9303     08AB                     l2341:
  9304     08AB  0877               	movf	___lwdiv@quotient+1,w
  9305     08AC  00F3               	movwf	?___lwdiv+1
  9306     08AD  0876               	movf	___lwdiv@quotient,w
  9307     08AE  00F2               	movwf	?___lwdiv
  9308     08AF                     l909:
  9309     08AF  0008               	return
  9310     08B0                     __end_of___lwdiv:
  9311                           
  9312                           	psect	text53
  9313     0AF0                     __ptext53:	
  9314 ;; *************** function ___fltol *****************
  9315 ;; Defined at:
  9316 ;;		line 43 in file "/opt/microchip/xc8/v3.10/pic/sources/c99/common/fltol.c"
  9317 ;; Parameters:    Size  Location     Type
  9318 ;;  f1              4   32[BANK0 ] unsigned int 
  9319 ;; Auto vars:     Size  Location     Type
  9320 ;;  exp1            1   41[BANK0 ] unsigned char 
  9321 ;;  sign1           1   40[BANK0 ] unsigned char 
  9322 ;; Return value:  Size  Location     Type
  9323 ;;                  4   32[BANK0 ] long 
  9324 ;; Registers used:
  9325 ;;		wreg, status,2, status,0
  9326 ;; Tracked objects:
  9327 ;;		On entry : 0/0
  9328 ;;		On exit  : 0/0
  9329 ;;		Unchanged: 0/0
  9330 ;; Data sizes:     COMMON   BANK0   BANK1   BANK3   BANK2
  9331 ;;      Params:         0       4       0       0       0
  9332 ;;      Locals:         0       2       0       0       0
  9333 ;;      Temps:          0       4       0       0       0
  9334 ;;      Totals:         0      10       0       0       0
  9335 ;;Total ram usage:       10 bytes
  9336 ;; Hardware stack levels used: 1
  9337 ;; Hardware stack levels required when called: 1
  9338 ;; This function calls:
  9339 ;;		Nothing
  9340 ;; This function is called by:
  9341 ;;		_dashboard
  9342 ;; This function uses a non-reentrant model
  9343 ;;
  9344                           
  9345     0AF0                     ___fltol:	
  9346                           ;psect for function ___fltol
  9347                           
  9348     0AF0                     l3811:	
  9349                           ;incstack = 0
  9350                           ; Regs used in ___fltol: [wreg+status,2+status,0]
  9351                           
  9352     0AF0  1003               	clrc
  9353     0AF1  1283               	bcf	3,5	;RP0=0, select bank0
  9354     0AF2  1303               	bcf	3,6	;RP1=0, select bank0
  9355     0AF3  0D42               	rlf	___fltol@f1+2,w
  9356     0AF4  0D43               	rlf	___fltol@f1+3,w
  9357     0AF5  00C9               	movwf	___fltol@exp1
  9358     0AF6  0849               	movf	___fltol@exp1,w
  9359     0AF7  1D03               	btfss	3,2
  9360     0AF8  2AFA               	goto	u4241
  9361     0AF9  2AFB               	goto	u4240
  9362     0AFA                     u4241:
  9363     0AFA  2B04               	goto	l3817
  9364     0AFB                     u4240:
  9365     0AFB                     l3813:
  9366     0AFB  3000               	movlw	0
  9367     0AFC  00C3               	movwf	?___fltol+3
  9368     0AFD  3000               	movlw	0
  9369     0AFE  00C2               	movwf	?___fltol+2
  9370     0AFF  3000               	movlw	0
  9371     0B00  00C1               	movwf	?___fltol+1
  9372     0B01  3000               	movlw	0
  9373     0B02  00C0               	movwf	?___fltol
  9374     0B03  2B65               	goto	l823
  9375     0B04                     l3817:
  9376     0B04  0840               	movf	___fltol@f1,w
  9377     0B05  00C4               	movwf	??___fltol
  9378     0B06  0841               	movf	___fltol@f1+1,w
  9379     0B07  00C5               	movwf	??___fltol+1
  9380     0B08  0842               	movf	___fltol@f1+2,w
  9381     0B09  00C6               	movwf	??___fltol+2
  9382     0B0A  0843               	movf	___fltol@f1+3,w
  9383     0B0B  00C7               	movwf	??___fltol+3
  9384     0B0C  301F               	movlw	31
  9385     0B0D                     u4255:
  9386     0B0D  1003               	clrc
  9387     0B0E  0CC7               	rrf	??___fltol+3,f
  9388     0B0F  0CC6               	rrf	??___fltol+2,f
  9389     0B10  0CC5               	rrf	??___fltol+1,f
  9390     0B11  0CC4               	rrf	??___fltol,f
  9391     0B12                     u4250:
  9392     0B12  3EFF               	addlw	-1
  9393     0B13  1D03               	skipz
  9394     0B14  2B0D               	goto	u4255
  9395     0B15  0844               	movf	??___fltol,w
  9396     0B16  00C8               	movwf	___fltol@sign1
  9397     0B17                     l3819:
  9398     0B17  17C2               	bsf	___fltol@f1+2,7
  9399     0B18                     l3821:
  9400     0B18  30FF               	movlw	255
  9401     0B19  05C0               	andwf	___fltol@f1,f
  9402     0B1A  30FF               	movlw	255
  9403     0B1B  05C1               	andwf	___fltol@f1+1,f
  9404     0B1C  30FF               	movlw	255
  9405     0B1D  05C2               	andwf	___fltol@f1+2,f
  9406     0B1E  3000               	movlw	0
  9407     0B1F  05C3               	andwf	___fltol@f1+3,f
  9408     0B20                     l3823:
  9409     0B20  3096               	movlw	150
  9410     0B21  02C9               	subwf	___fltol@exp1,f
  9411     0B22                     l3825:
  9412     0B22  1FC9               	btfss	___fltol@exp1,7
  9413     0B23  2B25               	goto	u4261
  9414     0B24  2B26               	goto	u4260
  9415     0B25                     u4261:
  9416     0B25  2B3E               	goto	l3835
  9417     0B26                     u4260:
  9418     0B26                     l3827:
  9419     0B26  0849               	movf	___fltol@exp1,w
  9420     0B27  3A80               	xorlw	128
  9421     0B28  3E97               	addlw	151
  9422     0B29  1803               	skipnc
  9423     0B2A  2B2C               	goto	u4271
  9424     0B2B  2B2D               	goto	u4270
  9425     0B2C                     u4271:
  9426     0B2C  2B2E               	goto	l3833
  9427     0B2D                     u4270:
  9428     0B2D  2AFB               	goto	l3813
  9429     0B2E                     l3833:
  9430     0B2E  3001               	movlw	1
  9431     0B2F                     u4285:
  9432     0B2F  1003               	clrc
  9433     0B30  0CC3               	rrf	___fltol@f1+3,f
  9434     0B31  0CC2               	rrf	___fltol@f1+2,f
  9435     0B32  0CC1               	rrf	___fltol@f1+1,f
  9436     0B33  0CC0               	rrf	___fltol@f1,f
  9437     0B34  3EFF               	addlw	-1
  9438     0B35  1D03               	skipz
  9439     0B36  2B2F               	goto	u4285
  9440     0B37  3001               	movlw	1
  9441     0B38  07C9               	addwf	___fltol@exp1,f
  9442     0B39  1D03               	btfss	3,2
  9443     0B3A  2B3C               	goto	u4291
  9444     0B3B  2B3D               	goto	u4290
  9445     0B3C                     u4291:
  9446     0B3C  2B2E               	goto	l3833
  9447     0B3D                     u4290:
  9448     0B3D  2B55               	goto	l3843
  9449     0B3E                     l3835:
  9450     0B3E  3020               	movlw	32
  9451     0B3F  0249               	subwf	___fltol@exp1,w
  9452     0B40  1C03               	skipc
  9453     0B41  2B43               	goto	u4301
  9454     0B42  2B44               	goto	u4300
  9455     0B43                     u4301:
  9456     0B43  2B50               	goto	l830
  9457     0B44                     u4300:
  9458     0B44  2AFB               	goto	l3813
  9459     0B45                     l3841:
  9460     0B45  3001               	movlw	1
  9461     0B46  00C4               	movwf	??___fltol
  9462     0B47                     u4315:
  9463     0B47  1003               	clrc
  9464     0B48  0DC0               	rlf	___fltol@f1,f
  9465     0B49  0DC1               	rlf	___fltol@f1+1,f
  9466     0B4A  0DC2               	rlf	___fltol@f1+2,f
  9467     0B4B  0DC3               	rlf	___fltol@f1+3,f
  9468     0B4C  0BC4               	decfsz	??___fltol,f
  9469     0B4D  2B47               	goto	u4315
  9470     0B4E  3001               	movlw	1
  9471     0B4F  02C9               	subwf	___fltol@exp1,f
  9472     0B50                     l830:
  9473     0B50  0849               	movf	___fltol@exp1,w
  9474     0B51  1D03               	btfss	3,2
  9475     0B52  2B54               	goto	u4321
  9476     0B53  2B55               	goto	u4320
  9477     0B54                     u4321:
  9478     0B54  2B45               	goto	l3841
  9479     0B55                     u4320:
  9480     0B55                     l3843:
  9481     0B55  0848               	movf	___fltol@sign1,w
  9482     0B56  1903               	btfsc	3,2
  9483     0B57  2B59               	goto	u4331
  9484     0B58  2B5A               	goto	u4330
  9485     0B59                     u4331:
  9486     0B59  2B65               	goto	l833
  9487     0B5A                     u4330:
  9488     0B5A                     l3845:
  9489     0B5A  09C0               	comf	___fltol@f1,f
  9490     0B5B  09C1               	comf	___fltol@f1+1,f
  9491     0B5C  09C2               	comf	___fltol@f1+2,f
  9492     0B5D  09C3               	comf	___fltol@f1+3,f
  9493     0B5E  0AC0               	incf	___fltol@f1,f
  9494     0B5F  1903               	skipnz
  9495     0B60  0AC1               	incf	___fltol@f1+1,f
  9496     0B61  1903               	skipnz
  9497     0B62  0AC2               	incf	___fltol@f1+2,f
  9498     0B63  1903               	skipnz
  9499     0B64  0AC3               	incf	___fltol@f1+3,f
  9500     0B65                     l833:
  9501     0B65                     l823:
  9502     0B65  0008               	return
  9503     0B66                     __end_of___fltol:
  9504                           
  9505                           	psect	text54
  9506     0294                     __ptext54:	
  9507 ;; *************** function ___fldiv *****************
  9508 ;; Defined at:
  9509 ;;		line 8 in file "/opt/microchip/xc8/v3.10/pic/sources/c99/common/sprcdiv.c"
  9510 ;; Parameters:    Size  Location     Type
  9511 ;;  a               4    6[BANK0 ] long 
  9512 ;;  b               4   10[BANK0 ] long 
  9513 ;; Auto vars:     Size  Location     Type
  9514 ;;  grs             4   26[BANK0 ] unsigned long 
  9515 ;;  rem             4   19[BANK0 ] unsigned long 
  9516 ;;  new_exp         2   24[BANK0 ] short 
  9517 ;;  aexp            1   31[BANK0 ] unsigned char 
  9518 ;;  bexp            1   30[BANK0 ] unsigned char 
  9519 ;;  sign            1   23[BANK0 ] unsigned char 
  9520 ;; Return value:  Size  Location     Type
  9521 ;;                  4    6[BANK0 ] unsigned char 
  9522 ;; Registers used:
  9523 ;;		wreg, status,2, status,0, btemp1
  9524 ;; Tracked objects:
  9525 ;;		On entry : 0/0
  9526 ;;		On exit  : 0/0
  9527 ;;		Unchanged: 0/0
  9528 ;; Data sizes:     COMMON   BANK0   BANK1   BANK3   BANK2
  9529 ;;      Params:         0       8       0       0       0
  9530 ;;      Locals:         0      13       0       0       0
  9531 ;;      Temps:          0       5       0       0       0
  9532 ;;      Totals:         0      26       0       0       0
  9533 ;;Total ram usage:       26 bytes
  9534 ;; Hardware stack levels used: 1
  9535 ;; Hardware stack levels required when called: 1
  9536 ;; This function calls:
  9537 ;;		Nothing
  9538 ;; This function is called by:
  9539 ;;		_dashboard
  9540 ;; This function uses a non-reentrant model
  9541 ;;
  9542                           
  9543     0294                     ___fldiv:	
  9544                           ;psect for function ___fldiv
  9545                           
  9546     0294                     l2907:	
  9547                           ;incstack = 0
  9548                           ; Regs used in ___fldiv: [wreg+status,2+status,0+btemp1]
  9549                           
  9550     0294  1283               	bcf	3,5	;RP0=0, select bank0
  9551     0295  1303               	bcf	3,6	;RP1=0, select bank0
  9552     0296  082D               	movf	___fldiv@b+3,w
  9553     0297  00B7               	movwf	___fldiv@sign
  9554     0298                     l2909:
  9555     0298  3080               	movlw	128
  9556     0299  05B7               	andwf	___fldiv@sign,f
  9557     029A                     l2911:
  9558     029A  082D               	movf	___fldiv@b+3,w
  9559     029B  00AE               	movwf	??___fldiv
  9560     029C  072E               	addwf	??___fldiv,w
  9561     029D  00BE               	movwf	___fldiv@bexp
  9562     029E                     l2913:
  9563     029E  1FAC               	btfss	___fldiv@b+2,7
  9564     029F  2AA1               	goto	u2851
  9565     02A0  2AA2               	goto	u2850
  9566     02A1                     u2851:
  9567     02A1  2AA3               	goto	l2917
  9568     02A2                     u2850:
  9569     02A2                     l2915:
  9570     02A2  143E               	bsf	___fldiv@bexp,0
  9571     02A3                     l2917:
  9572     02A3  083E               	movf	___fldiv@bexp,w
  9573     02A4  1903               	btfsc	3,2
  9574     02A5  2AA7               	goto	u2861
  9575     02A6  2AA8               	goto	u2860
  9576     02A7                     u2861:
  9577     02A7  2AB8               	goto	l2927
  9578     02A8                     u2860:
  9579     02A8                     l2919:
  9580     02A8  0A3E               	incf	___fldiv@bexp,w
  9581     02A9  1D03               	btfss	3,2
  9582     02AA  2AAC               	goto	u2871
  9583     02AB  2AAD               	goto	u2870
  9584     02AC                     u2871:
  9585     02AC  2AB5               	goto	l2923
  9586     02AD                     u2870:
  9587     02AD                     l2921:
  9588     02AD  3000               	movlw	0
  9589     02AE  00AD               	movwf	___fldiv@b+3
  9590     02AF  3000               	movlw	0
  9591     02B0  00AC               	movwf	___fldiv@b+2
  9592     02B1  3000               	movlw	0
  9593     02B2  00AB               	movwf	___fldiv@b+1
  9594     02B3  3000               	movlw	0
  9595     02B4  00AA               	movwf	___fldiv@b
  9596     02B5                     l2923:
  9597     02B5  17AC               	bsf	___fldiv@b+2,7
  9598     02B6                     l2925:
  9599     02B6  01AD               	clrf	___fldiv@b+3
  9600     02B7  2AC0               	goto	l2929
  9601     02B8                     l2927:
  9602     02B8  3000               	movlw	0
  9603     02B9  00AD               	movwf	___fldiv@b+3
  9604     02BA  3000               	movlw	0
  9605     02BB  00AC               	movwf	___fldiv@b+2
  9606     02BC  3000               	movlw	0
  9607     02BD  00AB               	movwf	___fldiv@b+1
  9608     02BE  3000               	movlw	0
  9609     02BF  00AA               	movwf	___fldiv@b
  9610     02C0                     l2929:
  9611     02C0  0829               	movf	___fldiv@a+3,w
  9612     02C1  3980               	andlw	128
  9613     02C2  06B7               	xorwf	___fldiv@sign,f
  9614     02C3                     l2931:
  9615     02C3  0829               	movf	___fldiv@a+3,w
  9616     02C4  00AE               	movwf	??___fldiv
  9617     02C5  072E               	addwf	??___fldiv,w
  9618     02C6  00BF               	movwf	___fldiv@aexp
  9619     02C7                     l2933:
  9620     02C7  1FA8               	btfss	___fldiv@a+2,7
  9621     02C8  2ACA               	goto	u2881
  9622     02C9  2ACB               	goto	u2880
  9623     02CA                     u2881:
  9624     02CA  2ACC               	goto	l2937
  9625     02CB                     u2880:
  9626     02CB                     l2935:
  9627     02CB  143F               	bsf	___fldiv@aexp,0
  9628     02CC                     l2937:
  9629     02CC  083F               	movf	___fldiv@aexp,w
  9630     02CD  1903               	btfsc	3,2
  9631     02CE  2AD0               	goto	u2891
  9632     02CF  2AD1               	goto	u2890
  9633     02D0                     u2891:
  9634     02D0  2AE1               	goto	l2947
  9635     02D1                     u2890:
  9636     02D1                     l2939:
  9637     02D1  0A3F               	incf	___fldiv@aexp,w
  9638     02D2  1D03               	btfss	3,2
  9639     02D3  2AD5               	goto	u2901
  9640     02D4  2AD6               	goto	u2900
  9641     02D5                     u2901:
  9642     02D5  2ADE               	goto	l2943
  9643     02D6                     u2900:
  9644     02D6                     l2941:
  9645     02D6  3000               	movlw	0
  9646     02D7  00A9               	movwf	___fldiv@a+3
  9647     02D8  3000               	movlw	0
  9648     02D9  00A8               	movwf	___fldiv@a+2
  9649     02DA  3000               	movlw	0
  9650     02DB  00A7               	movwf	___fldiv@a+1
  9651     02DC  3000               	movlw	0
  9652     02DD  00A6               	movwf	___fldiv@a
  9653     02DE                     l2943:
  9654     02DE  17A8               	bsf	___fldiv@a+2,7
  9655     02DF                     l2945:
  9656     02DF  01A9               	clrf	___fldiv@a+3
  9657     02E0  2AE9               	goto	l986
  9658     02E1                     l2947:
  9659     02E1  3000               	movlw	0
  9660     02E2  00A9               	movwf	___fldiv@a+3
  9661     02E3  3000               	movlw	0
  9662     02E4  00A8               	movwf	___fldiv@a+2
  9663     02E5  3000               	movlw	0
  9664     02E6  00A7               	movwf	___fldiv@a+1
  9665     02E7  3000               	movlw	0
  9666     02E8  00A6               	movwf	___fldiv@a
  9667     02E9                     l986:
  9668     02E9  0829               	movf	___fldiv@a+3,w
  9669     02EA  0428               	iorwf	___fldiv@a+2,w
  9670     02EB  0427               	iorwf	___fldiv@a+1,w
  9671     02EC  0426               	iorwf	___fldiv@a,w
  9672     02ED  1D03               	skipz
  9673     02EE  2AF0               	goto	u2911
  9674     02EF  2AF1               	goto	u2910
  9675     02F0                     u2911:
  9676     02F0  2B08               	goto	l2957
  9677     02F1                     u2910:
  9678     02F1                     l2949:
  9679     02F1  3000               	movlw	0
  9680     02F2  00AD               	movwf	___fldiv@b+3
  9681     02F3  3000               	movlw	0
  9682     02F4  00AC               	movwf	___fldiv@b+2
  9683     02F5  3000               	movlw	0
  9684     02F6  00AB               	movwf	___fldiv@b+1
  9685     02F7  3000               	movlw	0
  9686     02F8  00AA               	movwf	___fldiv@b
  9687     02F9  3080               	movlw	128
  9688     02FA  04AC               	iorwf	___fldiv@b+2,f
  9689     02FB  307F               	movlw	127
  9690     02FC  04AD               	iorwf	___fldiv@b+3,f
  9691     02FD                     l2951:
  9692     02FD  0837               	movf	___fldiv@sign,w
  9693     02FE  04AD               	iorwf	___fldiv@b+3,f
  9694     02FF                     l2953:
  9695     02FF  082D               	movf	___fldiv@b+3,w
  9696     0300  00A9               	movwf	?___fldiv+3
  9697     0301  082C               	movf	___fldiv@b+2,w
  9698     0302  00A8               	movwf	?___fldiv+2
  9699     0303  082B               	movf	___fldiv@b+1,w
  9700     0304  00A7               	movwf	?___fldiv+1
  9701     0305  082A               	movf	___fldiv@b,w
  9702     0306  00A6               	movwf	?___fldiv
  9703     0307  2C5D               	goto	l988
  9704     0308                     l2957:
  9705     0308  083E               	movf	___fldiv@bexp,w
  9706     0309  1D03               	btfss	3,2
  9707     030A  2B0C               	goto	u2921
  9708     030B  2B0D               	goto	u2920
  9709     030C                     u2921:
  9710     030C  2B16               	goto	l2963
  9711     030D                     u2920:
  9712     030D                     l2959:
  9713     030D  3000               	movlw	0
  9714     030E  00A9               	movwf	?___fldiv+3
  9715     030F  3000               	movlw	0
  9716     0310  00A8               	movwf	?___fldiv+2
  9717     0311  3000               	movlw	0
  9718     0312  00A7               	movwf	?___fldiv+1
  9719     0313  3000               	movlw	0
  9720     0314  00A6               	movwf	?___fldiv
  9721     0315  2C5D               	goto	l988
  9722     0316                     l2963:
  9723     0316  083E               	movf	___fldiv@bexp,w
  9724     0317  00AE               	movwf	??___fldiv
  9725     0318  01AF               	clrf	??___fldiv+1
  9726     0319  082F               	movf	??___fldiv+1,w
  9727     031A  00B1               	movwf	??___fldiv+3
  9728     031B  083F               	movf	___fldiv@aexp,w
  9729     031C  022E               	subwf	??___fldiv,w
  9730     031D  00B0               	movwf	??___fldiv+2
  9731     031E  1C03               	skipc
  9732     031F  03B1               	decf	??___fldiv+3,f
  9733     0320  0830               	movf	??___fldiv+2,w
  9734     0321  3E7F               	addlw	127
  9735     0322  00B8               	movwf	___fldiv@new_exp
  9736     0323  0831               	movf	??___fldiv+3,w
  9737     0324  1803               	skipnc
  9738     0325  3E01               	addlw	1
  9739     0326  3E00               	addlw	0
  9740     0327  00B9               	movwf	___fldiv@new_exp+1
  9741     0328                     l2965:
  9742     0328  082D               	movf	___fldiv@b+3,w
  9743     0329  00B6               	movwf	___fldiv@rem+3
  9744     032A  082C               	movf	___fldiv@b+2,w
  9745     032B  00B5               	movwf	___fldiv@rem+2
  9746     032C  082B               	movf	___fldiv@b+1,w
  9747     032D  00B4               	movwf	___fldiv@rem+1
  9748     032E  082A               	movf	___fldiv@b,w
  9749     032F  00B3               	movwf	___fldiv@rem
  9750     0330                     l2967:
  9751     0330  3000               	movlw	0
  9752     0331  00AD               	movwf	___fldiv@b+3
  9753     0332  3000               	movlw	0
  9754     0333  00AC               	movwf	___fldiv@b+2
  9755     0334  3000               	movlw	0
  9756     0335  00AB               	movwf	___fldiv@b+1
  9757     0336  3000               	movlw	0
  9758     0337  00AA               	movwf	___fldiv@b
  9759     0338                     l2969:
  9760     0338  3000               	movlw	0
  9761     0339  00BD               	movwf	___fldiv@grs+3
  9762     033A  3000               	movlw	0
  9763     033B  00BC               	movwf	___fldiv@grs+2
  9764     033C  3000               	movlw	0
  9765     033D  00BB               	movwf	___fldiv@grs+1
  9766     033E  3000               	movlw	0
  9767     033F  00BA               	movwf	___fldiv@grs
  9768     0340                     l2971:
  9769     0340  01BF               	clrf	___fldiv@aexp
  9770     0341  2B8A               	goto	l2991
  9771     0342                     l2973:
  9772     0342  083F               	movf	___fldiv@aexp,w
  9773     0343  1903               	btfsc	3,2
  9774     0344  2B46               	goto	u2931
  9775     0345  2B47               	goto	u2930
  9776     0346                     u2931:
  9777     0346  2B67               	goto	l2983
  9778     0347                     u2930:
  9779     0347                     l2975:
  9780     0347  3001               	movlw	1
  9781     0348  00AE               	movwf	??___fldiv
  9782     0349                     u2945:
  9783     0349  1003               	clrc
  9784     034A  0DB3               	rlf	___fldiv@rem,f
  9785     034B  0DB4               	rlf	___fldiv@rem+1,f
  9786     034C  0DB5               	rlf	___fldiv@rem+2,f
  9787     034D  0DB6               	rlf	___fldiv@rem+3,f
  9788     034E  0BAE               	decfsz	??___fldiv,f
  9789     034F  2B49               	goto	u2945
  9790     0350  3001               	movlw	1
  9791     0351  00AE               	movwf	??___fldiv
  9792     0352                     u2955:
  9793     0352  1003               	clrc
  9794     0353  0DAA               	rlf	___fldiv@b,f
  9795     0354  0DAB               	rlf	___fldiv@b+1,f
  9796     0355  0DAC               	rlf	___fldiv@b+2,f
  9797     0356  0DAD               	rlf	___fldiv@b+3,f
  9798     0357  0BAE               	decfsz	??___fldiv,f
  9799     0358  2B52               	goto	u2955
  9800     0359                     l2977:
  9801     0359  1FBD               	btfss	___fldiv@grs+3,7
  9802     035A  2B5C               	goto	u2961
  9803     035B  2B5D               	goto	u2960
  9804     035C                     u2961:
  9805     035C  2B5E               	goto	l2981
  9806     035D                     u2960:
  9807     035D                     l2979:
  9808     035D  142A               	bsf	___fldiv@b,0
  9809     035E                     l2981:
  9810     035E  3001               	movlw	1
  9811     035F  00AE               	movwf	??___fldiv
  9812     0360                     u2975:
  9813     0360  1003               	clrc
  9814     0361  0DBA               	rlf	___fldiv@grs,f
  9815     0362  0DBB               	rlf	___fldiv@grs+1,f
  9816     0363  0DBC               	rlf	___fldiv@grs+2,f
  9817     0364  0DBD               	rlf	___fldiv@grs+3,f
  9818     0365  0BAE               	decfsz	??___fldiv,f
  9819     0366  2B60               	goto	u2975
  9820     0367                     l2983:
  9821     0367  0829               	movf	___fldiv@a+3,w
  9822     0368  0236               	subwf	___fldiv@rem+3,w
  9823     0369  1D03               	skipz
  9824     036A  2B75               	goto	u2985
  9825     036B  0828               	movf	___fldiv@a+2,w
  9826     036C  0235               	subwf	___fldiv@rem+2,w
  9827     036D  1D03               	skipz
  9828     036E  2B75               	goto	u2985
  9829     036F  0827               	movf	___fldiv@a+1,w
  9830     0370  0234               	subwf	___fldiv@rem+1,w
  9831     0371  1D03               	skipz
  9832     0372  2B75               	goto	u2985
  9833     0373  0826               	movf	___fldiv@a,w
  9834     0374  0233               	subwf	___fldiv@rem,w
  9835     0375                     u2985:
  9836     0375  1C03               	skipc
  9837     0376  2B78               	goto	u2981
  9838     0377  2B79               	goto	u2980
  9839     0378                     u2981:
  9840     0378  2B88               	goto	l2989
  9841     0379                     u2980:
  9842     0379                     l2985:
  9843     0379  173D               	bsf	___fldiv@grs+3,6
  9844     037A                     l2987:
  9845     037A  0826               	movf	___fldiv@a,w
  9846     037B  02B3               	subwf	___fldiv@rem,f
  9847     037C  0827               	movf	___fldiv@a+1,w
  9848     037D  1C03               	skipc
  9849     037E  0F27               	incfsz	___fldiv@a+1,w
  9850     037F  02B4               	subwf	___fldiv@rem+1,f
  9851     0380  0828               	movf	___fldiv@a+2,w
  9852     0381  1C03               	skipc
  9853     0382  0F28               	incfsz	___fldiv@a+2,w
  9854     0383  02B5               	subwf	___fldiv@rem+2,f
  9855     0384  0829               	movf	___fldiv@a+3,w
  9856     0385  1C03               	skipc
  9857     0386  0F29               	incfsz	___fldiv@a+3,w
  9858     0387  02B6               	subwf	___fldiv@rem+3,f
  9859     0388                     l2989:
  9860     0388  3001               	movlw	1
  9861     0389  07BF               	addwf	___fldiv@aexp,f
  9862     038A                     l2991:
  9863     038A  301A               	movlw	26
  9864     038B  023F               	subwf	___fldiv@aexp,w
  9865     038C  1C03               	skipc
  9866     038D  2B8F               	goto	u2991
  9867     038E  2B90               	goto	u2990
  9868     038F                     u2991:
  9869     038F  2B42               	goto	l2973
  9870     0390                     u2990:
  9871     0390                     l2993:
  9872     0390  0836               	movf	___fldiv@rem+3,w
  9873     0391  0435               	iorwf	___fldiv@rem+2,w
  9874     0392  0434               	iorwf	___fldiv@rem+1,w
  9875     0393  0433               	iorwf	___fldiv@rem,w
  9876     0394  1903               	skipnz
  9877     0395  2B97               	goto	u3001
  9878     0396  2B98               	goto	u3000
  9879     0397                     u3001:
  9880     0397  2BB7               	goto	l3007
  9881     0398                     u3000:
  9882     0398                     l2995:
  9883     0398  143A               	bsf	___fldiv@grs,0
  9884     0399  2BB7               	goto	l3007
  9885     039A                     l2997:
  9886     039A  3001               	movlw	1
  9887     039B  00AE               	movwf	??___fldiv
  9888     039C                     u3015:
  9889     039C  1003               	clrc
  9890     039D  0DAA               	rlf	___fldiv@b,f
  9891     039E  0DAB               	rlf	___fldiv@b+1,f
  9892     039F  0DAC               	rlf	___fldiv@b+2,f
  9893     03A0  0DAD               	rlf	___fldiv@b+3,f
  9894     03A1  0BAE               	decfsz	??___fldiv,f
  9895     03A2  2B9C               	goto	u3015
  9896     03A3                     l2999:
  9897     03A3  1FBD               	btfss	___fldiv@grs+3,7
  9898     03A4  2BA6               	goto	u3021
  9899     03A5  2BA7               	goto	u3020
  9900     03A6                     u3021:
  9901     03A6  2BA8               	goto	l3003
  9902     03A7                     u3020:
  9903     03A7                     l3001:
  9904     03A7  142A               	bsf	___fldiv@b,0
  9905     03A8                     l3003:
  9906     03A8  3001               	movlw	1
  9907     03A9  00AE               	movwf	??___fldiv
  9908     03AA                     u3035:
  9909     03AA  1003               	clrc
  9910     03AB  0DBA               	rlf	___fldiv@grs,f
  9911     03AC  0DBB               	rlf	___fldiv@grs+1,f
  9912     03AD  0DBC               	rlf	___fldiv@grs+2,f
  9913     03AE  0DBD               	rlf	___fldiv@grs+3,f
  9914     03AF  0BAE               	decfsz	??___fldiv,f
  9915     03B0  2BAA               	goto	u3035
  9916     03B1                     l3005:
  9917     03B1  30FF               	movlw	255
  9918     03B2  07B8               	addwf	___fldiv@new_exp,f
  9919     03B3  1803               	skipnc
  9920     03B4  0AB9               	incf	___fldiv@new_exp+1,f
  9921     03B5  30FF               	movlw	255
  9922     03B6  07B9               	addwf	___fldiv@new_exp+1,f
  9923     03B7                     l3007:
  9924     03B7  1FAC               	btfss	___fldiv@b+2,7
  9925     03B8  2BBA               	goto	u3041
  9926     03B9  2BBB               	goto	u3040
  9927     03BA                     u3041:
  9928     03BA  2B9A               	goto	l2997
  9929     03BB                     u3040:
  9930     03BB                     l3009:
  9931     03BB  01BF               	clrf	___fldiv@aexp
  9932     03BC                     l3011:
  9933     03BC  1FBD               	btfss	___fldiv@grs+3,7
  9934     03BD  2BBF               	goto	u3051
  9935     03BE  2BC0               	goto	u3050
  9936     03BF                     u3051:
  9937     03BF  2BDC               	goto	l3019
  9938     03C0                     u3050:
  9939     03C0                     l3013:
  9940     03C0  30FF               	movlw	255
  9941     03C1  053A               	andwf	___fldiv@grs,w
  9942     03C2  00AE               	movwf	??___fldiv
  9943     03C3  30FF               	movlw	255
  9944     03C4  053B               	andwf	___fldiv@grs+1,w
  9945     03C5  00AF               	movwf	??___fldiv+1
  9946     03C6  30FF               	movlw	255
  9947     03C7  053C               	andwf	___fldiv@grs+2,w
  9948     03C8  00B0               	movwf	??___fldiv+2
  9949     03C9  307F               	movlw	127
  9950     03CA  053D               	andwf	___fldiv@grs+3,w
  9951     03CB  00B1               	movwf	??___fldiv+3
  9952     03CC  0831               	movf	??___fldiv+3,w
  9953     03CD  0430               	iorwf	??___fldiv+2,w
  9954     03CE  042F               	iorwf	??___fldiv+1,w
  9955     03CF  042E               	iorwf	??___fldiv,w
  9956     03D0  1903               	skipnz
  9957     03D1  2BD3               	goto	u3061
  9958     03D2  2BD4               	goto	u3060
  9959     03D3                     u3061:
  9960     03D3  2BD7               	goto	l1002
  9961     03D4                     u3060:
  9962     03D4                     l3015:
  9963     03D4  3001               	movlw	1
  9964     03D5  00BF               	movwf	___fldiv@aexp
  9965     03D6  2BDC               	goto	l3019
  9966     03D7                     l1002:
  9967     03D7  1C2A               	btfss	___fldiv@b,0
  9968     03D8  2BDA               	goto	u3071
  9969     03D9  2BDB               	goto	u3070
  9970     03DA                     u3071:
  9971     03DA  2BDC               	goto	l3019
  9972     03DB                     u3070:
  9973     03DB  2BD4               	goto	l3015
  9974     03DC                     l3019:
  9975     03DC  083F               	movf	___fldiv@aexp,w
  9976     03DD  1903               	btfsc	3,2
  9977     03DE  2BE0               	goto	u3081
  9978     03DF  2BE1               	goto	u3080
  9979     03E0                     u3081:
  9980     03E0  2C12               	goto	l3029
  9981     03E1                     u3080:
  9982     03E1                     l3021:
  9983     03E1  3001               	movlw	1
  9984     03E2  07AA               	addwf	___fldiv@b,f
  9985     03E3  3000               	movlw	0
  9986     03E4  1803               	skipnc
  9987     03E5  3001               	movlw	1
  9988     03E6  07AB               	addwf	___fldiv@b+1,f
  9989     03E7  3000               	movlw	0
  9990     03E8  1803               	skipnc
  9991     03E9  3001               	movlw	1
  9992     03EA  07AC               	addwf	___fldiv@b+2,f
  9993     03EB  3000               	movlw	0
  9994     03EC  1803               	skipnc
  9995     03ED  3001               	movlw	1
  9996     03EE  07AD               	addwf	___fldiv@b+3,f
  9997     03EF                     l3023:
  9998     03EF  1C2D               	btfss	___fldiv@b+3,0
  9999     03F0  2BF2               	goto	u3091
 10000     03F1  2BF3               	goto	u3090
 10001     03F2                     u3091:
 10002     03F2  2C12               	goto	l3029
 10003     03F3                     u3090:
 10004     03F3                     l3025:
 10005     03F3  082A               	movf	___fldiv@b,w
 10006     03F4  00AE               	movwf	??___fldiv
 10007     03F5  082B               	movf	___fldiv@b+1,w
 10008     03F6  00AF               	movwf	??___fldiv+1
 10009     03F7  082C               	movf	___fldiv@b+2,w
 10010     03F8  00B0               	movwf	??___fldiv+2
 10011     03F9  082D               	movf	___fldiv@b+3,w
 10012     03FA  00B1               	movwf	??___fldiv+3
 10013     03FB  3001               	movlw	1
 10014     03FC  00B2               	movwf	??___fldiv+4
 10015     03FD                     u3105:
 10016     03FD  0D31               	rlf	??___fldiv+3,w
 10017     03FE  0CB1               	rrf	??___fldiv+3,f
 10018     03FF  0CB0               	rrf	??___fldiv+2,f
 10019     0400  0CAF               	rrf	??___fldiv+1,f
 10020     0401  0CAE               	rrf	??___fldiv,f
 10021     0402                     u3100:
 10022     0402  0BB2               	decfsz	??___fldiv+4,f
 10023     0403  2BFD               	goto	u3105
 10024     0404  0831               	movf	??___fldiv+3,w
 10025     0405  00AD               	movwf	___fldiv@b+3
 10026     0406  0830               	movf	??___fldiv+2,w
 10027     0407  00AC               	movwf	___fldiv@b+2
 10028     0408  082F               	movf	??___fldiv+1,w
 10029     0409  00AB               	movwf	___fldiv@b+1
 10030     040A  082E               	movf	??___fldiv,w
 10031     040B  00AA               	movwf	___fldiv@b
 10032     040C                     l3027:
 10033     040C  3001               	movlw	1
 10034     040D  07B8               	addwf	___fldiv@new_exp,f
 10035     040E  1803               	skipnc
 10036     040F  0AB9               	incf	___fldiv@new_exp+1,f
 10037     0410  3000               	movlw	0
 10038     0411  07B9               	addwf	___fldiv@new_exp+1,f
 10039     0412                     l3029:
 10040     0412  0839               	movf	___fldiv@new_exp+1,w
 10041     0413  3A80               	xorlw	128
 10042     0414  00FF               	movwf	btemp1
 10043     0415  3080               	movlw	128
 10044     0416  027F               	subwf	btemp1,w
 10045     0417  1D03               	skipz
 10046     0418  2C1B               	goto	u3115
 10047     0419  30FF               	movlw	255
 10048     041A  0238               	subwf	___fldiv@new_exp,w
 10049     041B                     u3115:
 10050     041B  1C03               	skipc
 10051     041C  2C1E               	goto	u3111
 10052     041D  2C1F               	goto	u3110
 10053     041E                     u3111:
 10054     041E  2C2D               	goto	l3033
 10055     041F                     u3110:
 10056     041F                     l3031:
 10057     041F  30FF               	movlw	255
 10058     0420  1283               	bcf	3,5	;RP0=0, select bank0
 10059     0421  1303               	bcf	3,6	;RP1=0, select bank0
 10060     0422  00B8               	movwf	___fldiv@new_exp
 10061     0423  3000               	movlw	0
 10062     0424  00B9               	movwf	___fldiv@new_exp+1
 10063     0425  3000               	movlw	0
 10064     0426  00AD               	movwf	___fldiv@b+3
 10065     0427  3000               	movlw	0
 10066     0428  00AC               	movwf	___fldiv@b+2
 10067     0429  3000               	movlw	0
 10068     042A  00AB               	movwf	___fldiv@b+1
 10069     042B  3000               	movlw	0
 10070     042C  00AA               	movwf	___fldiv@b
 10071     042D                     l3033:
 10072     042D  1283               	bcf	3,5	;RP0=0, select bank0
 10073     042E  1303               	bcf	3,6	;RP1=0, select bank0
 10074     042F  0839               	movf	___fldiv@new_exp+1,w
 10075     0430  3A80               	xorlw	128
 10076     0431  00FF               	movwf	btemp1
 10077     0432  3080               	movlw	128
 10078     0433  027F               	subwf	btemp1,w
 10079     0434  1D03               	skipz
 10080     0435  2C38               	goto	u3125
 10081     0436  3001               	movlw	1
 10082     0437  0238               	subwf	___fldiv@new_exp,w
 10083     0438                     u3125:
 10084     0438  1803               	skipnc
 10085     0439  2C3B               	goto	u3121
 10086     043A  2C3C               	goto	u3120
 10087     043B                     u3121:
 10088     043B  2C49               	goto	l1008
 10089     043C                     u3120:
 10090     043C                     l3035:
 10091     043C  1283               	bcf	3,5	;RP0=0, select bank0
 10092     043D  1303               	bcf	3,6	;RP1=0, select bank0
 10093     043E  01B8               	clrf	___fldiv@new_exp
 10094     043F  01B9               	clrf	___fldiv@new_exp+1
 10095     0440                     l3037:
 10096     0440  3000               	movlw	0
 10097     0441  00AD               	movwf	___fldiv@b+3
 10098     0442  3000               	movlw	0
 10099     0443  00AC               	movwf	___fldiv@b+2
 10100     0444  3000               	movlw	0
 10101     0445  00AB               	movwf	___fldiv@b+1
 10102     0446  3000               	movlw	0
 10103     0447  00AA               	movwf	___fldiv@b
 10104     0448                     l3039:
 10105     0448  01B7               	clrf	___fldiv@sign
 10106     0449                     l1008:
 10107     0449  1283               	bcf	3,5	;RP0=0, select bank0
 10108     044A  1303               	bcf	3,6	;RP1=0, select bank0
 10109     044B  0838               	movf	___fldiv@new_exp,w
 10110     044C  00BE               	movwf	___fldiv@bexp
 10111     044D                     l3041:
 10112     044D  1C3E               	btfss	___fldiv@bexp,0
 10113     044E  2C50               	goto	u3131
 10114     044F  2C51               	goto	u3130
 10115     0450                     u3131:
 10116     0450  2C53               	goto	l3045
 10117     0451                     u3130:
 10118     0451                     l3043:
 10119     0451  17AC               	bsf	___fldiv@b+2,7
 10120     0452  2C55               	goto	l1010
 10121     0453                     l3045:
 10122     0453  307F               	movlw	127
 10123     0454  05AC               	andwf	___fldiv@b+2,f
 10124     0455                     l1010:
 10125     0455  083E               	movf	___fldiv@bexp,w
 10126     0456  00AE               	movwf	??___fldiv
 10127     0457  1003               	clrc
 10128     0458  0C2E               	rrf	??___fldiv,w
 10129     0459  00AD               	movwf	___fldiv@b+3
 10130     045A  0837               	movf	___fldiv@sign,w
 10131     045B  04AD               	iorwf	___fldiv@b+3,f
 10132     045C  2AFF               	goto	l2953
 10133     045D                     l988:
 10134     045D  0008               	return
 10135     045E                     __end_of___fldiv:
 10136                           
 10137                           	psect	text55
 10138     15C0                     __ptext55:	
 10139 ;; *************** function _isr *****************
 10140 ;; Defined at:
 10141 ;;		line 7 in file "isr.c"
 10142 ;; Parameters:    Size  Location     Type
 10143 ;;		None
 10144 ;; Auto vars:     Size  Location     Type
 10145 ;;		None
 10146 ;; Return value:  Size  Location     Type
 10147 ;;                  1    wreg      void 
 10148 ;; Registers used:
 10149 ;;		wreg, status,2, status,0
 10150 ;; Tracked objects:
 10151 ;;		On entry : 0/0
 10152 ;;		On exit  : 0/0
 10153 ;;		Unchanged: 0/0
 10154 ;; Data sizes:     COMMON   BANK0   BANK1   BANK3   BANK2
 10155 ;;      Params:         0       0       0       0       0
 10156 ;;      Locals:         0       0       0       0       0
 10157 ;;      Temps:          2       0       0       0       0
 10158 ;;      Totals:         2       0       0       0       0
 10159 ;;Total ram usage:        2 bytes
 10160 ;; Hardware stack levels used: 1
 10161 ;; This function calls:
 10162 ;;		Nothing
 10163 ;; This function is called by:
 10164 ;;		Interrupt level 1
 10165 ;; This function uses a non-reentrant model
 10166 ;;
 10167                           
 10168     15C0                     _isr:	
 10169                           ;psect for function _isr
 10170                           
 10171     15C0                     i1l3253:
 10172                           
 10173                           ;isr.c: 9:     static unsigned int count = 0;;isr.c: 11:     if (TMR0IF == 1)
 10174     15C0  1D0B               	btfss	11,2	;volatile
 10175     15C1  2DC3               	goto	u353_21
 10176     15C2  2DC4               	goto	u353_20
 10177     15C3                     u353_21:
 10178     15C3  2DE1               	goto	i1l543
 10179     15C4                     u353_20:
 10180     15C4                     i1l3255:
 10181                           
 10182                           ;isr.c: 12:     {;isr.c: 14:         TMR0 = TMR0 + 6 + 2;
 10183     15C4  1283               	bcf	3,5	;RP0=0, select bank0
 10184     15C5  1303               	bcf	3,6	;RP1=0, select bank0
 10185     15C6  0801               	movf	1,w	;volatile
 10186     15C7  3E08               	addlw	8
 10187     15C8  0081               	movwf	1	;volatile
 10188                           
 10189                           ;isr.c: 16:         if (++count == 20000)
 10190     15C9  3001               	movlw	1
 10191     15CA  07CF               	addwf	isr@count,f
 10192     15CB  1803               	skipnc
 10193     15CC  0AD0               	incf	isr@count+1,f
 10194     15CD  3000               	movlw	0
 10195     15CE  07D0               	addwf	isr@count+1,f
 10196     15CF  3020               	movlw	32
 10197     15D0  064F               	xorwf	isr@count,w
 10198     15D1  304E               	movlw	78
 10199     15D2  1903               	skipnz
 10200     15D3  0650               	xorwf	isr@count+1,w
 10201     15D4  1D03               	btfss	3,2
 10202     15D5  2DD7               	goto	u354_21
 10203     15D6  2DD8               	goto	u354_20
 10204     15D7                     u354_21:
 10205     15D7  2DE0               	goto	i1l3261
 10206     15D8                     u354_20:
 10207     15D8                     i1l3257:
 10208                           
 10209                           ;isr.c: 17:         {;isr.c: 18:             count = 0;
 10210     15D8  01CF               	clrf	isr@count
 10211     15D9  01D0               	clrf	isr@count+1
 10212     15DA                     i1l3259:
 10213                           
 10214                           ;isr.c: 20:             delay--;
 10215     15DA  3001               	movlw	1
 10216     15DB  02EB               	subwf	_delay,f
 10217     15DC  3000               	movlw	0
 10218     15DD  1C03               	skipc
 10219     15DE  03EC               	decf	_delay+1,f
 10220     15DF  02EC               	subwf	_delay+1,f
 10221     15E0                     i1l3261:
 10222                           
 10223                           ;isr.c: 23:         TMR0IF = 0;
 10224     15E0  110B               	bcf	11,2	;volatile
 10225     15E1                     i1l543:
 10226     15E1  0871               	movf	??_isr+1,w
 10227     15E2  008A               	movwf	10
 10228     15E3  0E70               	swapf	??_isr,w
 10229     15E4  0083               	movwf	3
 10230     15E5  0EFE               	swapf	btemp,f
 10231     15E6  0E7E               	swapf	btemp,w
 10232     15E7  0009               	retfie
 10233     15E8                     __end_of_isr:
 10234     0002                     ___latbits      equ	2
 10235     007E                     btemp           set	126	;btemp
 10236     007E                     btemp0          set	126
 10237     007F                     btemp1          set	127
 10238     007E                     wtemp0          set	126
 10239     007F                     wtemp0a         set	127
 10240     007F                     ttemp0a         set	127
 10241     0080                     ltemp0a         set	128
 10242                           
 10243                           	psect	intentry
 10244     0004                     __pintentry:	
 10245                           ;incstack = 0
 10246 ;; hardware stack exceeded
 10247                           ; Regs used in _isr: [wreg+status,2+status,0]
 10248                           
 10249     0004                     interrupt_function:
 10250     007E                     saved_w         set	btemp
 10251     0004  00FE               	movwf	btemp
 10252     0005  0E03               	swapf	3,w
 10253     0006  00F0               	movwf	??_isr
 10254     0007  080A               	movf	10,w
 10255     0008  00F1               	movwf	??_isr+1
 10256     0009  160A  118A  2DC0   	ljmp	_isr
 10257                           
 10258                           	psect	idloc
 10259                           
 10260                           ;Config register IDLOC0 @ 0x2000
 10261                           ;	unspecified, using default values
 10262     2000                     	org	8192
 10263     2000  3FFF               	dw	16383
 10264                           
 10265                           ;Config register IDLOC1 @ 0x2001
 10266                           ;	unspecified, using default values
 10267     2001                     	org	8193
 10268     2001  3FFF               	dw	16383
 10269                           
 10270                           ;Config register IDLOC2 @ 0x2002
 10271                           ;	unspecified, using default values
 10272     2002                     	org	8194
 10273     2002  3FFF               	dw	16383
 10274                           
 10275                           ;Config register IDLOC3 @ 0x2003
 10276                           ;	unspecified, using default values
 10277     2003                     	org	8195
 10278     2003  3FFF               	dw	16383
 10279                           
 10280                           	psect	config
 10281                           
 10282                           ;Config register CONFIG @ 0x2007
 10283                           ;	Oscillator Selection bits
 10284                           ;	FOSC = 0x3, unprogrammed default
 10285                           ;	Watchdog Timer Enable bit
 10286                           ;	WDTE = OFF, WDT disabled
 10287                           ;	Power-up Timer Enable bit
 10288                           ;	PWRTE = 0x1, unprogrammed default
 10289                           ;	Brown-out Reset Enable bit
 10290                           ;	BOREN = 0x1, unprogrammed default
 10291                           ;	Low-Voltage (Single-Supply) In-Circuit Serial Programming Enable bit
 10292                           ;	LVP = 0x1, unprogrammed default
 10293                           ;	Data EEPROM Memory Code Protection bit
 10294                           ;	CPD = 0x1, unprogrammed default
 10295                           ;	Flash Program Memory Write Enable bits
 10296                           ;	WRT = 0x3, unprogrammed default
 10297                           ;	In-Circuit Debugger Mode bit
 10298                           ;	DEBUG = 0x1, unprogrammed default
 10299                           ;	Flash Program Memory Code Protection bit
 10300                           ;	CP = 0x1, unprogrammed default
 10301     2007                     	org	8199
 10302     2007  3FFB               	dw	16379

Data Sizes:
    Strings     411
    Constant    0
    Data        34
    BSS         68
    Persistent  0
    Stack       0

Auto Spaces:
    Space          Size  Autos    Used
    COMMON           14     10      12
    BANK0            80     47      78
    BANK1            80      0      69
    BANK3            96      0       0
    BANK2            96      0       0

Pointer List with Targets:

    change_original_password@new_password	PTR unsigned char  size(1) Largest target is 5
		 -> change_password@new_password(BANK0[5]), 

    clcd_print@str	PTR const unsigned char  size(2) Largest target is 18
		 -> logs(BANK1[17]), speed(BANK0[3]), STR_1(CODE[3]), STR_10(CODE[15]), 
		 -> STR_11(CODE[15]), STR_12(CODE[15]), STR_13(CODE[15]), STR_14(CODE[17]), 
		 -> STR_15(CODE[3]), STR_16(CODE[3]), STR_17(CODE[3]), STR_18(CODE[3]), 
		 -> STR_19(CODE[8]), STR_2(CODE[3]), STR_20(CODE[10]), STR_21(CODE[17]), 
		 -> STR_22(CODE[17]), STR_23(CODE[9]), STR_24(CODE[15]), STR_26(CODE[3]), 
		 -> STR_27(CODE[3]), STR_28(CODE[3]), STR_29(CODE[17]), STR_3(CODE[3]), 
		 -> STR_30(CODE[18]), STR_31(CODE[17]), STR_32(CODE[17]), STR_33(CODE[18]), 
		 -> STR_34(CODE[17]), STR_35(CODE[17]), STR_36(CODE[16]), STR_37(CODE[15]), 
		 -> STR_38(CODE[14]), STR_39(CODE[17]), STR_4(CODE[3]), STR_40(CODE[15]), 
		 -> STR_5(CODE[3]), STR_6(CODE[3]), STR_7(CODE[3]), STR_8(CODE[3]), 
		 -> STR_9(CODE[15]), time(BANK0[9]), 

    display_time@clock_reg	PTR unsigned char  size(1) Largest target is 3
		 -> clock_reg(BANK0[3]), 

    event	PTR const unsigned char [8] size(2) Largest target is 3
		 -> STR_1(CODE[3]), STR_2(CODE[3]), STR_3(CODE[3]), STR_4(CODE[3]), 
		 -> STR_5(CODE[3]), STR_6(CODE[3]), STR_7(CODE[3]), STR_8(CODE[3]), 

    get_time@clock_reg	PTR unsigned char  size(1) Largest target is 3
		 -> clock_reg(BANK0[3]), 

    menu_options	PTR const unsigned char [5] size(2) Largest target is 15
		 -> STR_10(CODE[15]), STR_11(CODE[15]), STR_12(CODE[15]), STR_13(CODE[15]), 
		 -> STR_9(CODE[15]), 

    put_s@s	PTR const unsigned char  size(2) Largest target is 18
		 -> logs(BANK1[17]), STR_25(CODE[18]), 

    read_and_format_log@log	PTR unsigned char  size(1) Largest target is 11
		 -> read_event@event(BANK1[11]), 

    sp__collect_password	PTR unsigned char  size(1) Largest target is 5
		 -> collect_password@password(BANK1[5]), 

    sp__read_event	PTR unsigned char  size(1) Largest target is 11
		 -> read_event@event(BANK1[11]), 

    sp__strcpy	PTR unsigned char  size(1) Largest target is 5
		 -> change_password@new_password(BANK0[5]), change_password@new_password_re_enter(BANK0[5]), 

    strcmp@l	PTR const unsigned char  size(1) Largest target is 5
		 -> change_password@new_password(BANK0[5]), 

    strcmp@r	PTR const unsigned char  size(1) Largest target is 5
		 -> change_password@new_password_re_enter(BANK0[5]), 

    strcpy@d	PTR unsigned char  size(1) Largest target is 5
		 -> change_password@new_password(BANK0[5]), change_password@new_password_re_enter(BANK0[5]), 

    strcpy@dest	PTR unsigned char  size(1) Largest target is 5
		 -> change_password@new_password(BANK0[5]), change_password@new_password_re_enter(BANK0[5]), 

    strcpy@src	PTR const unsigned char  size(1) Largest target is 5
		 -> collect_password@password(BANK1[5]), 


Critical Paths under _main in COMMON

    _set_time->_clcd_putch
    _set_time->_write_ds1307
    _display_indicator->_clcd_print
    _print_star->_clcd_print
    _read_and_format_log->_read_event
    _read_event->___wmul
    _read_external_eeprom->_i2c_read
    _put_s->_put_char
    _clear_log->_clcd_print
    _collect_password->_clcd_putch
    _clear_screen->_clcd_write
    _auth_user->_clcd_putch
    _run_delay->_clcd_putch
    _clcd_putch->___lwdiv
    _init_uart->___lldiv
    _init_i2c->___lldiv
    _init_ds1307->_write_ds1307
    _write_ds1307->___lwdiv
    _init_clcd->_init_display_controller
    _init_display_controller->_clcd_write
    _dashboard->___xxtofl
    _dashboard->_display_time
    _write_event->___lwmod
    _write_event->_write_external_eeprom
    _write_external_eeprom->_i2c_write
    _get_time->_read_ds1307
    _read_ds1307->_i2c_read
    _display_time->_clcd_print
    _clcd_print->_clcd_write
    ___fltol->___xxtofl
    ___fldiv->___xxtofl

Critical Paths under _isr in COMMON

    None.

Critical Paths under _main in BANK0

    _main->_dashboard
    _main_menu->_change_password
    _view_log->_read_and_format_log
    _set_time->_display_indicator
    _download_log->_read_and_format_log
    _read_and_format_log->_read_event
    _change_password->_strcpy
    _strcpy->_collect_password
    _collect_password->_clcd_putch
    _auth_user->_clcd_putch
    _run_delay->_clcd_putch
    _init_config->_init_i2c
    _init_config->_init_uart
    _init_uart->___lldiv
    _init_i2c->___lldiv
    _init_ds1307->_write_ds1307
    _dashboard->___fltol
    ___fltol->___fldiv
    ___fldiv->___xxtofl

Critical Paths under _isr in BANK0

    None.

Critical Paths under _main in BANK1

    None.

Critical Paths under _isr in BANK1

    None.

Critical Paths under _main in BANK3

    None.

Critical Paths under _isr in BANK3

    None.

Critical Paths under _main in BANK2

    None.

Critical Paths under _isr in BANK2

    None.

Call Graph Tables:

 ---------------------------------------------------------------------------------
 (Depth) Function   	        Calls       Base Space   Used Autos Params    Refs
 ---------------------------------------------------------------------------------
 (0) _main                                                 2     2      0   18110
                                             45 BANK0      2     2      0
                          _dashboard
                        _init_config
                          _main_menu
                _read_digital_keypad
 ---------------------------------------------------------------------------------
 (1) _main_menu                                            8     8      0   12558
                                             25 BANK0      8     8      0
                          _auth_user
                    _change_password
                         _clcd_print
                          _clear_log
                       _clear_screen
                       _download_log
                         _print_star
                _read_digital_keypad
                           _set_time
                           _view_log
 ---------------------------------------------------------------------------------
 (2) _view_log                                             8     8      0    1754
                                             10 BANK0      6     6      0
                         _clcd_print
                _read_and_format_log
                _read_digital_keypad
 ---------------------------------------------------------------------------------
 (2) _set_time                                            13    13      0    2684
                                              2 BANK0     13    13      0
                            ___lwdiv
                            ___lwmod
                             ___wmul
                         _clcd_print
                         _clcd_putch
                  _display_indicator
                _read_digital_keypad
                       _write_ds1307
 ---------------------------------------------------------------------------------
 (3) _display_indicator                                    2     0      2     545
                                              0 BANK0      2     0      2
                         _clcd_print
 ---------------------------------------------------------------------------------
 (2) _print_star                                           2     0      2     483
                                              0 BANK0      2     0      2
                         _clcd_print
 ---------------------------------------------------------------------------------
 (2) _download_log                                         5     5      0    1638
                                             10 BANK0      5     5      0
                         _clcd_print
                           _put_char
                              _put_s
                _read_and_format_log
 ---------------------------------------------------------------------------------
 (3) _read_and_format_log                                  8     8      0    1016
                                              2 BANK0      8     8      0
                             ___wmul
                         _read_event
 ---------------------------------------------------------------------------------
 (4) _read_event                                           4     2      2     373
                                              8 COMMON     2     0      2
                                              0 BANK0      2     2      0
                             ___wmul (ARG)
               _read_external_eeprom
 ---------------------------------------------------------------------------------
 (5) _read_external_eeprom                                 2     2      0     209
                                              4 COMMON     2     2      0
                           _i2c_read
                      _i2c_rep_start
                          _i2c_start
                           _i2c_stop
                          _i2c_write
 ---------------------------------------------------------------------------------
 (4) ___wmul                                               6     2      4     100
                                              2 COMMON     6     2      4
 ---------------------------------------------------------------------------------
 (3) _put_s                                                2     0      2      76
                                              3 COMMON     2     0      2
                           _put_char
 ---------------------------------------------------------------------------------
 (4) _put_char                                             1     1      0      29
                                              2 COMMON     1     1      0
 ---------------------------------------------------------------------------------
 (2) _clear_log                                            3     3      0     449
                                              0 BANK0      3     3      0
                         _clcd_print
 ---------------------------------------------------------------------------------
 (2) _change_password                                     13    13      0    2233
                                             12 BANK0     13    13      0
           _change_original_password
                         _clcd_print
                       _clear_screen
                   _collect_password
                             _strcmp
                             _strcpy
 ---------------------------------------------------------------------------------
 (3) _strcpy                                               3     1      2     115
                                              9 BANK0      3     1      2
                   _collect_password (ARG)
 ---------------------------------------------------------------------------------
 (3) _strcmp                                               4     2      2     114
                                              2 COMMON     4     2      2
 ---------------------------------------------------------------------------------
 (3) _collect_password                                     8     6      2    1096
                                              1 BANK0      8     6      2
                         _clcd_print
                         _clcd_putch
                _read_digital_keypad
 ---------------------------------------------------------------------------------
 (3) _clear_screen                                         0     0      0     161
                         _clcd_write
 ---------------------------------------------------------------------------------
 (3) _change_original_password                             4     3      1     113
                                              2 COMMON     4     3      1
 ---------------------------------------------------------------------------------
 (2) _auth_user                                            6     6      0    2096
                                              1 BANK0      6     6      0
                         _clcd_print
                         _clcd_putch
                _read_digital_keypad
                          _run_delay
 ---------------------------------------------------------------------------------
 (3) _run_delay                                            0     0      0    1102
                            ___lwdiv
                            ___lwmod
                         _clcd_print
                         _clcd_putch
                        _init_timer0
 ---------------------------------------------------------------------------------
 (4) _init_timer0                                          0     0      0       0
 ---------------------------------------------------------------------------------
 (4) _clcd_putch                                           2     1      1     290
                                              9 COMMON     1     0      1
                                              0 BANK0      1     1      0
                            ___lwdiv (ARG)
                            ___lwmod (ARG)
                         _clcd_write
 ---------------------------------------------------------------------------------
 (4) _read_digital_keypad                                  2     2      0      29
                                              2 COMMON     2     2      0
 ---------------------------------------------------------------------------------
 (1) _init_config                                          0     0      0    1118
                           _init_adc
                          _init_clcd
                _init_digital_keypad
                        _init_ds1307
                           _init_i2c
                          _init_uart
 ---------------------------------------------------------------------------------
 (2) _init_uart                                            8     4      4     287
                                              6 BANK0      8     4      4
                            ___lldiv
 ---------------------------------------------------------------------------------
 (2) _init_i2c                                             8     4      4     287
                                              6 BANK0      8     4      4
                            ___lldiv
 ---------------------------------------------------------------------------------
 (3) ___lldiv                                             14     6      8     253
                                              2 COMMON     8     0      8
                                              0 BANK0      6     6      0
 ---------------------------------------------------------------------------------
 (2) _init_ds1307                                          1     1      0     383
                                              1 BANK0      1     1      0
                        _read_ds1307
                       _write_ds1307
 ---------------------------------------------------------------------------------
 (3) _write_ds1307                                         2     1      1     137
                                              9 COMMON     1     0      1
                                              0 BANK0      1     1      0
                            ___lwdiv (ARG)
                            ___lwmod (ARG)
                          _i2c_start
                           _i2c_stop
                          _i2c_write
 ---------------------------------------------------------------------------------
 (2) _init_digital_keypad                                  0     0      0       0
 ---------------------------------------------------------------------------------
 (2) _init_clcd                                            0     0      0     161
            _init_display_controller
 ---------------------------------------------------------------------------------
 (3) _init_display_controller                              2     2      0     161
                                              6 COMMON     2     2      0
                         _clcd_write
 ---------------------------------------------------------------------------------
 (2) _init_adc                                             0     0      0       0
 ---------------------------------------------------------------------------------
 (1) _dashboard                                            3     3      0    4269
                                             42 BANK0      3     3      0
                            ___fldiv
                            ___fltol
                            ___lwdiv
                            ___lwmod
                           ___xxtofl
                         _clcd_print
                       _display_time
                           _get_time
                           _read_adc
                        _write_event
 ---------------------------------------------------------------------------------
 (2) _write_event                                          9     9      0     520
                                              7 COMMON     2     2      0
                                              0 BANK0      7     7      0
                            ___lwmod
              _write_external_eeprom
 ---------------------------------------------------------------------------------
 (3) _write_external_eeprom                                4     3      1     174
                                              3 COMMON     4     3      1
                          _i2c_start
                           _i2c_stop
                          _i2c_write
 ---------------------------------------------------------------------------------
 (4) ___lwmod                                              5     1      4     185
                                              2 COMMON     5     1      4
 ---------------------------------------------------------------------------------
 (2) _read_adc                                             6     4      2      52
                                              2 COMMON     6     4      2
 ---------------------------------------------------------------------------------
 (2) _get_time                                             1     0      1     305
                                              6 COMMON     1     0      1
                        _read_ds1307
 ---------------------------------------------------------------------------------
 (3) _read_ds1307                                          2     2      0     209
                                              4 COMMON     2     2      0
                           _i2c_read
                      _i2c_rep_start
                          _i2c_start
                           _i2c_stop
                          _i2c_write
 ---------------------------------------------------------------------------------
 (6) _i2c_write                                            1     1      0      47
                                              2 COMMON     1     1      0
                  _i2c_wait_for_idle
 ---------------------------------------------------------------------------------
 (6) _i2c_rep_start                                        0     0      0       0
                          _i2c_start
                           _i2c_stop
 ---------------------------------------------------------------------------------
 (7) _i2c_stop                                             0     0      0       0
                  _i2c_wait_for_idle
 ---------------------------------------------------------------------------------
 (7) _i2c_start                                            0     0      0       0
                  _i2c_wait_for_idle
 ---------------------------------------------------------------------------------
 (6) _i2c_read                                             2     2      0      81
                                              2 COMMON     2     2      0
                  _i2c_wait_for_idle
 ---------------------------------------------------------------------------------
 (8) _i2c_wait_for_idle                                    0     0      0       0
 ---------------------------------------------------------------------------------
 (2) _display_time                                         2     1      1     638
                                              9 COMMON     1     0      1
                                              0 BANK0      1     1      0
                         _clcd_print
 ---------------------------------------------------------------------------------
 (4) _clcd_print                                           3     0      3     449
                                              6 COMMON     3     0      3
                         _clcd_write
 ---------------------------------------------------------------------------------
 (5) _clcd_write                                           4     3      1     161
                                              2 COMMON     4     3      1
 ---------------------------------------------------------------------------------
 (2) ___xxtofl                                            14    10      4     337
                                              2 COMMON     8     4      4
                                              0 BANK0      6     6      0
 ---------------------------------------------------------------------------------
 (4) ___lwdiv                                              7     3      4     178
                                              2 COMMON     7     3      4
 ---------------------------------------------------------------------------------
 (2) ___fltol                                             10     6      4     340
                                             32 BANK0     10     6      4
                            ___fldiv (ARG)
                           ___xxtofl (ARG)
 ---------------------------------------------------------------------------------
 (2) ___fldiv                                             26    18      8    1124
                                              6 BANK0     26    18      8
                           ___xxtofl (ARG)
 ---------------------------------------------------------------------------------
 Estimated maximum stack depth 8
 ---------------------------------------------------------------------------------
 (Depth) Function   	        Calls       Base Space   Used Autos Params    Refs
 ---------------------------------------------------------------------------------
 (9) _isr                                                  2     2      0       0
                                              0 COMMON     2     2      0
 ---------------------------------------------------------------------------------
 Estimated maximum stack depth 9
 ---------------------------------------------------------------------------------

 Call Graph Graphs:

 _main (ROOT)
   _dashboard
     ___fldiv
       ___xxtofl (ARG)
     ___fltol
       ___fldiv (ARG)
       ___xxtofl (ARG)
     ___lwdiv
     ___lwmod
     ___xxtofl
     _clcd_print
       _clcd_write
     _display_time
       _clcd_print
     _get_time
       _read_ds1307
         _i2c_read
           _i2c_wait_for_idle
         _i2c_rep_start
           _i2c_start
             _i2c_wait_for_idle
           _i2c_stop
             _i2c_wait_for_idle
         _i2c_start
         _i2c_stop
         _i2c_write
           _i2c_wait_for_idle
     _read_adc
     _write_event
       ___lwmod
       _write_external_eeprom
         _i2c_start
         _i2c_stop
         _i2c_write
   _init_config
     _init_adc
     _init_clcd
       _init_display_controller
         _clcd_write
     _init_digital_keypad
     _init_ds1307
       _read_ds1307
       _write_ds1307
         ___lwdiv (ARG)
         ___lwmod (ARG)
         _i2c_start (ARG)
         _i2c_stop (ARG)
         _i2c_write (ARG)
     _init_i2c
       ___lldiv
     _init_uart
       ___lldiv
   _main_menu
     _auth_user
       _clcd_print
       _clcd_putch
         ___lwdiv (ARG)
         ___lwmod (ARG)
         _clcd_write (ARG)
       _read_digital_keypad
       _run_delay
         ___lwdiv
         ___lwmod
         _clcd_print
         _clcd_putch
         _init_timer0
     _change_password
       _change_original_password
       _clcd_print
       _clear_screen
         _clcd_write
       _collect_password
         _clcd_print
         _clcd_putch
         _read_digital_keypad
       _strcmp
       _strcpy
         _collect_password (ARG)
     _clcd_print
     _clear_log
       _clcd_print
     _clear_screen
     _download_log
       _clcd_print
       _put_char
       _put_s
         _put_char
       _read_and_format_log
         ___wmul
         _read_event
           ___wmul (ARG)
           _read_external_eeprom (ARG)
             _i2c_read
             _i2c_rep_start
             _i2c_start
             _i2c_stop
             _i2c_write
     _print_star
       _clcd_print
     _read_digital_keypad
     _set_time
       ___lwdiv
       ___lwmod
       ___wmul
       _clcd_print
       _clcd_putch
       _display_indicator
         _clcd_print
       _read_digital_keypad
       _write_ds1307
     _view_log
       _clcd_print
       _read_and_format_log
       _read_digital_keypad
   _read_digital_keypad

 _isr (ROOT)

Address spaces:
Name               Size   Autos  Total    Usage
BANK3               96      0       0      0.0%
BITBANK3            96      0       0      0.0%
BANK2               96      0       0      0.0%
BITBANK2            96      0       0      0.0%
BANK1               80      0      69     86.2%
BITBANK1            80      0       0      0.0%
BANK0               80     47      78     97.5%
BITBANK0            80      0       0      0.0%
COMMON              14     10      12     85.7%
BITCOMMON           14      0       0      0.0%
DATA                 0      0     159      0.0%
STACK                0      0       0      0.0%


Microchip Technology PIC Macro Assembler V3.10 build 20250813170317 
Symbol Table                                                                                   Thu Jul  2 18:45:14 2026

                        ___fldiv@aexp 003F                          ___fldiv@bexp 003E  
                                   pc 0002                          ___fldiv@sign 0037  
               _write_external_eeprom 1697                        clcd_print@addr 0078  
                                  l23 0834                                    l42 13C2  
                                  l72 0A18                                    l48 1611  
                                  l75 1416                                    l84 1696  
                                  l69 1791                                    l78 145D  
                                  l87 13D1                                    _GO 00FA  
                                  fsr 0004                   ___wmul@multiplicand 0074  
                                 l122 04FF                                   l131 13EB  
                                 l116 1728                                   l125 13E2  
                                 l134 152A                                   l119 04F3  
                                 l135 152D                                   l303 0EF2  
                                 l136 152F                                   l128 1400  
                                 l160 1448                                   l139 140B  
                                 l163 163C                                   l172 0901  
                                 l405 0C7E                                   l166 1551  
                                 l502 07D7                                   l271 0D40  
                                 l343 0BEC                                   l192 1483  
                                 l512 095A                                   l169 150E  
                                 l409 0AEF                                   l361 14CF  
                                 l426 16C6                                   l266 1574  
                                 l195 1491                                   l356 04F2  
                                 l189 13C9                                   l517 14B0  
                                 l429 1667                                   l294 0FFF  
                                 l446 16F6                                   l279 0E02  
                                 l631 1599                                   l367 09B5  
                                 l375 086D                                   l528 13F5  
                                 l456 141C                                   l464 15BF  
                                 l457 1420                                   l458 1421  
                                 l299 17C7                                   l387 0293  
                                 l629 1581                                   l830 0B50  
                                 l823 0B65                                   l833 0B65  
                                 l665 0A7E                                   l909 08AF  
                                 l919 17FF                                   l986 02E9  
                                 _GIE 005F                                   l988 045D  
                                 _RE1 0049                                   _RE2 004A  
                                 _PEN 048A                                   _SEN 0488  
                                 _PSA 040B                         ?_display_time 0079  
                                 _isr 15C0                        clcd_putch@addr 0079  
                                 _pos 007A                                   fsr0 0004  
                      clcd_putch@data 0020                                   indf 0000  
                  print_star@position 0020                          ___fltol@exp1 0049  
                                l1010 0455                                  l1002 03D7  
                                l1008 0449                                  l1070 0CA3  
                                l1071 0CB4                                  l1072 0D34  
                                l3001 03A7                                  l3011 03BC  
                                l3003 03A8                                  l1083 0CFE  
                                l1084 0D0A                                  l1076 0CE2  
                                l3021 03E1                                  l3013 03C0  
                                l3005 03B1                                  l1093 07FF  
                                l2301 1418                                  l3031 041F  
                                l3023 03EF                                  l3015 03D4  
                                l3007 03B7                                  l2303 13EC  
                                l2311 1588                                  l3041 044D  
                                l3033 042D                                  l3025 03F3  
                                l3009 03BB                                  l2321 0870  
                                l2313 158F                                  l2305 1575  
                                l4001 174E                 ??_read_digital_keypad 0072  
                                l3043 0451                                  l3035 043C  
                                l3027 040C                                  l3019 03DC  
                                l2331 0886                                  l2323 0876  
                                l3051 0C82                                  l1099 1472  
                                l2315 1595                                  l2307 1577  
                                l4003 1753                                  l3045 0453  
                                l3037 0440                                  l3029 0412  
                                l2333 0897                                  l2325 0879  
                                l2341 08AB                                  l3053 0C87  
                                l3301 1767                                  l2309 157B  
                                l3039 0448                                  l2335 089D  
                                l2327 0880                                  l2319 086E  
                                l3071 0CD9                                  l3063 0CB7  
                                l3055 0C8B                                  l3311 177F  
                                l3303 176A                                  l2351 17D8  
                                l2271 1610                                  l2255 15F3  
                                l2247 15E9                                  l2511 07DD  
                                l2337 089E                                  l2329 0882  
                                l3081 0D0C                                  l3073 0CE9  
                                l3065 0CC2                                  l3057 0C9B  
                                l3313 1780                                  l3305 176B  
                                l2361 17F5                                  l2353 17DA  
                                l2345 17C8                                  l2257 15FE  
                                l2249 15EE                                  l2513 07EA  
                                l3321 1666                                  l3401 0B89  
                                l2339 08A5                                  l3083 0D22  
                                l3075 0CF4                                  l3067 0CC9  
                                l3059 0CAB                                  l3315 1785  
                                l3307 1770                                  l3331 1680  
                                l2611 1482                                  l2355 17DE  
                                l2347 17CE                                  l2363 17FB  
                                l2259 1603                                  l2267 1605  
                                l2515 07F1                                  l2507 07D8  
                                l2451 15AF                                  l3411 0BAC  
                                l3403 0B8F                                  l3085 0D27  
                                l3077 0CF8                                  l3069 0CCB  
                                l3317 1788                                  l3309 1773  
                                l3333 1686                                  l2613 1487  
                                l2357 17E8                                  l2349 17D1  
                                l3501 0A2E                                  l2269 160E  
                                l3325 144C                                  l2525 1494  
                                l2509 07D9                                  l2445 159A  
                                l3341 1556                                  l3421 0BD4  
                                l3413 0BB2                                  l3405 0B97  
                                l3087 0D2B                                  l3079 0D02  
                                l3327 1668                                  l3263 04F3  
                                l3271 13E3                                  l2359 17EE  
                                l3351 09B6                                  l3511 0A66  
                                l3503 0A39                                  l2527 14A1  
                                l2519 1492                                  l2447 159B  
                                l3319 163E                                  l3343 1562  
                                l3335 1552                                  l3415 0BB9  
                                l3407 0B9E                                  l3423 0BDA  
                                l3431 083D                                  l3089 0D2C  
                                l3329 1670                                  l3265 04F9  
                                l3281 151D                                  l3273 13E8  
                                l2609 1474                                  l3361 09E1  
                                l3353 09BE                                  l3521 140C  
                                l3513 0A67                                  l3505 0A3D  
                                l3601 069F                                  l2529 14A7  
                                l3441 0BED                                  l2449 15A9  
                                l3345 156A                                  l3425 0BE0  
                                l3417 0BC0                                  l3409 0BA5  
                                l3433 0849                                  l3283 1521  
                                l3267 13DA                                  l3275 13F6  
                                l3291 1402                                  l3371 0A0C  
                                l3363 09E4                                  l3355 09C5  
                                l3523 140F                                  l3515 0A70  
                                l3507 0A46                                  l3531 16FA  
                                l3611 06D4                                  l3603 06AA  
                                l3451 0C19                                  l3443 0BF5  
                                l3347 1573                                  l3427 0BE9  
                                l3419 0BC7                                  l3435 084F  
                                l3285 1526                                  l3277 1510  
                                l3269 13DF                                  l3293 1407  
                                l3373 0A13                                  l3365 09EB  
                                l3357 09D5                                  l3525 1410  
                                l3509 0A58                                  l3517 0A76  
                                l3533 1725                                  l3541 16C7  
                                l3621 06F8                                  l3613 06DC  
                                l3605 06B2                                  l3461 0C46  
                                l3453 0C22                                  l3445 0C01  
                                l3437 085B                                  l3429 0835  
                                l3701 04CC                                  l2911 029A  
                                l3551 08DD                                  l3287 152E  
                                l3279 1515                                  l3295 140B  
                                l3367 09F7                                  l3359 09DA  
                                l3527 1411                                  l3383 1533  
                                l3535 1435                                  l3543 16CB  
                                l3631 071D                                  l3623 06FE  
                                l3615 06E2                                  l3607 06BD  
                                l3375 13CA                                  l3471 0C65  
                                l3463 0C4D                                  l3455 0C2D  
                                l3447 0C0C                                  l3711 14B1  
                                l3391 0B69                                  l3439 0862  
                                l3703 04DE                                  l2921 02AD  
                                l2913 029E                                  l3553 08F5  
                                l3377 1613                                  l3545 14EF  
                                l3385 1698                                  l2569 13C3  
                                l3369 09FC                                  l3537 143E  
                                l3529 16F7                                  l3641 0737  
                                l3633 072C                                  l3625 0704  
                                l3617 06E8                                  l3609 06C6  
                                l3473 0C6E                                  l3465 0C53  
                                l3457 0C35                                  l3449 0C10  
                                l3481 1462                                  l3713 14B5  
                                l3393 0B85                                  l3721 097A  
                                l3705 04E4                                  l2931 02C3  
                                l2923 02B5                                  l2915 02A2  
                                l2907 0294                                  l3811 0AF0  
                                l3299 175D                                  l3555 08F6  
                                l3547 08B0                                  l3379 163B  
                                l3387 16B4                                  l3571 0D51  
                                l2579 13BD                                  l3539 1440  
                                l3491 094E                                  l3483 0902  
                                l3651 075F                                  l3635 0735  
                                l3627 070D                                  l3619 06F2  
                                l3475 0C7D                                  l3467 0C5C  
                                l3459 0C3E                                  l3715 14C0  
                                l3395 0B87                                  l3723 097F  
                                l3731 09AB                                  l3707 04EB  
                                l2941 02D6                                  l2933 02C7  
                                l2925 02B6                                  l2917 02A3  
                                l2909 0298                                  l3821 0B18  
                                l3813 0AFB                                  l3549 08C7  
                                l3389 16B8                                  l3581 0D93  
                                l3573 0D5F                                  l3565 0D42  
                                l3557 0D35                                  l3901 0F8A  
                                l3493 0956                                  l3485 0908  
                                l3661 077B                                  l3653 076A  
                                l3645 0747                                  l3629 0718  
                                l3805 0AE3                                  l3725 098E  
                                l3741 00CD                                  l3733 0040  
                                l2951 02FD                                  l2943 02DE  
                                l2935 02CB                                  l2919 02A8  
                                l2927 02B8                                  l3823 0B20  
                                l3591 0DEB                                  l3583 0D9B  
                                l3567 0D49                                  l3575 0D67  
                                l3559 0D3E                                  l3911 0FF3  
                                l3903 0FC2                                  l3487 091E  
                                l3671 07B5                                  l3663 0786  
                                l3647 0756                                  l3479 145E  
                                l3727 0994                                  l3719 095B  
                                l3751 0125                                  l3743 00E5  
                                l3735 00A8                                  l2953 02FF  
                                l2945 02DF                                  l2937 02CC  
                                l2929 02C0                                  l3841 0B45  
                                l3833 0B2E                                  l3825 0B22  
                                l3817 0B04                                  l3585 0DCB  
                                l3577 0D6D                                  l3913 0FF4  
                                l3905 0FC9                                  l3497 0A19  
                                l3489 0936                                  l3673 07C4  
                                l3665 0795                                  l3649 075D  
                                l3729 09A3                                  l3593 1792  
                                l3761 016F                                  l3753 013D  
                                l3745 00ED                                  l3737 00AA  
                                l3681 0462                                  l3921 0E10  
                                l2971 0340                                  l2963 0316  
                                l2939 02D1                                  l2947 02E1  
                                l3843 0B55                                  l3827 0B26  
                                l3835 0B3E                                  l3819 0B17  
                                l3587 0DD3                                  l3579 0D76  
                                l3907 0FCF                                  l3499 0A2B  
                                l3851 080B                                  l3675 07CD  
                                l3667 079D                                  l3659 077A  
                                l3595 179A                                  l3771 01B0  
                                l3763 0175                                  l3755 0155  
                                l3747 0105                                  l3739 00B5  
                                l3691 04AB                                  l3683 0468  
                                l3931 0E50                                  l3923 0E13  
                                l3915 0E03                                  l2981 035E  
                                l2973 0342                                  l2965 0328  
                                l2949 02F1                                  l2957 0308  
                                l3845 0B5A                                  l3589 0DE3  
                                l3909 0FE1                                  l3861 0EF6  
                                l3853 0810                                  l3677 07D2  
                                l3669 07AA                                  l3597 17B1  
                                l3765 018C                                  l3773 01C8  
                                l3757 0160                                  l3749 011D  
                                l3693 04B2                                  l3685 0470  
                                l3941 0E6C                                  l3933 0E59  
                                l3925 0E18                                  l3917 0E08  
                                l2975 0347                                  l2983 0367  
                                l2991 038A                                  l2967 0330  
                                l2959 030D                                  l3871 0F1E  
                                l3863 0F01                                  l3855 081F  
                                l3847 0801                                  l3599 069B  
                                l3791 0A93                                  l3775 01CE  
                                l3767 0192                                  l3759 0169  
                                l3695 04B8                                  l3687 0487  
                                l3679 045E                                  l3951 0E8A  
                                l3935 0E5F                                  l3943 0E73  
                                l3927 0E26                                  l2993 0390  
                                l2985 0379                                  l2977 0359  
                                l2969 0338                                  l3881 0F42  
                                l3873 0F23                                  l3865 0F08  
                                l3857 0824                                  l3849 0806  
                                l3793 0A98                                  l3785 028D  
                                l3777 01E6                                  l3769 01A9  
                                l3697 04BE                                  l3689 049D  
                                l3961 0EAB                                  l3945 0E79  
                                l3953 0E91                                  l3937 0E64  
                                l3929 0E3B                                  l2995 0398  
                                l2987 037A                                  l2979 035D  
                                l3891 0F5E                                  l3875 0F30  
                                l3867 0F0F                                  l3859 0833  
                                l3795 0AB2                                  l3779 01EC  
                                l3699 04C5                                  l3971 0ECA  
                                l3963 0EB1                                  l3955 0E97  
                                l3947 0E7E                                  l3939 0E66  
                                l2997 039A                                  l2989 0388  
                                l3893 0F64                                  l3885 0F4A  
                                l3877 0F36                                  l3869 0F17  
                                l3797 0AC1                                  l3789 0A7F  
                                l3981 0EEA                                  l3973 0ED1  
                                l3965 0EB7                                  l3957 0E9E  
                                l3949 0E81                                  l2999 03A3  
                                l3887 0F57                                  l3879 0F3C  
                                l3799 0AD3                                  l3983 0EEF  
                                l3975 0ED7                                  l3967 0EBD  
                                l3959 0EA3                                  l3991 1731  
                                l3897 0F69                                  l3977 0EDE  
                                l3969 0EC4                                  l3993 173A  
                                _ADFM 04FF                                  l3899 0F7E  
                                l3979 0EE4                                  l3995 1740  
                                l3987 1729                                  ?_isr 0070  
                                l3997 1742                                  l3989 172E  
                                l3999 1747                                  _ADON 00F8  
                                STR_1 0695                                  STR_2 0692  
                                STR_3 0686                                  STR_4 0689  
                                STR_5 068C                                  STR_6 068F  
                                STR_7 0698                                  STR_8 0683  
                                STR_9 060C                                  _CREN 00C4  
                                _T0CS 040D                                  u2010 08AB  
                                u2011 08AA                                  u2020 17CE  
                                u2005 089F                                  u2021 17CD  
                                u3000 0398                                  u2040 17DE  
                                u3001 0397                                  u2041 17DD  
                                u2050 17E8                                  u2051 17E7  
                                u2035 17D2                                  u3100 0402  
                                u3020 03A7                                  u3021 03A6  
                                u3110 041F                                  u2070 17FB  
                                u3111 041E                                  u3015 039C  
                                u2071 17FA                                  u2055 17E4  
                                u3120 043C                                  u3040 03BB  
                                u3200 0CE8                                  u4000 0718  
                                u2160 15BF                                  u3121 043B  
                                u3105 03FD                                  u3041 03BA  
                                u3201 0CE7                                  u2065 17EF  
                                u4001 0717                                  u2161 15BE  
                                u3130 0451                                  u3050 03C0  
                                u4010 0735                                  u2250 07EA  
                                u3131 0450                                  u3115 041B  
                                u3051 03BF                                  u3035 03AA  
                                u4011 0734                                  u2251 07E9  
                                u3060 03D4                                  u3220 0CF8  
                                u3140 0C87                                  u2420 1487  
                                u4020 0746                                  u2260 07F1  
                                u4100 04DE                                  u3125 0438  
                                u3061 03D3                                  u3221 0CF7  
                                u3141 0C86                                  u2421 1486  
                                u4021 0745                                  u2261 07F0  
                                u4101 04DD                                  u3070 03DB  
                                u3230 0CFE                                  u3150 0C8B  
                                u4030 0756                                  u2270 14B0  
                                u4110 04F2                                  u3071 03DA  
                                u3231 0CFD                                  u3215 0CED  
                                u3151 0C8A                                  u2415 1477  
                                u4031 0755                                  u2271 14AF  
                                u4111 04F1                                  u3080 03E1  
                                u3240 0D02                                  u3160 0CAB  
                                u4040 075D                                  u4120 09B5  
                                u3081 03E0                                  u3241 0D01  
                                u3161 0CAA                                  u4041 075C  
                                u4121 09B4                                  u4105 04DA  
                                u3090 03F3                                  u3250 0D17  
                                u4050 07CD                                  u4130 016F  
                                u3091 03F2                                  u4051 07CC  
                                u4131 016E                                  u4300 0B44  
                                u3260 0D27                                  u3180 0CC8  
                                u1900 1420                                  u4220 0293  
                                u4140 0175                                  u4060 0470  
                                u4301 0B43                                  u3261 0D26  
                                u3181 0CC7                                  u1901 141F  
                                u4125 09B1                                  u4221 0292  
                                u4205 0247                                  u4141 0174  
                                u4061 046F                                  u3270 0D2B  
                                u4230 0AC1                                  u1910 157B  
                                u4150 0192                                  u4070 04B2  
                                u3271 0D2A                                  u3255 0D12  
                                u3175 0CBA                                  u4231 0AC0  
                                u1911 157A                                  u4215 027D  
                                u4151 0191                                  u4071 04B1  
                                u4320 0B55                                  u4240 0AFB  
                                u4400 0F64                                  u1840 15EE  
                                u4160 01B0                                  u4080 04B8  
                                u4321 0B54                                  u4241 0AFA  
                                u4401 0F63                                  u1841 15ED  
                                u4161 01AF                                  u4081 04B7  
                                u4330 0B5A                                  u4250 0B12  
                                u3610 1696                                  u4410 0FC9  
                                u1850 15FE                                  u4170 01CE  
                                u4090 04CC                 ?_read_external_eeprom 0070  
                                u4331 0B59                                  u4315 0B47  
                                u3195 0CDA                                  u3611 1695  
                                u4411 0FC8                                  u1851 15FD  
                                u4171 01CD                                  u4091 04CB  
                                u2900 02D6                                  u4260 0B26  
                                u4340 0F17                                  u1860 1603  
                                u1940 1595                                  u3620 1573  
                                u3700 0BE9                                  u4180 01EC  
                                u4500 0EAB                                  u4420 0E0F  
                                u2901 02D5                                  u4261 0B25  
                                u3605 1777                                  u4341 0F16  
                                u1861 1602                                  u1941 1594  
                                u1925 1582                                  u3621 1572  
                                u3701 0BE8                                  u4181 01EB  
                                u4501 0EAA                                  u4421 0E0E  
                                u2910 02F1                                  u4270 0B2D  
                                u1950 0876                                  u3550 04F9  
                                u3630 16C6                                  u4350 0F1E  
                                u1870 160E                                  u3710 083D  
                                u4510 0EB7                                  u4430 0E5F  
                                u2911 02F0                                  u4271 0B2C  
                                u4255 0B0D                                  u1951 0875  
                                u3551 04F8                                  u3631 16C5  
                                u4351 0F1D                                  u1871 160D  
                                u1935 1589                                  u3711 083C  
                                u4511 0EB6                                  u4431 0E5E  
                                u2920 030D                                  u3560 04FF  
                                u4360 0F30                                  u3800 0A2B  
                                u3640 0B8F                                  u3720 084F  
                                u4520 0EC4                                  u4440 0E64  
                                u2921 030C                                  u3561 04FE  
                                u4361 0F2F                                  u3801 0A2A  
                                u3641 0B8E                                  u3721 084E  
                                u4521 0EC3                                  u4441 0E63  
                                u2930 0347                                  u2850 02A2  
                                u4290 0B3D                                  u1970 0886  
                                u3570 1526                                  u4370 0F42  
                                u3650 0B9E                                  u3730 0862  
                                u4530 0ED1                                  u4450 0E6C  
                                u2931 0346                                  u2851 02A1  
                                u4291 0B3C                                  u1971 0885  
                                u3571 1525                                  u4371 0F41  
                                u3651 0B9D                                  u3731 0861  
                                u4195 0211                                  u4531 0ED0  
                                u4451 0E6B                                  u2860 02A8  
                                u3580 1764                                  u4380 0F49  
                                u3820 0A3D                                  u3740 0BF5  
                                u3660 0BA5                                  u4540 0EDE  
                                u4460 0E79                                  u2861 02A7  
                                u4285 0B2F                                  u1965 087A  
                                u3581 1760                                  u4381 0F48  
                                u4365 0F2C                                  u3821 0A3C  
                                u3741 0BF4                                  u3661 0BA4  
                                u4541 0EDD                                  u4461 0E78  
                                u2870 02AD                                  u1990 0897  
                                u4390 0F57                                  u3750 0C35  
                                u3670 0BB2                                  u4550 0EEA  
                                u4470 0E7E                                  u2871 02AC  
                                u1991 0896                                  u4391 0F56  
                                u3815 0A30                                  u3751 0C34  
                                u4607 14C8                                  u3671 0BB1  
                                u4551 0EE9                                  u4471 0E7D  
                                u2960 035D                                  u2880 02CB  
                                u3920 0D3E                                  u3840 0A58  
                                u3760 0C53                                  u3680 0BB9  
                                u4480 0E8A                                  u4560 1740  
                                u2961 035C                                  u2945 0349  
                                u2881 02CA                                  u1985 0887  
                                u3905 08CE                                  u3921 0D3D  
                                u3841 0A57                                  u3761 0C52  
                                u4617 0ADB                                  u3681 0BB8  
                                u4481 0E89                                  u4561 173F  
                                u2890 02D1                                  u3594 1767  
                                u3930 0D49                                  u3770 0C6E  
                                u3690 0BC0                                  u4490 0E97  
                                u4570 1747                                  u2955 0352  
                                u2891 02D0                                  u1995 0893  
                                u3915 08E5                                  u3931 0D48  
                                u4395 0F53                                  u4707 09D7  
                                u3835 0A3F                                  u4627 0C76  
                                u3771 0C6D                                  u3691 0BBF  
                                u4491 0E96                                  u4571 1746  
                                u2980 0379                                  u3940 0D50  
                                u3860 0A76                                  u3780 1472  
                                u4580 1753                                  _RCEN 048B  
                                _RCIF 0065                                  u2981 0378  
                                u3941 0D4F                                  u4717 09ED  
                                u3861 0A75                                  u3845 0A54  
                                u4637 06CE                                  u3781 1471  
                                u4581 1752                                  u2990 0390  
                                u3950 0D76                                  u3870 1708  
                                u3790 0956                                  u2991 038F  
                                u2975 0360                                  u3951 0D75  
                                u4727 09F9                                  u3855 0A68  
                                u3791 0955                                  u4647 0725  
                                u3880 16D9                                  u3960 179A  
                                u2985 0375                                  u4737 0A07  
                                u4657 0772                                  u3961 1799  
                                u3970 06B2                                  u4747 0A15  
                                u3875 1703                                  u4667 078E  
                                u3971 06B1                                  u3980 06DC  
                                u4757 176D                                  u3885 16D4  
                                u4677 07BD                                  u3981 06DB  
                                u4597 099C                                  u3990 06F8  
                                u4767 1782                                  u3895 08B8  
                                u4687 09BA                                  u3991 06F7  
                                u4777 178C                                  u4697 09C9  
                                _TMR0 0001                                  _SPEN 00C7  
                                _TXIF 0064                                  _R_nW 04A2  
                                _main 1729                                  _logs 00A5  
                                _time 005C                                  btemp 007E  
                                start 000C              _change_original_password 1492  
                     ___fldiv@new_exp 0038                        clcd_write@byte 0075  
                      clcd_write@mode 0072                         _i2c_rep_start 13F6  
                               ??_isr 0070                          ?_init_ds1307 0070  
           change_original_password@i 0074                         ___fltol@sign1 0048  
                 collect_password@key 0026                                 ?_main 0070  
                        ?_read_ds1307 0070                                 _ACKEN 048C  
                               _ACKDT 048D                        ??_display_time 0020  
                     __end_of___fldiv 045E                                 STR_10 061B  
                               STR_11 0639                                 STR_20 0665  
                               STR_12 05FD                                 STR_21 05BE  
                               STR_13 062A                                 STR_14 05AD  
                               STR_22 058B                                 STR_30 0524  
                               STR_15 0680                                 STR_23 066F  
                               STR_31 057A                                 STR_16 0544  
                               STR_24 0648                                 STR_40 05DF  
                               STR_32 059C                                 STR_17 0680  
                               STR_33 0512                                 STR_25 0500  
                               STR_26 0544                                 STR_18 0544  
                               STR_34 0558                                 STR_27 0544  
                               STR_19 0678                                 STR_35 0536  
                               STR_28 0544                                 STR_36 05CF  
                               STR_37 05EE                                 STR_29 0569  
                               STR_38 0657                                 STR_39 0547  
                     __end_of___fltol 0B66                       __end_of___lldiv 0A7F  
                         i2c_read@ack 0072                       __end_of___lwdiv 08B0  
                     __end_of___lwmod 1800                                 i1l543 15E1  
                        ?_init_config 0070                                 _RCREG 001A  
                               _SPBRG 0099                                 _PORTB 0006  
                               _PORTD 0008                                 _SSPM3 00A3  
                               _TRISB 0086                                 _TRISD 0088  
                               _SSPEN 00A5                                 _TXREG 0019  
                        ?_init_timer0 0070                           _write_event 0D35  
                               _nDONE 00FA             write_external_eeprom@data 0073  
                __end_of_clear_screen 13D2             write_external_eeprom@wait 0075  
                               _delay 006B                                 _index 0053  
                               _event 00C6                                 _speed 0065  
                               btemp0 007E                                 btemp1 007F  
                               _put_s 159A                       _change_password 0A7F  
                               pclath 000A                                 status 0003  
               _user_entered_password 00A0                                 wtemp0 007E  
                    init_ds1307@dummy 0021                       __initialization 000F  
                      ?_i2c_rep_start 0070                ?_write_external_eeprom 0073  
                        __end_of_main 175C                      __end_of_i2c_read 1530  
                    __end_of_i2c_stop 13EC                         ?_download_log 0070  
                              ??_main 007A                          put_char@data 0072  
                              _ADCON0 001F                ??_read_external_eeprom 0074  
                              _ADRESH 001E                                _ADRESL 009E  
                              ?_put_s 0073                          i2c_read@data 0073  
                              i1l3261 15E0                                i1l3253 15C0  
                              i1l3255 15C4                                i1l3257 15D8  
                              i1l3259 15DA                                u353_20 15C4  
                              u353_21 15C3                                u354_20 15D8  
                              u354_21 15D7                          _write_ds1307 1530  
                              _TMR0IE 005D                                _TMR0IF 005A  
change_password@new_password_re_enter 002F                                _SSPADD 0093  
                              _TRISE1 0449                                _TRISE2 044A  
                              _SSPBUF 0013                      __end_of___xxtofl 0D35  
         __end_of_init_digital_keypad 13C3                      __end_of_get_time 150F  
             _init_display_controller 09B6                                _access 005B  
                              ___wmul 1575                             ??___fldiv 002E  
                           ??___fltol 0044                             ??___lldiv 0020  
                           ??___lwdiv 0076                             ??___lwmod 0076  
                    __end_of_init_i2c 1729                      __end_of_init_adc 13CA  
                    __end_of_read_adc 1492                        ??_download_log 002A  
                       main@operation 004E                                _strcmp 07D8  
                              _strcpy 145E                          main_menu@key 003B  
             __end_of_change_password 0AF0                      __end_of_set_time 0294  
                              ltemp0a 0080                                saved_w 007E  
                    __end_of_view_log 04F3                      __end_of_put_char 1422  
                              put_s@s 0073                                ttemp0a 007F  
                         read_event@i 0020                                wtemp0a 007F  
                        ___xxtofl@arg 0022                          ___xxtofl@exp 0021  
                        ___xxtofl@val 0072                          auth_user@key 0024  
             __end_of__initialization 003C                  __end_of_display_time 0902  
                          ___fltol@f1 0040                       ??_i2c_rep_start 0072  
                      __pcstackCOMMON 0070                          __pidataBANK0 13BA  
                        __pidataBANK1 14D0                         __end_of_put_s 15C0  
                   __end_of_i2c_start 13E3                     __end_of_i2c_write 140C  
                   _i2c_wait_for_idle 04F3            ??_change_original_password 0073  
                             ??_put_s 0075                    ?_i2c_wait_for_idle 0070  
                          __pbssBANK0 004F                            __pbssBANK1 00A0  
                           ?_i2c_read 0070                             ?_i2c_stop 0070  
           ??_init_display_controller 0076                            _clcd_print 1668  
                 ??_i2c_wait_for_idle 0072                            _clcd_putch 1449  
                          _clcd_write 175C          write_external_eeprom@address 0074  
                          __pmaintext 1729                       read_ds1307@addr 0074  
                     read_ds1307@data 0075                          _clear_screen 13CA  
                             ?___wmul 0072                            __pintentry 0004  
                             _ACKSTAT 048E                               ?_strcmp 0072  
                             ?_strcpy 0029           __end_of_read_digital_keypad 1612  
                           ?___xxtofl 0072                      ?_change_password 0070  
           __end_of_i2c_wait_for_idle 0500                          ?_write_event 0070  
                        init_i2c@baud 0026                               _SSPCON2 0091  
                           ?_get_time 0076                            __stringtab 1000  
                          ??_i2c_read 0072                     __end_of_dashboard 1000  
                          ??_i2c_stop 0072                             ?_init_i2c 0026  
                __end_of_download_log 09B6                             ?_init_adc 0070  
                           ?_read_adc 0072                     __end_of_clear_log 14D0  
                          _attempt_no 0051               ??_write_external_eeprom 0074  
                           ?_set_time 0070                               ___fldiv 0294  
                           ?_view_log 0070                               ___fltol 0AF0  
                             ___lldiv 0A19                             ?_put_char 0070  
                             _adc_val 0059                               ___lwdiv 086E  
                             ___lwmod 17C8                     __end_of_main_menu 0EF3  
                   __end_of_auth_user 07D8                            _read_event 1552  
                             __ptext1 0E03                               __ptext2 045E  
                             __ptext3 0040                               __ptext4 0835  
                             __ptext5 1792                               __ptext6 095B  
                             __ptext7 0B66                               __ptext8 1552  
                             __ptext9 163D       __end_of_init_display_controller 0A19  
                   __end_of_init_clcd 1417                            ??___xxtofl 0076  
                   __end_of_init_uart 16F7                read_and_format_log@col 0025  
              read_and_format_log@log 0024                               main@key 004D  
                             clrloop0 13D3                            ??_get_time 0077  
                end_of_initialization 003C                         main_menu@star 003C  
                         set_time@key 0026                           set_time@min 0029  
                         set_time@sec 002B                            ??_init_i2c 002A  
                          ??_init_adc 0072                            ??_read_adc 0074  
                         ?_clcd_print 0076                           ?_clcd_putch 0079  
                     ___lldiv@divisor 0072                           ?_clcd_write 0072  
                     ___lldiv@counter 0025                            ??_set_time 0022  
                          ??_view_log 002A                     __end_of_run_delay 095B  
                          ??_put_char 0072                          __pstringtext 0500  
                             strcmp@l 0072                               strcmp@r 0073  
                             strcpy@d 002B                     _original_password 00E0  
                     read_adc@channel 0077                      _collect_password 0BED  
                        _display_time 08B0                            _print_star 1792  
                       i2c_write@data 0072                         ___xxtofl@sign 0020  
    __end_of_change_original_password 14B1                           ___fldiv@grs 003A  
                         ___fldiv@rem 0033                         clcd_print@str 0076  
            read_external_eeprom@data 0075                          write_event@i 0077  
                      __end_of___wmul 159A                           ?_read_event 0078  
                         view_log@key 002C  change_original_password@new_password 0072  
                      __end_of_strcmp 0800                        __end_of_strcpy 1473  
                          auth_user@i 0025                   start_initialization 000F  
                           _i2c_start 13DA                           __end_of_isr 15E8  
                           _i2c_write 1401                   _read_and_format_log 0B66  
               __end_of_i2c_rep_start 1401                  ?_read_and_format_log 0070  
                            ??___wmul 0076                            init_fetch0 1422  
                       ??_init_ds1307 007A                           __pdataBANK0 006B  
                         __pdataBANK1 00C6                         ??_read_ds1307 0074  
                        _download_log 095B                              ??_strcmp 0074  
                            ??_strcpy 007A                         ??_init_config 007A  
                           ___fldiv@a 0026                             ___fldiv@b 002A  
                         ?_print_star 0020                         ??_init_timer0 0072  
                         __pbssCOMMON 007A                             ___latbits 0002  
                       __pcstackBANK0 0020                            ?_i2c_start 0070  
                          ?_i2c_write 0070                             _dashboard 0EF3  
                    ___lwdiv@dividend 0074         __end_of_write_external_eeprom 16C7  
                           _clear_log 14B1                 ??_read_and_format_log 0022  
           ?_change_original_password 0072                              ?___fldiv 0026  
                            ?___fltol 0040                              ?___lldiv 0072  
                            ?___lwdiv 0072                             _clock_reg 0068  
                            ?___lwmod 0072                   main_menu@menu_index 003F  
                           __pstrings 1000                             _main_menu 0E03  
                 __end_of_init_ds1307 1449                             _auth_user 069B  
                        _menu_options 00D6                   read_adc@adc_reg_val 0075  
                 __end_of_read_ds1307 163D                      ___lwdiv@quotient 0076  
                           _init_clcd 140C                   __end_of_init_config 0835  
                   _display_indicator 0835                             _init_uart 16C7  
              main_menu@selected_menu 003D                         ?_write_ds1307 0079  
                 __end_of_init_timer0 13F6              ?_init_display_controller 0070  
                  ?_display_indicator 0020                     interrupt_function 0004  
                      ___wmul@product 0076              read_and_format_log@index 0027  
         read_external_eeprom@address 0074              __end_of_collect_password 0C7F  
                           clear_ram0 13D2                          ??_clcd_print 0079  
                        ??_clcd_putch 007A                          ??_clcd_write 0073  
                          ?_dashboard 0070                   ??_display_indicator 0079  
                          ?_clear_log 0070                          dashboard@key 004C  
                    view_log@curr_log 002E                         download_log@i 002D  
                         __stringbase 1012                     ___wmul@multiplier 0072  
                           _run_delay 0902                            ?_main_menu 0070  
                          ?_auth_user 0070              collect_password@re_enter 0021  
           __end_of_display_indicator 086E                           ??_i2c_start 0072  
                  __end_of_clcd_print 1697              collect_password@password 00C1  
                         ??_i2c_write 0072                    __end_of_clcd_putch 145E  
                  __end_of_clcd_write 1792                            ?_init_clcd 0070  
                          ?_init_uart 0026                        ??_write_ds1307 007A  
                 _init_digital_keypad 13BD                              _i2c_read 150F  
                            _i2c_stop 13E3                     get_time@clock_reg 0076  
                  write_event@address 0055          __end_of_read_external_eeprom 1668  
                   set_time@indicator 002D                       read_event@event 00B6  
                ?_init_digital_keypad 0070                           _init_ds1307 1435  
                         _event_count 0057                          ??_read_event 007A  
                  __end_of__stringtab 1012                           _read_ds1307 1612  
                          ?_run_delay 0070                           _init_config 0801  
                            ___xxtofl 0C7F                           _init_timer0 13EC  
                     ___lwdiv@divisor 0072                       ___lwdiv@counter 0078  
                            __ptext10 1575                              __ptext11 159A  
                            __ptext20 069B                              __ptext12 1417  
                            __ptext21 0902                              __ptext13 14B1  
                            __ptext30 1530                              __ptext22 13EC  
                            __ptext14 0A7F                              __ptext31 13BD  
                            __ptext23 1449                              __ptext15 145E  
                            __ptext40 14EF                              __ptext32 140C  
                            __ptext24 15E8                              __ptext16 07D8  
                            __ptext41 1612                              __ptext33 09B6  
                            __ptext25 0801                              __ptext17 0BED  
                            __ptext50 175C                              __ptext42 1401  
                            __ptext34 13C3                              __ptext26 16C7  
                            __ptext18 13CA                              __ptext51 0C7F  
                            __ptext43 13F6                              __ptext35 0EF3  
                            __ptext27 16F7                              __ptext19 1492  
                            __ptext52 086E                              __ptext44 13E3  
                            __ptext36 0D35                              __ptext28 0A19  
                            __ptext53 0AF0                              __ptext45 13DA  
                            __ptext37 1697                              __ptext29 1435  
                            __ptext54 0294                              __ptext46 150F  
                            __ptext38 17C8                              __ptext55 15C0  
                            __ptext47 04F3                              __ptext39 1473  
                            __ptext48 08B0                              __ptext49 1668  
                            _get_time 14EF                            strcpy@dest 0029  
                            _init_i2c 16F7                              _init_adc 13C3  
                            _read_adc 1473               read_digital_keypad@mode 0073  
             read_digital_keypad@once 006D                  read_and_format_log@i 0028  
                  __end_of_read_event 1575                           ??_dashboard 004A  
               display_time@clock_reg 0079                           ??_clear_log 0020  
                   ??_change_password 002C                         ?_clear_screen 0070  
                            _set_time 0040                              _view_log 045E  
               ??_init_digital_keypad 0072                              _put_char 1417  
     collect_password@curr_pass_index 0027                  display_indicator@pos 0020  
                        ??_print_star 0079                           ??_main_menu 0039  
                         ??_auth_user 0021                         ??_write_event 0020  
         change_password@new_password 0034                              isr@count 004F  
                        set_time@hour 0027                              init_ram0 1426  
                      read_event@addr 0078                           ??_init_clcd 0078  
                         ??_init_uart 002A                              intlevel1 0000  
                       init_uart@baud 0026                      ___lwmod@dividend 0074  
                    ___lldiv@dividend 0076                             strcpy@src 002A  
                           stringcode 100A                        ??_clear_screen 0076  
                  __end_of_print_star 17C8                  __end_of_write_ds1307 1552  
                 _read_digital_keypad 15E8                           ??_run_delay 007A  
                    ___lldiv@quotient 0021                       ___lwmod@divisor 0072  
                     ___lwmod@counter 0076                              stringtab 1000  
                ?_read_digital_keypad 0070                      write_ds1307@addr 0020  
                    write_ds1307@data 0079                   __end_of_write_event 0E03  
                _read_external_eeprom 163D           __end_of_read_and_format_log 0BED  
                   ?_collect_password 0021                    ??_collect_password 0023  
