

Microchip MPLAB XC8 Assembler V3.10 build 20250813170317 
                                                                                               Wed Jun 24 10:23:38 2026

Microchip MPLAB XC8 C Compiler v3.10 (Free license) build 20250813170317 Og1 
     1                           	processor	16F877A
     2                           	pagewidth 120
     3                           	opt	flic
     4                           	psect	idataBANK0,global,class=CODE,space=0,delta=2,noexec
     5                           	psect	idataBANK1,global,class=CODE,space=0,delta=2,noexec
     6                           	psect	strings,global,class=STRING,space=0,delta=2,noexec
     7                           	psect	stringtext,global,reloc=256,class=STRCODE,space=0,delta=2,noexec
     8                           	psect	cinit,global,class=CODE,space=0,merge=1,delta=2
     9                           	psect	bssBANK0,global,class=BANK0,space=1,delta=1,noexec
    10                           	psect	dataBANK0,global,class=BANK0,space=1,delta=1,noexec
    11                           	psect	bssBANK1,global,class=BANK1,space=1,delta=1,noexec
    12                           	psect	dataBANK1,global,class=BANK1,space=1,delta=1,noexec
    13                           	psect	bssBANK3,global,class=BANK3,space=1,delta=1,noexec
    14                           	psect	inittext,global,class=CODE,space=0,delta=2
    15                           	psect	clrtext,global,class=CODE,space=0,delta=2
    16                           	psect	cstackCOMMON,global,class=COMMON,space=1,delta=1,noexec
    17                           	psect	cstackBANK0,global,class=BANK0,space=1,delta=1,noexec
    18                           	psect	maintext,global,class=CODE,space=0,split=1,delta=2
    19                           	psect	text1,local,class=CODE,space=0,merge=1,delta=2
    20                           	psect	text2,local,class=CODE,space=0,merge=1,delta=2
    21                           	psect	text3,local,class=CODE,space=0,merge=1,delta=2
    22                           	psect	text4,local,class=CODE,space=0,merge=1,delta=2,group=1
    23                           	psect	text5,local,class=CODE,space=0,merge=1,delta=2
    24                           	psect	text6,local,class=CODE,space=0,merge=1,delta=2
    25                           	psect	text7,local,class=CODE,space=0,merge=1,delta=2
    26                           	psect	text8,local,class=CODE,space=0,merge=1,delta=2
    27                           	psect	text9,local,class=CODE,space=0,merge=1,delta=2
    28                           	psect	text10,local,class=CODE,space=0,merge=1,delta=2
    29                           	psect	text11,local,class=CODE,space=0,merge=1,delta=2
    30                           	psect	text12,local,class=CODE,space=0,merge=1,delta=2,group=2
    31                           	psect	text13,local,class=CODE,space=0,merge=1,delta=2
    32                           	psect	text14,local,class=CODE,space=0,merge=1,delta=2,group=2
    33                           	psect	text15,local,class=CODE,space=0,merge=1,delta=2
    34                           	psect	text16,local,class=CODE,space=0,merge=1,delta=2,group=1
    35                           	psect	text17,local,class=CODE,space=0,merge=1,delta=2,group=1
    36                           	psect	text18,local,class=CODE,space=0,merge=1,delta=2
    37                           	psect	text19,local,class=CODE,space=0,merge=1,delta=2
    38                           	psect	text20,local,class=CODE,space=0,merge=1,delta=2
    39                           	psect	text21,local,class=CODE,space=0,merge=1,delta=2,group=1
    40                           	psect	text22,local,class=CODE,space=0,merge=1,delta=2
    41                           	psect	text23,local,class=CODE,space=0,merge=1,delta=2
    42                           	psect	text24,local,class=CODE,space=0,merge=1,delta=2
    43                           	psect	text25,local,class=CODE,space=0,merge=1,delta=2
    44                           	psect	text26,local,class=CODE,space=0,merge=1,delta=2
    45                           	psect	text27,local,class=CODE,space=0,merge=1,delta=2
    46                           	psect	text28,local,class=CODE,space=0,merge=1,delta=2
    47                           	psect	text29,local,class=CODE,space=0,merge=1,delta=2
    48                           	psect	text30,local,class=CODE,space=0,merge=1,delta=2
    49                           	psect	text31,local,class=CODE,space=0,merge=1,delta=2
    50                           	psect	text32,local,class=CODE,space=0,merge=1,delta=2
    51                           	psect	text33,local,class=CODE,space=0,merge=1,delta=2
    52                           	psect	text34,local,class=CODE,space=0,merge=1,delta=2
    53                           	psect	text35,local,class=CODE,space=0,merge=1,delta=2
    54                           	psect	text36,local,class=CODE,space=0,merge=1,delta=2
    55                           	psect	text37,local,class=CODE,space=0,merge=1,delta=2
    56                           	psect	text38,local,class=CODE,space=0,merge=1,delta=2
    57                           	psect	text39,local,class=CODE,space=0,merge=1,delta=2
    58                           	psect	text40,local,class=CODE,space=0,merge=1,delta=2
    59                           	psect	text41,local,class=CODE,space=0,merge=1,delta=2
    60                           	psect	text42,local,class=CODE,space=0,merge=1,delta=2
    61                           	psect	text43,local,class=CODE,space=0,merge=1,delta=2,group=1
    62                           	psect	text44,local,class=CODE,space=0,merge=1,delta=2,group=1
    63                           	psect	text45,local,class=CODE,space=0,merge=1,delta=2,group=1
    64                           	psect	text46,local,class=CODE,space=0,merge=1,delta=2,group=1
    65                           	psect	text47,local,class=CODE,space=0,merge=1,delta=2,group=1
    66                           	psect	config,global,abs,ovrld,class=CONFIG,space=4,delta=2,noexec
    67                           	dabs	1,0x7E,2
    68     0000                     
    69                           ; Generated 26/03/2025 GMT
    70                           ; 
    71                           ; Copyright © 2025, Microchip Technology Inc. and its subsidiaries ("Microchip")
    72                           ; All rights reserved.
    73                           ; 
    74                           ; This software is developed by Microchip Technology Inc. and its subsidiaries ("Microch
      +                          ip").
    75                           ; 
    76                           ; Redistribution and use in source and binary forms, with or without modification, are
    77                           ; permitted provided that the following conditions are met:
    78                           ; 
    79                           ;     1. Redistributions of source code must retain the above copyright notice, this lis
      +                          t of
    80                           ;        conditions and the following disclaimer.
    81                           ; 
    82                           ;     2. Redistributions in binary form must reproduce the above copyright notice, this 
      +                          list
    83                           ;        of conditions and the following disclaimer in the documentation and/or other
    84                           ;        materials provided with the distribution. Publication is not required when
    85                           ;        this file is used in an embedded application.
    86                           ; 
    87                           ;     3. Microchip's name may not be used to endorse or promote products derived from th
      +                          is
    88                           ;        software without specific prior written permission.
    89                           ; 
    90                           ; THIS SOFTWARE IS PROVIDED BY MICROCHIP "AS IS" AND ANY EXPRESS OR IMPLIED WARRANTIES,
    91                           ; INCLUDING, BUT NOT LIMITED TO, THE IMPLIED WARRANTIES OF MERCHANTABILITY AND FITNESS F
      +                          OR
    92                           ; PURPOSE ARE DISCLAIMED.  IN NO EVENT SHALL MICROCHIP BE LIABLE FOR ANY DIRECT, INDIREC
      +                          T,
    93                           ; INCIDENTAL, SPECIAL, EXEMPLARY, OR CONSEQUENTIAL DAMAGES (INCLUDING BUT NOT LIMITED TO
    94                           ; PROCUREMENT OF SUBSTITUTE GOODS OR SERVICES; LOSS OF USE, DATA OR PROFITS; OR BUSINESS
    95                           ; INTERRUPTION) HOWSOEVER CAUSED AND ON ANY THEORY OF LIABILITY, WHETHER IN CONTRACT, ST
      +                          RICT
    96                           ; LIABILITY, OR TORT (INCLUDING NEGLIGENCE OR OTHERWISE) ARISING IN ANY WAY OUT OF THE U
      +                          SE OF
    97                           ; THIS SOFTWARE, EVEN IF ADVISED OF THE POSSIBILITY OF SUCH DAMAGE.
    98                           ; 
    99                           ; 
   100                           ; Code-generator required, PIC16F877A Definitions
   101                           ; 
   102                           ; SFR Addresses
   103     0004                     fsr             equ	4
   104     0004                     fsr0            equ	4
   105     0000                     indf            equ	0
   106     0000                     indf0           equ	0
   107     0002                     pc              equ	2
   108     0002                     pcl             equ	2
   109     000A                     pclath          equ	10
   110     0003                     status          equ	3
   111     0000                     INDF            equ	0	;# 
   112     0001                     TMR0            equ	1	;# 
   113     0002                     PCL             equ	2	;# 
   114     0003                     STATUS          equ	3	;# 
   115     0004                     FSR             equ	4	;# 
   116     0005                     PORTA           equ	5	;# 
   117     0006                     PORTB           equ	6	;# 
   118     0007                     PORTC           equ	7	;# 
   119     0008                     PORTD           equ	8	;# 
   120     0009                     PORTE           equ	9	;# 
   121     000A                     PCLATH          equ	10	;# 
   122     000B                     INTCON          equ	11	;# 
   123     000C                     PIR1            equ	12	;# 
   124     000D                     PIR2            equ	13	;# 
   125     000E                     TMR1            equ	14	;# 
   126     000E                     TMR1L           equ	14	;# 
   127     000F                     TMR1H           equ	15	;# 
   128     0010                     T1CON           equ	16	;# 
   129     0011                     TMR2            equ	17	;# 
   130     0012                     T2CON           equ	18	;# 
   131     0013                     SSPBUF          equ	19	;# 
   132     0014                     SSPCON          equ	20	;# 
   133     0015                     CCPR1           equ	21	;# 
   134     0015                     CCPR1L          equ	21	;# 
   135     0016                     CCPR1H          equ	22	;# 
   136     0017                     CCP1CON         equ	23	;# 
   137     0018                     RCSTA           equ	24	;# 
   138     0019                     TXREG           equ	25	;# 
   139     001A                     RCREG           equ	26	;# 
   140     001B                     CCPR2           equ	27	;# 
   141     001B                     CCPR2L          equ	27	;# 
   142     001C                     CCPR2H          equ	28	;# 
   143     001D                     CCP2CON         equ	29	;# 
   144     001E                     ADRESH          equ	30	;# 
   145     001F                     ADCON0          equ	31	;# 
   146     0081                     OPTION_REG      equ	129	;# 
   147     0085                     TRISA           equ	133	;# 
   148     0086                     TRISB           equ	134	;# 
   149     0087                     TRISC           equ	135	;# 
   150     0088                     TRISD           equ	136	;# 
   151     0089                     TRISE           equ	137	;# 
   152     008C                     PIE1            equ	140	;# 
   153     008D                     PIE2            equ	141	;# 
   154     008E                     PCON            equ	142	;# 
   155     0091                     SSPCON2         equ	145	;# 
   156     0092                     PR2             equ	146	;# 
   157     0093                     SSPADD          equ	147	;# 
   158     0094                     SSPSTAT         equ	148	;# 
   159     0098                     TXSTA           equ	152	;# 
   160     0099                     SPBRG           equ	153	;# 
   161     009C                     CMCON           equ	156	;# 
   162     009D                     CVRCON          equ	157	;# 
   163     009E                     ADRESL          equ	158	;# 
   164     009F                     ADCON1          equ	159	;# 
   165     010C                     EEDATA          equ	268	;# 
   166     010D                     EEADR           equ	269	;# 
   167     010E                     EEDATH          equ	270	;# 
   168     010F                     EEADRH          equ	271	;# 
   169     018C                     EECON1          equ	396	;# 
   170     018D                     EECON2          equ	397	;# 
   171     0000                     INDF            equ	0	;# 
   172     0001                     TMR0            equ	1	;# 
   173     0002                     PCL             equ	2	;# 
   174     0003                     STATUS          equ	3	;# 
   175     0004                     FSR             equ	4	;# 
   176     0005                     PORTA           equ	5	;# 
   177     0006                     PORTB           equ	6	;# 
   178     0007                     PORTC           equ	7	;# 
   179     0008                     PORTD           equ	8	;# 
   180     0009                     PORTE           equ	9	;# 
   181     000A                     PCLATH          equ	10	;# 
   182     000B                     INTCON          equ	11	;# 
   183     000C                     PIR1            equ	12	;# 
   184     000D                     PIR2            equ	13	;# 
   185     000E                     TMR1            equ	14	;# 
   186     000E                     TMR1L           equ	14	;# 
   187     000F                     TMR1H           equ	15	;# 
   188     0010                     T1CON           equ	16	;# 
   189     0011                     TMR2            equ	17	;# 
   190     0012                     T2CON           equ	18	;# 
   191     0013                     SSPBUF          equ	19	;# 
   192     0014                     SSPCON          equ	20	;# 
   193     0015                     CCPR1           equ	21	;# 
   194     0015                     CCPR1L          equ	21	;# 
   195     0016                     CCPR1H          equ	22	;# 
   196     0017                     CCP1CON         equ	23	;# 
   197     0018                     RCSTA           equ	24	;# 
   198     0019                     TXREG           equ	25	;# 
   199     001A                     RCREG           equ	26	;# 
   200     001B                     CCPR2           equ	27	;# 
   201     001B                     CCPR2L          equ	27	;# 
   202     001C                     CCPR2H          equ	28	;# 
   203     001D                     CCP2CON         equ	29	;# 
   204     001E                     ADRESH          equ	30	;# 
   205     001F                     ADCON0          equ	31	;# 
   206     0081                     OPTION_REG      equ	129	;# 
   207     0085                     TRISA           equ	133	;# 
   208     0086                     TRISB           equ	134	;# 
   209     0087                     TRISC           equ	135	;# 
   210     0088                     TRISD           equ	136	;# 
   211     0089                     TRISE           equ	137	;# 
   212     008C                     PIE1            equ	140	;# 
   213     008D                     PIE2            equ	141	;# 
   214     008E                     PCON            equ	142	;# 
   215     0091                     SSPCON2         equ	145	;# 
   216     0092                     PR2             equ	146	;# 
   217     0093                     SSPADD          equ	147	;# 
   218     0094                     SSPSTAT         equ	148	;# 
   219     0098                     TXSTA           equ	152	;# 
   220     0099                     SPBRG           equ	153	;# 
   221     009C                     CMCON           equ	156	;# 
   222     009D                     CVRCON          equ	157	;# 
   223     009E                     ADRESL          equ	158	;# 
   224     009F                     ADCON1          equ	159	;# 
   225     010C                     EEDATA          equ	268	;# 
   226     010D                     EEADR           equ	269	;# 
   227     010E                     EEDATH          equ	270	;# 
   228     010F                     EEADRH          equ	271	;# 
   229     018C                     EECON1          equ	396	;# 
   230     018D                     EECON2          equ	397	;# 
   231     0000                     INDF            equ	0	;# 
   232     0001                     TMR0            equ	1	;# 
   233     0002                     PCL             equ	2	;# 
   234     0003                     STATUS          equ	3	;# 
   235     0004                     FSR             equ	4	;# 
   236     0005                     PORTA           equ	5	;# 
   237     0006                     PORTB           equ	6	;# 
   238     0007                     PORTC           equ	7	;# 
   239     0008                     PORTD           equ	8	;# 
   240     0009                     PORTE           equ	9	;# 
   241     000A                     PCLATH          equ	10	;# 
   242     000B                     INTCON          equ	11	;# 
   243     000C                     PIR1            equ	12	;# 
   244     000D                     PIR2            equ	13	;# 
   245     000E                     TMR1            equ	14	;# 
   246     000E                     TMR1L           equ	14	;# 
   247     000F                     TMR1H           equ	15	;# 
   248     0010                     T1CON           equ	16	;# 
   249     0011                     TMR2            equ	17	;# 
   250     0012                     T2CON           equ	18	;# 
   251     0013                     SSPBUF          equ	19	;# 
   252     0014                     SSPCON          equ	20	;# 
   253     0015                     CCPR1           equ	21	;# 
   254     0015                     CCPR1L          equ	21	;# 
   255     0016                     CCPR1H          equ	22	;# 
   256     0017                     CCP1CON         equ	23	;# 
   257     0018                     RCSTA           equ	24	;# 
   258     0019                     TXREG           equ	25	;# 
   259     001A                     RCREG           equ	26	;# 
   260     001B                     CCPR2           equ	27	;# 
   261     001B                     CCPR2L          equ	27	;# 
   262     001C                     CCPR2H          equ	28	;# 
   263     001D                     CCP2CON         equ	29	;# 
   264     001E                     ADRESH          equ	30	;# 
   265     001F                     ADCON0          equ	31	;# 
   266     0081                     OPTION_REG      equ	129	;# 
   267     0085                     TRISA           equ	133	;# 
   268     0086                     TRISB           equ	134	;# 
   269     0087                     TRISC           equ	135	;# 
   270     0088                     TRISD           equ	136	;# 
   271     0089                     TRISE           equ	137	;# 
   272     008C                     PIE1            equ	140	;# 
   273     008D                     PIE2            equ	141	;# 
   274     008E                     PCON            equ	142	;# 
   275     0091                     SSPCON2         equ	145	;# 
   276     0092                     PR2             equ	146	;# 
   277     0093                     SSPADD          equ	147	;# 
   278     0094                     SSPSTAT         equ	148	;# 
   279     0098                     TXSTA           equ	152	;# 
   280     0099                     SPBRG           equ	153	;# 
   281     009C                     CMCON           equ	156	;# 
   282     009D                     CVRCON          equ	157	;# 
   283     009E                     ADRESL          equ	158	;# 
   284     009F                     ADCON1          equ	159	;# 
   285     010C                     EEDATA          equ	268	;# 
   286     010D                     EEADR           equ	269	;# 
   287     010E                     EEDATH          equ	270	;# 
   288     010F                     EEADRH          equ	271	;# 
   289     018C                     EECON1          equ	396	;# 
   290     018D                     EECON2          equ	397	;# 
   291     0000                     INDF            equ	0	;# 
   292     0001                     TMR0            equ	1	;# 
   293     0002                     PCL             equ	2	;# 
   294     0003                     STATUS          equ	3	;# 
   295     0004                     FSR             equ	4	;# 
   296     0005                     PORTA           equ	5	;# 
   297     0006                     PORTB           equ	6	;# 
   298     0007                     PORTC           equ	7	;# 
   299     0008                     PORTD           equ	8	;# 
   300     0009                     PORTE           equ	9	;# 
   301     000A                     PCLATH          equ	10	;# 
   302     000B                     INTCON          equ	11	;# 
   303     000C                     PIR1            equ	12	;# 
   304     000D                     PIR2            equ	13	;# 
   305     000E                     TMR1            equ	14	;# 
   306     000E                     TMR1L           equ	14	;# 
   307     000F                     TMR1H           equ	15	;# 
   308     0010                     T1CON           equ	16	;# 
   309     0011                     TMR2            equ	17	;# 
   310     0012                     T2CON           equ	18	;# 
   311     0013                     SSPBUF          equ	19	;# 
   312     0014                     SSPCON          equ	20	;# 
   313     0015                     CCPR1           equ	21	;# 
   314     0015                     CCPR1L          equ	21	;# 
   315     0016                     CCPR1H          equ	22	;# 
   316     0017                     CCP1CON         equ	23	;# 
   317     0018                     RCSTA           equ	24	;# 
   318     0019                     TXREG           equ	25	;# 
   319     001A                     RCREG           equ	26	;# 
   320     001B                     CCPR2           equ	27	;# 
   321     001B                     CCPR2L          equ	27	;# 
   322     001C                     CCPR2H          equ	28	;# 
   323     001D                     CCP2CON         equ	29	;# 
   324     001E                     ADRESH          equ	30	;# 
   325     001F                     ADCON0          equ	31	;# 
   326     0081                     OPTION_REG      equ	129	;# 
   327     0085                     TRISA           equ	133	;# 
   328     0086                     TRISB           equ	134	;# 
   329     0087                     TRISC           equ	135	;# 
   330     0088                     TRISD           equ	136	;# 
   331     0089                     TRISE           equ	137	;# 
   332     008C                     PIE1            equ	140	;# 
   333     008D                     PIE2            equ	141	;# 
   334     008E                     PCON            equ	142	;# 
   335     0091                     SSPCON2         equ	145	;# 
   336     0092                     PR2             equ	146	;# 
   337     0093                     SSPADD          equ	147	;# 
   338     0094                     SSPSTAT         equ	148	;# 
   339     0098                     TXSTA           equ	152	;# 
   340     0099                     SPBRG           equ	153	;# 
   341     009C                     CMCON           equ	156	;# 
   342     009D                     CVRCON          equ	157	;# 
   343     009E                     ADRESL          equ	158	;# 
   344     009F                     ADCON1          equ	159	;# 
   345     010C                     EEDATA          equ	268	;# 
   346     010D                     EEADR           equ	269	;# 
   347     010E                     EEDATH          equ	270	;# 
   348     010F                     EEADRH          equ	271	;# 
   349     018C                     EECON1          equ	396	;# 
   350     018D                     EECON2          equ	397	;# 
   351     0000                     INDF            equ	0	;# 
   352     0001                     TMR0            equ	1	;# 
   353     0002                     PCL             equ	2	;# 
   354     0003                     STATUS          equ	3	;# 
   355     0004                     FSR             equ	4	;# 
   356     0005                     PORTA           equ	5	;# 
   357     0006                     PORTB           equ	6	;# 
   358     0007                     PORTC           equ	7	;# 
   359     0008                     PORTD           equ	8	;# 
   360     0009                     PORTE           equ	9	;# 
   361     000A                     PCLATH          equ	10	;# 
   362     000B                     INTCON          equ	11	;# 
   363     000C                     PIR1            equ	12	;# 
   364     000D                     PIR2            equ	13	;# 
   365     000E                     TMR1            equ	14	;# 
   366     000E                     TMR1L           equ	14	;# 
   367     000F                     TMR1H           equ	15	;# 
   368     0010                     T1CON           equ	16	;# 
   369     0011                     TMR2            equ	17	;# 
   370     0012                     T2CON           equ	18	;# 
   371     0013                     SSPBUF          equ	19	;# 
   372     0014                     SSPCON          equ	20	;# 
   373     0015                     CCPR1           equ	21	;# 
   374     0015                     CCPR1L          equ	21	;# 
   375     0016                     CCPR1H          equ	22	;# 
   376     0017                     CCP1CON         equ	23	;# 
   377     0018                     RCSTA           equ	24	;# 
   378     0019                     TXREG           equ	25	;# 
   379     001A                     RCREG           equ	26	;# 
   380     001B                     CCPR2           equ	27	;# 
   381     001B                     CCPR2L          equ	27	;# 
   382     001C                     CCPR2H          equ	28	;# 
   383     001D                     CCP2CON         equ	29	;# 
   384     001E                     ADRESH          equ	30	;# 
   385     001F                     ADCON0          equ	31	;# 
   386     0081                     OPTION_REG      equ	129	;# 
   387     0085                     TRISA           equ	133	;# 
   388     0086                     TRISB           equ	134	;# 
   389     0087                     TRISC           equ	135	;# 
   390     0088                     TRISD           equ	136	;# 
   391     0089                     TRISE           equ	137	;# 
   392     008C                     PIE1            equ	140	;# 
   393     008D                     PIE2            equ	141	;# 
   394     008E                     PCON            equ	142	;# 
   395     0091                     SSPCON2         equ	145	;# 
   396     0092                     PR2             equ	146	;# 
   397     0093                     SSPADD          equ	147	;# 
   398     0094                     SSPSTAT         equ	148	;# 
   399     0098                     TXSTA           equ	152	;# 
   400     0099                     SPBRG           equ	153	;# 
   401     009C                     CMCON           equ	156	;# 
   402     009D                     CVRCON          equ	157	;# 
   403     009E                     ADRESL          equ	158	;# 
   404     009F                     ADCON1          equ	159	;# 
   405     010C                     EEDATA          equ	268	;# 
   406     010D                     EEADR           equ	269	;# 
   407     010E                     EEDATH          equ	270	;# 
   408     010F                     EEADRH          equ	271	;# 
   409     018C                     EECON1          equ	396	;# 
   410     018D                     EECON2          equ	397	;# 
   411     0000                     INDF            equ	0	;# 
   412     0001                     TMR0            equ	1	;# 
   413     0002                     PCL             equ	2	;# 
   414     0003                     STATUS          equ	3	;# 
   415     0004                     FSR             equ	4	;# 
   416     0005                     PORTA           equ	5	;# 
   417     0006                     PORTB           equ	6	;# 
   418     0007                     PORTC           equ	7	;# 
   419     0008                     PORTD           equ	8	;# 
   420     0009                     PORTE           equ	9	;# 
   421     000A                     PCLATH          equ	10	;# 
   422     000B                     INTCON          equ	11	;# 
   423     000C                     PIR1            equ	12	;# 
   424     000D                     PIR2            equ	13	;# 
   425     000E                     TMR1            equ	14	;# 
   426     000E                     TMR1L           equ	14	;# 
   427     000F                     TMR1H           equ	15	;# 
   428     0010                     T1CON           equ	16	;# 
   429     0011                     TMR2            equ	17	;# 
   430     0012                     T2CON           equ	18	;# 
   431     0013                     SSPBUF          equ	19	;# 
   432     0014                     SSPCON          equ	20	;# 
   433     0015                     CCPR1           equ	21	;# 
   434     0015                     CCPR1L          equ	21	;# 
   435     0016                     CCPR1H          equ	22	;# 
   436     0017                     CCP1CON         equ	23	;# 
   437     0018                     RCSTA           equ	24	;# 
   438     0019                     TXREG           equ	25	;# 
   439     001A                     RCREG           equ	26	;# 
   440     001B                     CCPR2           equ	27	;# 
   441     001B                     CCPR2L          equ	27	;# 
   442     001C                     CCPR2H          equ	28	;# 
   443     001D                     CCP2CON         equ	29	;# 
   444     001E                     ADRESH          equ	30	;# 
   445     001F                     ADCON0          equ	31	;# 
   446     0081                     OPTION_REG      equ	129	;# 
   447     0085                     TRISA           equ	133	;# 
   448     0086                     TRISB           equ	134	;# 
   449     0087                     TRISC           equ	135	;# 
   450     0088                     TRISD           equ	136	;# 
   451     0089                     TRISE           equ	137	;# 
   452     008C                     PIE1            equ	140	;# 
   453     008D                     PIE2            equ	141	;# 
   454     008E                     PCON            equ	142	;# 
   455     0091                     SSPCON2         equ	145	;# 
   456     0092                     PR2             equ	146	;# 
   457     0093                     SSPADD          equ	147	;# 
   458     0094                     SSPSTAT         equ	148	;# 
   459     0098                     TXSTA           equ	152	;# 
   460     0099                     SPBRG           equ	153	;# 
   461     009C                     CMCON           equ	156	;# 
   462     009D                     CVRCON          equ	157	;# 
   463     009E                     ADRESL          equ	158	;# 
   464     009F                     ADCON1          equ	159	;# 
   465     010C                     EEDATA          equ	268	;# 
   466     010D                     EEADR           equ	269	;# 
   467     010E                     EEDATH          equ	270	;# 
   468     010F                     EEADRH          equ	271	;# 
   469     018C                     EECON1          equ	396	;# 
   470     018D                     EECON2          equ	397	;# 
   471     0000                     INDF            equ	0	;# 
   472     0001                     TMR0            equ	1	;# 
   473     0002                     PCL             equ	2	;# 
   474     0003                     STATUS          equ	3	;# 
   475     0004                     FSR             equ	4	;# 
   476     0005                     PORTA           equ	5	;# 
   477     0006                     PORTB           equ	6	;# 
   478     0007                     PORTC           equ	7	;# 
   479     0008                     PORTD           equ	8	;# 
   480     0009                     PORTE           equ	9	;# 
   481     000A                     PCLATH          equ	10	;# 
   482     000B                     INTCON          equ	11	;# 
   483     000C                     PIR1            equ	12	;# 
   484     000D                     PIR2            equ	13	;# 
   485     000E                     TMR1            equ	14	;# 
   486     000E                     TMR1L           equ	14	;# 
   487     000F                     TMR1H           equ	15	;# 
   488     0010                     T1CON           equ	16	;# 
   489     0011                     TMR2            equ	17	;# 
   490     0012                     T2CON           equ	18	;# 
   491     0013                     SSPBUF          equ	19	;# 
   492     0014                     SSPCON          equ	20	;# 
   493     0015                     CCPR1           equ	21	;# 
   494     0015                     CCPR1L          equ	21	;# 
   495     0016                     CCPR1H          equ	22	;# 
   496     0017                     CCP1CON         equ	23	;# 
   497     0018                     RCSTA           equ	24	;# 
   498     0019                     TXREG           equ	25	;# 
   499     001A                     RCREG           equ	26	;# 
   500     001B                     CCPR2           equ	27	;# 
   501     001B                     CCPR2L          equ	27	;# 
   502     001C                     CCPR2H          equ	28	;# 
   503     001D                     CCP2CON         equ	29	;# 
   504     001E                     ADRESH          equ	30	;# 
   505     001F                     ADCON0          equ	31	;# 
   506     0081                     OPTION_REG      equ	129	;# 
   507     0085                     TRISA           equ	133	;# 
   508     0086                     TRISB           equ	134	;# 
   509     0087                     TRISC           equ	135	;# 
   510     0088                     TRISD           equ	136	;# 
   511     0089                     TRISE           equ	137	;# 
   512     008C                     PIE1            equ	140	;# 
   513     008D                     PIE2            equ	141	;# 
   514     008E                     PCON            equ	142	;# 
   515     0091                     SSPCON2         equ	145	;# 
   516     0092                     PR2             equ	146	;# 
   517     0093                     SSPADD          equ	147	;# 
   518     0094                     SSPSTAT         equ	148	;# 
   519     0098                     TXSTA           equ	152	;# 
   520     0099                     SPBRG           equ	153	;# 
   521     009C                     CMCON           equ	156	;# 
   522     009D                     CVRCON          equ	157	;# 
   523     009E                     ADRESL          equ	158	;# 
   524     009F                     ADCON1          equ	159	;# 
   525     010C                     EEDATA          equ	268	;# 
   526     010D                     EEADR           equ	269	;# 
   527     010E                     EEDATH          equ	270	;# 
   528     010F                     EEADRH          equ	271	;# 
   529     018C                     EECON1          equ	396	;# 
   530     018D                     EECON2          equ	397	;# 
   531     0000                     INDF            equ	0	;# 
   532     0001                     TMR0            equ	1	;# 
   533     0002                     PCL             equ	2	;# 
   534     0003                     STATUS          equ	3	;# 
   535     0004                     FSR             equ	4	;# 
   536     0005                     PORTA           equ	5	;# 
   537     0006                     PORTB           equ	6	;# 
   538     0007                     PORTC           equ	7	;# 
   539     0008                     PORTD           equ	8	;# 
   540     0009                     PORTE           equ	9	;# 
   541     000A                     PCLATH          equ	10	;# 
   542     000B                     INTCON          equ	11	;# 
   543     000C                     PIR1            equ	12	;# 
   544     000D                     PIR2            equ	13	;# 
   545     000E                     TMR1            equ	14	;# 
   546     000E                     TMR1L           equ	14	;# 
   547     000F                     TMR1H           equ	15	;# 
   548     0010                     T1CON           equ	16	;# 
   549     0011                     TMR2            equ	17	;# 
   550     0012                     T2CON           equ	18	;# 
   551     0013                     SSPBUF          equ	19	;# 
   552     0014                     SSPCON          equ	20	;# 
   553     0015                     CCPR1           equ	21	;# 
   554     0015                     CCPR1L          equ	21	;# 
   555     0016                     CCPR1H          equ	22	;# 
   556     0017                     CCP1CON         equ	23	;# 
   557     0018                     RCSTA           equ	24	;# 
   558     0019                     TXREG           equ	25	;# 
   559     001A                     RCREG           equ	26	;# 
   560     001B                     CCPR2           equ	27	;# 
   561     001B                     CCPR2L          equ	27	;# 
   562     001C                     CCPR2H          equ	28	;# 
   563     001D                     CCP2CON         equ	29	;# 
   564     001E                     ADRESH          equ	30	;# 
   565     001F                     ADCON0          equ	31	;# 
   566     0081                     OPTION_REG      equ	129	;# 
   567     0085                     TRISA           equ	133	;# 
   568     0086                     TRISB           equ	134	;# 
   569     0087                     TRISC           equ	135	;# 
   570     0088                     TRISD           equ	136	;# 
   571     0089                     TRISE           equ	137	;# 
   572     008C                     PIE1            equ	140	;# 
   573     008D                     PIE2            equ	141	;# 
   574     008E                     PCON            equ	142	;# 
   575     0091                     SSPCON2         equ	145	;# 
   576     0092                     PR2             equ	146	;# 
   577     0093                     SSPADD          equ	147	;# 
   578     0094                     SSPSTAT         equ	148	;# 
   579     0098                     TXSTA           equ	152	;# 
   580     0099                     SPBRG           equ	153	;# 
   581     009C                     CMCON           equ	156	;# 
   582     009D                     CVRCON          equ	157	;# 
   583     009E                     ADRESL          equ	158	;# 
   584     009F                     ADCON1          equ	159	;# 
   585     010C                     EEDATA          equ	268	;# 
   586     010D                     EEADR           equ	269	;# 
   587     010E                     EEDATH          equ	270	;# 
   588     010F                     EEADRH          equ	271	;# 
   589     018C                     EECON1          equ	396	;# 
   590     018D                     EECON2          equ	397	;# 
   591     0000                     INDF            equ	0	;# 
   592     0001                     TMR0            equ	1	;# 
   593     0002                     PCL             equ	2	;# 
   594     0003                     STATUS          equ	3	;# 
   595     0004                     FSR             equ	4	;# 
   596     0005                     PORTA           equ	5	;# 
   597     0006                     PORTB           equ	6	;# 
   598     0007                     PORTC           equ	7	;# 
   599     0008                     PORTD           equ	8	;# 
   600     0009                     PORTE           equ	9	;# 
   601     000A                     PCLATH          equ	10	;# 
   602     000B                     INTCON          equ	11	;# 
   603     000C                     PIR1            equ	12	;# 
   604     000D                     PIR2            equ	13	;# 
   605     000E                     TMR1            equ	14	;# 
   606     000E                     TMR1L           equ	14	;# 
   607     000F                     TMR1H           equ	15	;# 
   608     0010                     T1CON           equ	16	;# 
   609     0011                     TMR2            equ	17	;# 
   610     0012                     T2CON           equ	18	;# 
   611     0013                     SSPBUF          equ	19	;# 
   612     0014                     SSPCON          equ	20	;# 
   613     0015                     CCPR1           equ	21	;# 
   614     0015                     CCPR1L          equ	21	;# 
   615     0016                     CCPR1H          equ	22	;# 
   616     0017                     CCP1CON         equ	23	;# 
   617     0018                     RCSTA           equ	24	;# 
   618     0019                     TXREG           equ	25	;# 
   619     001A                     RCREG           equ	26	;# 
   620     001B                     CCPR2           equ	27	;# 
   621     001B                     CCPR2L          equ	27	;# 
   622     001C                     CCPR2H          equ	28	;# 
   623     001D                     CCP2CON         equ	29	;# 
   624     001E                     ADRESH          equ	30	;# 
   625     001F                     ADCON0          equ	31	;# 
   626     0081                     OPTION_REG      equ	129	;# 
   627     0085                     TRISA           equ	133	;# 
   628     0086                     TRISB           equ	134	;# 
   629     0087                     TRISC           equ	135	;# 
   630     0088                     TRISD           equ	136	;# 
   631     0089                     TRISE           equ	137	;# 
   632     008C                     PIE1            equ	140	;# 
   633     008D                     PIE2            equ	141	;# 
   634     008E                     PCON            equ	142	;# 
   635     0091                     SSPCON2         equ	145	;# 
   636     0092                     PR2             equ	146	;# 
   637     0093                     SSPADD          equ	147	;# 
   638     0094                     SSPSTAT         equ	148	;# 
   639     0098                     TXSTA           equ	152	;# 
   640     0099                     SPBRG           equ	153	;# 
   641     009C                     CMCON           equ	156	;# 
   642     009D                     CVRCON          equ	157	;# 
   643     009E                     ADRESL          equ	158	;# 
   644     009F                     ADCON1          equ	159	;# 
   645     010C                     EEDATA          equ	268	;# 
   646     010D                     EEADR           equ	269	;# 
   647     010E                     EEDATH          equ	270	;# 
   648     010F                     EEADRH          equ	271	;# 
   649     018C                     EECON1          equ	396	;# 
   650     018D                     EECON2          equ	397	;# 
   651     0000                     INDF            equ	0	;# 
   652     0001                     TMR0            equ	1	;# 
   653     0002                     PCL             equ	2	;# 
   654     0003                     STATUS          equ	3	;# 
   655     0004                     FSR             equ	4	;# 
   656     0005                     PORTA           equ	5	;# 
   657     0006                     PORTB           equ	6	;# 
   658     0007                     PORTC           equ	7	;# 
   659     0008                     PORTD           equ	8	;# 
   660     0009                     PORTE           equ	9	;# 
   661     000A                     PCLATH          equ	10	;# 
   662     000B                     INTCON          equ	11	;# 
   663     000C                     PIR1            equ	12	;# 
   664     000D                     PIR2            equ	13	;# 
   665     000E                     TMR1            equ	14	;# 
   666     000E                     TMR1L           equ	14	;# 
   667     000F                     TMR1H           equ	15	;# 
   668     0010                     T1CON           equ	16	;# 
   669     0011                     TMR2            equ	17	;# 
   670     0012                     T2CON           equ	18	;# 
   671     0013                     SSPBUF          equ	19	;# 
   672     0014                     SSPCON          equ	20	;# 
   673     0015                     CCPR1           equ	21	;# 
   674     0015                     CCPR1L          equ	21	;# 
   675     0016                     CCPR1H          equ	22	;# 
   676     0017                     CCP1CON         equ	23	;# 
   677     0018                     RCSTA           equ	24	;# 
   678     0019                     TXREG           equ	25	;# 
   679     001A                     RCREG           equ	26	;# 
   680     001B                     CCPR2           equ	27	;# 
   681     001B                     CCPR2L          equ	27	;# 
   682     001C                     CCPR2H          equ	28	;# 
   683     001D                     CCP2CON         equ	29	;# 
   684     001E                     ADRESH          equ	30	;# 
   685     001F                     ADCON0          equ	31	;# 
   686     0081                     OPTION_REG      equ	129	;# 
   687     0085                     TRISA           equ	133	;# 
   688     0086                     TRISB           equ	134	;# 
   689     0087                     TRISC           equ	135	;# 
   690     0088                     TRISD           equ	136	;# 
   691     0089                     TRISE           equ	137	;# 
   692     008C                     PIE1            equ	140	;# 
   693     008D                     PIE2            equ	141	;# 
   694     008E                     PCON            equ	142	;# 
   695     0091                     SSPCON2         equ	145	;# 
   696     0092                     PR2             equ	146	;# 
   697     0093                     SSPADD          equ	147	;# 
   698     0094                     SSPSTAT         equ	148	;# 
   699     0098                     TXSTA           equ	152	;# 
   700     0099                     SPBRG           equ	153	;# 
   701     009C                     CMCON           equ	156	;# 
   702     009D                     CVRCON          equ	157	;# 
   703     009E                     ADRESL          equ	158	;# 
   704     009F                     ADCON1          equ	159	;# 
   705     010C                     EEDATA          equ	268	;# 
   706     010D                     EEADR           equ	269	;# 
   707     010E                     EEDATH          equ	270	;# 
   708     010F                     EEADRH          equ	271	;# 
   709     018C                     EECON1          equ	396	;# 
   710     018D                     EECON2          equ	397	;# 
   711     0000                     INDF            equ	0	;# 
   712     0001                     TMR0            equ	1	;# 
   713     0002                     PCL             equ	2	;# 
   714     0003                     STATUS          equ	3	;# 
   715     0004                     FSR             equ	4	;# 
   716     0005                     PORTA           equ	5	;# 
   717     0006                     PORTB           equ	6	;# 
   718     0007                     PORTC           equ	7	;# 
   719     0008                     PORTD           equ	8	;# 
   720     0009                     PORTE           equ	9	;# 
   721     000A                     PCLATH          equ	10	;# 
   722     000B                     INTCON          equ	11	;# 
   723     000C                     PIR1            equ	12	;# 
   724     000D                     PIR2            equ	13	;# 
   725     000E                     TMR1            equ	14	;# 
   726     000E                     TMR1L           equ	14	;# 
   727     000F                     TMR1H           equ	15	;# 
   728     0010                     T1CON           equ	16	;# 
   729     0011                     TMR2            equ	17	;# 
   730     0012                     T2CON           equ	18	;# 
   731     0013                     SSPBUF          equ	19	;# 
   732     0014                     SSPCON          equ	20	;# 
   733     0015                     CCPR1           equ	21	;# 
   734     0015                     CCPR1L          equ	21	;# 
   735     0016                     CCPR1H          equ	22	;# 
   736     0017                     CCP1CON         equ	23	;# 
   737     0018                     RCSTA           equ	24	;# 
   738     0019                     TXREG           equ	25	;# 
   739     001A                     RCREG           equ	26	;# 
   740     001B                     CCPR2           equ	27	;# 
   741     001B                     CCPR2L          equ	27	;# 
   742     001C                     CCPR2H          equ	28	;# 
   743     001D                     CCP2CON         equ	29	;# 
   744     001E                     ADRESH          equ	30	;# 
   745     001F                     ADCON0          equ	31	;# 
   746     0081                     OPTION_REG      equ	129	;# 
   747     0085                     TRISA           equ	133	;# 
   748     0086                     TRISB           equ	134	;# 
   749     0087                     TRISC           equ	135	;# 
   750     0088                     TRISD           equ	136	;# 
   751     0089                     TRISE           equ	137	;# 
   752     008C                     PIE1            equ	140	;# 
   753     008D                     PIE2            equ	141	;# 
   754     008E                     PCON            equ	142	;# 
   755     0091                     SSPCON2         equ	145	;# 
   756     0092                     PR2             equ	146	;# 
   757     0093                     SSPADD          equ	147	;# 
   758     0094                     SSPSTAT         equ	148	;# 
   759     0098                     TXSTA           equ	152	;# 
   760     0099                     SPBRG           equ	153	;# 
   761     009C                     CMCON           equ	156	;# 
   762     009D                     CVRCON          equ	157	;# 
   763     009E                     ADRESL          equ	158	;# 
   764     009F                     ADCON1          equ	159	;# 
   765     010C                     EEDATA          equ	268	;# 
   766     010D                     EEADR           equ	269	;# 
   767     010E                     EEDATH          equ	270	;# 
   768     010F                     EEADRH          equ	271	;# 
   769     018C                     EECON1          equ	396	;# 
   770     018D                     EECON2          equ	397	;# 
   771                           
   772                           	psect	idataBANK0
   773     10B9                     __pidataBANK0:
   774                           
   775                           ;initializer for change_password@once
   776     10B9  3401               	retlw	1
   777                           
   778                           ;initializer for set_time@visible
   779     10BA  3401               	retlw	1
   780                           
   781                           ;initializer for set_time@once
   782     10BB  3401               	retlw	1
   783                           
   784                           ;initializer for clear_log@once
   785     10BC  3401               	retlw	1
   786                           
   787                           ;initializer for menu@redraw
   788     10BD  3401               	retlw	1
   789                           
   790                           ;initializer for login@sec_left
   791     10BE  341E               	retlw	30
   792                           
   793                           ;initializer for login@attempts
   794     10BF  3403               	retlw	3
   795                           
   796                           ;initializer for login@once
   797     10C0  3401               	retlw	1
   798                           
   799                           ;initializer for _old_menu_pos
   800     10C1  34FF               	retlw	255
   801                           
   802                           ;initializer for read_digital_keypad@once
   803     10C2  3401               	retlw	1
   804                           
   805                           	psect	idataBANK1
   806     119C                     __pidataBANK1:
   807                           
   808                           ;initializer for _event
   809     119C  34FD               	retlw	low (STR_3| (0+32768))
   810     119D  3489               	retlw	high (STR_3| (0+32768))
   811     119E  34FA               	retlw	low (STR_4| (0+32768))
   812     119F  3489               	retlw	high (STR_4| (0+32768))
   813     11A0  34EE               	retlw	low (STR_5| (0+32768))
   814     11A1  3489               	retlw	high (STR_5| (0+32768))
   815     11A2  34F1               	retlw	low (STR_6| (0+32768))
   816     11A3  3489               	retlw	high (STR_6| (0+32768))
   817     11A4  34F4               	retlw	low (STR_7| (0+32768))
   818     11A5  3489               	retlw	high (STR_7| (0+32768))
   819     11A6  34F7               	retlw	low (STR_8| (0+32768))
   820     11A7  3489               	retlw	high (STR_8| (0+32768))
   821     11A8  3400               	retlw	low (STR_9| (0+32768))
   822     11A9  348A               	retlw	high (STR_9| (0+32768))
   823     11AA  34EB               	retlw	low (STR_10| (0+32768))
   824     11AB  3489               	retlw	high (STR_10| (0+32768))
   825                           
   826                           ;initializer for _str
   827     11AC  34E2               	retlw	low (STR_13| (0+32768))
   828     11AD  3489               	retlw	high (STR_13| (0+32768))
   829     11AE  34CF               	retlw	low (STR_14| (0+32768))
   830     11AF  3489               	retlw	high (STR_14| (0+32768))
   831     11B0  34AA               	retlw	low (STR_15| (0+32768))
   832     11B1  3489               	retlw	high (STR_15| (0+32768))
   833     11B2  34D9               	retlw	low (STR_16| (0+32768))
   834     11B3  3489               	retlw	high (STR_16| (0+32768))
   835     11B4  34C3               	retlw	low (STR_17| (0+32768))
   836     11B5  3489               	retlw	high (STR_17| (0+32768))
   837                           
   838                           ;initializer for _password
   839     11B6  3431               	retlw	49
   840     11B7  3431               	retlw	49
   841     11B8  3430               	retlw	48
   842     11B9  3430               	retlw	48
   843     11BA  3400               	retlw	0
   844     0019                     _TXREG          set	25
   845     0013                     _SSPBUF         set	19
   846     0006                     _PORTB          set	6
   847     0008                     _PORTD          set	8
   848     001E                     _ADRESH         set	30
   849     001F                     _ADCON0         set	31
   850     0064                     _TXIF           set	100
   851     00C4                     _CREN           set	196
   852     00C7                     _SPEN           set	199
   853     00A5                     _SSPEN          set	165
   854     00A3                     _SSPM3          set	163
   855     0049                     _RE1            set	73
   856     004A                     _RE2            set	74
   857     00FA                     _nDONE          set	250
   858     00FA                     _GO             set	250
   859     00F8                     _ADON           set	248
   860     0099                     _SPBRG          set	153
   861     0091                     _SSPCON2        set	145
   862     0093                     _SSPADD         set	147
   863     0086                     _TRISB          set	134
   864     0088                     _TRISD          set	136
   865     009E                     _ADRESL         set	158
   866     04C5                     _TXEN           set	1221
   867     04C4                     _SYNC           set	1220
   868     04C2                     _BRGH           set	1218
   869     043F                     _TRISC7         set	1087
   870     043E                     _TRISC6         set	1086
   871     048E                     _ACKSTAT        set	1166
   872     048C                     _ACKEN          set	1164
   873     048D                     _ACKDT          set	1165
   874     048B                     _RCEN           set	1163
   875     048A                     _PEN            set	1162
   876     0488                     _SEN            set	1160
   877     04A2                     _R_nW           set	1186
   878     0449                     _TRISE1         set	1097
   879     044A                     _TRISE2         set	1098
   880     04FF                     _ADFM           set	1279
   881                           
   882                           	psect	strings
   883     1000                     __pstrings:
   884     1000                     stringtab:
   885     1000                     __stringtab:
   886                           
   887                           ;	String table - string pointers are 2 bytes each
   888     1000  1BFF               	btfsc	btemp+1,7
   889     1001  280A               	ljmp	stringcode
   890     1002  1383               	bcf	3,7
   891     1003  187F               	btfsc	btemp+1,0
   892     1004  1783               	bsf	3,7
   893     1005  0800               	movf	0,w
   894     1006  0A84               	incf	4,f
   895     1007  1903               	skipnz
   896     1008  0AFF               	incf	btemp+1,f
   897     1009  0008               	return
   898     100A                     stringcode:
   899     100A  087F               	movf	btemp+1,w
   900     100B  397F               	andlw	127
   901     100C  008A               	movwf	10
   902     100D  0804               	movf	4,w
   903     100E  0A84               	incf	4,f
   904     100F  1903               	skipnz
   905     1010  0AFF               	incf	btemp+1,f
   906     1011  0082               	movwf	2
   907     1012                     __stringbase:
   908     1012                     __end_of__stringtab:
   909                           
   910                           	psect	stringtext
   911     0800                     __pstringtext:
   912     0800                     STR_36:
   913     0800  3423               	retlw	35	;'#'
   914     0801  3420               	retlw	32	;' '
   915     0802  3420               	retlw	32	;' '
   916     0803  3454               	retlw	84	;'T'
   917     0804  3449               	retlw	73	;'I'
   918     0805  344D               	retlw	77	;'M'
   919     0806  3445               	retlw	69	;'E'
   920     0807  3420               	retlw	32	;' '
   921     0808  3420               	retlw	32	;' '
   922     0809  3420               	retlw	32	;' '
   923     080A  3420               	retlw	32	;' '
   924     080B  3445               	retlw	69	;'E'
   925     080C  3456               	retlw	86	;'V'
   926     080D  3420               	retlw	32	;' '
   927     080E  3453               	retlw	83	;'S'
   928     080F  3450               	retlw	80	;'P'
   929     0810  3420               	retlw	32	;' '
   930     0811  3420               	retlw	32	;' '
   931     0812  3420               	retlw	32	;' '
   932     0813  3400               	retlw	0
   933     0814                     STR_45:
   934     0814  342D               	retlw	45	;'-'
   935     0815  342D               	retlw	45	;'-'
   936     0816  342D               	retlw	45	;'-'
   937     0817  342D               	retlw	45	;'-'
   938     0818  342D               	retlw	45	;'-'
   939     0819  342D               	retlw	45	;'-'
   940     081A  342D               	retlw	45	;'-'
   941     081B  342D               	retlw	45	;'-'
   942     081C  342D               	retlw	45	;'-'
   943     081D  342D               	retlw	45	;'-'
   944     081E  342D               	retlw	45	;'-'
   945     081F  342D               	retlw	45	;'-'
   946     0820  342D               	retlw	45	;'-'
   947     0821  342D               	retlw	45	;'-'
   948     0822  342D               	retlw	45	;'-'
   949     0823  342D               	retlw	45	;'-'
   950     0824  340D               	retlw	13
   951     0825  340A               	retlw	10
   952     0826  3400               	retlw	0
   953     0827                     STR_44:
   954     0827  3454               	retlw	84	;'T'
   955     0828  3449               	retlw	73	;'I'
   956     0829  344D               	retlw	77	;'M'
   957     082A  3445               	retlw	69	;'E'
   958     082B  3420               	retlw	32	;' '
   959     082C  3420               	retlw	32	;' '
   960     082D  3420               	retlw	32	;' '
   961     082E  3420               	retlw	32	;' '
   962     082F  3420               	retlw	32	;' '
   963     0830  3445               	retlw	69	;'E'
   964     0831  3456               	retlw	86	;'V'
   965     0832  3420               	retlw	32	;' '
   966     0833  3453               	retlw	83	;'S'
   967     0834  3450               	retlw	80	;'P'
   968     0835  340D               	retlw	13
   969     0836  340A               	retlw	10
   970     0837  3400               	retlw	0
   971     0838                     STR_52:
   972     0838  3448               	retlw	72	;'H'
   973     0839  3448               	retlw	72	;'H'
   974     083A  343A               	retlw	58	;':'
   975     083B  344D               	retlw	77	;'M'
   976     083C  344D               	retlw	77	;'M'
   977     083D  343A               	retlw	58	;':'
   978     083E  3453               	retlw	83	;'S'
   979     083F  3453               	retlw	83	;'S'
   980     0840  3420               	retlw	32	;' '
   981     0841  3420               	retlw	32	;' '
   982     0842  3420               	retlw	32	;' '
   983     0843  3420               	retlw	32	;' '
   984     0844  3420               	retlw	32	;' '
   985     0845  3420               	retlw	32	;' '
   986     0846  3420               	retlw	32	;' '
   987     0847  3420               	retlw	32	;' '
   988     0848  3400               	retlw	0
   989     0849                     STR_18:
   990     0849  3455               	retlw	85	;'U'
   991     084A  3473               	retlw	115	;'s'
   992     084B  3465               	retlw	101	;'e'
   993     084C  3472               	retlw	114	;'r'
   994     084D  3420               	retlw	32	;' '
   995     084E  3442               	retlw	66	;'B'
   996     084F  346C               	retlw	108	;'l'
   997     0850  346F               	retlw	111	;'o'
   998     0851  3463               	retlw	99	;'c'
   999     0852  346B               	retlw	107	;'k'
  1000     0853  3465               	retlw	101	;'e'
  1001     0854  3464               	retlw	100	;'d'
  1002     0855  3420               	retlw	32	;' '
  1003     0856  3420               	retlw	32	;' '
  1004     0857  3420               	retlw	32	;' '
  1005     0858  3420               	retlw	32	;' '
  1006     0859  3400               	retlw	0
  1007     085A                     STR_11:
  1008     085A  3420               	retlw	32	;' '
  1009     085B  3454               	retlw	84	;'T'
  1010     085C  3449               	retlw	73	;'I'
  1011     085D  344D               	retlw	77	;'M'
  1012     085E  3445               	retlw	69	;'E'
  1013     085F  3420               	retlw	32	;' '
  1014     0860  3420               	retlw	32	;' '
  1015     0861  3420               	retlw	32	;' '
  1016     0862  3420               	retlw	32	;' '
  1017     0863  3420               	retlw	32	;' '
  1018     0864  3445               	retlw	69	;'E'
  1019     0865  3456               	retlw	86	;'V'
  1020     0866  3420               	retlw	32	;' '
  1021     0867  3420               	retlw	32	;' '
  1022     0868  3453               	retlw	83	;'S'
  1023     0869  3450               	retlw	80	;'P'
  1024     086A  3400               	retlw	0
  1025     086B                     STR_1:
  1026     086B  3420               	retlw	32	;' '
  1027     086C  3420               	retlw	32	;' '
  1028     086D  3420               	retlw	32	;' '
  1029     086E  3420               	retlw	32	;' '
  1030     086F  3420               	retlw	32	;' '
  1031     0870  3420               	retlw	32	;' '
  1032     0871  3420               	retlw	32	;' '
  1033     0872  3420               	retlw	32	;' '
  1034     0873  3420               	retlw	32	;' '
  1035     0874  3420               	retlw	32	;' '
  1036     0875  3420               	retlw	32	;' '
  1037     0876  3420               	retlw	32	;' '
  1038     0877  3420               	retlw	32	;' '
  1039     0878  3420               	retlw	32	;' '
  1040     0879  3420               	retlw	32	;' '
  1041     087A  3420               	retlw	32	;' '
  1042     087B  3400               	retlw	0
  1043     087C                     STR_46:
  1044     087C  344E               	retlw	78	;'N'
  1045     087D  344F               	retlw	79	;'O'
  1046     087E  3420               	retlw	32	;' '
  1047     087F  344C               	retlw	76	;'L'
  1048     0880  344F               	retlw	79	;'O'
  1049     0881  3447               	retlw	71	;'G'
  1050     0882  3453               	retlw	83	;'S'
  1051     0883  3420               	retlw	32	;' '
  1052     0884  3446               	retlw	70	;'F'
  1053     0885  344F               	retlw	79	;'O'
  1054     0886  3455               	retlw	85	;'U'
  1055     0887  344E               	retlw	78	;'N'
  1056     0888  3444               	retlw	68	;'D'
  1057     0889  340D               	retlw	13
  1058     088A  340A               	retlw	10
  1059     088B  3400               	retlw	0
  1060     088C                     STR_48:
  1061     088C  3446               	retlw	70	;'F'
  1062     088D  344F               	retlw	79	;'O'
  1063     088E  3455               	retlw	85	;'U'
  1064     088F  344E               	retlw	78	;'N'
  1065     0890  3444               	retlw	68	;'D'
  1066     0891  3420               	retlw	32	;' '
  1067     0892  3420               	retlw	32	;' '
  1068     0893  3420               	retlw	32	;' '
  1069     0894  3420               	retlw	32	;' '
  1070     0895  3420               	retlw	32	;' '
  1071     0896  3420               	retlw	32	;' '
  1072     0897  3420               	retlw	32	;' '
  1073     0898  3420               	retlw	32	;' '
  1074     0899  3420               	retlw	32	;' '
  1075     089A  3420               	retlw	32	;' '
  1076     089B  3400               	retlw	0
  1077     089C                     STR_66:
  1078     089C  3443               	retlw	67	;'C'
  1079     089D  3448               	retlw	72	;'H'
  1080     089E  3441               	retlw	65	;'A'
  1081     089F  344E               	retlw	78	;'N'
  1082     08A0  3447               	retlw	71	;'G'
  1083     08A1  3445               	retlw	69	;'E'
  1084     08A2  3444               	retlw	68	;'D'
  1085     08A3  3420               	retlw	32	;' '
  1086     08A4  3420               	retlw	32	;' '
  1087     08A5  3420               	retlw	32	;' '
  1088     08A6  3420               	retlw	32	;' '
  1089     08A7  3420               	retlw	32	;' '
  1090     08A8  3420               	retlw	32	;' '
  1091     08A9  3420               	retlw	32	;' '
  1092     08AA  3420               	retlw	32	;' '
  1093     08AB  3400               	retlw	0
  1094     08AC                     STR_47:
  1095     08AC  344E               	retlw	78	;'N'
  1096     08AD  344F               	retlw	79	;'O'
  1097     08AE  3420               	retlw	32	;' '
  1098     08AF  344C               	retlw	76	;'L'
  1099     08B0  344F               	retlw	79	;'O'
  1100     08B1  3447               	retlw	71	;'G'
  1101     08B2  3453               	retlw	83	;'S'
  1102     08B3  3420               	retlw	32	;' '
  1103     08B4  3420               	retlw	32	;' '
  1104     08B5  3420               	retlw	32	;' '
  1105     08B6  3420               	retlw	32	;' '
  1106     08B7  3420               	retlw	32	;' '
  1107     08B8  3420               	retlw	32	;' '
  1108     08B9  3420               	retlw	32	;' '
  1109     08BA  3420               	retlw	32	;' '
  1110     08BB  3400               	retlw	0
  1111     08BC                     STR_51:
  1112     08BC  3453               	retlw	83	;'S'
  1113     08BD  3455               	retlw	85	;'U'
  1114     08BE  3443               	retlw	67	;'C'
  1115     08BF  3443               	retlw	67	;'C'
  1116     08C0  3445               	retlw	69	;'E'
  1117     08C1  3453               	retlw	83	;'S'
  1118     08C2  3453               	retlw	83	;'S'
  1119     08C3  3420               	retlw	32	;' '
  1120     08C4  3420               	retlw	32	;' '
  1121     08C5  3420               	retlw	32	;' '
  1122     08C6  3420               	retlw	32	;' '
  1123     08C7  3420               	retlw	32	;' '
  1124     08C8  3420               	retlw	32	;' '
  1125     08C9  3420               	retlw	32	;' '
  1126     08CA  3420               	retlw	32	;' '
  1127     08CB  3400               	retlw	0
  1128     08CC                     STR_68:
  1129     08CC  3449               	retlw	73	;'I'
  1130     08CD  3453               	retlw	83	;'S'
  1131     08CE  3420               	retlw	32	;' '
  1132     08CF  3457               	retlw	87	;'W'
  1133     08D0  3452               	retlw	82	;'R'
  1134     08D1  344F               	retlw	79	;'O'
  1135     08D2  344E               	retlw	78	;'N'
  1136     08D3  3447               	retlw	71	;'G'
  1137     08D4  3420               	retlw	32	;' '
  1138     08D5  3420               	retlw	32	;' '
  1139     08D6  3420               	retlw	32	;' '
  1140     08D7  3420               	retlw	32	;' '
  1141     08D8  3420               	retlw	32	;' '
  1142     08D9  3420               	retlw	32	;' '
  1143     08DA  3420               	retlw	32	;' '
  1144     08DB  3400               	retlw	0
  1145     08DC                     STR_65:
  1146     08DC  3450               	retlw	80	;'P'
  1147     08DD  3441               	retlw	65	;'A'
  1148     08DE  3453               	retlw	83	;'S'
  1149     08DF  3453               	retlw	83	;'S'
  1150     08E0  3457               	retlw	87	;'W'
  1151     08E1  344F               	retlw	79	;'O'
  1152     08E2  3452               	retlw	82	;'R'
  1153     08E3  3444               	retlw	68	;'D'
  1154     08E4  3420               	retlw	32	;' '
  1155     08E5  3449               	retlw	73	;'I'
  1156     08E6  3453               	retlw	83	;'S'
  1157     08E7  3420               	retlw	32	;' '
  1158     08E8  3420               	retlw	32	;' '
  1159     08E9  3420               	retlw	32	;' '
  1160     08EA  3420               	retlw	32	;' '
  1161     08EB  3400               	retlw	0
  1162     08EC                     STR_42:
  1163     08EC  3450               	retlw	80	;'P'
  1164     08ED  344C               	retlw	76	;'L'
  1165     08EE  3445               	retlw	69	;'E'
  1166     08EF  3441               	retlw	65	;'A'
  1167     08F0  3453               	retlw	83	;'S'
  1168     08F1  3445               	retlw	69	;'E'
  1169     08F2  3420               	retlw	32	;' '
  1170     08F3  3457               	retlw	87	;'W'
  1171     08F4  3441               	retlw	65	;'A'
  1172     08F5  3449               	retlw	73	;'I'
  1173     08F6  3454               	retlw	84	;'T'
  1174     08F7  3420               	retlw	32	;' '
  1175     08F8  3420               	retlw	32	;' '
  1176     08F9  3420               	retlw	32	;' '
  1177     08FA  3420               	retlw	32	;' '
  1178     08FB  3400               	retlw	0
  1179     08FC                     STR_27:
  1180     08FC  3441               	retlw	65	;'A'
  1181     08FD  3474               	retlw	116	;'t'
  1182     08FE  3474               	retlw	116	;'t'
  1183     08FF  3465               	retlw	101	;'e'
  1184     0900  346D               	retlw	109	;'m'
  1185     0901  3470               	retlw	112	;'p'
  1186     0902  3474               	retlw	116	;'t'
  1187     0903  3420               	retlw	32	;' '
  1188     0904  344C               	retlw	76	;'L'
  1189     0905  3465               	retlw	101	;'e'
  1190     0906  3466               	retlw	102	;'f'
  1191     0907  3474               	retlw	116	;'t'
  1192     0908  343A               	retlw	58	;':'
  1193     0909  3420               	retlw	32	;' '
  1194     090A  3420               	retlw	32	;' '
  1195     090B  3400               	retlw	0
  1196     090C                     STR_50:
  1197     090C  3444               	retlw	68	;'D'
  1198     090D  344F               	retlw	79	;'O'
  1199     090E  3457               	retlw	87	;'W'
  1200     090F  344E               	retlw	78	;'N'
  1201     0910  344C               	retlw	76	;'L'
  1202     0911  344F               	retlw	79	;'O'
  1203     0912  3441               	retlw	65	;'A'
  1204     0913  3444               	retlw	68	;'D'
  1205     0914  3420               	retlw	32	;' '
  1206     0915  3444               	retlw	68	;'D'
  1207     0916  344F               	retlw	79	;'O'
  1208     0917  344E               	retlw	78	;'N'
  1209     0918  3445               	retlw	69	;'E'
  1210     0919  3420               	retlw	32	;' '
  1211     091A  3420               	retlw	32	;' '
  1212     091B  3400               	retlw	0
  1213     091C                     STR_62:
  1214     091C  3452               	retlw	82	;'R'
  1215     091D  3445               	retlw	69	;'E'
  1216     091E  342D               	retlw	45	;'-'
  1217     091F  3445               	retlw	69	;'E'
  1218     0920  344E               	retlw	78	;'N'
  1219     0921  3454               	retlw	84	;'T'
  1220     0922  3445               	retlw	69	;'E'
  1221     0923  3452               	retlw	82	;'R'
  1222     0924  3420               	retlw	32	;' '
  1223     0925  3450               	retlw	80	;'P'
  1224     0926  3441               	retlw	65	;'A'
  1225     0927  3453               	retlw	83	;'S'
  1226     0928  3453               	retlw	83	;'S'
  1227     0929  3420               	retlw	32	;' '
  1228     092A  3420               	retlw	32	;' '
  1229     092B  3400               	retlw	0
  1230     092C                     STR_41:
  1231     092C  3444               	retlw	68	;'D'
  1232     092D  344F               	retlw	79	;'O'
  1233     092E  3457               	retlw	87	;'W'
  1234     092F  344E               	retlw	78	;'N'
  1235     0930  344C               	retlw	76	;'L'
  1236     0931  344F               	retlw	79	;'O'
  1237     0932  3441               	retlw	65	;'A'
  1238     0933  3444               	retlw	68	;'D'
  1239     0934  3449               	retlw	73	;'I'
  1240     0935  344E               	retlw	78	;'N'
  1241     0936  3447               	retlw	71	;'G'
  1242     0937  342E               	retlw	46	;'.'
  1243     0938  342E               	retlw	46	;'.'
  1244     0939  342E               	retlw	46	;'.'
  1245     093A  3420               	retlw	32	;' '
  1246     093B  3400               	retlw	0
  1247     093C                     STR_34:
  1248     093C  3420               	retlw	32	;' '
  1249     093D  344E               	retlw	78	;'N'
  1250     093E  344F               	retlw	79	;'O'
  1251     093F  3420               	retlw	32	;' '
  1252     0940  344C               	retlw	76	;'L'
  1253     0941  344F               	retlw	79	;'O'
  1254     0942  3447               	retlw	71	;'G'
  1255     0943  3453               	retlw	83	;'S'
  1256     0944  3420               	retlw	32	;' '
  1257     0945  3446               	retlw	70	;'F'
  1258     0946  344F               	retlw	79	;'O'
  1259     0947  3455               	retlw	85	;'U'
  1260     0948  344E               	retlw	78	;'N'
  1261     0949  3444               	retlw	68	;'D'
  1262     094A  3420               	retlw	32	;' '
  1263     094B  3400               	retlw	0
  1264     094C                     STR_67:
  1265     094C  3452               	retlw	82	;'R'
  1266     094D  3445               	retlw	69	;'E'
  1267     094E  342D               	retlw	45	;'-'
  1268     094F  3445               	retlw	69	;'E'
  1269     0950  344E               	retlw	78	;'N'
  1270     0951  3454               	retlw	84	;'T'
  1271     0952  3445               	retlw	69	;'E'
  1272     0953  3452               	retlw	82	;'R'
  1273     0954  3445               	retlw	69	;'E'
  1274     0955  3444               	retlw	68	;'D'
  1275     0956  3420               	retlw	32	;' '
  1276     0957  3450               	retlw	80	;'P'
  1277     0958  3457               	retlw	87	;'W'
  1278     0959  3444               	retlw	68	;'D'
  1279     095A  3420               	retlw	32	;' '
  1280     095B  3400               	retlw	0
  1281     095C                     STR_59:
  1282     095C  3445               	retlw	69	;'E'
  1283     095D  344E               	retlw	78	;'N'
  1284     095E  3454               	retlw	84	;'T'
  1285     095F  3445               	retlw	69	;'E'
  1286     0960  3452               	retlw	82	;'R'
  1287     0961  3420               	retlw	32	;' '
  1288     0962  344E               	retlw	78	;'N'
  1289     0963  3445               	retlw	69	;'E'
  1290     0964  3457               	retlw	87	;'W'
  1291     0965  3420               	retlw	32	;' '
  1292     0966  3450               	retlw	80	;'P'
  1293     0967  3441               	retlw	65	;'A'
  1294     0968  3453               	retlw	83	;'S'
  1295     0969  3453               	retlw	83	;'S'
  1296     096A  3420               	retlw	32	;' '
  1297     096B  3400               	retlw	0
  1298     096C                     STR_26:
  1299     096C  3457               	retlw	87	;'W'
  1300     096D  3472               	retlw	114	;'r'
  1301     096E  346F               	retlw	111	;'o'
  1302     096F  346E               	retlw	110	;'n'
  1303     0970  3467               	retlw	103	;'g'
  1304     0971  3420               	retlw	32	;' '
  1305     0972  3450               	retlw	80	;'P'
  1306     0973  3461               	retlw	97	;'a'
  1307     0974  3473               	retlw	115	;'s'
  1308     0975  3473               	retlw	115	;'s'
  1309     0976  3477               	retlw	119	;'w'
  1310     0977  346F               	retlw	111	;'o'
  1311     0978  3472               	retlw	114	;'r'
  1312     0979  3464               	retlw	100	;'d'
  1313     097A  3420               	retlw	32	;' '
  1314     097B  3400               	retlw	0
  1315     097C                     STR_22:
  1316     097C  3445               	retlw	69	;'E'
  1317     097D  346E               	retlw	110	;'n'
  1318     097E  3474               	retlw	116	;'t'
  1319     097F  3465               	retlw	101	;'e'
  1320     0980  3472               	retlw	114	;'r'
  1321     0981  3420               	retlw	32	;' '
  1322     0982  3450               	retlw	80	;'P'
  1323     0983  3461               	retlw	97	;'a'
  1324     0984  3473               	retlw	115	;'s'
  1325     0985  3473               	retlw	115	;'s'
  1326     0986  3477               	retlw	119	;'w'
  1327     0987  346F               	retlw	111	;'o'
  1328     0988  3472               	retlw	114	;'r'
  1329     0989  3464               	retlw	100	;'d'
  1330     098A  3420               	retlw	32	;' '
  1331     098B  3400               	retlw	0
  1332     098C                     STR_37:
  1333     098C  344C               	retlw	76	;'L'
  1334     098D  346F               	retlw	111	;'o'
  1335     098E  3467               	retlw	103	;'g'
  1336     098F  3473               	retlw	115	;'s'
  1337     0990  3420               	retlw	32	;' '
  1338     0991  3461               	retlw	97	;'a'
  1339     0992  3472               	retlw	114	;'r'
  1340     0993  3465               	retlw	101	;'e'
  1341     0994  3420               	retlw	32	;' '
  1342     0995  3420               	retlw	32	;' '
  1343     0996  3420               	retlw	32	;' '
  1344     0997  3420               	retlw	32	;' '
  1345     0998  3420               	retlw	32	;' '
  1346     0999  3420               	retlw	32	;' '
  1347     099A  3400               	retlw	0
  1348     099B                     STR_38:
  1349     099B  3463               	retlw	99	;'c'
  1350     099C  346C               	retlw	108	;'l'
  1351     099D  3465               	retlw	101	;'e'
  1352     099E  3461               	retlw	97	;'a'
  1353     099F  3472               	retlw	114	;'r'
  1354     09A0  3469               	retlw	105	;'i'
  1355     09A1  346E               	retlw	110	;'n'
  1356     09A2  3467               	retlw	103	;'g'
  1357     09A3  3420               	retlw	32	;' '
  1358     09A4  3420               	retlw	32	;' '
  1359     09A5  3420               	retlw	32	;' '
  1360     09A6  3420               	retlw	32	;' '
  1361     09A7  3420               	retlw	32	;' '
  1362     09A8  3420               	retlw	32	;' '
  1363     09A9  3400               	retlw	0
  1364     09AA                     STR_15:
  1365     09AA  3444               	retlw	68	;'D'
  1366     09AB  346F               	retlw	111	;'o'
  1367     09AC  3477               	retlw	119	;'w'
  1368     09AD  346E               	retlw	110	;'n'
  1369     09AE  346C               	retlw	108	;'l'
  1370     09AF  346F               	retlw	111	;'o'
  1371     09B0  3461               	retlw	97	;'a'
  1372     09B1  3464               	retlw	100	;'d'
  1373     09B2  3420               	retlw	32	;' '
  1374     09B3  344C               	retlw	76	;'L'
  1375     09B4  346F               	retlw	111	;'o'
  1376     09B5  3467               	retlw	103	;'g'
  1377     09B6  3400               	retlw	0
  1378     09B7                     STR_19:
  1379     09B7  3453               	retlw	83	;'S'
  1380     09B8  3465               	retlw	101	;'e'
  1381     09B9  3463               	retlw	99	;'c'
  1382     09BA  3420               	retlw	32	;' '
  1383     09BB  344C               	retlw	76	;'L'
  1384     09BC  3465               	retlw	101	;'e'
  1385     09BD  3466               	retlw	102	;'f'
  1386     09BE  3474               	retlw	116	;'t'
  1387     09BF  3420               	retlw	32	;' '
  1388     09C0  343A               	retlw	58	;':'
  1389     09C1  3420               	retlw	32	;' '
  1390     09C2  3400               	retlw	0
  1391     09C3                     STR_17:
  1392     09C3  3443               	retlw	67	;'C'
  1393     09C4  3468               	retlw	104	;'h'
  1394     09C5  3461               	retlw	97	;'a'
  1395     09C6  346E               	retlw	110	;'n'
  1396     09C7  3467               	retlw	103	;'g'
  1397     09C8  3465               	retlw	101	;'e'
  1398     09C9  3420               	retlw	32	;' '
  1399     09CA  3450               	retlw	80	;'P'
  1400     09CB  3461               	retlw	97	;'a'
  1401     09CC  3473               	retlw	115	;'s'
  1402     09CD  3473               	retlw	115	;'s'
  1403     09CE  3400               	retlw	0
  1404     09CF                     STR_14:
  1405     09CF  3443               	retlw	67	;'C'
  1406     09D0  346C               	retlw	108	;'l'
  1407     09D1  3465               	retlw	101	;'e'
  1408     09D2  3461               	retlw	97	;'a'
  1409     09D3  3472               	retlw	114	;'r'
  1410     09D4  3420               	retlw	32	;' '
  1411     09D5  344C               	retlw	76	;'L'
  1412     09D6  346F               	retlw	111	;'o'
  1413     09D7  3467               	retlw	103	;'g'
  1414     09D8  3400               	retlw	0
  1415     09D9                     STR_16:
  1416     09D9  3453               	retlw	83	;'S'
  1417     09DA  3465               	retlw	101	;'e'
  1418     09DB  3474               	retlw	116	;'t'
  1419     09DC  3420               	retlw	32	;' '
  1420     09DD  3454               	retlw	84	;'T'
  1421     09DE  3469               	retlw	105	;'i'
  1422     09DF  346D               	retlw	109	;'m'
  1423     09E0  3465               	retlw	101	;'e'
  1424     09E1  3400               	retlw	0
  1425     09E2                     STR_13:
  1426     09E2  3456               	retlw	86	;'V'
  1427     09E3  3469               	retlw	105	;'i'
  1428     09E4  3465               	retlw	101	;'e'
  1429     09E5  3477               	retlw	119	;'w'
  1430     09E6  3420               	retlw	32	;' '
  1431     09E7  344C               	retlw	76	;'L'
  1432     09E8  346F               	retlw	111	;'o'
  1433     09E9  3467               	retlw	103	;'g'
  1434     09EA  3400               	retlw	0
  1435     09EB                     STR_10:
  1436     09EB  3443               	retlw	67	;'C'
  1437     09EC  3420               	retlw	32	;' '
  1438     09ED  3400               	retlw	0
  1439     09EE                     STR_5:
  1440     09EE  3447               	retlw	71	;'G'
  1441     09EF  3431               	retlw	49	;'1'
  1442     09F0  3400               	retlw	0
  1443     09F1                     STR_6:
  1444     09F1  3447               	retlw	71	;'G'
  1445     09F2  3432               	retlw	50	;'2'
  1446     09F3  3400               	retlw	0
  1447     09F4                     STR_7:
  1448     09F4  3447               	retlw	71	;'G'
  1449     09F5  3433               	retlw	51	;'3'
  1450     09F6  3400               	retlw	0
  1451     09F7                     STR_8:
  1452     09F7  3447               	retlw	71	;'G'
  1453     09F8  3434               	retlw	52	;'4'
  1454     09F9  3400               	retlw	0
  1455     09FA                     STR_4:
  1456     09FA  3447               	retlw	71	;'G'
  1457     09FB  344E               	retlw	78	;'N'
  1458     09FC  3400               	retlw	0
  1459     09FD                     STR_3:
  1460     09FD  344F               	retlw	79	;'O'
  1461     09FE  344E               	retlw	78	;'N'
  1462     09FF  3400               	retlw	0
  1463     0A00                     STR_9:
  1464     0A00  3447               	retlw	71	;'G'
  1465     0A01  3452               	retlw	82	;'R'
  1466     0A02  3400               	retlw	0
  1467     085A                     STR_12          equ	STR_11
  1468     086B                     STR_2           equ	STR_1
  1469     086B                     STR_20          equ	STR_1
  1470     086B                     STR_21          equ	STR_1
  1471     086B                     STR_23          equ	STR_1
  1472     086B                     STR_24          equ	STR_1
  1473     086B                     STR_25          equ	STR_1
  1474     086B                     STR_28          equ	STR_1
  1475     086B                     STR_29          equ	STR_1
  1476     086B                     STR_30          equ	STR_1
  1477     086B                     STR_31          equ	STR_1
  1478     086B                     STR_32          equ	STR_1
  1479     086B                     STR_33          equ	STR_1
  1480     086B                     STR_35          equ	STR_1
  1481     086B                     STR_39          equ	STR_1
  1482     086B                     STR_40          equ	STR_1
  1483     086B                     STR_53          equ	STR_1
  1484     086B                     STR_54          equ	STR_1
  1485     086B                     STR_55          equ	STR_1
  1486     086B                     STR_56          equ	STR_1
  1487     086B                     STR_57          equ	STR_1
  1488     086B                     STR_58          equ	STR_1
  1489     086B                     STR_60          equ	STR_1
  1490     086B                     STR_61          equ	STR_1
  1491     086B                     STR_63          equ	STR_1
  1492     086B                     STR_64          equ	STR_1
  1493     086B                     STR_69          equ	STR_1
  1494     086B                     STR_70          equ	STR_1
  1495     0824                     STR_43          equ	STR_45+16
  1496     0824                     STR_49          equ	STR_45+16
  1497                           
  1498                           	psect	cinit
  1499     07C7                     start_initialization:	
  1500                           ; #config settings
  1501                           
  1502     07C7                     __initialization:
  1503                           
  1504                           ; Initialize objects allocated to BANK1
  1505     07C7  1383               	bcf	3,7	;select IRP bank0
  1506     07C8  30EA               	movlw	low (__pdataBANK1+31)
  1507     07C9  00FD               	movwf	btemp+-1
  1508     07CA  3011               	movlw	high __pidataBANK1
  1509     07CB  00FE               	movwf	btemp
  1510     07CC  309C               	movlw	low __pidataBANK1
  1511     07CD  00FF               	movwf	btemp+1
  1512     07CE  30CB               	movlw	low __pdataBANK1
  1513     07CF  0084               	movwf	4
  1514     07D0  160A  118A  2150  120A  118A  	fcall	init_ram0
  1515                           
  1516                           ; Initialize objects allocated to BANK0
  1517     07D5  306F               	movlw	low (__pdataBANK0+10)
  1518     07D6  00FD               	movwf	btemp+-1
  1519     07D7  3010               	movlw	high __pidataBANK0
  1520     07D8  00FE               	movwf	btemp
  1521     07D9  30B9               	movlw	low __pidataBANK0
  1522     07DA  00FF               	movwf	btemp+1
  1523     07DB  3065               	movlw	low __pdataBANK0
  1524     07DC  0084               	movwf	4
  1525     07DD  160A  118A  2150  120A  118A  	fcall	init_ram0
  1526                           
  1527                           ; Clear objects allocated to BANK3
  1528     07E2  1783               	bsf	3,7	;select IRP bank2
  1529     07E3  3090               	movlw	low __pbssBANK3
  1530     07E4  0084               	movwf	4
  1531     07E5  30E5               	movlw	low (__pbssBANK3+85)
  1532     07E6  160A  118A  2095  120A  118A  	fcall	clear_ram0
  1533                           
  1534                           ; Clear objects allocated to BANK1
  1535     07EB  1383               	bcf	3,7	;select IRP bank0
  1536     07EC  30A0               	movlw	low __pbssBANK1
  1537     07ED  0084               	movwf	4
  1538     07EE  30CB               	movlw	low (__pbssBANK1+43)
  1539     07EF  160A  118A  2095  120A  118A  	fcall	clear_ram0
  1540                           
  1541                           ; Clear objects allocated to BANK0
  1542     07F4  3051               	movlw	low __pbssBANK0
  1543     07F5  0084               	movwf	4
  1544     07F6  3065               	movlw	low (__pbssBANK0+20)
  1545     07F7  160A  118A  2095  120A  118A  	fcall	clear_ram0
  1546     07FC                     end_of_initialization:	
  1547                           ;End of C runtime variable initialization code
  1548                           
  1549     07FC                     __end_of__initialization:
  1550     07FC  0183               	clrf	3
  1551     07FD  160A  118A  2E2F   	ljmp	_main	;jump to C main() function
  1552                           
  1553                           	psect	bssBANK0
  1554     0051                     __pbssBANK0:
  1555     0051                     _pos:
  1556     0051                     	ds	2
  1557     0053                     change_password@index:
  1558     0053                     	ds	1
  1559     0054                     change_password@state:
  1560     0054                     	ds	1
  1561     0055                     set_time@secs:
  1562     0055                     	ds	1
  1563     0056                     set_time@mins:
  1564     0056                     	ds	1
  1565     0057                     set_time@hours:
  1566     0057                     	ds	1
  1567     0058                     set_time@field:
  1568     0058                     	ds	1
  1569     0059                     menu@select:
  1570     0059                     	ds	1
  1571     005A                     menu@top:
  1572     005A                     	ds	1
  1573     005B                     login@blink_state:
  1574     005B                     	ds	1
  1575     005C                     login@blocked:
  1576     005C                     	ds	1
  1577     005D                     login@index:
  1578     005D                     	ds	1
  1579     005E                     store_event@address:
  1580     005E                     	ds	1
  1581     005F                     _event_count:
  1582     005F                     	ds	1
  1583     0060                     _operation:
  1584     0060                     	ds	1
  1585     0061                     _clock_reg:
  1586     0061                     	ds	3
  1587     0064                     view_log@log_pos:
  1588     0064                     	ds	1
  1589                           
  1590                           	psect	dataBANK0
  1591     0065                     __pdataBANK0:
  1592     0065                     change_password@once:
  1593     0065                     	ds	1
  1594     0066                     set_time@visible:
  1595     0066                     	ds	1
  1596     0067                     set_time@once:
  1597     0067                     	ds	1
  1598     0068                     clear_log@once:
  1599     0068                     	ds	1
  1600     0069                     menu@redraw:
  1601     0069                     	ds	1
  1602     006A                     login@sec_left:
  1603     006A                     	ds	1
  1604     006B                     login@attempts:
  1605     006B                     	ds	1
  1606     006C                     login@once:
  1607     006C                     	ds	1
  1608     006D                     _old_menu_pos:
  1609     006D                     	ds	1
  1610     006E                     read_digital_keypad@once:
  1611     006E                     	ds	1
  1612                           
  1613                           	psect	bssBANK1
  1614     00A0                     __pbssBANK1:
  1615     00A0                     change_password@delay:
  1616     00A0                     	ds	4
  1617     00A4                     login@delay:
  1618     00A4                     	ds	4
  1619     00A8                     set_time@blink:
  1620     00A8                     	ds	2
  1621     00AA                     clear_log@delay:
  1622     00AA                     	ds	2
  1623     00AC                     login@blink:
  1624     00AC                     	ds	2
  1625     00AE                     _adc_val:
  1626     00AE                     	ds	2
  1627     00B0                     _time:
  1628     00B0                     	ds	9
  1629     00B9                     change_password@temp2:
  1630     00B9                     	ds	5
  1631     00BE                     change_password@temp:
  1632     00BE                     	ds	5
  1633     00C3                     login@entered:
  1634     00C3                     	ds	5
  1635     00C8                     _speed:
  1636     00C8                     	ds	3
  1637                           
  1638                           	psect	dataBANK1
  1639     00CB                     __pdataBANK1:
  1640     00CB                     _event:
  1641     00CB                     	ds	16
  1642     00DB                     _str:
  1643     00DB                     	ds	10
  1644     00E5                     _password:
  1645     00E5                     	ds	5
  1646                           
  1647                           	psect	bssBANK3
  1648     0190                     __pbssBANK3:
  1649     0190                     _data:
  1650     0190                     	ds	85
  1651                           
  1652                           	psect	inittext
  1653     114C                     init_fetch0:	
  1654                           ;	Called with low address in FSR and high address in W
  1655                           
  1656     114C  087E               	movf	btemp,w
  1657     114D  008A               	movwf	10
  1658     114E  087F               	movf	btemp+1,w
  1659     114F  0082               	movwf	2
  1660     1150                     init_ram0:	
  1661                           ;Called with:
  1662                           ;	high address of idata address in btemp 
  1663                           ;	low address of idata address in btemp+1 
  1664                           ;	low address of data in FSR
  1665                           ;	high address + 1 of data in btemp-1
  1666                           
  1667     1150  160A  118A  214C  160A  118A  	fcall	init_fetch0
  1668     1155  0080               	movwf	0
  1669     1156  0A84               	incf	4,f
  1670     1157  0804               	movf	4,w
  1671     1158  067D               	xorwf	btemp+-1,w
  1672     1159  1903               	btfsc	3,2
  1673     115A  3400               	retlw	0
  1674     115B  0AFF               	incf	btemp+1,f
  1675     115C  1903               	btfsc	3,2
  1676     115D  0AFE               	incf	btemp,f
  1677     115E  2950               	goto	init_ram0
  1678                           
  1679                           	psect	clrtext
  1680     1095                     clear_ram0:	
  1681                           ;	Called with FSR containing the base address, and
  1682                           ;	W with the last address+1
  1683                           
  1684     1095  0064               	clrwdt	;clear the watchdog before getting into this loop
  1685     1096                     clrloop0:
  1686     1096  0180               	clrf	0	;clear RAM location pointed to by FSR
  1687     1097  0A84               	incf	4,f	;increment pointer
  1688     1098  0604               	xorwf	4,w	;XOR with final address
  1689     1099  1903               	btfsc	3,2	;have we reached the end yet?
  1690     109A  3400               	retlw	0	;all done for this memory range, return
  1691     109B  0604               	xorwf	4,w	;XOR again to restore value
  1692     109C  2896               	goto	clrloop0	;do the next byte
  1693                           
  1694                           	psect	cstackCOMMON
  1695     0070                     __pcstackCOMMON:
  1696     0070                     ?_init_clcd:
  1697     0070                     ?_init_digital_keypad:	
  1698                           ; 1 bytes @ 0x0
  1699                           
  1700     0070                     ?_init_ds1307:	
  1701                           ; 1 bytes @ 0x0
  1702                           
  1703     0070                     ?_init_uart:	
  1704                           ; 1 bytes @ 0x0
  1705                           
  1706     0070                     ?_read_digital_keypad:	
  1707                           ; 1 bytes @ 0x0
  1708                           
  1709     0070                     ?_dashboard:	
  1710                           ; 1 bytes @ 0x0
  1711                           
  1712     0070                     ?_login:	
  1713                           ; 1 bytes @ 0x0
  1714                           
  1715     0070                     ?_menu:	
  1716                           ; 1 bytes @ 0x0
  1717                           
  1718     0070                     ?_i2c_start:	
  1719                           ; 1 bytes @ 0x0
  1720                           
  1721     0070                     ?_i2c_stop:	
  1722                           ; 1 bytes @ 0x0
  1723                           
  1724     0070                     ?_i2c_rep_start:	
  1725                           ; 1 bytes @ 0x0
  1726                           
  1727     0070                     ?_i2c_read:	
  1728                           ; 1 bytes @ 0x0
  1729                           
  1730     0070                     ?_read_ds1307:	
  1731                           ; 1 bytes @ 0x0
  1732                           
  1733     0070                     ?_store_event:	
  1734                           ; 1 bytes @ 0x0
  1735                           
  1736     0070                     ?_view_log:	
  1737                           ; 1 bytes @ 0x0
  1738                           
  1739     0070                     ?_clear_log:	
  1740                           ; 1 bytes @ 0x0
  1741                           
  1742     0070                     ?_download_log:	
  1743                           ; 1 bytes @ 0x0
  1744                           
  1745     0070                     ?_set_time:	
  1746                           ; 1 bytes @ 0x0
  1747                           
  1748     0070                     ?_strcpy:	
  1749                           ; 1 bytes @ 0x0
  1750                           
  1751     0070                     ?_init_adc:	
  1752                           ; 1 bytes @ 0x0
  1753                           
  1754     0070                     ?_init_config:	
  1755                           ; 1 bytes @ 0x0
  1756                           
  1757     0070                     ?_main:	
  1758                           ; 1 bytes @ 0x0
  1759                           
  1760     0070                     ?_clcd_write:	
  1761                           ; 1 bytes @ 0x0
  1762                           
  1763     0070                     ?_init_display_controller:	
  1764                           ; 1 bytes @ 0x0
  1765                           
  1766     0070                     ?_read_external_eeprom:	
  1767                           ; 1 bytes @ 0x0
  1768                           
  1769     0070                     ?_i2c_wait_for_idle:	
  1770                           ; 1 bytes @ 0x0
  1771                           
  1772     0070                     ?_uart_putch:	
  1773                           ; 1 bytes @ 0x0
  1774                           
  1775     0070                     ?___bmul:	
  1776                           ; 1 bytes @ 0x0
  1777                           
  1778     0070                     ?_i2c_write:	
  1779                           ; 1 bytes @ 0x0
  1780                           
  1781     0070                     ?_strcmp:	
  1782                           ; 2 bytes @ 0x0
  1783                           
  1784     0070                     ?_read_adc:	
  1785                           ; 2 bytes @ 0x0
  1786                           
  1787     0070                     ?___awdiv:	
  1788                           ; 2 bytes @ 0x0
  1789                           
  1790     0070                     ?___awmod:	
  1791                           ; 2 bytes @ 0x0
  1792                           
  1793     0070                     ?___lwdiv:	
  1794                           ; 2 bytes @ 0x0
  1795                           
  1796     0070                     ?___lwmod:	
  1797                           ; 2 bytes @ 0x0
  1798                           
  1799     0070                     ?___lldiv:	
  1800                           ; 2 bytes @ 0x0
  1801                           
  1802     0070                     clcd_write@mode:	
  1803                           ; 4 bytes @ 0x0
  1804                           
  1805     0070                     i2c_read@ack:	
  1806                           ; 1 bytes @ 0x0
  1807                           
  1808     0070                     i2c_write@data:	
  1809                           ; 1 bytes @ 0x0
  1810                           
  1811     0070                     ___bmul@multiplicand:	
  1812                           ; 1 bytes @ 0x0
  1813                           
  1814     0070                     strcmp@l:	
  1815                           ; 1 bytes @ 0x0
  1816                           
  1817     0070                     strcpy@dest:	
  1818                           ; 1 bytes @ 0x0
  1819                           
  1820     0070                     ___awdiv@divisor:	
  1821                           ; 1 bytes @ 0x0
  1822                           
  1823     0070                     ___awmod@divisor:	
  1824                           ; 2 bytes @ 0x0
  1825                           
  1826     0070                     ___lwdiv@divisor:	
  1827                           ; 2 bytes @ 0x0
  1828                           
  1829     0070                     ___lwmod@divisor:	
  1830                           ; 2 bytes @ 0x0
  1831                           
  1832     0070                     ___lldiv@divisor:	
  1833                           ; 2 bytes @ 0x0
  1834                           
  1835     0070                     ??_init_digital_keypad:	
  1836                           ; 4 bytes @ 0x0
  1837                           
  1838     0070                     ??_init_uart:	
  1839                           ; 1 bytes @ 0x0
  1840                           
  1841     0070                     ??_read_digital_keypad:	
  1842                           ; 1 bytes @ 0x0
  1843                           
  1844     0070                     ??_i2c_start:	
  1845                           ; 1 bytes @ 0x0
  1846                           
  1847     0070                     ??_i2c_write:	
  1848                           ; 1 bytes @ 0x0
  1849                           
  1850     0070                     ??_i2c_stop:	
  1851                           ; 1 bytes @ 0x0
  1852                           
  1853     0070                     ??_i2c_rep_start:	
  1854                           ; 1 bytes @ 0x0
  1855                           
  1856     0070                     ??_i2c_read:	
  1857                           ; 1 bytes @ 0x0
  1858                           
  1859     0070                     ??_init_adc:	
  1860                           ; 1 bytes @ 0x0
  1861                           
  1862     0070                     ??_i2c_wait_for_idle:	
  1863                           ; 1 bytes @ 0x0
  1864                           
  1865                           
  1866                           ; 1 bytes @ 0x0
  1867     0070                     	ds	1
  1868     0071                     ?_write_external_eeprom:
  1869     0071                     write_external_eeprom@data:	
  1870                           ; 1 bytes @ 0x1
  1871                           
  1872     0071                     read_digital_keypad@mode:	
  1873                           ; 1 bytes @ 0x1
  1874                           
  1875     0071                     i2c_read@data:	
  1876                           ; 1 bytes @ 0x1
  1877                           
  1878     0071                     ___bmul@product:	
  1879                           ; 1 bytes @ 0x1
  1880                           
  1881     0071                     strcmp@r:	
  1882                           ; 1 bytes @ 0x1
  1883                           
  1884     0071                     strcpy@src:	
  1885                           ; 1 bytes @ 0x1
  1886                           
  1887     0071                     ??_clcd_write:	
  1888                           ; 1 bytes @ 0x1
  1889                           
  1890     0071                     ??___bmul:	
  1891                           ; 1 bytes @ 0x1
  1892                           
  1893                           
  1894                           ; 1 bytes @ 0x1
  1895     0071                     	ds	1
  1896     0072                     read_external_eeprom@address:
  1897     0072                     read_ds1307@addr:	
  1898                           ; 1 bytes @ 0x2
  1899                           
  1900     0072                     ___bmul@multiplier:	
  1901                           ; 1 bytes @ 0x2
  1902                           
  1903     0072                     write_external_eeprom@wait:	
  1904                           ; 1 bytes @ 0x2
  1905                           
  1906     0072                     ___awdiv@dividend:	
  1907                           ; 2 bytes @ 0x2
  1908                           
  1909     0072                     ___awmod@dividend:	
  1910                           ; 2 bytes @ 0x2
  1911                           
  1912     0072                     ___lwdiv@dividend:	
  1913                           ; 2 bytes @ 0x2
  1914                           
  1915     0072                     ___lwmod@dividend:	
  1916                           ; 2 bytes @ 0x2
  1917                           
  1918     0072                     ??_read_ds1307:	
  1919                           ; 2 bytes @ 0x2
  1920                           
  1921     0072                     ??_strcmp:	
  1922                           ; 1 bytes @ 0x2
  1923                           
  1924     0072                     ??_strcpy:	
  1925                           ; 1 bytes @ 0x2
  1926                           
  1927     0072                     ??_read_adc:	
  1928                           ; 1 bytes @ 0x2
  1929                           
  1930     0072                     ??_write_external_eeprom:	
  1931                           ; 1 bytes @ 0x2
  1932                           
  1933     0072                     ??_read_external_eeprom:	
  1934                           ; 1 bytes @ 0x2
  1935                           
  1936                           
  1937                           ; 1 bytes @ 0x2
  1938     0072                     	ds	1
  1939     0073                     clcd_write@byte:
  1940     0073                     read_external_eeprom@data:	
  1941                           ; 1 bytes @ 0x3
  1942                           
  1943     0073                     read_ds1307@data:	
  1944                           ; 1 bytes @ 0x3
  1945                           
  1946     0073                     strcpy@d:	
  1947                           ; 1 bytes @ 0x3
  1948                           
  1949     0073                     read_adc@adc_reg_val:	
  1950                           ; 1 bytes @ 0x3
  1951                           
  1952                           
  1953                           ; 2 bytes @ 0x3
  1954     0073                     	ds	1
  1955     0074                     ?_clcd_print:
  1956     0074                     ?_get_time:	
  1957                           ; 1 bytes @ 0x4
  1958                           
  1959     0074                     write_external_eeprom@address:	
  1960                           ; 1 bytes @ 0x4
  1961                           
  1962     0074                     get_time@clock_reg:	
  1963                           ; 1 bytes @ 0x4
  1964                           
  1965     0074                     uart_putch@data:	
  1966                           ; 1 bytes @ 0x4
  1967                           
  1968     0074                     ___awdiv@counter:	
  1969                           ; 1 bytes @ 0x4
  1970                           
  1971     0074                     ___awmod@counter:	
  1972                           ; 1 bytes @ 0x4
  1973                           
  1974     0074                     ___lwmod@counter:	
  1975                           ; 1 bytes @ 0x4
  1976                           
  1977     0074                     clcd_print@str:	
  1978                           ; 1 bytes @ 0x4
  1979                           
  1980     0074                     ___lwdiv@quotient:	
  1981                           ; 2 bytes @ 0x4
  1982                           
  1983     0074                     ___lldiv@dividend:	
  1984                           ; 2 bytes @ 0x4
  1985                           
  1986     0074                     ??_init_display_controller:	
  1987                           ; 4 bytes @ 0x4
  1988                           
  1989     0074                     ??_uart_putch:	
  1990                           ; 1 bytes @ 0x4
  1991                           
  1992     0074                     ??___awdiv:	
  1993                           ; 1 bytes @ 0x4
  1994                           
  1995     0074                     ??___awmod:	
  1996                           ; 1 bytes @ 0x4
  1997                           
  1998     0074                     ??___lwdiv:	
  1999                           ; 1 bytes @ 0x4
  2000                           
  2001     0074                     ??___lwmod:	
  2002                           ; 1 bytes @ 0x4
  2003                           
  2004                           
  2005                           ; 1 bytes @ 0x4
  2006     0074                     	ds	1
  2007     0075                     ?_uart_puts:
  2008     0075                     read_adc@channel:	
  2009                           ; 1 bytes @ 0x5
  2010                           
  2011     0075                     ___awdiv@sign:	
  2012                           ; 1 bytes @ 0x5
  2013                           
  2014     0075                     ___awmod@sign:	
  2015                           ; 1 bytes @ 0x5
  2016                           
  2017     0075                     uart_puts@str:	
  2018                           ; 1 bytes @ 0x5
  2019                           
  2020     0075                     ??_store_event:	
  2021                           ; 2 bytes @ 0x5
  2022                           
  2023     0075                     ??_get_time:	
  2024                           ; 1 bytes @ 0x5
  2025                           
  2026                           
  2027                           ; 1 bytes @ 0x5
  2028     0075                     	ds	1
  2029     0076                     ?___xxtofl:
  2030     0076                     clcd_print@addr:	
  2031                           ; 4 bytes @ 0x6
  2032                           
  2033     0076                     ___lwdiv@counter:	
  2034                           ; 1 bytes @ 0x6
  2035                           
  2036     0076                     ___awdiv@quotient:	
  2037                           ; 1 bytes @ 0x6
  2038                           
  2039     0076                     ___xxtofl@val:	
  2040                           ; 2 bytes @ 0x6
  2041                           
  2042     0076                     ??_init_clcd:	
  2043                           ; 4 bytes @ 0x6
  2044                           
  2045                           
  2046                           ; 1 bytes @ 0x6
  2047     0076                     	ds	1
  2048     0077                     ?_display_time:
  2049     0077                     display_time@clock_reg:	
  2050                           ; 1 bytes @ 0x7
  2051                           
  2052     0077                     ??_clcd_print:	
  2053                           ; 1 bytes @ 0x7
  2054                           
  2055     0077                     ??_view_log:	
  2056                           ; 1 bytes @ 0x7
  2057                           
  2058     0077                     ??_clear_log:	
  2059                           ; 1 bytes @ 0x7
  2060                           
  2061     0077                     ??_download_log:	
  2062                           ; 1 bytes @ 0x7
  2063                           
  2064     0077                     ??_uart_puts:	
  2065                           ; 1 bytes @ 0x7
  2066                           
  2067                           
  2068                           ; 1 bytes @ 0x7
  2069     0077                     	ds	1
  2070     0078                     ?_write_ds1307:
  2071     0078                     ?_clcd_putch:	
  2072                           ; 1 bytes @ 0x8
  2073                           
  2074     0078                     clcd_putch@addr:	
  2075                           ; 1 bytes @ 0x8
  2076                           
  2077     0078                     write_ds1307@data:	
  2078                           ; 1 bytes @ 0x8
  2079                           
  2080     0078                     ??_display_time:	
  2081                           ; 1 bytes @ 0x8
  2082                           
  2083     0078                     ??___lldiv:	
  2084                           ; 1 bytes @ 0x8
  2085                           
  2086                           
  2087                           ; 1 bytes @ 0x8
  2088     0078                     	ds	1
  2089     0079                     clcd_putch@data:
  2090     0079                     write_ds1307@addr:	
  2091                           ; 1 bytes @ 0x9
  2092                           
  2093     0079                     ___lldiv@quotient:	
  2094                           ; 1 bytes @ 0x9
  2095                           
  2096     0079                     ??_write_ds1307:	
  2097                           ; 4 bytes @ 0x9
  2098                           
  2099     0079                     ??_clcd_putch:	
  2100                           ; 1 bytes @ 0x9
  2101                           
  2102                           
  2103                           ; 1 bytes @ 0x9
  2104     0079                     	ds	1
  2105     007A                     ?_change_password:
  2106     007A                     init_ds1307@dummy:	
  2107                           ; 2 bytes @ 0xA
  2108                           
  2109     007A                     download_log@i:	
  2110                           ; 1 bytes @ 0xA
  2111                           
  2112     007A                     ??_init_ds1307:	
  2113                           ; 1 bytes @ 0xA
  2114                           
  2115     007A                     ??_login:	
  2116                           ; 1 bytes @ 0xA
  2117                           
  2118     007A                     ??___xxtofl:	
  2119                           ; 1 bytes @ 0xA
  2120                           
  2121                           
  2122                           ; 1 bytes @ 0xA
  2123     007A                     	ds	1
  2124     007B                     download_log@addr:
  2125                           
  2126                           ; 1 bytes @ 0xB
  2127     007B                     	ds	1
  2128     007C                     change_password@key:
  2129     007C                     store_event@i:	
  2130                           ; 1 bytes @ 0xC
  2131                           
  2132                           
  2133                           ; 2 bytes @ 0xC
  2134     007C                     	ds	1
  2135     007D                     ___lldiv@counter:
  2136                           
  2137                           ; 1 bytes @ 0xD
  2138     007D                     	ds	1
  2139     007E                     ??_init_config:
  2140     007E                     ??_main:	
  2141                           ; 1 bytes @ 0xE
  2142                           
  2143                           
  2144                           	psect	cstackBANK0
  2145     0020                     __pcstackBANK0:	
  2146                           ; 1 bytes @ 0xE
  2147                           
  2148     0020                     ?_init_i2c:
  2149     0020                     login@key:	
  2150                           ; 1 bytes @ 0x0
  2151                           
  2152     0020                     ___xxtofl@sign:	
  2153                           ; 1 bytes @ 0x0
  2154                           
  2155     0020                     init_i2c@baud:	
  2156                           ; 1 bytes @ 0x0
  2157                           
  2158     0020                     view_log@log:	
  2159                           ; 4 bytes @ 0x0
  2160                           
  2161     0020                     ??_set_time:	
  2162                           ; 17 bytes @ 0x0
  2163                           
  2164     0020                     ??_change_password:	
  2165                           ; 1 bytes @ 0x0
  2166                           
  2167                           
  2168                           ; 1 bytes @ 0x0
  2169     0020                     	ds	1
  2170     0021                     ___xxtofl@exp:
  2171     0021                     login@i:	
  2172                           ; 1 bytes @ 0x1
  2173                           
  2174                           
  2175                           ; 4 bytes @ 0x1
  2176     0021                     	ds	1
  2177     0022                     ___xxtofl@arg:
  2178                           
  2179                           ; 4 bytes @ 0x2
  2180     0022                     	ds	2
  2181     0024                     ??_init_i2c:
  2182                           
  2183                           ; 1 bytes @ 0x4
  2184     0024                     	ds	2
  2185     0026                     ?___fldiv:
  2186     0026                     ___fldiv@a:	
  2187                           ; 4 bytes @ 0x6
  2188                           
  2189                           
  2190                           ; 4 bytes @ 0x6
  2191     0026                     	ds	1
  2192     0027                     set_time@temp:
  2193                           
  2194                           ; 9 bytes @ 0x7
  2195     0027                     	ds	3
  2196     002A                     ___fldiv@b:
  2197                           
  2198                           ; 4 bytes @ 0xA
  2199     002A                     	ds	4
  2200     002E                     ??___fldiv:
  2201                           
  2202                           ; 1 bytes @ 0xE
  2203     002E                     	ds	2
  2204     0030                     set_time@key:
  2205                           
  2206                           ; 1 bytes @ 0x10
  2207     0030                     	ds	1
  2208     0031                     view_log@key:
  2209                           
  2210                           ; 1 bytes @ 0x11
  2211     0031                     	ds	1
  2212     0032                     view_log@addr:
  2213                           
  2214                           ; 1 bytes @ 0x12
  2215     0032                     	ds	1
  2216     0033                     ___fldiv@rem:
  2217     0033                     ??_menu:	
  2218                           ; 4 bytes @ 0x13
  2219                           
  2220                           
  2221                           ; 1 bytes @ 0x13
  2222     0033                     	ds	2
  2223     0035                     menu@ret_352:
  2224                           
  2225                           ; 2 bytes @ 0x15
  2226     0035                     	ds	2
  2227     0037                     menu@menu_pos:
  2228     0037                     ___fldiv@sign:	
  2229                           ; 1 bytes @ 0x17
  2230                           
  2231                           
  2232                           ; 1 bytes @ 0x17
  2233     0037                     	ds	1
  2234     0038                     menu@ret:
  2235     0038                     ___fldiv@new_exp:	
  2236                           ; 2 bytes @ 0x18
  2237                           
  2238                           
  2239                           ; 2 bytes @ 0x18
  2240     0038                     	ds	2
  2241     003A                     menu@key:
  2242     003A                     ___fldiv@grs:	
  2243                           ; 1 bytes @ 0x1A
  2244                           
  2245                           
  2246                           ; 4 bytes @ 0x1A
  2247     003A                     	ds	4
  2248     003E                     ___fldiv@bexp:
  2249                           
  2250                           ; 1 bytes @ 0x1E
  2251     003E                     	ds	1
  2252     003F                     ___fldiv@aexp:
  2253                           
  2254                           ; 1 bytes @ 0x1F
  2255     003F                     	ds	1
  2256     0040                     ?___fltol:
  2257     0040                     ___fltol@f1:	
  2258                           ; 4 bytes @ 0x20
  2259                           
  2260                           
  2261                           ; 4 bytes @ 0x20
  2262     0040                     	ds	4
  2263     0044                     ??___fltol:
  2264                           
  2265                           ; 1 bytes @ 0x24
  2266     0044                     	ds	4
  2267     0048                     ___fltol@sign1:
  2268                           
  2269                           ; 1 bytes @ 0x28
  2270     0048                     	ds	1
  2271     0049                     ___fltol@exp1:
  2272                           
  2273                           ; 1 bytes @ 0x29
  2274     0049                     	ds	1
  2275     004A                     ??_dashboard:
  2276                           
  2277                           ; 1 bytes @ 0x2A
  2278     004A                     	ds	4
  2279     004E                     dashboard@key:
  2280                           
  2281                           ; 1 bytes @ 0x2E
  2282     004E                     	ds	1
  2283     004F                     main@ret:
  2284                           
  2285                           ; 1 bytes @ 0x2F
  2286     004F                     	ds	1
  2287     0050                     main@key:
  2288                           
  2289                           ; 1 bytes @ 0x30
  2290     0050                     	ds	1
  2291                           
  2292                           	psect	maintext
  2293     162F                     __pmaintext:	
  2294 ;;
  2295 ;;Main: autosize = 0, tempsize = 0, incstack = 0, save=0
  2296 ;;
  2297 ;; *************** function _main *****************
  2298 ;; Defined at:
  2299 ;;		line 36 in file "main.c"
  2300 ;; Parameters:    Size  Location     Type
  2301 ;;		None
  2302 ;; Auto vars:     Size  Location     Type
  2303 ;;  key             1   48[BANK0 ] unsigned char 
  2304 ;;  ret             1   47[BANK0 ] unsigned char 
  2305 ;; Return value:  Size  Location     Type
  2306 ;;                  1    wreg      void 
  2307 ;; Registers used:
  2308 ;;		wreg, fsr0l, fsr0h, status,2, status,0, pclath, btemp1, cstack
  2309 ;; Tracked objects:
  2310 ;;		On entry : B00/0
  2311 ;;		On exit  : 0/0
  2312 ;;		Unchanged: 0/0
  2313 ;; Data sizes:     COMMON   BANK0   BANK1   BANK3   BANK2
  2314 ;;      Params:         0       0       0       0       0
  2315 ;;      Locals:         0       2       0       0       0
  2316 ;;      Temps:          0       0       0       0       0
  2317 ;;      Totals:         0       2       0       0       0
  2318 ;;Total ram usage:        2 bytes
  2319 ;; Hardware stack levels required when called: 6
  2320 ;; This function calls:
  2321 ;;		_clcd_print
  2322 ;;		_dashboard
  2323 ;;		_init_config
  2324 ;;		_login
  2325 ;;		_menu
  2326 ;;		_read_digital_keypad
  2327 ;; This function is called by:
  2328 ;;		Startup code after reset
  2329 ;; This function uses a non-reentrant model
  2330 ;;
  2331                           
  2332     162F                     _main:	
  2333                           ;psect for function _main
  2334                           
  2335     162F                     l3875:	
  2336                           ;incstack = 0
  2337                           ; Regs used in _main: [wreg-fsr0h+status,2+status,0+pclath+btemp1+cstack]
  2338                           
  2339                           
  2340                           ;main.c: 37:     init_config();
  2341     162F  160A  118A  224A  160A  118A  	fcall	_init_config
  2342     1634                     l55:	
  2343                           ;main.c: 38:     unsigned char key;;main.c: 39:     unsigned char ret;;main.c: 41:     w
      +                          hile(1)
  2344                           
  2345                           
  2346                           ;main.c: 42:     {;main.c: 44:         key = read_digital_keypad(1);
  2347     1634  3001               	movlw	1
  2348     1635  160A  118A  2273  160A  118A  	fcall	_read_digital_keypad
  2349     163A  1283               	bcf	3,5	;RP0=0, select bank0
  2350     163B  1303               	bcf	3,6	;RP1=0, select bank0
  2351     163C  00D0               	movwf	main@key
  2352     163D                     l3877:
  2353                           
  2354                           ;main.c: 46:         if(operation == 0)
  2355     163D  0860               	movf	_operation,w
  2356     163E  1D03               	btfss	3,2
  2357     163F  2E41               	goto	u4351
  2358     1640  2E42               	goto	u4350
  2359     1641                     u4351:
  2360     1641  2E88               	goto	l3899
  2361     1642                     u4350:
  2362     1642                     l3879:
  2363                           
  2364                           ;main.c: 47:         {;main.c: 48:             dashboard(key);
  2365     1642  0850               	movf	main@key,w
  2366     1643  120A  118A  2005  160A  118A  	fcall	_dashboard
  2367     1648                     l3881:
  2368                           
  2369                           ;main.c: 50:             if(key == 0x37)
  2370     1648  3037               	movlw	55
  2371     1649  1283               	bcf	3,5	;RP0=0, select bank0
  2372     164A  1303               	bcf	3,6	;RP1=0, select bank0
  2373     164B  0650               	xorwf	main@key,w
  2374     164C  1D03               	btfss	3,2
  2375     164D  2E4F               	goto	u4361
  2376     164E  2E50               	goto	u4360
  2377     164F                     u4361:
  2378     164F  2E34               	goto	l55
  2379     1650                     u4360:
  2380     1650                     l3883:
  2381                           
  2382                           ;main.c: 51:             {;main.c: 52:                 clcd_print("                ", (0
      +                          x80 + 0));
  2383     1650  306B               	movlw	low (STR_1| (0+32768))
  2384     1651  00F4               	movwf	clcd_print@str
  2385     1652  3088               	movlw	high (STR_1| (0+32768))
  2386     1653  00F5               	movwf	clcd_print@str+1
  2387     1654  3080               	movlw	128
  2388     1655  00F6               	movwf	clcd_print@addr
  2389     1656  160A  118A  22C8  160A  118A  	fcall	_clcd_print
  2390                           
  2391                           ;main.c: 53:                 clcd_print("                ", (0xC0 + 0));
  2392     165B  306B               	movlw	low (STR_1| (0+32768))
  2393     165C  00F4               	movwf	clcd_print@str
  2394     165D  3088               	movlw	high (STR_1| (0+32768))
  2395     165E  00F5               	movwf	clcd_print@str+1
  2396     165F  30C0               	movlw	192
  2397     1660  00F6               	movwf	clcd_print@addr
  2398     1661  160A  118A  22C8  160A  118A  	fcall	_clcd_print
  2399     1666                     l3885:
  2400                           
  2401                           ;main.c: 56:                 {;main.c: 57:                     key = read_digital_keypad
      +                          (1);
  2402     1666  3001               	movlw	1
  2403     1667  160A  118A  2273  160A  118A  	fcall	_read_digital_keypad
  2404     166C  1283               	bcf	3,5	;RP0=0, select bank0
  2405     166D  1303               	bcf	3,6	;RP1=0, select bank0
  2406     166E  00D0               	movwf	main@key
  2407     166F                     l3887:
  2408                           
  2409                           ;main.c: 58:                     ret = login(key);
  2410     166F  0850               	movf	main@key,w
  2411     1670  120A  118A  22E9  160A  118A  	fcall	_login
  2412     1675  1283               	bcf	3,5	;RP0=0, select bank0
  2413     1676  1303               	bcf	3,6	;RP1=0, select bank0
  2414     1677  00CF               	movwf	main@ret
  2415     1678                     l3889:
  2416                           
  2417                           ;main.c: 60:                     if(ret == 1)
  2418     1678  034F               	decf	main@ret,w
  2419     1679  1D03               	btfss	3,2
  2420     167A  2E7C               	goto	u4371
  2421     167B  2E7D               	goto	u4370
  2422     167C                     u4371:
  2423     167C  2E80               	goto	l3895
  2424     167D                     u4370:
  2425     167D                     l3891:
  2426                           
  2427                           ;main.c: 61:                     {;main.c: 62:                         operation = 1;
  2428     167D  3001               	movlw	1
  2429     167E  00E0               	movwf	_operation
  2430                           
  2431                           ;main.c: 63:                         break;
  2432     167F  2E34               	goto	l55
  2433     1680                     l3895:
  2434     1680  3002               	movlw	2
  2435     1681  064F               	xorwf	main@ret,w
  2436     1682  1D03               	btfss	3,2
  2437     1683  2E85               	goto	u4381
  2438     1684  2E86               	goto	u4380
  2439     1685                     u4381:
  2440     1685  2E66               	goto	l3885
  2441     1686                     u4380:
  2442     1686                     l3897:
  2443                           
  2444                           ;main.c: 67:                     {;main.c: 68:                         operation = 0;
  2445     1686  01E0               	clrf	_operation
  2446                           
  2447                           ;main.c: 69:                         break;
  2448     1687  2E34               	goto	l55
  2449     1688                     l3899:
  2450     1688  0360               	decf	_operation,w
  2451     1689  1D03               	btfss	3,2
  2452     168A  2E8C               	goto	u4391
  2453     168B  2E8D               	goto	u4390
  2454     168C                     u4391:
  2455     168C  2E34               	goto	l55
  2456     168D                     u4390:
  2457     168D                     l3901:
  2458                           
  2459                           ;main.c: 75:         {;main.c: 76:             menu(key);
  2460     168D  0850               	movf	main@key,w
  2461     168E  120A  158A  24CF  160A  118A  	fcall	_menu
  2462     1693  2E34               	goto	l55
  2463     1694  120A  118A  2800   	ljmp	start
  2464     1697                     __end_of_main:
  2465                           
  2466                           	psect	text1
  2467     0CCF                     __ptext1:	
  2468 ;; *************** function _menu *****************
  2469 ;; Defined at:
  2470 ;;		line 170 in file "menu.c"
  2471 ;; Parameters:    Size  Location     Type
  2472 ;;  key             1    wreg     unsigned char 
  2473 ;; Auto vars:     Size  Location     Type
  2474 ;;  key             1   26[BANK0 ] unsigned char 
  2475 ;;  ret             2   21[BANK0 ] int 
  2476 ;;  ret             2   24[BANK0 ] int 
  2477 ;;  menu_pos        1   23[BANK0 ] unsigned char 
  2478 ;; Return value:  Size  Location     Type
  2479 ;;                  1    wreg      void 
  2480 ;; Registers used:
  2481 ;;		wreg, fsr0l, fsr0h, status,2, status,0, pclath, btemp1, cstack
  2482 ;; Tracked objects:
  2483 ;;		On entry : 0/0
  2484 ;;		On exit  : 0/0
  2485 ;;		Unchanged: 0/0
  2486 ;; Data sizes:     COMMON   BANK0   BANK1   BANK3   BANK2
  2487 ;;      Params:         0       0       0       0       0
  2488 ;;      Locals:         0       6       0       0       0
  2489 ;;      Temps:          0       2       0       0       0
  2490 ;;      Totals:         0       8       0       0       0
  2491 ;;Total ram usage:        8 bytes
  2492 ;; Hardware stack levels used: 1
  2493 ;; Hardware stack levels required when called: 3
  2494 ;; This function calls:
  2495 ;;		_change_password
  2496 ;;		_clcd_print
  2497 ;;		_clcd_putch
  2498 ;;		_clear_log
  2499 ;;		_download_log
  2500 ;;		_read_digital_keypad
  2501 ;;		_set_time
  2502 ;;		_view_log
  2503 ;; This function is called by:
  2504 ;;		_main
  2505 ;; This function uses a non-reentrant model
  2506 ;;
  2507                           
  2508     0CCF                     _menu:	
  2509                           ;psect for function _menu
  2510                           
  2511                           
  2512                           ;incstack = 0
  2513                           ; Regs used in _menu: [wreg-fsr0h+status,2+status,0+pclath+btemp1+cstack]
  2514                           ;menu@key stored from wreg
  2515     0CCF  1283               	bcf	3,5	;RP0=0, select bank0
  2516     0CD0  1303               	bcf	3,6	;RP1=0, select bank0
  2517     0CD1  00BA               	movwf	menu@key
  2518     0CD2                     l3773:
  2519                           
  2520                           ;menu.c: 170: void menu(unsigned char key);menu.c: 171: {;menu.c: 172:     static unsign
      +                          ed char top = 0;;menu.c: 173:     static unsigned char select = 0;;menu.c: 174:     stat
      +                          ic unsigned char redraw = 1;;menu.c: 177:     if(key == 0x3E)
  2521     0CD2  303E               	movlw	62
  2522     0CD3  063A               	xorwf	menu@key,w
  2523     0CD4  1D03               	btfss	3,2
  2524     0CD5  2CD7               	goto	u4191
  2525     0CD6  2CD8               	goto	u4190
  2526     0CD7                     u4191:
  2527     0CD7  2CEB               	goto	l3787
  2528     0CD8                     u4190:
  2529     0CD8                     l3775:
  2530                           
  2531                           ;menu.c: 178:     {;menu.c: 179:         if(select == 1)
  2532     0CD8  0359               	decf	menu@select,w
  2533     0CD9  1D03               	btfss	3,2
  2534     0CDA  2CDC               	goto	u4201
  2535     0CDB  2CDD               	goto	u4200
  2536     0CDC                     u4201:
  2537     0CDC  2CE3               	goto	l3781
  2538     0CDD                     u4200:
  2539     0CDD                     l3777:
  2540                           
  2541                           ;menu.c: 180:         {;menu.c: 181:             select = 0;
  2542     0CDD  01D9               	clrf	menu@select
  2543     0CDE                     l3779:
  2544                           
  2545                           ;menu.c: 182:             redraw = 1;
  2546     0CDE  3001               	movlw	1
  2547     0CDF  1283               	bcf	3,5	;RP0=0, select bank0
  2548     0CE0  1303               	bcf	3,6	;RP1=0, select bank0
  2549     0CE1  00E9               	movwf	menu@redraw
  2550                           
  2551                           ;menu.c: 183:         }
  2552     0CE2  2DA3               	goto	l3849
  2553     0CE3                     l3781:
  2554                           
  2555                           ;menu.c: 185:         {;menu.c: 186:             if(top > 0)
  2556     0CE3  085A               	movf	menu@top,w
  2557     0CE4  1903               	btfsc	3,2
  2558     0CE5  2CE7               	goto	u4211
  2559     0CE6  2CE8               	goto	u4210
  2560     0CE7                     u4211:
  2561     0CE7  2DA3               	goto	l3849
  2562     0CE8                     u4210:
  2563     0CE8                     l3783:
  2564                           
  2565                           ;menu.c: 187:             {;menu.c: 188:                 top--;
  2566     0CE8  3001               	movlw	1
  2567     0CE9  02DA               	subwf	menu@top,f
  2568     0CEA  2CDE               	goto	l3779
  2569     0CEB                     l3787:
  2570     0CEB  303D               	movlw	61
  2571     0CEC  063A               	xorwf	menu@key,w
  2572     0CED  1D03               	btfss	3,2
  2573     0CEE  2CF0               	goto	u4221
  2574     0CEF  2CF1               	goto	u4220
  2575     0CF0                     u4221:
  2576     0CF0  2D04               	goto	l3799
  2577     0CF1                     u4220:
  2578     0CF1                     l3789:
  2579                           
  2580                           ;menu.c: 195:     {;menu.c: 196:         if(select == 0)
  2581     0CF1  0859               	movf	menu@select,w
  2582     0CF2  1D03               	btfss	3,2
  2583     0CF3  2CF5               	goto	u4231
  2584     0CF4  2CF6               	goto	u4230
  2585     0CF5                     u4231:
  2586     0CF5  2CFB               	goto	l3793
  2587     0CF6                     u4230:
  2588     0CF6                     l3791:
  2589                           
  2590                           ;menu.c: 197:         {;menu.c: 198:             select = 1;
  2591     0CF6  3001               	movlw	1
  2592     0CF7  00D9               	movwf	menu@select
  2593                           
  2594                           ;menu.c: 199:             redraw = 1;
  2595     0CF8  3001               	movlw	1
  2596     0CF9  00E9               	movwf	menu@redraw
  2597                           
  2598                           ;menu.c: 200:         }
  2599     0CFA  2DA3               	goto	l3849
  2600     0CFB                     l3793:
  2601                           
  2602                           ;menu.c: 202:         {;menu.c: 203:             if(top < 3)
  2603     0CFB  3003               	movlw	3
  2604     0CFC  025A               	subwf	menu@top,w
  2605     0CFD  1803               	skipnc
  2606     0CFE  2D00               	goto	u4241
  2607     0CFF  2D01               	goto	u4240
  2608     0D00                     u4241:
  2609     0D00  2DA3               	goto	l3849
  2610     0D01                     u4240:
  2611     0D01                     l3795:
  2612                           
  2613                           ;menu.c: 204:             {;menu.c: 205:                 top++;
  2614     0D01  3001               	movlw	1
  2615     0D02  07DA               	addwf	menu@top,f
  2616     0D03  2CDE               	goto	l3779
  2617     0D04                     l3799:
  2618     0D04  3037               	movlw	55
  2619     0D05  063A               	xorwf	menu@key,w
  2620     0D06  1D03               	btfss	3,2
  2621     0D07  2D09               	goto	u4251
  2622     0D08  2D0A               	goto	u4250
  2623     0D09                     u4251:
  2624     0D09  2DA3               	goto	l3849
  2625     0D0A                     u4250:
  2626     0D0A                     l3801:
  2627                           
  2628                           ;menu.c: 212:     {;menu.c: 213:         unsigned char menu_pos;;menu.c: 215:         me
      +                          nu_pos = top + select;
  2629     0D0A  0859               	movf	menu@select,w
  2630     0D0B  075A               	addwf	menu@top,w
  2631     0D0C  00B7               	movwf	menu@menu_pos
  2632                           
  2633                           ;menu.c: 217:         switch(menu_pos)
  2634     0D0D  2D92               	goto	l3847
  2635     0D0E                     l3803:
  2636                           
  2637                           ;menu.c: 221:                 {;menu.c: 222:                     key = read_digital_keyp
      +                          ad(1);
  2638     0D0E  3001               	movlw	1
  2639     0D0F  160A  118A  2273  120A  158A  	fcall	_read_digital_keypad
  2640     0D14  1283               	bcf	3,5	;RP0=0, select bank0
  2641     0D15  1303               	bcf	3,6	;RP1=0, select bank0
  2642     0D16  00BA               	movwf	menu@key
  2643     0D17                     l3805:
  2644                           
  2645                           ;menu.c: 223:                     view_log(key);
  2646     0D17  083A               	movf	menu@key,w
  2647     0D18  120A  158A  22A6  120A  158A  	fcall	_view_log
  2648     0D1D                     l3807:
  2649                           
  2650                           ;menu.c: 225:                     if(key == 0x2F)
  2651     0D1D  302F               	movlw	47
  2652     0D1E  1283               	bcf	3,5	;RP0=0, select bank0
  2653     0D1F  1303               	bcf	3,6	;RP1=0, select bank0
  2654     0D20  063A               	xorwf	menu@key,w
  2655     0D21  1D03               	btfss	3,2
  2656     0D22  2D24               	goto	u4261
  2657     0D23  2D25               	goto	u4260
  2658     0D24                     u4261:
  2659     0D24  2D0E               	goto	l3803
  2660     0D25                     u4260:
  2661     0D25  2CDE               	goto	l3779
  2662     0D26                     l3811:
  2663                           
  2664                           ;menu.c: 233:                 clear_log();
  2665     0D26  160A  118A  245B  120A  158A  	fcall	_clear_log
  2666                           
  2667                           ;menu.c: 234:                 break;
  2668     0D2B  2CDE               	goto	l3779
  2669     0D2C                     l3813:
  2670                           
  2671                           ;menu.c: 237:                 download_log();
  2672     0D2C  120A  158A  23A2  120A  158A  	fcall	_download_log
  2673                           
  2674                           ;menu.c: 238:                 break;
  2675     0D31  2CDE               	goto	l3779
  2676     0D32                     l3815:
  2677                           
  2678                           ;menu.c: 242:                 clcd_print("                ", (0x80 + 0));
  2679     0D32  306B               	movlw	low (STR_1| (0+32768))
  2680     0D33  00F4               	movwf	clcd_print@str
  2681     0D34  3088               	movlw	high (STR_1| (0+32768))
  2682     0D35  00F5               	movwf	clcd_print@str+1
  2683     0D36  3080               	movlw	128
  2684     0D37  00F6               	movwf	clcd_print@addr
  2685     0D38  160A  118A  22C8  120A  158A  	fcall	_clcd_print
  2686                           
  2687                           ;menu.c: 243:                 clcd_print("                ", (0xC0 + 0));
  2688     0D3D  306B               	movlw	low (STR_1| (0+32768))
  2689     0D3E  00F4               	movwf	clcd_print@str
  2690     0D3F  3088               	movlw	high (STR_1| (0+32768))
  2691     0D40  00F5               	movwf	clcd_print@str+1
  2692     0D41  30C0               	movlw	192
  2693     0D42  00F6               	movwf	clcd_print@addr
  2694     0D43  160A  118A  22C8  120A  158A  	fcall	_clcd_print
  2695     0D48                     l3817:
  2696                           
  2697                           ;menu.c: 245:                 {;menu.c: 246:                     key = read_digital_keyp
      +                          ad(1);
  2698     0D48  3001               	movlw	1
  2699     0D49  160A  118A  2273  120A  158A  	fcall	_read_digital_keypad
  2700     0D4E  1283               	bcf	3,5	;RP0=0, select bank0
  2701     0D4F  1303               	bcf	3,6	;RP1=0, select bank0
  2702     0D50  00BA               	movwf	menu@key
  2703     0D51                     l3819:
  2704                           
  2705                           ;menu.c: 247:                     int ret = set_time(key);
  2706     0D51  083A               	movf	menu@key,w
  2707     0D52  120A  118A  2526  120A  158A  	fcall	_set_time
  2708     0D57  1283               	bcf	3,5	;RP0=0, select bank0
  2709     0D58  1303               	bcf	3,6	;RP1=0, select bank0
  2710     0D59  00B3               	movwf	??_menu
  2711     0D5A  01B4               	clrf	??_menu+1
  2712     0D5B  0833               	movf	??_menu,w
  2713     0D5C  00B8               	movwf	menu@ret
  2714     0D5D  0834               	movf	??_menu+1,w
  2715     0D5E  00B9               	movwf	menu@ret+1
  2716     0D5F                     l3821:
  2717                           
  2718                           ;menu.c: 249:                     if(ret == 1)
  2719     0D5F  0338               	decf	menu@ret,w
  2720     0D60  0439               	iorwf	menu@ret+1,w
  2721     0D61  1D03               	btfss	3,2
  2722     0D62  2D64               	goto	u4271
  2723     0D63  2D65               	goto	u4270
  2724     0D64                     u4271:
  2725     0D64  2D67               	goto	l3829
  2726     0D65                     u4270:
  2727     0D65                     l3823:
  2728                           
  2729                           ;menu.c: 250:                     {;menu.c: 251:                         operation = 0;
  2730     0D65  01E0               	clrf	_operation
  2731     0D66  2E35               	goto	l428
  2732     0D67                     l3829:
  2733     0D67  3002               	movlw	2
  2734     0D68  0638               	xorwf	menu@ret,w
  2735     0D69  0439               	iorwf	menu@ret+1,w
  2736     0D6A  1D03               	btfss	3,2
  2737     0D6B  2D6D               	goto	u4281
  2738     0D6C  2D6E               	goto	u4280
  2739     0D6D                     u4281:
  2740     0D6D  2D48               	goto	l3817
  2741     0D6E                     u4280:
  2742     0D6E  2CDE               	goto	l3779
  2743     0D6F                     l3833:
  2744                           
  2745                           ;menu.c: 264:                 {;menu.c: 265:                     key = read_digital_keyp
      +                          ad(1);
  2746     0D6F  3001               	movlw	1
  2747     0D70  160A  118A  2273  120A  158A  	fcall	_read_digital_keypad
  2748     0D75  1283               	bcf	3,5	;RP0=0, select bank0
  2749     0D76  1303               	bcf	3,6	;RP1=0, select bank0
  2750     0D77  00BA               	movwf	menu@key
  2751     0D78                     l3835:
  2752                           
  2753                           ;menu.c: 266:                     int ret = change_password(key);
  2754     0D78  083A               	movf	menu@key,w
  2755     0D79  120A  118A  211E  120A  158A  	fcall	_change_password
  2756     0D7E  087B               	movf	?_change_password+1,w
  2757     0D7F  1283               	bcf	3,5	;RP0=0, select bank0
  2758     0D80  1303               	bcf	3,6	;RP1=0, select bank0
  2759     0D81  00B6               	movwf	menu@ret_352+1
  2760     0D82  087A               	movf	?_change_password,w
  2761     0D83  00B5               	movwf	menu@ret_352
  2762     0D84                     l3837:
  2763                           
  2764                           ;menu.c: 267:                     if(ret == 1)
  2765     0D84  0335               	decf	menu@ret_352,w
  2766     0D85  0436               	iorwf	menu@ret_352+1,w
  2767     0D86  1D03               	btfss	3,2
  2768     0D87  2D89               	goto	u4291
  2769     0D88  2D8A               	goto	u4290
  2770     0D89                     u4291:
  2771     0D89  2D8B               	goto	l3841
  2772     0D8A                     u4290:
  2773     0D8A  2CDE               	goto	l3779
  2774     0D8B                     l3841:
  2775                           
  2776                           ;menu.c: 271:                     if(key == 0x2F)
  2777     0D8B  302F               	movlw	47
  2778     0D8C  063A               	xorwf	menu@key,w
  2779     0D8D  1D03               	btfss	3,2
  2780     0D8E  2D90               	goto	u4301
  2781     0D8F  2D91               	goto	u4300
  2782     0D90                     u4301:
  2783     0D90  2D6F               	goto	l3833
  2784     0D91                     u4300:
  2785     0D91  2CDE               	goto	l3779
  2786     0D92                     l3847:
  2787     0D92  0837               	movf	menu@menu_pos,w
  2788                           
  2789                           ; Switch size 1, requested type "simple"
  2790                           ; Number of cases is 5, Range of values is 0 to 4
  2791                           ; switch strategies available:
  2792                           ; Name         Instructions Cycles
  2793                           ; simple_byte           16     9 (average)
  2794                           ; direct_byte           23     8 (fixed)
  2795                           ; jumptable            260     6 (fixed)
  2796                           ;	Chosen strategy is simple_byte
  2797     0D93  3A00               	xorlw	0	; case 0
  2798     0D94  1903               	skipnz
  2799     0D95  2D0E               	goto	l3803
  2800     0D96  3A01               	xorlw	1	; case 1
  2801     0D97  1903               	skipnz
  2802     0D98  2D26               	goto	l3811
  2803     0D99  3A03               	xorlw	3	; case 2
  2804     0D9A  1903               	skipnz
  2805     0D9B  2D2C               	goto	l3813
  2806     0D9C  3A01               	xorlw	1	; case 3
  2807     0D9D  1903               	skipnz
  2808     0D9E  2D32               	goto	l3815
  2809     0D9F  3A07               	xorlw	7	; case 4
  2810     0DA0  1903               	skipnz
  2811     0DA1  2D6F               	goto	l3833
  2812     0DA2  2CDE               	goto	l3779
  2813     0DA3                     l3849:
  2814                           
  2815                           ;menu.c: 282:     if(redraw)
  2816     0DA3  0869               	movf	menu@redraw,w
  2817     0DA4  1903               	btfsc	3,2
  2818     0DA5  2DA7               	goto	u4311
  2819     0DA6  2DA8               	goto	u4310
  2820     0DA7                     u4311:
  2821     0DA7  2E35               	goto	l428
  2822     0DA8                     u4310:
  2823     0DA8                     l3851:
  2824                           
  2825                           ;menu.c: 283:     {;menu.c: 284:         redraw = 0;
  2826     0DA8  01E9               	clrf	menu@redraw
  2827     0DA9                     l3853:
  2828                           
  2829                           ;menu.c: 286:         clcd_print("                ", (0x80 + 0));
  2830     0DA9  306B               	movlw	low (STR_1| (0+32768))
  2831     0DAA  00F4               	movwf	clcd_print@str
  2832     0DAB  3088               	movlw	high (STR_1| (0+32768))
  2833     0DAC  00F5               	movwf	clcd_print@str+1
  2834     0DAD  3080               	movlw	128
  2835     0DAE  00F6               	movwf	clcd_print@addr
  2836     0DAF  160A  118A  22C8  120A  158A  	fcall	_clcd_print
  2837     0DB4                     l3855:
  2838                           
  2839                           ;menu.c: 287:         clcd_print("                ", (0xC0 + 0));
  2840     0DB4  306B               	movlw	low (STR_1| (0+32768))
  2841     0DB5  00F4               	movwf	clcd_print@str
  2842     0DB6  3088               	movlw	high (STR_1| (0+32768))
  2843     0DB7  00F5               	movwf	clcd_print@str+1
  2844     0DB8  30C0               	movlw	192
  2845     0DB9  00F6               	movwf	clcd_print@addr
  2846     0DBA  160A  118A  22C8  120A  158A  	fcall	_clcd_print
  2847     0DBF                     l3857:
  2848                           
  2849                           ;menu.c: 289:         if(select == 0)
  2850     0DBF  1283               	bcf	3,5	;RP0=0, select bank0
  2851     0DC0  1303               	bcf	3,6	;RP1=0, select bank0
  2852     0DC1  0859               	movf	menu@select,w
  2853     0DC2  1D03               	btfss	3,2
  2854     0DC3  2DC5               	goto	u4321
  2855     0DC4  2DC6               	goto	u4320
  2856     0DC5                     u4321:
  2857     0DC5  2DFF               	goto	l3867
  2858     0DC6                     u4320:
  2859     0DC6                     l3859:
  2860                           
  2861                           ;menu.c: 290:         {;menu.c: 291:             clcd_putch('*', (0x80 + 0));
  2862     0DC6  3080               	movlw	128
  2863     0DC7  00F8               	movwf	clcd_putch@addr
  2864     0DC8  302A               	movlw	42
  2865     0DC9  160A  118A  20F1  120A  158A  	fcall	_clcd_putch
  2866     0DCE                     l3861:
  2867                           
  2868                           ;menu.c: 292:             clcd_print(str[top], (0x80 + 2));
  2869     0DCE  1283               	bcf	3,5	;RP0=0, select bank0
  2870     0DCF  1303               	bcf	3,6	;RP1=0, select bank0
  2871     0DD0  085A               	movf	menu@top,w
  2872     0DD1  00B3               	movwf	??_menu
  2873     0DD2  0733               	addwf	??_menu,w
  2874     0DD3  3EDB               	addlw	(low (_str| 0))& (0+255)
  2875     0DD4  0084               	movwf	4
  2876     0DD5  1383               	bcf	3,7	;select IRP bank1
  2877     0DD6  0800               	movf	0,w
  2878     0DD7  00F4               	movwf	clcd_print@str
  2879     0DD8  0A84               	incf	4,f
  2880     0DD9  0800               	movf	0,w
  2881     0DDA  0384               	decf	4,f
  2882     0DDB  00F5               	movwf	clcd_print@str+1
  2883     0DDC  3082               	movlw	130
  2884     0DDD  00F6               	movwf	clcd_print@addr
  2885     0DDE  160A  118A  22C8  120A  158A  	fcall	_clcd_print
  2886     0DE3                     l3863:
  2887                           
  2888                           ;menu.c: 294:             if(top < 4)
  2889     0DE3  3004               	movlw	4
  2890     0DE4  1283               	bcf	3,5	;RP0=0, select bank0
  2891     0DE5  1303               	bcf	3,6	;RP1=0, select bank0
  2892     0DE6  025A               	subwf	menu@top,w
  2893     0DE7  1803               	skipnc
  2894     0DE8  2DEA               	goto	u4331
  2895     0DE9  2DEB               	goto	u4330
  2896     0DEA                     u4331:
  2897     0DEA  2E35               	goto	l428
  2898     0DEB                     u4330:
  2899     0DEB                     l3865:
  2900                           
  2901                           ;menu.c: 295:                 clcd_print(str[top + 1], (0xC0 + 2));
  2902     0DEB  085A               	movf	menu@top,w
  2903     0DEC  00B3               	movwf	??_menu
  2904     0DED  0733               	addwf	??_menu,w
  2905     0DEE  3EDD               	addlw	(low ((_str| 0+2)))& (0+255)
  2906     0DEF  0084               	movwf	4
  2907     0DF0  1383               	bcf	3,7	;select IRP bank1
  2908     0DF1  0800               	movf	0,w
  2909     0DF2  00F4               	movwf	clcd_print@str
  2910     0DF3  0A84               	incf	4,f
  2911     0DF4  0800               	movf	0,w
  2912     0DF5  0384               	decf	4,f
  2913     0DF6  00F5               	movwf	clcd_print@str+1
  2914     0DF7  30C2               	movlw	194
  2915     0DF8  00F6               	movwf	clcd_print@addr
  2916     0DF9  160A  118A  22C8  120A  158A  	fcall	_clcd_print
  2917     0DFE  2E35               	goto	l428
  2918     0DFF                     l3867:
  2919                           
  2920                           ;menu.c: 298:         {;menu.c: 299:             clcd_print(str[top], (0x80 + 2));
  2921     0DFF  085A               	movf	menu@top,w
  2922     0E00  00B3               	movwf	??_menu
  2923     0E01  0733               	addwf	??_menu,w
  2924     0E02  3EDB               	addlw	(low (_str| 0))& (0+255)
  2925     0E03  0084               	movwf	4
  2926     0E04  1383               	bcf	3,7	;select IRP bank1
  2927     0E05  0800               	movf	0,w
  2928     0E06  00F4               	movwf	clcd_print@str
  2929     0E07  0A84               	incf	4,f
  2930     0E08  0800               	movf	0,w
  2931     0E09  0384               	decf	4,f
  2932     0E0A  00F5               	movwf	clcd_print@str+1
  2933     0E0B  3082               	movlw	130
  2934     0E0C  00F6               	movwf	clcd_print@addr
  2935     0E0D  160A  118A  22C8  120A  158A  	fcall	_clcd_print
  2936     0E12                     l3869:
  2937                           
  2938                           ;menu.c: 301:             clcd_putch('*', (0xC0 + 0));
  2939     0E12  30C0               	movlw	192
  2940     0E13  00F8               	movwf	clcd_putch@addr
  2941     0E14  302A               	movlw	42
  2942     0E15  160A  118A  20F1  120A  158A  	fcall	_clcd_putch
  2943     0E1A                     l3871:
  2944                           
  2945                           ;menu.c: 303:             if(top < 4)
  2946     0E1A  3004               	movlw	4
  2947     0E1B  1283               	bcf	3,5	;RP0=0, select bank0
  2948     0E1C  1303               	bcf	3,6	;RP1=0, select bank0
  2949     0E1D  025A               	subwf	menu@top,w
  2950     0E1E  1803               	skipnc
  2951     0E1F  2E21               	goto	u4341
  2952     0E20  2E22               	goto	u4340
  2953     0E21                     u4341:
  2954     0E21  2E35               	goto	l428
  2955     0E22                     u4340:
  2956     0E22                     l3873:
  2957                           
  2958                           ;menu.c: 304:                 clcd_print(str[top + 1], (0xC0 + 2));
  2959     0E22  085A               	movf	menu@top,w
  2960     0E23  00B3               	movwf	??_menu
  2961     0E24  0733               	addwf	??_menu,w
  2962     0E25  3EDD               	addlw	(low ((_str| 0+2)))& (0+255)
  2963     0E26  0084               	movwf	4
  2964     0E27  1383               	bcf	3,7	;select IRP bank1
  2965     0E28  0800               	movf	0,w
  2966     0E29  00F4               	movwf	clcd_print@str
  2967     0E2A  0A84               	incf	4,f
  2968     0E2B  0800               	movf	0,w
  2969     0E2C  0384               	decf	4,f
  2970     0E2D  00F5               	movwf	clcd_print@str+1
  2971     0E2E  30C2               	movlw	194
  2972     0E2F  00F6               	movwf	clcd_print@addr
  2973     0E30  160A  118A  22C8  120A  158A  	fcall	_clcd_print
  2974     0E35                     l428:
  2975     0E35  0008               	return
  2976     0E36                     __end_of_menu:
  2977                           
  2978                           	psect	text2
  2979     0AA6                     __ptext2:	
  2980 ;; *************** function _view_log *****************
  2981 ;; Defined at:
  2982 ;;		line 309 in file "menu.c"
  2983 ;; Parameters:    Size  Location     Type
  2984 ;;  key             1    wreg     unsigned char 
  2985 ;; Auto vars:     Size  Location     Type
  2986 ;;  key             1   17[BANK0 ] unsigned char 
  2987 ;;  log            17    0[BANK0 ] unsigned char [17]
  2988 ;;  addr            1   18[BANK0 ] unsigned char 
  2989 ;; Return value:  Size  Location     Type
  2990 ;;                  1    wreg      void 
  2991 ;; Registers used:
  2992 ;;		wreg, fsr0l, fsr0h, status,2, status,0, pclath, btemp1, cstack
  2993 ;; Tracked objects:
  2994 ;;		On entry : 0/0
  2995 ;;		On exit  : 0/0
  2996 ;;		Unchanged: 0/0
  2997 ;; Data sizes:     COMMON   BANK0   BANK1   BANK3   BANK2
  2998 ;;      Params:         0       0       0       0       0
  2999 ;;      Locals:         0      19       0       0       0
  3000 ;;      Temps:          2       0       0       0       0
  3001 ;;      Totals:         2      19       0       0       0
  3002 ;;Total ram usage:       21 bytes
  3003 ;; Hardware stack levels used: 1
  3004 ;; Hardware stack levels required when called: 1
  3005 ;; This function calls:
  3006 ;;		___bmul
  3007 ;;		_clcd_print
  3008 ;;		_read_external_eeprom
  3009 ;; This function is called by:
  3010 ;;		_menu
  3011 ;; This function uses a non-reentrant model
  3012 ;;
  3013                           
  3014     0AA6                     _view_log:	
  3015                           ;psect for function _view_log
  3016                           
  3017                           
  3018                           ;incstack = 0
  3019                           ; Regs used in _view_log: [wreg-fsr0h+status,2+status,0+pclath+btemp1+cstack]
  3020                           ;view_log@key stored from wreg
  3021     0AA6  1283               	bcf	3,5	;RP0=0, select bank0
  3022     0AA7  1303               	bcf	3,6	;RP1=0, select bank0
  3023     0AA8  00B1               	movwf	view_log@key
  3024     0AA9                     l2879:
  3025                           
  3026                           ;menu.c: 309: void view_log(unsigned char key);menu.c: 310: {;menu.c: 312:     static un
      +                          signed char log_pos = 0;;menu.c: 313:     unsigned char log[17];;menu.c: 315:     if(eve
      +                          nt_count == 0)
  3027     0AA9  085F               	movf	_event_count,w
  3028     0AAA  1D03               	btfss	3,2
  3029     0AAB  2AAD               	goto	u2741
  3030     0AAC  2AAE               	goto	u2740
  3031     0AAD                     u2741:
  3032     0AAD  2ACE               	goto	l2889
  3033     0AAE                     u2740:
  3034     0AAE                     l2881:
  3035                           
  3036                           ;menu.c: 316:     {;menu.c: 317:         clcd_print(" NO LOGS FOUND ", (0x80 + 0));
  3037     0AAE  303C               	movlw	low (STR_34| (0+32768))
  3038     0AAF  00F4               	movwf	clcd_print@str
  3039     0AB0  3089               	movlw	high (STR_34| (0+32768))
  3040     0AB1  00F5               	movwf	clcd_print@str+1
  3041     0AB2  3080               	movlw	128
  3042     0AB3  00F6               	movwf	clcd_print@addr
  3043     0AB4  160A  118A  22C8  120A  158A  	fcall	_clcd_print
  3044                           
  3045                           ;menu.c: 318:         clcd_print("                ", (0xC0 + 0));
  3046     0AB9  306B               	movlw	low (STR_1| (0+32768))
  3047     0ABA  00F4               	movwf	clcd_print@str
  3048     0ABB  3088               	movlw	high (STR_1| (0+32768))
  3049     0ABC  00F5               	movwf	clcd_print@str+1
  3050     0ABD  30C0               	movlw	192
  3051     0ABE  00F6               	movwf	clcd_print@addr
  3052     0ABF  160A  118A  22C8  120A  158A  	fcall	_clcd_print
  3053     0AC4                     l2883:
  3054                           
  3055                           ;menu.c: 320:         if(key == 0x2F)
  3056     0AC4  302F               	movlw	47
  3057     0AC5  1283               	bcf	3,5	;RP0=0, select bank0
  3058     0AC6  1303               	bcf	3,6	;RP1=0, select bank0
  3059     0AC7  0631               	xorwf	view_log@key,w
  3060     0AC8  1D03               	btfss	3,2
  3061     0AC9  2ACB               	goto	u2751
  3062     0ACA  2ACC               	goto	u2750
  3063     0ACB                     u2751:
  3064     0ACB  2BA1               	goto	l450
  3065     0ACC                     u2750:
  3066     0ACC                     l2885:
  3067                           
  3068                           ;menu.c: 321:         {;menu.c: 322:             log_pos = 0;
  3069     0ACC  01E4               	clrf	view_log@log_pos
  3070     0ACD  2BA1               	goto	l450
  3071     0ACE                     l2889:
  3072                           
  3073                           ;menu.c: 327:     if(key == 0x3E)
  3074     0ACE  303E               	movlw	62
  3075     0ACF  0631               	xorwf	view_log@key,w
  3076     0AD0  1D03               	btfss	3,2
  3077     0AD1  2AD3               	goto	u2761
  3078     0AD2  2AD4               	goto	u2760
  3079     0AD3                     u2761:
  3080     0AD3  2ADC               	goto	l2895
  3081     0AD4                     u2760:
  3082     0AD4                     l2891:
  3083                           
  3084                           ;menu.c: 328:     {;menu.c: 330:         if(log_pos > 0)
  3085     0AD4  0864               	movf	view_log@log_pos,w
  3086     0AD5  1903               	btfsc	3,2
  3087     0AD6  2AD8               	goto	u2771
  3088     0AD7  2AD9               	goto	u2770
  3089     0AD8                     u2771:
  3090     0AD8  2B00               	goto	l2907
  3091     0AD9                     u2770:
  3092     0AD9                     l2893:
  3093                           
  3094                           ;menu.c: 331:         {;menu.c: 332:             log_pos--;
  3095     0AD9  3001               	movlw	1
  3096     0ADA  02E4               	subwf	view_log@log_pos,f
  3097     0ADB  2B00               	goto	l2907
  3098     0ADC                     l2895:
  3099     0ADC  303D               	movlw	61
  3100     0ADD  0631               	xorwf	view_log@key,w
  3101     0ADE  1D03               	btfss	3,2
  3102     0ADF  2AE1               	goto	u2781
  3103     0AE0  2AE2               	goto	u2780
  3104     0AE1                     u2781:
  3105     0AE1  2AF9               	goto	l2901
  3106     0AE2                     u2780:
  3107     0AE2                     l2897:
  3108                           
  3109                           ;menu.c: 338:     {;menu.c: 340:         if(log_pos < (event_count - 1))
  3110     0AE2  085F               	movf	_event_count,w
  3111     0AE3  3EFF               	addlw	255
  3112     0AE4  00F7               	movwf	??_view_log
  3113     0AE5  30FF               	movlw	255
  3114     0AE6  1803               	skipnc
  3115     0AE7  3000               	movlw	0
  3116     0AE8  00F8               	movwf	??_view_log+1
  3117     0AE9  0878               	movf	??_view_log+1,w
  3118     0AEA  3A80               	xorlw	128
  3119     0AEB  3C80               	sublw	128
  3120     0AEC  1D03               	skipz
  3121     0AED  2AF0               	goto	u2795
  3122     0AEE  0877               	movf	??_view_log,w
  3123     0AEF  0264               	subwf	view_log@log_pos,w
  3124     0AF0                     u2795:
  3125     0AF0  1803               	skipnc
  3126     0AF1  2AF3               	goto	u2791
  3127     0AF2  2AF4               	goto	u2790
  3128     0AF3                     u2791:
  3129     0AF3  2B00               	goto	l2907
  3130     0AF4                     u2790:
  3131     0AF4                     l2899:
  3132                           
  3133                           ;menu.c: 341:         {;menu.c: 342:             log_pos++;
  3134     0AF4  3001               	movlw	1
  3135     0AF5  1283               	bcf	3,5	;RP0=0, select bank0
  3136     0AF6  1303               	bcf	3,6	;RP1=0, select bank0
  3137     0AF7  07E4               	addwf	view_log@log_pos,f
  3138     0AF8  2B00               	goto	l2907
  3139     0AF9                     l2901:
  3140     0AF9  302F               	movlw	47
  3141     0AFA  0631               	xorwf	view_log@key,w
  3142     0AFB  1D03               	btfss	3,2
  3143     0AFC  2AFE               	goto	u2801
  3144     0AFD  2AFF               	goto	u2800
  3145     0AFE                     u2801:
  3146     0AFE  2B00               	goto	l2907
  3147     0AFF                     u2800:
  3148     0AFF  2ACC               	goto	l2885
  3149     0B00                     l2907:
  3150                           
  3151                           ;menu.c: 353:     unsigned char addr = log_pos * 10;
  3152     0B00  300A               	movlw	10
  3153     0B01  00F0               	movwf	___bmul@multiplicand
  3154     0B02  1283               	bcf	3,5	;RP0=0, select bank0
  3155     0B03  1303               	bcf	3,6	;RP1=0, select bank0
  3156     0B04  0864               	movf	view_log@log_pos,w
  3157     0B05  160A  118A  2139  120A  158A  	fcall	___bmul
  3158     0B0A  1283               	bcf	3,5	;RP0=0, select bank0
  3159     0B0B  1303               	bcf	3,6	;RP1=0, select bank0
  3160     0B0C  00B2               	movwf	view_log@addr
  3161     0B0D                     l2909:
  3162                           
  3163                           ;menu.c: 355:     clcd_print("#  TIME    EV SP   ", (0x80 + 0));
  3164     0B0D  3000               	movlw	low (STR_36| (0+32768))
  3165     0B0E  00F4               	movwf	clcd_print@str
  3166     0B0F  3088               	movlw	high (STR_36| (0+32768))
  3167     0B10  00F5               	movwf	clcd_print@str+1
  3168     0B11  3080               	movlw	128
  3169     0B12  00F6               	movwf	clcd_print@addr
  3170     0B13  160A  118A  22C8  120A  158A  	fcall	_clcd_print
  3171     0B18                     l2911:
  3172                           
  3173                           ;menu.c: 357:     log[0] = log_pos + '0';
  3174     0B18  1283               	bcf	3,5	;RP0=0, select bank0
  3175     0B19  1303               	bcf	3,6	;RP1=0, select bank0
  3176     0B1A  0864               	movf	view_log@log_pos,w
  3177     0B1B  3E30               	addlw	48
  3178     0B1C  00A0               	movwf	view_log@log
  3179     0B1D                     l2913:
  3180                           
  3181                           ;menu.c: 358:     log[1] = ' ';
  3182     0B1D  3020               	movlw	32
  3183     0B1E  00A1               	movwf	view_log@log+1
  3184     0B1F                     l2915:
  3185                           
  3186                           ;menu.c: 360:     log[2] = read_external_eeprom(addr++);
  3187     0B1F  0832               	movf	view_log@addr,w
  3188     0B20  120A  158A  2205  120A  158A  	fcall	_read_external_eeprom
  3189     0B25  1283               	bcf	3,5	;RP0=0, select bank0
  3190     0B26  1303               	bcf	3,6	;RP1=0, select bank0
  3191     0B27  00A2               	movwf	view_log@log+2
  3192     0B28                     l2917:
  3193     0B28  3001               	movlw	1
  3194     0B29  07B2               	addwf	view_log@addr,f
  3195     0B2A                     l2919:
  3196                           
  3197                           ;menu.c: 361:     log[3] = read_external_eeprom(addr++);
  3198     0B2A  0832               	movf	view_log@addr,w
  3199     0B2B  120A  158A  2205  120A  158A  	fcall	_read_external_eeprom
  3200     0B30  1283               	bcf	3,5	;RP0=0, select bank0
  3201     0B31  1303               	bcf	3,6	;RP1=0, select bank0
  3202     0B32  00A3               	movwf	view_log@log+3
  3203     0B33                     l2921:
  3204     0B33  3001               	movlw	1
  3205     0B34  07B2               	addwf	view_log@addr,f
  3206     0B35                     l2923:
  3207                           
  3208                           ;menu.c: 362:     log[4] = ':';
  3209     0B35  303A               	movlw	58
  3210     0B36  00A4               	movwf	view_log@log+4
  3211     0B37                     l2925:
  3212                           
  3213                           ;menu.c: 363:     log[5] = read_external_eeprom(addr++);
  3214     0B37  0832               	movf	view_log@addr,w
  3215     0B38  120A  158A  2205  120A  158A  	fcall	_read_external_eeprom
  3216     0B3D  1283               	bcf	3,5	;RP0=0, select bank0
  3217     0B3E  1303               	bcf	3,6	;RP1=0, select bank0
  3218     0B3F  00A5               	movwf	view_log@log+5
  3219     0B40                     l2927:
  3220     0B40  3001               	movlw	1
  3221     0B41  07B2               	addwf	view_log@addr,f
  3222     0B42                     l2929:
  3223                           
  3224                           ;menu.c: 364:     log[6] = read_external_eeprom(addr++);
  3225     0B42  0832               	movf	view_log@addr,w
  3226     0B43  120A  158A  2205  120A  158A  	fcall	_read_external_eeprom
  3227     0B48  1283               	bcf	3,5	;RP0=0, select bank0
  3228     0B49  1303               	bcf	3,6	;RP1=0, select bank0
  3229     0B4A  00A6               	movwf	view_log@log+6
  3230     0B4B                     l2931:
  3231     0B4B  3001               	movlw	1
  3232     0B4C  07B2               	addwf	view_log@addr,f
  3233     0B4D                     l2933:
  3234                           
  3235                           ;menu.c: 365:     log[7] = ':';
  3236     0B4D  303A               	movlw	58
  3237     0B4E  00A7               	movwf	view_log@log+7
  3238     0B4F                     l2935:
  3239                           
  3240                           ;menu.c: 366:     log[8] = read_external_eeprom(addr++);
  3241     0B4F  0832               	movf	view_log@addr,w
  3242     0B50  120A  158A  2205  120A  158A  	fcall	_read_external_eeprom
  3243     0B55  1283               	bcf	3,5	;RP0=0, select bank0
  3244     0B56  1303               	bcf	3,6	;RP1=0, select bank0
  3245     0B57  00A8               	movwf	view_log@log+8
  3246     0B58                     l2937:
  3247     0B58  3001               	movlw	1
  3248     0B59  07B2               	addwf	view_log@addr,f
  3249     0B5A                     l2939:
  3250                           
  3251                           ;menu.c: 367:     log[9] = read_external_eeprom(addr++);
  3252     0B5A  0832               	movf	view_log@addr,w
  3253     0B5B  120A  158A  2205  120A  158A  	fcall	_read_external_eeprom
  3254     0B60  1283               	bcf	3,5	;RP0=0, select bank0
  3255     0B61  1303               	bcf	3,6	;RP1=0, select bank0
  3256     0B62  00A9               	movwf	view_log@log+9
  3257     0B63                     l2941:
  3258     0B63  3001               	movlw	1
  3259     0B64  07B2               	addwf	view_log@addr,f
  3260     0B65                     l2943:
  3261                           
  3262                           ;menu.c: 368:     log[10] = ' ';
  3263     0B65  3020               	movlw	32
  3264     0B66  00AA               	movwf	view_log@log+10
  3265     0B67                     l2945:
  3266                           
  3267                           ;menu.c: 370:     log[11] = read_external_eeprom(addr++);
  3268     0B67  0832               	movf	view_log@addr,w
  3269     0B68  120A  158A  2205  120A  158A  	fcall	_read_external_eeprom
  3270     0B6D  1283               	bcf	3,5	;RP0=0, select bank0
  3271     0B6E  1303               	bcf	3,6	;RP1=0, select bank0
  3272     0B6F  00AB               	movwf	view_log@log+11
  3273     0B70                     l2947:
  3274     0B70  3001               	movlw	1
  3275     0B71  07B2               	addwf	view_log@addr,f
  3276     0B72                     l2949:
  3277                           
  3278                           ;menu.c: 371:     log[12] = read_external_eeprom(addr++);
  3279     0B72  0832               	movf	view_log@addr,w
  3280     0B73  120A  158A  2205  120A  158A  	fcall	_read_external_eeprom
  3281     0B78  1283               	bcf	3,5	;RP0=0, select bank0
  3282     0B79  1303               	bcf	3,6	;RP1=0, select bank0
  3283     0B7A  00AC               	movwf	view_log@log+12
  3284     0B7B                     l2951:
  3285     0B7B  3001               	movlw	1
  3286     0B7C  07B2               	addwf	view_log@addr,f
  3287     0B7D                     l2953:
  3288                           
  3289                           ;menu.c: 372:     log[13] = ' ';
  3290     0B7D  3020               	movlw	32
  3291     0B7E  00AD               	movwf	view_log@log+13
  3292     0B7F                     l2955:
  3293                           
  3294                           ;menu.c: 374:     log[14] = read_external_eeprom(addr++);
  3295     0B7F  0832               	movf	view_log@addr,w
  3296     0B80  120A  158A  2205  120A  158A  	fcall	_read_external_eeprom
  3297     0B85  1283               	bcf	3,5	;RP0=0, select bank0
  3298     0B86  1303               	bcf	3,6	;RP1=0, select bank0
  3299     0B87  00AE               	movwf	view_log@log+14
  3300     0B88                     l2957:
  3301     0B88  3001               	movlw	1
  3302     0B89  07B2               	addwf	view_log@addr,f
  3303     0B8A                     l2959:
  3304                           
  3305                           ;menu.c: 375:     log[15] = read_external_eeprom(addr++);
  3306     0B8A  0832               	movf	view_log@addr,w
  3307     0B8B  120A  158A  2205  120A  158A  	fcall	_read_external_eeprom
  3308     0B90  1283               	bcf	3,5	;RP0=0, select bank0
  3309     0B91  1303               	bcf	3,6	;RP1=0, select bank0
  3310     0B92  00AF               	movwf	view_log@log+15
  3311     0B93                     l2961:
  3312     0B93  3001               	movlw	1
  3313     0B94  07B2               	addwf	view_log@addr,f
  3314     0B95                     l2963:
  3315                           
  3316                           ;menu.c: 376:     log[16] = '\0';
  3317     0B95  01B0               	clrf	view_log@log+16
  3318     0B96                     l2965:
  3319                           
  3320                           ;menu.c: 378:     clcd_print((char *)log, (0xC0 + 0));
  3321     0B96  3020               	movlw	(low (view_log@log| 0))& (0+255)
  3322     0B97  00F4               	movwf	clcd_print@str
  3323     0B98  3000               	movlw	0
  3324     0B99  00F5               	movwf	clcd_print@str+1
  3325     0B9A  30C0               	movlw	192
  3326     0B9B  00F6               	movwf	clcd_print@addr
  3327     0B9C  160A  118A  22C8  120A  158A  	fcall	_clcd_print
  3328     0BA1                     l450:
  3329     0BA1  0008               	return
  3330     0BA2                     __end_of_view_log:
  3331                           
  3332                           	psect	text3
  3333     0526                     __ptext3:	
  3334 ;; *************** function _set_time *****************
  3335 ;; Defined at:
  3336 ;;		line 471 in file "menu.c"
  3337 ;; Parameters:    Size  Location     Type
  3338 ;;  key             1    wreg     unsigned char 
  3339 ;; Auto vars:     Size  Location     Type
  3340 ;;  key             1   16[BANK0 ] unsigned char 
  3341 ;;  temp            9    7[BANK0 ] unsigned char [9]
  3342 ;; Return value:  Size  Location     Type
  3343 ;;                  1    wreg      unsigned char 
  3344 ;; Registers used:
  3345 ;;		wreg, fsr0l, fsr0h, status,2, status,0, pclath, btemp1, cstack
  3346 ;; Tracked objects:
  3347 ;;		On entry : 0/0
  3348 ;;		On exit  : 0/0
  3349 ;;		Unchanged: 0/0
  3350 ;; Data sizes:     COMMON   BANK0   BANK1   BANK3   BANK2
  3351 ;;      Params:         0       0       0       0       0
  3352 ;;      Locals:         0      10       0       0       0
  3353 ;;      Temps:          0       7       0       0       0
  3354 ;;      Totals:         0      17       0       0       0
  3355 ;;Total ram usage:       17 bytes
  3356 ;; Hardware stack levels used: 1
  3357 ;; Hardware stack levels required when called: 1
  3358 ;; This function calls:
  3359 ;;		___awdiv
  3360 ;;		___awmod
  3361 ;;		___bmul
  3362 ;;		_clcd_print
  3363 ;;		_get_time
  3364 ;;		_write_ds1307
  3365 ;; This function is called by:
  3366 ;;		_menu
  3367 ;; This function uses a non-reentrant model
  3368 ;;
  3369                           
  3370     0526                     _set_time:	
  3371                           ;psect for function _set_time
  3372                           
  3373                           
  3374                           ;incstack = 0
  3375                           ; Regs used in _set_time: [wreg-fsr0h+status,2+status,0+pclath+btemp1+cstack]
  3376                           ;set_time@key stored from wreg
  3377     0526  1283               	bcf	3,5	;RP0=0, select bank0
  3378     0527  1303               	bcf	3,6	;RP1=0, select bank0
  3379     0528  00B0               	movwf	set_time@key
  3380     0529                     l3043:
  3381                           
  3382                           ;menu.c: 471: unsigned char set_time(unsigned char key);menu.c: 472: {;menu.c: 473:     
      +                          static unsigned char once = 1;;menu.c: 474:     static unsigned char field = 0;;menu.c: 
      +                          475:     static unsigned int blink = 0;;menu.c: 476:     static unsigned char visible = 
      +                          1;;menu.c: 477:     static unsigned char hours;;menu.c: 478:     static unsigned char mi
      +                          ns;;menu.c: 479:     static unsigned char secs;;menu.c: 481:     char temp[9];;menu.c: 4
      +                          83:     if(once)
  3383     0529  0867               	movf	set_time@once,w
  3384     052A  1903               	btfsc	3,2
  3385     052B  2D2D               	goto	u2851
  3386     052C  2D2E               	goto	u2850
  3387     052D                     u2851:
  3388     052D  2D80               	goto	l3055
  3389     052E                     u2850:
  3390     052E                     l3045:
  3391                           
  3392                           ;menu.c: 484:     {;menu.c: 485:         get_time(clock_reg);
  3393     052E  3061               	movlw	(low (_clock_reg| 0))& (0+255)
  3394     052F  00F4               	movwf	get_time@clock_reg
  3395     0530  160A  118A  21BB  120A  118A  	fcall	_get_time
  3396     0535                     l3047:
  3397                           
  3398                           ;menu.c: 487:         hours = (((clock_reg[0] & 0x3F) >> 4) * 10) +
  3399     0535  300F               	movlw	15
  3400     0536  1283               	bcf	3,5	;RP0=0, select bank0
  3401     0537  1303               	bcf	3,6	;RP1=0, select bank0
  3402     0538  0561               	andwf	_clock_reg,w
  3403     0539  00A0               	movwf	??_set_time
  3404     053A  300A               	movlw	10
  3405     053B  00F0               	movwf	___bmul@multiplicand
  3406     053C  0861               	movf	_clock_reg,w
  3407     053D  00A1               	movwf	??_set_time+1
  3408     053E  3004               	movlw	4
  3409     053F                     u2865:
  3410     053F  1003               	clrc
  3411     0540  0CA1               	rrf	??_set_time+1,f
  3412     0541  3EFF               	addlw	-1
  3413     0542  1D03               	skipz
  3414     0543  2D3F               	goto	u2865
  3415     0544  0821               	movf	??_set_time+1,w
  3416     0545  3903               	andlw	3
  3417     0546  160A  118A  2139  120A  118A  	fcall	___bmul
  3418     054B  1283               	bcf	3,5	;RP0=0, select bank0
  3419     054C  1303               	bcf	3,6	;RP1=0, select bank0
  3420     054D  0720               	addwf	??_set_time,w
  3421     054E  00D7               	movwf	set_time@hours
  3422     054F                     l3049:
  3423                           
  3424                           ;menu.c: 490:         mins = (((clock_reg[1] & 0x7F) >> 4) * 10) +
  3425     054F  300F               	movlw	15
  3426     0550  0562               	andwf	_clock_reg+1,w
  3427     0551  00A0               	movwf	??_set_time
  3428     0552  300A               	movlw	10
  3429     0553  00F0               	movwf	___bmul@multiplicand
  3430     0554  0862               	movf	_clock_reg+1,w
  3431     0555  00A1               	movwf	??_set_time+1
  3432     0556  3004               	movlw	4
  3433     0557                     u2875:
  3434     0557  1003               	clrc
  3435     0558  0CA1               	rrf	??_set_time+1,f
  3436     0559  3EFF               	addlw	-1
  3437     055A  1D03               	skipz
  3438     055B  2D57               	goto	u2875
  3439     055C  0821               	movf	??_set_time+1,w
  3440     055D  3907               	andlw	7
  3441     055E  160A  118A  2139  120A  118A  	fcall	___bmul
  3442     0563  1283               	bcf	3,5	;RP0=0, select bank0
  3443     0564  1303               	bcf	3,6	;RP1=0, select bank0
  3444     0565  0720               	addwf	??_set_time,w
  3445     0566  00D6               	movwf	set_time@mins
  3446     0567                     l3051:
  3447                           
  3448                           ;menu.c: 493:         secs = (((clock_reg[2] & 0x7F) >> 4) * 10) +
  3449     0567  300F               	movlw	15
  3450     0568  0563               	andwf	_clock_reg+2,w
  3451     0569  00A0               	movwf	??_set_time
  3452     056A  300A               	movlw	10
  3453     056B  00F0               	movwf	___bmul@multiplicand
  3454     056C  0863               	movf	_clock_reg+2,w
  3455     056D  00A1               	movwf	??_set_time+1
  3456     056E  3004               	movlw	4
  3457     056F                     u2885:
  3458     056F  1003               	clrc
  3459     0570  0CA1               	rrf	??_set_time+1,f
  3460     0571  3EFF               	addlw	-1
  3461     0572  1D03               	skipz
  3462     0573  2D6F               	goto	u2885
  3463     0574  0821               	movf	??_set_time+1,w
  3464     0575  3907               	andlw	7
  3465     0576  160A  118A  2139  120A  118A  	fcall	___bmul
  3466     057B  1283               	bcf	3,5	;RP0=0, select bank0
  3467     057C  1303               	bcf	3,6	;RP1=0, select bank0
  3468     057D  0720               	addwf	??_set_time,w
  3469     057E  00D5               	movwf	set_time@secs
  3470     057F                     l3053:
  3471                           
  3472                           ;menu.c: 496:         once = 0;
  3473     057F  01E7               	clrf	set_time@once
  3474     0580                     l3055:
  3475                           
  3476                           ;menu.c: 500:     if(key == 0x3E)
  3477     0580  303E               	movlw	62
  3478     0581  0630               	xorwf	set_time@key,w
  3479     0582  1D03               	btfss	3,2
  3480     0583  2D85               	goto	u2891
  3481     0584  2D86               	goto	u2890
  3482     0585                     u2891:
  3483     0585  2DAD               	goto	l3079
  3484     0586                     u2890:
  3485     0586                     l3057:
  3486                           
  3487                           ;menu.c: 501:     {;menu.c: 502:         if(field == 0)
  3488     0586  0858               	movf	set_time@field,w
  3489     0587  1D03               	btfss	3,2
  3490     0588  2D8A               	goto	u2901
  3491     0589  2D8B               	goto	u2900
  3492     058A                     u2901:
  3493     058A  2D95               	goto	l3065
  3494     058B                     u2900:
  3495     058B                     l3059:
  3496                           
  3497                           ;menu.c: 503:         {;menu.c: 504:             hours++;
  3498     058B  3001               	movlw	1
  3499     058C  07D7               	addwf	set_time@hours,f
  3500     058D                     l3061:
  3501                           
  3502                           ;menu.c: 505:             if(hours > 23)
  3503     058D  3018               	movlw	24
  3504     058E  0257               	subwf	set_time@hours,w
  3505     058F  1C03               	skipc
  3506     0590  2D92               	goto	u2911
  3507     0591  2D93               	goto	u2910
  3508     0592                     u2911:
  3509     0592  2DAD               	goto	l3079
  3510     0593                     u2910:
  3511     0593                     l3063:
  3512                           
  3513                           ;menu.c: 506:             {;menu.c: 507:                 hours = 0;
  3514     0593  01D7               	clrf	set_time@hours
  3515     0594  2DAD               	goto	l3079
  3516     0595                     l3065:
  3517     0595  0358               	decf	set_time@field,w
  3518     0596  1D03               	btfss	3,2
  3519     0597  2D99               	goto	u2921
  3520     0598  2D9A               	goto	u2920
  3521     0599                     u2921:
  3522     0599  2DA4               	goto	l3073
  3523     059A                     u2920:
  3524     059A                     l3067:
  3525                           
  3526                           ;menu.c: 511:         {;menu.c: 512:             mins++;
  3527     059A  3001               	movlw	1
  3528     059B  07D6               	addwf	set_time@mins,f
  3529     059C                     l3069:
  3530                           
  3531                           ;menu.c: 513:             if(mins > 59)
  3532     059C  303C               	movlw	60
  3533     059D  0256               	subwf	set_time@mins,w
  3534     059E  1C03               	skipc
  3535     059F  2DA1               	goto	u2931
  3536     05A0  2DA2               	goto	u2930
  3537     05A1                     u2931:
  3538     05A1  2DAD               	goto	l3079
  3539     05A2                     u2930:
  3540     05A2                     l3071:
  3541                           
  3542                           ;menu.c: 514:             {;menu.c: 515:                 mins = 0;
  3543     05A2  01D6               	clrf	set_time@mins
  3544     05A3  2DAD               	goto	l3079
  3545     05A4                     l3073:
  3546                           
  3547                           ;menu.c: 519:         {;menu.c: 520:             secs++;
  3548     05A4  3001               	movlw	1
  3549     05A5  07D5               	addwf	set_time@secs,f
  3550     05A6                     l3075:
  3551                           
  3552                           ;menu.c: 521:             if(secs > 59)
  3553     05A6  303C               	movlw	60
  3554     05A7  0255               	subwf	set_time@secs,w
  3555     05A8  1C03               	skipc
  3556     05A9  2DAB               	goto	u2941
  3557     05AA  2DAC               	goto	u2940
  3558     05AB                     u2941:
  3559     05AB  2DAD               	goto	l3079
  3560     05AC                     u2940:
  3561     05AC                     l3077:
  3562                           
  3563                           ;menu.c: 522:             {;menu.c: 523:                 secs = 0;
  3564     05AC  01D5               	clrf	set_time@secs
  3565     05AD                     l3079:
  3566                           
  3567                           ;menu.c: 529:     if(key == 0x3B)
  3568     05AD  303B               	movlw	59
  3569     05AE  0630               	xorwf	set_time@key,w
  3570     05AF  1D03               	btfss	3,2
  3571     05B0  2DB2               	goto	u2951
  3572     05B1  2DB3               	goto	u2950
  3573     05B2                     u2951:
  3574     05B2  2DBC               	goto	l3087
  3575     05B3                     u2950:
  3576     05B3                     l3081:
  3577                           
  3578                           ;menu.c: 530:     {;menu.c: 531:         field++;
  3579     05B3  3001               	movlw	1
  3580     05B4  07D8               	addwf	set_time@field,f
  3581     05B5                     l3083:
  3582                           
  3583                           ;menu.c: 533:         if(field > 2)
  3584     05B5  3003               	movlw	3
  3585     05B6  0258               	subwf	set_time@field,w
  3586     05B7  1C03               	skipc
  3587     05B8  2DBA               	goto	u2961
  3588     05B9  2DBB               	goto	u2960
  3589     05BA                     u2961:
  3590     05BA  2DBC               	goto	l3087
  3591     05BB                     u2960:
  3592     05BB                     l3085:
  3593                           
  3594                           ;menu.c: 534:         {;menu.c: 535:             field = 0;
  3595     05BB  01D8               	clrf	set_time@field
  3596     05BC                     l3087:
  3597                           
  3598                           ;menu.c: 540:     if(key == 0x3D)
  3599     05BC  303D               	movlw	61
  3600     05BD  0630               	xorwf	set_time@key,w
  3601     05BE  1D03               	btfss	3,2
  3602     05BF  2DC1               	goto	u2971
  3603     05C0  2DC2               	goto	u2970
  3604     05C1                     u2971:
  3605     05C1  2DEC               	goto	l3111
  3606     05C2                     u2970:
  3607     05C2                     l3089:
  3608                           
  3609                           ;menu.c: 541:     {;menu.c: 542:         if(field == 0)
  3610     05C2  0858               	movf	set_time@field,w
  3611     05C3  1D03               	btfss	3,2
  3612     05C4  2DC6               	goto	u2981
  3613     05C5  2DC7               	goto	u2980
  3614     05C6                     u2981:
  3615     05C6  2DD2               	goto	l3097
  3616     05C7                     u2980:
  3617     05C7                     l3091:
  3618                           
  3619                           ;menu.c: 543:         {;menu.c: 544:             if(hours == 0)
  3620     05C7  0857               	movf	set_time@hours,w
  3621     05C8  1D03               	btfss	3,2
  3622     05C9  2DCB               	goto	u2991
  3623     05CA  2DCC               	goto	u2990
  3624     05CB                     u2991:
  3625     05CB  2DCF               	goto	l3095
  3626     05CC                     u2990:
  3627     05CC                     l3093:
  3628                           
  3629                           ;menu.c: 545:                 hours = 23;
  3630     05CC  3017               	movlw	23
  3631     05CD  00D7               	movwf	set_time@hours
  3632     05CE  2DEC               	goto	l3111
  3633     05CF                     l3095:
  3634                           
  3635                           ;menu.c: 547:                 hours--;
  3636     05CF  3001               	movlw	1
  3637     05D0  02D7               	subwf	set_time@hours,f
  3638     05D1  2DEC               	goto	l3111
  3639     05D2                     l3097:
  3640     05D2  0358               	decf	set_time@field,w
  3641     05D3  1D03               	btfss	3,2
  3642     05D4  2DD6               	goto	u3001
  3643     05D5  2DD7               	goto	u3000
  3644     05D6                     u3001:
  3645     05D6  2DE2               	goto	l3105
  3646     05D7                     u3000:
  3647     05D7                     l3099:
  3648                           
  3649                           ;menu.c: 550:         {;menu.c: 551:             if(mins == 0)
  3650     05D7  0856               	movf	set_time@mins,w
  3651     05D8  1D03               	btfss	3,2
  3652     05D9  2DDB               	goto	u3011
  3653     05DA  2DDC               	goto	u3010
  3654     05DB                     u3011:
  3655     05DB  2DDF               	goto	l3103
  3656     05DC                     u3010:
  3657     05DC                     l3101:
  3658                           
  3659                           ;menu.c: 552:                 mins = 59;
  3660     05DC  303B               	movlw	59
  3661     05DD  00D6               	movwf	set_time@mins
  3662     05DE  2DEC               	goto	l3111
  3663     05DF                     l3103:
  3664                           
  3665                           ;menu.c: 554:                 mins--;
  3666     05DF  3001               	movlw	1
  3667     05E0  02D6               	subwf	set_time@mins,f
  3668     05E1  2DEC               	goto	l3111
  3669     05E2                     l3105:
  3670                           
  3671                           ;menu.c: 557:         {;menu.c: 558:             if(secs == 0)
  3672     05E2  0855               	movf	set_time@secs,w
  3673     05E3  1D03               	btfss	3,2
  3674     05E4  2DE6               	goto	u3021
  3675     05E5  2DE7               	goto	u3020
  3676     05E6                     u3021:
  3677     05E6  2DEA               	goto	l3109
  3678     05E7                     u3020:
  3679     05E7                     l3107:
  3680                           
  3681                           ;menu.c: 559:                 secs = 59;
  3682     05E7  303B               	movlw	59
  3683     05E8  00D5               	movwf	set_time@secs
  3684     05E9  2DEC               	goto	l3111
  3685     05EA                     l3109:
  3686                           
  3687                           ;menu.c: 561:                 secs--;
  3688     05EA  3001               	movlw	1
  3689     05EB  02D5               	subwf	set_time@secs,f
  3690     05EC                     l3111:
  3691                           
  3692                           ;menu.c: 565:     temp[0] = (hours / 10) + '0';
  3693     05EC  300A               	movlw	10
  3694     05ED  00F0               	movwf	___awdiv@divisor
  3695     05EE  3000               	movlw	0
  3696     05EF  00F1               	movwf	___awdiv@divisor+1
  3697     05F0  0857               	movf	set_time@hours,w
  3698     05F1  00A0               	movwf	??_set_time
  3699     05F2  01A1               	clrf	??_set_time+1
  3700     05F3  0820               	movf	??_set_time,w
  3701     05F4  00F2               	movwf	___awdiv@dividend
  3702     05F5  0821               	movf	??_set_time+1,w
  3703     05F6  00F3               	movwf	___awdiv@dividend+1
  3704     05F7  160A  118A  2568  120A  118A  	fcall	___awdiv
  3705     05FC  0870               	movf	?___awdiv,w
  3706     05FD  3E30               	addlw	48
  3707     05FE  1283               	bcf	3,5	;RP0=0, select bank0
  3708     05FF  1303               	bcf	3,6	;RP1=0, select bank0
  3709     0600  00A7               	movwf	set_time@temp
  3710     0601                     l3113:
  3711                           
  3712                           ;menu.c: 566:     temp[1] = (hours % 10) + '0';
  3713     0601  300A               	movlw	10
  3714     0602  00F0               	movwf	___awmod@divisor
  3715     0603  3000               	movlw	0
  3716     0604  00F1               	movwf	___awmod@divisor+1
  3717     0605  0857               	movf	set_time@hours,w
  3718     0606  00A0               	movwf	??_set_time
  3719     0607  01A1               	clrf	??_set_time+1
  3720     0608  0820               	movf	??_set_time,w
  3721     0609  00F2               	movwf	___awmod@dividend
  3722     060A  0821               	movf	??_set_time+1,w
  3723     060B  00F3               	movwf	___awmod@dividend+1
  3724     060C  160A  118A  24AE  120A  118A  	fcall	___awmod
  3725     0611  0870               	movf	?___awmod,w
  3726     0612  3E30               	addlw	48
  3727     0613  1283               	bcf	3,5	;RP0=0, select bank0
  3728     0614  1303               	bcf	3,6	;RP1=0, select bank0
  3729     0615  00A8               	movwf	set_time@temp+1
  3730     0616                     l3115:
  3731                           
  3732                           ;menu.c: 567:     temp[2] = ':';
  3733     0616  303A               	movlw	58
  3734     0617  00A9               	movwf	set_time@temp+2
  3735     0618                     l3117:
  3736                           
  3737                           ;menu.c: 569:     temp[3] = (mins / 10) + '0';
  3738     0618  300A               	movlw	10
  3739     0619  00F0               	movwf	___awdiv@divisor
  3740     061A  3000               	movlw	0
  3741     061B  00F1               	movwf	___awdiv@divisor+1
  3742     061C  0856               	movf	set_time@mins,w
  3743     061D  00A0               	movwf	??_set_time
  3744     061E  01A1               	clrf	??_set_time+1
  3745     061F  0820               	movf	??_set_time,w
  3746     0620  00F2               	movwf	___awdiv@dividend
  3747     0621  0821               	movf	??_set_time+1,w
  3748     0622  00F3               	movwf	___awdiv@dividend+1
  3749     0623  160A  118A  2568  120A  118A  	fcall	___awdiv
  3750     0628  0870               	movf	?___awdiv,w
  3751     0629  3E30               	addlw	48
  3752     062A  1283               	bcf	3,5	;RP0=0, select bank0
  3753     062B  1303               	bcf	3,6	;RP1=0, select bank0
  3754     062C  00AA               	movwf	set_time@temp+3
  3755     062D                     l3119:
  3756                           
  3757                           ;menu.c: 570:     temp[4] = (mins % 10) + '0';
  3758     062D  300A               	movlw	10
  3759     062E  00F0               	movwf	___awmod@divisor
  3760     062F  3000               	movlw	0
  3761     0630  00F1               	movwf	___awmod@divisor+1
  3762     0631  0856               	movf	set_time@mins,w
  3763     0632  00A0               	movwf	??_set_time
  3764     0633  01A1               	clrf	??_set_time+1
  3765     0634  0820               	movf	??_set_time,w
  3766     0635  00F2               	movwf	___awmod@dividend
  3767     0636  0821               	movf	??_set_time+1,w
  3768     0637  00F3               	movwf	___awmod@dividend+1
  3769     0638  160A  118A  24AE  120A  118A  	fcall	___awmod
  3770     063D  0870               	movf	?___awmod,w
  3771     063E  3E30               	addlw	48
  3772     063F  1283               	bcf	3,5	;RP0=0, select bank0
  3773     0640  1303               	bcf	3,6	;RP1=0, select bank0
  3774     0641  00AB               	movwf	set_time@temp+4
  3775     0642                     l3121:
  3776                           
  3777                           ;menu.c: 571:     temp[5] = ':';
  3778     0642  303A               	movlw	58
  3779     0643  00AC               	movwf	set_time@temp+5
  3780     0644                     l3123:
  3781                           
  3782                           ;menu.c: 573:     temp[6] = (secs / 10) + '0';
  3783     0644  300A               	movlw	10
  3784     0645  00F0               	movwf	___awdiv@divisor
  3785     0646  3000               	movlw	0
  3786     0647  00F1               	movwf	___awdiv@divisor+1
  3787     0648  0855               	movf	set_time@secs,w
  3788     0649  00A0               	movwf	??_set_time
  3789     064A  01A1               	clrf	??_set_time+1
  3790     064B  0820               	movf	??_set_time,w
  3791     064C  00F2               	movwf	___awdiv@dividend
  3792     064D  0821               	movf	??_set_time+1,w
  3793     064E  00F3               	movwf	___awdiv@dividend+1
  3794     064F  160A  118A  2568  120A  118A  	fcall	___awdiv
  3795     0654  0870               	movf	?___awdiv,w
  3796     0655  3E30               	addlw	48
  3797     0656  1283               	bcf	3,5	;RP0=0, select bank0
  3798     0657  1303               	bcf	3,6	;RP1=0, select bank0
  3799     0658  00AD               	movwf	set_time@temp+6
  3800     0659                     l3125:
  3801                           
  3802                           ;menu.c: 574:     temp[7] = (secs % 10) + '0';
  3803     0659  300A               	movlw	10
  3804     065A  00F0               	movwf	___awmod@divisor
  3805     065B  3000               	movlw	0
  3806     065C  00F1               	movwf	___awmod@divisor+1
  3807     065D  0855               	movf	set_time@secs,w
  3808     065E  00A0               	movwf	??_set_time
  3809     065F  01A1               	clrf	??_set_time+1
  3810     0660  0820               	movf	??_set_time,w
  3811     0661  00F2               	movwf	___awmod@dividend
  3812     0662  0821               	movf	??_set_time+1,w
  3813     0663  00F3               	movwf	___awmod@dividend+1
  3814     0664  160A  118A  24AE  120A  118A  	fcall	___awmod
  3815     0669  0870               	movf	?___awmod,w
  3816     066A  3E30               	addlw	48
  3817     066B  1283               	bcf	3,5	;RP0=0, select bank0
  3818     066C  1303               	bcf	3,6	;RP1=0, select bank0
  3819     066D  00AE               	movwf	set_time@temp+7
  3820     066E                     l3127:
  3821                           
  3822                           ;menu.c: 575:     temp[8] = '\0';
  3823     066E  01AF               	clrf	set_time@temp+8
  3824     066F                     l3129:
  3825                           
  3826                           ;menu.c: 577:     clcd_print("HH:MM:SS        ", (0x80 + 4));
  3827     066F  3038               	movlw	low (STR_52| (0+32768))
  3828     0670  00F4               	movwf	clcd_print@str
  3829     0671  3088               	movlw	high (STR_52| (0+32768))
  3830     0672  00F5               	movwf	clcd_print@str+1
  3831     0673  3084               	movlw	132
  3832     0674  00F6               	movwf	clcd_print@addr
  3833     0675  160A  118A  22C8  120A  118A  	fcall	_clcd_print
  3834     067A                     l3131:
  3835                           
  3836                           ;menu.c: 579:     blink++;
  3837     067A  3001               	movlw	1
  3838     067B  1683               	bsf	3,5	;RP0=1, select bank1
  3839     067C  1303               	bcf	3,6	;RP1=0, select bank1
  3840     067D  07A8               	addwf	set_time@blink^(0+128),f
  3841     067E  1803               	skipnc
  3842     067F  0AA9               	incf	(set_time@blink+1)^(0+128),f
  3843     0680  3000               	movlw	0
  3844     0681  07A9               	addwf	(set_time@blink+1)^(0+128),f
  3845     0682                     l3133:
  3846                           
  3847                           ;menu.c: 581:     if(blink >= 5)
  3848     0682  3000               	movlw	0
  3849     0683  0229               	subwf	(set_time@blink+1)^(0+128),w
  3850     0684  3005               	movlw	5
  3851     0685  1903               	skipnz
  3852     0686  0228               	subwf	set_time@blink^(0+128),w
  3853     0687  1C03               	skipc
  3854     0688  2E8A               	goto	u3031
  3855     0689  2E8B               	goto	u3030
  3856     068A                     u3031:
  3857     068A  2E97               	goto	l3139
  3858     068B                     u3030:
  3859     068B                     l3135:
  3860                           
  3861                           ;menu.c: 582:     {;menu.c: 583:         blink = 0;
  3862     068B  01A8               	clrf	set_time@blink^(0+128)
  3863     068C  01A9               	clrf	(set_time@blink+1)^(0+128)
  3864     068D                     l3137:
  3865                           
  3866                           ;menu.c: 584:         visible = !visible;
  3867     068D  1283               	bcf	3,5	;RP0=0, select bank0
  3868     068E  1303               	bcf	3,6	;RP1=0, select bank0
  3869     068F  0866               	movf	set_time@visible,w
  3870     0690  1903               	btfsc	3,2
  3871     0691  2E93               	goto	u3041
  3872     0692  2E95               	goto	u3040
  3873     0693                     u3041:
  3874     0693  3001               	movlw	1
  3875     0694  2E96               	goto	u3050
  3876     0695                     u3040:
  3877     0695  3000               	movlw	0
  3878     0696                     u3050:
  3879     0696  00E6               	movwf	set_time@visible
  3880     0697                     l3139:
  3881                           
  3882                           ;menu.c: 587:     if(visible)
  3883     0697  1283               	bcf	3,5	;RP0=0, select bank0
  3884     0698  0866               	movf	set_time@visible,w
  3885     0699  1903               	btfsc	3,2
  3886     069A  2E9C               	goto	u3061
  3887     069B  2E9D               	goto	u3060
  3888     069C                     u3061:
  3889     069C  2EB8               	goto	l3145
  3890     069D                     u3060:
  3891     069D                     l3141:
  3892                           
  3893                           ;menu.c: 588:     {;menu.c: 589:         clcd_print(temp, (0xC0 + 4));
  3894     069D  3027               	movlw	(low (set_time@temp| 0))& (0+255)
  3895     069E  00F4               	movwf	clcd_print@str
  3896     069F  3000               	movlw	0
  3897     06A0  00F5               	movwf	clcd_print@str+1
  3898     06A1  30C4               	movlw	196
  3899     06A2  00F6               	movwf	clcd_print@addr
  3900     06A3  160A  118A  22C8  120A  118A  	fcall	_clcd_print
  3901                           
  3902                           ;menu.c: 590:     }
  3903     06A8  2EC3               	goto	l3149
  3904     06A9                     l516:	
  3905                           ;menu.c: 594:         {;menu.c: 595:             case 0:
  3906                           
  3907                           
  3908                           ;menu.c: 596:                 temp[0] = ' ';
  3909     06A9  3020               	movlw	32
  3910     06AA  00A7               	movwf	set_time@temp
  3911                           
  3912                           ;menu.c: 597:                 temp[1] = ' ';
  3913     06AB  3020               	movlw	32
  3914     06AC  00A8               	movwf	set_time@temp+1
  3915                           
  3916                           ;menu.c: 598:                 break;
  3917     06AD  2E9D               	goto	l3141
  3918     06AE                     l518:	
  3919                           ;menu.c: 600:             case 1:
  3920                           
  3921                           
  3922                           ;menu.c: 601:                 temp[3] = ' ';
  3923     06AE  3020               	movlw	32
  3924     06AF  00AA               	movwf	set_time@temp+3
  3925                           
  3926                           ;menu.c: 602:                 temp[4] = ' ';
  3927     06B0  3020               	movlw	32
  3928     06B1  00AB               	movwf	set_time@temp+4
  3929                           
  3930                           ;menu.c: 603:                 break;
  3931     06B2  2E9D               	goto	l3141
  3932     06B3                     l519:	
  3933                           ;menu.c: 605:             case 2:
  3934                           
  3935                           
  3936                           ;menu.c: 606:                 temp[6] = ' ';
  3937     06B3  3020               	movlw	32
  3938     06B4  00AD               	movwf	set_time@temp+6
  3939                           
  3940                           ;menu.c: 607:                 temp[7] = ' ';
  3941     06B5  3020               	movlw	32
  3942     06B6  00AE               	movwf	set_time@temp+7
  3943                           
  3944                           ;menu.c: 608:                 break;
  3945     06B7  2E9D               	goto	l3141
  3946     06B8                     l3145:
  3947     06B8  0858               	movf	set_time@field,w
  3948                           
  3949                           ; Switch size 1, requested type "simple"
  3950                           ; Number of cases is 3, Range of values is 0 to 2
  3951                           ; switch strategies available:
  3952                           ; Name         Instructions Cycles
  3953                           ; simple_byte           10     6 (average)
  3954                           ; direct_byte           17     8 (fixed)
  3955                           ; jumptable            260     6 (fixed)
  3956                           ;	Chosen strategy is simple_byte
  3957     06B9  3A00               	xorlw	0	; case 0
  3958     06BA  1903               	skipnz
  3959     06BB  2EA9               	goto	l516
  3960     06BC  3A01               	xorlw	1	; case 1
  3961     06BD  1903               	skipnz
  3962     06BE  2EAE               	goto	l518
  3963     06BF  3A03               	xorlw	3	; case 2
  3964     06C0  1903               	skipnz
  3965     06C1  2EB3               	goto	l519
  3966     06C2  2E9D               	goto	l3141
  3967     06C3                     l3149:
  3968                           
  3969                           ;menu.c: 615:     if(key == 0x37)
  3970     06C3  3037               	movlw	55
  3971     06C4  1283               	bcf	3,5	;RP0=0, select bank0
  3972     06C5  1303               	bcf	3,6	;RP1=0, select bank0
  3973     06C6  0630               	xorwf	set_time@key,w
  3974     06C7  1D03               	btfss	3,2
  3975     06C8  2ECA               	goto	u3071
  3976     06C9  2ECB               	goto	u3070
  3977     06CA                     u3071:
  3978     06CA  2FA0               	goto	l3167
  3979     06CB                     u3070:
  3980     06CB                     l3151:
  3981                           
  3982                           ;menu.c: 616:     {;menu.c: 617:         write_ds1307(0x02,
  3983     06CB  300A               	movlw	10
  3984     06CC  00F0               	movwf	___awmod@divisor
  3985     06CD  3000               	movlw	0
  3986     06CE  00F1               	movwf	___awmod@divisor+1
  3987     06CF  0857               	movf	set_time@hours,w
  3988     06D0  00A0               	movwf	??_set_time
  3989     06D1  01A1               	clrf	??_set_time+1
  3990     06D2  0820               	movf	??_set_time,w
  3991     06D3  00F2               	movwf	___awmod@dividend
  3992     06D4  0821               	movf	??_set_time+1,w
  3993     06D5  00F3               	movwf	___awmod@dividend+1
  3994     06D6  160A  118A  24AE  120A  118A  	fcall	___awmod
  3995     06DB  0870               	movf	?___awmod,w
  3996     06DC  1283               	bcf	3,5	;RP0=0, select bank0
  3997     06DD  1303               	bcf	3,6	;RP1=0, select bank0
  3998     06DE  00A2               	movwf	??_set_time+2
  3999     06DF  0871               	movf	?___awmod+1,w
  4000     06E0  00A3               	movwf	??_set_time+3
  4001     06E1  300A               	movlw	10
  4002     06E2  00F0               	movwf	___awdiv@divisor
  4003     06E3  3000               	movlw	0
  4004     06E4  00F1               	movwf	___awdiv@divisor+1
  4005     06E5  0857               	movf	set_time@hours,w
  4006     06E6  00A4               	movwf	??_set_time+4
  4007     06E7  01A5               	clrf	??_set_time+5
  4008     06E8  0824               	movf	??_set_time+4,w
  4009     06E9  00F2               	movwf	___awdiv@dividend
  4010     06EA  0825               	movf	??_set_time+5,w
  4011     06EB  00F3               	movwf	___awdiv@dividend+1
  4012     06EC  160A  118A  2568  120A  118A  	fcall	___awdiv
  4013     06F1  0870               	movf	?___awdiv,w
  4014     06F2  1283               	bcf	3,5	;RP0=0, select bank0
  4015     06F3  1303               	bcf	3,6	;RP1=0, select bank0
  4016     06F4  00A6               	movwf	??_set_time+6
  4017     06F5  3003               	movlw	3
  4018     06F6                     u3085:
  4019     06F6  1003               	clrc
  4020     06F7  0DA6               	rlf	??_set_time+6,f
  4021     06F8  3EFF               	addlw	-1
  4022     06F9  1D03               	skipz
  4023     06FA  2EF6               	goto	u3085
  4024     06FB  1003               	clrc
  4025     06FC  0D26               	rlf	??_set_time+6,w
  4026     06FD  0422               	iorwf	??_set_time+2,w
  4027     06FE  00F8               	movwf	write_ds1307@data
  4028     06FF  3002               	movlw	2
  4029     0700  160A  118A  215F  120A  118A  	fcall	_write_ds1307
  4030                           
  4031                           ;menu.c: 620:         write_ds1307(0x01,
  4032     0705  300A               	movlw	10
  4033     0706  00F0               	movwf	___awmod@divisor
  4034     0707  3000               	movlw	0
  4035     0708  00F1               	movwf	___awmod@divisor+1
  4036     0709  1283               	bcf	3,5	;RP0=0, select bank0
  4037     070A  1303               	bcf	3,6	;RP1=0, select bank0
  4038     070B  0856               	movf	set_time@mins,w
  4039     070C  00A0               	movwf	??_set_time
  4040     070D  01A1               	clrf	??_set_time+1
  4041     070E  0820               	movf	??_set_time,w
  4042     070F  00F2               	movwf	___awmod@dividend
  4043     0710  0821               	movf	??_set_time+1,w
  4044     0711  00F3               	movwf	___awmod@dividend+1
  4045     0712  160A  118A  24AE  120A  118A  	fcall	___awmod
  4046     0717  0870               	movf	?___awmod,w
  4047     0718  1283               	bcf	3,5	;RP0=0, select bank0
  4048     0719  1303               	bcf	3,6	;RP1=0, select bank0
  4049     071A  00A2               	movwf	??_set_time+2
  4050     071B  0871               	movf	?___awmod+1,w
  4051     071C  00A3               	movwf	??_set_time+3
  4052     071D  300A               	movlw	10
  4053     071E  00F0               	movwf	___awdiv@divisor
  4054     071F  3000               	movlw	0
  4055     0720  00F1               	movwf	___awdiv@divisor+1
  4056     0721  0856               	movf	set_time@mins,w
  4057     0722  00A4               	movwf	??_set_time+4
  4058     0723  01A5               	clrf	??_set_time+5
  4059     0724  0824               	movf	??_set_time+4,w
  4060     0725  00F2               	movwf	___awdiv@dividend
  4061     0726  0825               	movf	??_set_time+5,w
  4062     0727  00F3               	movwf	___awdiv@dividend+1
  4063     0728  160A  118A  2568  120A  118A  	fcall	___awdiv
  4064     072D  0870               	movf	?___awdiv,w
  4065     072E  1283               	bcf	3,5	;RP0=0, select bank0
  4066     072F  1303               	bcf	3,6	;RP1=0, select bank0
  4067     0730  00A6               	movwf	??_set_time+6
  4068     0731  3003               	movlw	3
  4069     0732                     u3095:
  4070     0732  1003               	clrc
  4071     0733  0DA6               	rlf	??_set_time+6,f
  4072     0734  3EFF               	addlw	-1
  4073     0735  1D03               	skipz
  4074     0736  2F32               	goto	u3095
  4075     0737  1003               	clrc
  4076     0738  0D26               	rlf	??_set_time+6,w
  4077     0739  0422               	iorwf	??_set_time+2,w
  4078     073A  00F8               	movwf	write_ds1307@data
  4079     073B  3001               	movlw	1
  4080     073C  160A  118A  215F  120A  118A  	fcall	_write_ds1307
  4081                           
  4082                           ;menu.c: 623:         write_ds1307(0x00,
  4083     0741  1283               	bcf	3,5	;RP0=0, select bank0
  4084     0742  1303               	bcf	3,6	;RP1=0, select bank0
  4085     0743  0855               	movf	set_time@secs,w
  4086     0744  00A0               	movwf	??_set_time
  4087     0745  01A1               	clrf	??_set_time+1
  4088     0746  0820               	movf	??_set_time,w
  4089     0747  00F2               	movwf	___awmod@dividend
  4090     0748  0821               	movf	??_set_time+1,w
  4091     0749  00F3               	movwf	___awmod@dividend+1
  4092     074A  300A               	movlw	10
  4093     074B  00F0               	movwf	___awmod@divisor
  4094     074C  3000               	movlw	0
  4095     074D  00F1               	movwf	___awmod@divisor+1
  4096     074E  160A  118A  24AE  120A  118A  	fcall	___awmod
  4097     0753  0870               	movf	?___awmod,w
  4098     0754  1283               	bcf	3,5	;RP0=0, select bank0
  4099     0755  1303               	bcf	3,6	;RP1=0, select bank0
  4100     0756  00A2               	movwf	??_set_time+2
  4101     0757  0871               	movf	?___awmod+1,w
  4102     0758  00A3               	movwf	??_set_time+3
  4103     0759  0855               	movf	set_time@secs,w
  4104     075A  00A4               	movwf	??_set_time+4
  4105     075B  01A5               	clrf	??_set_time+5
  4106     075C  0824               	movf	??_set_time+4,w
  4107     075D  00F2               	movwf	___awdiv@dividend
  4108     075E  0825               	movf	??_set_time+5,w
  4109     075F  00F3               	movwf	___awdiv@dividend+1
  4110     0760  300A               	movlw	10
  4111     0761  00F0               	movwf	___awdiv@divisor
  4112     0762  3000               	movlw	0
  4113     0763  00F1               	movwf	___awdiv@divisor+1
  4114     0764  160A  118A  2568  120A  118A  	fcall	___awdiv
  4115     0769  0870               	movf	?___awdiv,w
  4116     076A  1283               	bcf	3,5	;RP0=0, select bank0
  4117     076B  1303               	bcf	3,6	;RP1=0, select bank0
  4118     076C  00A6               	movwf	??_set_time+6
  4119     076D  3003               	movlw	3
  4120     076E                     u3105:
  4121     076E  1003               	clrc
  4122     076F  0DA6               	rlf	??_set_time+6,f
  4123     0770  3EFF               	addlw	-1
  4124     0771  1D03               	skipz
  4125     0772  2F6E               	goto	u3105
  4126     0773  1003               	clrc
  4127     0774  0D26               	rlf	??_set_time+6,w
  4128     0775  0422               	iorwf	??_set_time+2,w
  4129     0776  00F8               	movwf	write_ds1307@data
  4130     0777  307F               	movlw	127
  4131     0778  05F8               	andwf	write_ds1307@data,f
  4132     0779  3000               	movlw	0
  4133     077A  160A  118A  215F  120A  118A  	fcall	_write_ds1307
  4134     077F                     l3153:
  4135                           
  4136                           ;menu.c: 626:         once = 1;
  4137     077F  3001               	movlw	1
  4138     0780  1283               	bcf	3,5	;RP0=0, select bank0
  4139     0781  1303               	bcf	3,6	;RP1=0, select bank0
  4140     0782  00E7               	movwf	set_time@once
  4141     0783                     l3155:
  4142                           
  4143                           ;menu.c: 627:         field = 0;
  4144     0783  01D8               	clrf	set_time@field
  4145     0784                     l3157:
  4146                           
  4147                           ;menu.c: 628:         blink = 0;
  4148     0784  1683               	bsf	3,5	;RP0=1, select bank1
  4149     0785  1303               	bcf	3,6	;RP1=0, select bank1
  4150     0786  01A8               	clrf	set_time@blink^(0+128)
  4151     0787  01A9               	clrf	(set_time@blink+1)^(0+128)
  4152     0788                     l3159:
  4153                           
  4154                           ;menu.c: 629:         clcd_print("                ", (0x80 + 0));
  4155     0788  306B               	movlw	low (STR_1| (0+32768))
  4156     0789  00F4               	movwf	clcd_print@str
  4157     078A  3088               	movlw	high (STR_1| (0+32768))
  4158     078B  00F5               	movwf	clcd_print@str+1
  4159     078C  3080               	movlw	128
  4160     078D  00F6               	movwf	clcd_print@addr
  4161     078E  160A  118A  22C8  120A  118A  	fcall	_clcd_print
  4162     0793                     l3161:
  4163                           
  4164                           ;menu.c: 630:         clcd_print("                ", (0xC0 + 0));
  4165     0793  306B               	movlw	low (STR_1| (0+32768))
  4166     0794  00F4               	movwf	clcd_print@str
  4167     0795  3088               	movlw	high (STR_1| (0+32768))
  4168     0796  00F5               	movwf	clcd_print@str+1
  4169     0797  30C0               	movlw	192
  4170     0798  00F6               	movwf	clcd_print@addr
  4171     0799  160A  118A  22C8  120A  118A  	fcall	_clcd_print
  4172     079E                     l3163:
  4173                           
  4174                           ;menu.c: 632:         return 1;
  4175     079E  3001               	movlw	1
  4176     079F  2FC6               	goto	l521
  4177     07A0                     l3167:
  4178                           
  4179                           ;menu.c: 636:     if(key == 0x2F)
  4180     07A0  302F               	movlw	47
  4181     07A1  0630               	xorwf	set_time@key,w
  4182     07A2  1D03               	btfss	3,2
  4183     07A3  2FA5               	goto	u3111
  4184     07A4  2FA6               	goto	u3110
  4185     07A5                     u3111:
  4186     07A5  2FC5               	goto	l3181
  4187     07A6                     u3110:
  4188     07A6                     l3169:
  4189                           
  4190                           ;menu.c: 637:     {;menu.c: 638:         once = 1;
  4191     07A6  3001               	movlw	1
  4192     07A7  00E7               	movwf	set_time@once
  4193     07A8                     l3171:
  4194                           
  4195                           ;menu.c: 639:         field = 0;
  4196     07A8  01D8               	clrf	set_time@field
  4197                           
  4198                           ;menu.c: 640:         blink = 0;
  4199     07A9  1683               	bsf	3,5	;RP0=1, select bank1
  4200     07AA  1303               	bcf	3,6	;RP1=0, select bank1
  4201     07AB  01A8               	clrf	set_time@blink^(0+128)
  4202     07AC  01A9               	clrf	(set_time@blink+1)^(0+128)
  4203     07AD                     l3173:
  4204                           
  4205                           ;menu.c: 641:         clcd_print("                ", (0x80 + 0));
  4206     07AD  306B               	movlw	low (STR_1| (0+32768))
  4207     07AE  00F4               	movwf	clcd_print@str
  4208     07AF  3088               	movlw	high (STR_1| (0+32768))
  4209     07B0  00F5               	movwf	clcd_print@str+1
  4210     07B1  3080               	movlw	128
  4211     07B2  00F6               	movwf	clcd_print@addr
  4212     07B3  160A  118A  22C8  120A  118A  	fcall	_clcd_print
  4213     07B8                     l3175:
  4214                           
  4215                           ;menu.c: 642:         clcd_print("                ", (0xC0 + 0));
  4216     07B8  306B               	movlw	low (STR_1| (0+32768))
  4217     07B9  00F4               	movwf	clcd_print@str
  4218     07BA  3088               	movlw	high (STR_1| (0+32768))
  4219     07BB  00F5               	movwf	clcd_print@str+1
  4220     07BC  30C0               	movlw	192
  4221     07BD  00F6               	movwf	clcd_print@addr
  4222     07BE  160A  118A  22C8  120A  118A  	fcall	_clcd_print
  4223     07C3                     l3177:
  4224                           
  4225                           ;menu.c: 643:         return 2;
  4226     07C3  3002               	movlw	2
  4227     07C4  2FC6               	goto	l521
  4228     07C5                     l3181:
  4229                           
  4230                           ;menu.c: 646:     return 0;
  4231     07C5  3000               	movlw	0
  4232     07C6                     l521:
  4233     07C6  0008               	return
  4234     07C7                     __end_of_set_time:
  4235                           
  4236                           	psect	text4
  4237     1139                     __ptext4:	
  4238 ;; *************** function ___bmul *****************
  4239 ;; Defined at:
  4240 ;;		line 4 in file "C:\Program Files\Microchip\xc8\v3.10\pic\sources\c99\common\Umul8.c"
  4241 ;; Parameters:    Size  Location     Type
  4242 ;;  multiplier      1    wreg     unsigned char 
  4243 ;;  multiplicand    1    0[COMMON] unsigned char 
  4244 ;; Auto vars:     Size  Location     Type
  4245 ;;  multiplier      1    2[COMMON] unsigned char 
  4246 ;;  product         1    1[COMMON] unsigned char 
  4247 ;; Return value:  Size  Location     Type
  4248 ;;                  1    wreg      unsigned char 
  4249 ;; Registers used:
  4250 ;;		wreg, status,2, status,0
  4251 ;; Tracked objects:
  4252 ;;		On entry : 0/0
  4253 ;;		On exit  : 0/0
  4254 ;;		Unchanged: 0/0
  4255 ;; Data sizes:     COMMON   BANK0   BANK1   BANK3   BANK2
  4256 ;;      Params:         1       0       0       0       0
  4257 ;;      Locals:         2       0       0       0       0
  4258 ;;      Temps:          0       0       0       0       0
  4259 ;;      Totals:         3       0       0       0       0
  4260 ;;Total ram usage:        3 bytes
  4261 ;; Hardware stack levels used: 1
  4262 ;; This function calls:
  4263 ;;		Nothing
  4264 ;; This function is called by:
  4265 ;;		_view_log
  4266 ;;		_set_time
  4267 ;; This function uses a non-reentrant model
  4268 ;;
  4269                           
  4270     1139                     ___bmul:	
  4271                           ;psect for function ___bmul
  4272                           
  4273                           
  4274                           ;incstack = 0
  4275                           ; Regs used in ___bmul: [wreg+status,2+status,0]
  4276                           ;___bmul@multiplier stored from wreg
  4277     1139  00F2               	movwf	___bmul@multiplier
  4278     113A                     l2649:
  4279     113A  01F1               	clrf	___bmul@product
  4280     113B                     l2651:
  4281     113B  1C72               	btfss	___bmul@multiplier,0
  4282     113C  293E               	goto	u2311
  4283     113D  293F               	goto	u2310
  4284     113E                     u2311:
  4285     113E  2941               	goto	l2655
  4286     113F                     u2310:
  4287     113F                     l2653:
  4288     113F  0870               	movf	___bmul@multiplicand,w
  4289     1140  07F1               	addwf	___bmul@product,f
  4290     1141                     l2655:
  4291     1141  1003               	clrc
  4292     1142  0DF0               	rlf	___bmul@multiplicand,f
  4293     1143                     l2657:
  4294     1143  1003               	clrc
  4295     1144  0CF2               	rrf	___bmul@multiplier,f
  4296     1145  0872               	movf	___bmul@multiplier,w
  4297     1146  1D03               	btfss	3,2
  4298     1147  2949               	goto	u2321
  4299     1148  294A               	goto	u2320
  4300     1149                     u2321:
  4301     1149  293B               	goto	l2651
  4302     114A                     u2320:
  4303     114A                     l2659:
  4304     114A  0871               	movf	___bmul@product,w
  4305     114B                     l667:
  4306     114B  0008               	return
  4307     114C                     __end_of___bmul:
  4308                           
  4309                           	psect	text5
  4310     1273                     __ptext5:	
  4311 ;; *************** function _read_digital_keypad *****************
  4312 ;; Defined at:
  4313 ;;		line 10 in file "digital_keypad.c"
  4314 ;; Parameters:    Size  Location     Type
  4315 ;;  mode            1    wreg     unsigned char 
  4316 ;; Auto vars:     Size  Location     Type
  4317 ;;  mode            1    1[COMMON] unsigned char 
  4318 ;; Return value:  Size  Location     Type
  4319 ;;                  1    wreg      unsigned char 
  4320 ;; Registers used:
  4321 ;;		wreg, status,2, status,0
  4322 ;; Tracked objects:
  4323 ;;		On entry : 0/0
  4324 ;;		On exit  : 0/0
  4325 ;;		Unchanged: 0/0
  4326 ;; Data sizes:     COMMON   BANK0   BANK1   BANK3   BANK2
  4327 ;;      Params:         0       0       0       0       0
  4328 ;;      Locals:         1       0       0       0       0
  4329 ;;      Temps:          1       0       0       0       0
  4330 ;;      Totals:         2       0       0       0       0
  4331 ;;Total ram usage:        2 bytes
  4332 ;; Hardware stack levels used: 1
  4333 ;; This function calls:
  4334 ;;		Nothing
  4335 ;; This function is called by:
  4336 ;;		_main
  4337 ;;		_menu
  4338 ;; This function uses a non-reentrant model
  4339 ;;
  4340                           
  4341     1273                     _read_digital_keypad:	
  4342                           ;psect for function _read_digital_keypad
  4343                           
  4344                           
  4345                           ;incstack = 0
  4346                           ; Regs used in _read_digital_keypad: [wreg+status,2+status,0]
  4347                           ;read_digital_keypad@mode stored from wreg
  4348     1273  00F1               	movwf	read_digital_keypad@mode
  4349     1274                     l2803:
  4350                           
  4351                           ;digital_keypad.c: 10: unsigned char read_digital_keypad(unsigned char mode);digital_key
      +                          pad.c: 11: {;digital_keypad.c: 12:     static unsigned char once = 1;;digital_keypad.c: 
      +                          14:     if (mode == 0)
  4352     1274  0871               	movf	read_digital_keypad@mode,w
  4353     1275  1D03               	btfss	3,2
  4354     1276  2A78               	goto	u2621
  4355     1277  2A79               	goto	u2620
  4356     1278                     u2621:
  4357     1278  2A7E               	goto	l2811
  4358     1279                     u2620:
  4359     1279                     l2805:
  4360                           
  4361                           ;digital_keypad.c: 15:     {;digital_keypad.c: 16:         return PORTB & 0x3F;
  4362     1279  1283               	bcf	3,5	;RP0=0, select bank0
  4363     127A  1303               	bcf	3,6	;RP1=0, select bank0
  4364     127B  0806               	movf	6,w	;volatile
  4365     127C  393F               	andlw	63
  4366     127D  2A9C               	goto	l165
  4367     127E                     l2811:
  4368                           
  4369                           ;digital_keypad.c: 19:     {;digital_keypad.c: 20:         if (((PORTB & 0x3F) != 0x3F) 
      +                          && once)
  4370     127E  303F               	movlw	63
  4371     127F  1283               	bcf	3,5	;RP0=0, select bank0
  4372     1280  1303               	bcf	3,6	;RP1=0, select bank0
  4373     1281  0506               	andwf	6,w	;volatile
  4374     1282  00F0               	movwf	??_read_digital_keypad
  4375     1283  303F               	movlw	63
  4376     1284  0670               	xorwf	??_read_digital_keypad,w
  4377     1285  1903               	btfsc	3,2
  4378     1286  2A88               	goto	u2631
  4379     1287  2A89               	goto	u2630
  4380     1288                     u2631:
  4381     1288  2A90               	goto	l2823
  4382     1289                     u2630:
  4383     1289                     l2813:
  4384     1289  086E               	movf	read_digital_keypad@once,w
  4385     128A  1903               	btfsc	3,2
  4386     128B  2A8D               	goto	u2641
  4387     128C  2A8E               	goto	u2640
  4388     128D                     u2641:
  4389     128D  2A90               	goto	l2823
  4390     128E                     u2640:
  4391     128E                     l2815:
  4392                           
  4393                           ;digital_keypad.c: 21:         {;digital_keypad.c: 22:             once = 0;
  4394     128E  01EE               	clrf	read_digital_keypad@once
  4395     128F  2A79               	goto	l2805
  4396     1290                     l2823:
  4397     1290  303F               	movlw	63
  4398     1291  0506               	andwf	6,w	;volatile
  4399     1292  00F0               	movwf	??_read_digital_keypad
  4400     1293  303F               	movlw	63
  4401     1294  0670               	xorwf	??_read_digital_keypad,w
  4402     1295  1D03               	btfss	3,2
  4403     1296  2A98               	goto	u2651
  4404     1297  2A99               	goto	u2650
  4405     1298                     u2651:
  4406     1298  2A9B               	goto	l2827
  4407     1299                     u2650:
  4408     1299                     l2825:
  4409                           
  4410                           ;digital_keypad.c: 27:         {;digital_keypad.c: 28:             once = 1;
  4411     1299  3001               	movlw	1
  4412     129A  00EE               	movwf	read_digital_keypad@once
  4413     129B                     l2827:
  4414                           
  4415                           ;digital_keypad.c: 32:     return 0x3F;
  4416     129B  303F               	movlw	63
  4417     129C                     l165:
  4418     129C  0008               	return
  4419     129D                     __end_of_read_digital_keypad:
  4420                           
  4421                           	psect	text6
  4422     0BA2                     __ptext6:	
  4423 ;; *************** function _download_log *****************
  4424 ;; Defined at:
  4425 ;;		line 413 in file "menu.c"
  4426 ;; Parameters:    Size  Location     Type
  4427 ;;		None
  4428 ;; Auto vars:     Size  Location     Type
  4429 ;;  addr            1   11[COMMON] unsigned char 
  4430 ;;  i               1   10[COMMON] unsigned char 
  4431 ;; Return value:  Size  Location     Type
  4432 ;;                  1    wreg      void 
  4433 ;; Registers used:
  4434 ;;		wreg, fsr0l, fsr0h, status,2, status,0, pclath, btemp1, cstack
  4435 ;; Tracked objects:
  4436 ;;		On entry : 0/0
  4437 ;;		On exit  : 0/0
  4438 ;;		Unchanged: 0/0
  4439 ;; Data sizes:     COMMON   BANK0   BANK1   BANK3   BANK2
  4440 ;;      Params:         0       0       0       0       0
  4441 ;;      Locals:         2       0       0       0       0
  4442 ;;      Temps:          3       0       0       0       0
  4443 ;;      Totals:         5       0       0       0       0
  4444 ;;Total ram usage:        5 bytes
  4445 ;; Hardware stack levels used: 1
  4446 ;; Hardware stack levels required when called: 2
  4447 ;; This function calls:
  4448 ;;		_clcd_print
  4449 ;;		_read_external_eeprom
  4450 ;;		_uart_putch
  4451 ;;		_uart_puts
  4452 ;; This function is called by:
  4453 ;;		_menu
  4454 ;; This function uses a non-reentrant model
  4455 ;;
  4456                           
  4457     0BA2                     _download_log:	
  4458                           ;psect for function _download_log
  4459                           
  4460     0BA2                     l2981:	
  4461                           ;incstack = 0
  4462                           ; Regs used in _download_log: [wreg-fsr0h+status,2+status,0+pclath+btemp1+cstack]
  4463                           
  4464                           
  4465                           ;menu.c: 415:     unsigned char i;;menu.c: 416:     unsigned char addr = 0;
  4466     0BA2  01FB               	clrf	download_log@addr
  4467     0BA3                     l2983:
  4468                           
  4469                           ;menu.c: 418:     clcd_print("DOWNLOADING... ", (0x80 + 0));
  4470     0BA3  302C               	movlw	low (STR_41| (0+32768))
  4471     0BA4  00F4               	movwf	clcd_print@str
  4472     0BA5  3089               	movlw	high (STR_41| (0+32768))
  4473     0BA6  00F5               	movwf	clcd_print@str+1
  4474     0BA7  3080               	movlw	128
  4475     0BA8  00F6               	movwf	clcd_print@addr
  4476     0BA9  160A  118A  22C8  120A  158A  	fcall	_clcd_print
  4477     0BAE                     l2985:
  4478                           
  4479                           ;menu.c: 419:     clcd_print("PLEASE WAIT    ", (0xC0 + 0));
  4480     0BAE  30EC               	movlw	low (STR_42| (0+32768))
  4481     0BAF  00F4               	movwf	clcd_print@str
  4482     0BB0  3088               	movlw	high (STR_42| (0+32768))
  4483     0BB1  00F5               	movwf	clcd_print@str+1
  4484     0BB2  30C0               	movlw	192
  4485     0BB3  00F6               	movwf	clcd_print@addr
  4486     0BB4  160A  118A  22C8  120A  158A  	fcall	_clcd_print
  4487     0BB9                     l2987:
  4488                           
  4489                           ;menu.c: 421:     uart_puts("\r\n");
  4490     0BB9  3024               	movlw	low ((STR_45+16)| (0+32768))
  4491     0BBA  00F5               	movwf	uart_puts@str
  4492     0BBB  3088               	movlw	high ((STR_45+16)| (0+32768))
  4493     0BBC  00F6               	movwf	uart_puts@str+1
  4494     0BBD  160A  118A  21FC  120A  158A  	fcall	_uart_puts
  4495     0BC2                     l2989:
  4496                           
  4497                           ;menu.c: 422:     uart_puts("TIME     EV SP\r\n");
  4498     0BC2  3027               	movlw	low (STR_44| (0+32768))
  4499     0BC3  00F5               	movwf	uart_puts@str
  4500     0BC4  3088               	movlw	high (STR_44| (0+32768))
  4501     0BC5  00F6               	movwf	uart_puts@str+1
  4502     0BC6  160A  118A  21FC  120A  158A  	fcall	_uart_puts
  4503     0BCB                     l2991:
  4504                           
  4505                           ;menu.c: 423:     uart_puts("----------------\r\n");
  4506     0BCB  3014               	movlw	low (STR_45| (0+32768))
  4507     0BCC  00F5               	movwf	uart_puts@str
  4508     0BCD  3088               	movlw	high (STR_45| (0+32768))
  4509     0BCE  00F6               	movwf	uart_puts@str+1
  4510     0BCF  160A  118A  21FC  120A  158A  	fcall	_uart_puts
  4511     0BD4                     l2993:
  4512                           
  4513                           ;menu.c: 425:     if(event_count == 0)
  4514     0BD4  1283               	bcf	3,5	;RP0=0, select bank0
  4515     0BD5  1303               	bcf	3,6	;RP1=0, select bank0
  4516     0BD6  085F               	movf	_event_count,w
  4517     0BD7  1D03               	btfss	3,2
  4518     0BD8  2BDA               	goto	u2831
  4519     0BD9  2BDB               	goto	u2830
  4520     0BDA                     u2831:
  4521     0BDA  2C08               	goto	l3001
  4522     0BDB                     u2830:
  4523     0BDB                     l2995:
  4524                           
  4525                           ;menu.c: 426:     {;menu.c: 427:         uart_puts("NO LOGS FOUND\r\n");
  4526     0BDB  307C               	movlw	low (STR_46| (0+32768))
  4527     0BDC  00F5               	movwf	uart_puts@str
  4528     0BDD  3088               	movlw	high (STR_46| (0+32768))
  4529     0BDE  00F6               	movwf	uart_puts@str+1
  4530     0BDF  160A  118A  21FC  120A  158A  	fcall	_uart_puts
  4531                           
  4532                           ;menu.c: 429:         clcd_print("NO LOGS        ", (0x80 + 0));
  4533     0BE4  30AC               	movlw	low (STR_47| (0+32768))
  4534     0BE5  00F4               	movwf	clcd_print@str
  4535     0BE6  3088               	movlw	high (STR_47| (0+32768))
  4536     0BE7  00F5               	movwf	clcd_print@str+1
  4537     0BE8  3080               	movlw	128
  4538     0BE9  00F6               	movwf	clcd_print@addr
  4539     0BEA  160A  118A  22C8  120A  158A  	fcall	_clcd_print
  4540                           
  4541                           ;menu.c: 430:         clcd_print("FOUND          ", (0xC0 + 0));
  4542     0BEF  308C               	movlw	low (STR_48| (0+32768))
  4543     0BF0  00F4               	movwf	clcd_print@str
  4544     0BF1  3088               	movlw	high (STR_48| (0+32768))
  4545     0BF2  00F5               	movwf	clcd_print@str+1
  4546     0BF3  30C0               	movlw	192
  4547     0BF4  00F6               	movwf	clcd_print@addr
  4548     0BF5  160A  118A  22C8  120A  158A  	fcall	_clcd_print
  4549     0BFA                     l2997:
  4550                           
  4551                           ;menu.c: 432:         _delay((unsigned long)((1500)*(20000000/4000.0)));
  4552     0BFA  3027               	movlw	39
  4553     0BFB  00F9               	movwf	??_download_log+2
  4554     0BFC  300D               	movlw	13
  4555     0BFD  00F8               	movwf	??_download_log+1
  4556     0BFE  3026               	movlw	38
  4557     0BFF  00F7               	movwf	??_download_log
  4558     0C00                     u4407:
  4559     0C00  0BF7               	decfsz	??_download_log,f
  4560     0C01  2C00               	goto	u4407
  4561     0C02  0BF8               	decfsz	??_download_log+1,f
  4562     0C03  2C00               	goto	u4407
  4563     0C04  0BF9               	decfsz	??_download_log+2,f
  4564     0C05  2C00               	goto	u4407
  4565     0C06  0000               	nop
  4566     0C07  2CCE               	goto	l470
  4567     0C08                     l3001:
  4568                           
  4569                           ;menu.c: 436:     for(i = 0; i < event_count; i++)
  4570     0C08  01FA               	clrf	download_log@i
  4571     0C09  2CAF               	goto	l3037
  4572     0C0A                     l3003:
  4573                           
  4574                           ;menu.c: 437:     {;menu.c: 439:         uart_putch(read_external_eeprom(addr++));
  4575     0C0A  087B               	movf	download_log@addr,w
  4576     0C0B  120A  158A  2205  120A  158A  	fcall	_read_external_eeprom
  4577     0C10  160A  118A  20AF  120A  158A  	fcall	_uart_putch
  4578     0C15                     l3005:
  4579     0C15  3001               	movlw	1
  4580     0C16  07FB               	addwf	download_log@addr,f
  4581     0C17                     l3007:
  4582                           
  4583                           ;menu.c: 440:         uart_putch(read_external_eeprom(addr++));
  4584     0C17  087B               	movf	download_log@addr,w
  4585     0C18  120A  158A  2205  120A  158A  	fcall	_read_external_eeprom
  4586     0C1D  160A  118A  20AF  120A  158A  	fcall	_uart_putch
  4587     0C22  3001               	movlw	1
  4588     0C23  07FB               	addwf	download_log@addr,f
  4589     0C24                     l3009:
  4590                           
  4591                           ;menu.c: 441:         uart_putch(':');
  4592     0C24  303A               	movlw	58
  4593     0C25  160A  118A  20AF  120A  158A  	fcall	_uart_putch
  4594     0C2A                     l3011:
  4595                           
  4596                           ;menu.c: 444:         uart_putch(read_external_eeprom(addr++));
  4597     0C2A  087B               	movf	download_log@addr,w
  4598     0C2B  120A  158A  2205  120A  158A  	fcall	_read_external_eeprom
  4599     0C30  160A  118A  20AF  120A  158A  	fcall	_uart_putch
  4600     0C35  3001               	movlw	1
  4601     0C36  07FB               	addwf	download_log@addr,f
  4602     0C37                     l3013:
  4603                           
  4604                           ;menu.c: 445:         uart_putch(read_external_eeprom(addr++));
  4605     0C37  087B               	movf	download_log@addr,w
  4606     0C38  120A  158A  2205  120A  158A  	fcall	_read_external_eeprom
  4607     0C3D  160A  118A  20AF  120A  158A  	fcall	_uart_putch
  4608     0C42                     l3015:
  4609     0C42  3001               	movlw	1
  4610     0C43  07FB               	addwf	download_log@addr,f
  4611                           
  4612                           ;menu.c: 446:         uart_putch(':');
  4613     0C44  303A               	movlw	58
  4614     0C45  160A  118A  20AF  120A  158A  	fcall	_uart_putch
  4615                           
  4616                           ;menu.c: 449:         uart_putch(read_external_eeprom(addr++));
  4617     0C4A  087B               	movf	download_log@addr,w
  4618     0C4B  120A  158A  2205  120A  158A  	fcall	_read_external_eeprom
  4619     0C50  160A  118A  20AF  120A  158A  	fcall	_uart_putch
  4620     0C55                     l3017:
  4621     0C55  3001               	movlw	1
  4622     0C56  07FB               	addwf	download_log@addr,f
  4623     0C57                     l3019:
  4624                           
  4625                           ;menu.c: 450:         uart_putch(read_external_eeprom(addr++));
  4626     0C57  087B               	movf	download_log@addr,w
  4627     0C58  120A  158A  2205  120A  158A  	fcall	_read_external_eeprom
  4628     0C5D  160A  118A  20AF  120A  158A  	fcall	_uart_putch
  4629     0C62  3001               	movlw	1
  4630     0C63  07FB               	addwf	download_log@addr,f
  4631     0C64                     l3021:
  4632                           
  4633                           ;menu.c: 451:         uart_putch(' ');
  4634     0C64  3020               	movlw	32
  4635     0C65  160A  118A  20AF  120A  158A  	fcall	_uart_putch
  4636     0C6A                     l3023:
  4637                           
  4638                           ;menu.c: 454:         uart_putch(read_external_eeprom(addr++));
  4639     0C6A  087B               	movf	download_log@addr,w
  4640     0C6B  120A  158A  2205  120A  158A  	fcall	_read_external_eeprom
  4641     0C70  160A  118A  20AF  120A  158A  	fcall	_uart_putch
  4642     0C75  3001               	movlw	1
  4643     0C76  07FB               	addwf	download_log@addr,f
  4644     0C77                     l3025:
  4645                           
  4646                           ;menu.c: 455:         uart_putch(read_external_eeprom(addr++));
  4647     0C77  087B               	movf	download_log@addr,w
  4648     0C78  120A  158A  2205  120A  158A  	fcall	_read_external_eeprom
  4649     0C7D  160A  118A  20AF  120A  158A  	fcall	_uart_putch
  4650     0C82                     l3027:
  4651     0C82  3001               	movlw	1
  4652     0C83  07FB               	addwf	download_log@addr,f
  4653                           
  4654                           ;menu.c: 456:         uart_putch(' ');
  4655     0C84  3020               	movlw	32
  4656     0C85  160A  118A  20AF  120A  158A  	fcall	_uart_putch
  4657                           
  4658                           ;menu.c: 459:         uart_putch(read_external_eeprom(addr++));
  4659     0C8A  087B               	movf	download_log@addr,w
  4660     0C8B  120A  158A  2205  120A  158A  	fcall	_read_external_eeprom
  4661     0C90  160A  118A  20AF  120A  158A  	fcall	_uart_putch
  4662     0C95                     l3029:
  4663     0C95  3001               	movlw	1
  4664     0C96  07FB               	addwf	download_log@addr,f
  4665     0C97                     l3031:
  4666                           
  4667                           ;menu.c: 460:         uart_putch(read_external_eeprom(addr++));
  4668     0C97  087B               	movf	download_log@addr,w
  4669     0C98  120A  158A  2205  120A  158A  	fcall	_read_external_eeprom
  4670     0C9D  160A  118A  20AF  120A  158A  	fcall	_uart_putch
  4671     0CA2  3001               	movlw	1
  4672     0CA3  07FB               	addwf	download_log@addr,f
  4673     0CA4                     l3033:
  4674                           
  4675                           ;menu.c: 462:         uart_puts("\r\n");
  4676     0CA4  3024               	movlw	low ((STR_45+16)| (0+32768))
  4677     0CA5  00F5               	movwf	uart_puts@str
  4678     0CA6  3088               	movlw	high ((STR_45+16)| (0+32768))
  4679     0CA7  00F6               	movwf	uart_puts@str+1
  4680     0CA8  160A  118A  21FC  120A  158A  	fcall	_uart_puts
  4681     0CAD                     l3035:
  4682                           
  4683                           ;menu.c: 463:     }
  4684     0CAD  3001               	movlw	1
  4685     0CAE  07FA               	addwf	download_log@i,f
  4686     0CAF                     l3037:
  4687     0CAF  1283               	bcf	3,5	;RP0=0, select bank0
  4688     0CB0  1303               	bcf	3,6	;RP1=0, select bank0
  4689     0CB1  085F               	movf	_event_count,w
  4690     0CB2  027A               	subwf	download_log@i,w
  4691     0CB3  1C03               	skipc
  4692     0CB4  2CB6               	goto	u2841
  4693     0CB5  2CB7               	goto	u2840
  4694     0CB6                     u2841:
  4695     0CB6  2C0A               	goto	l3003
  4696     0CB7                     u2840:
  4697     0CB7                     l3039:
  4698                           
  4699                           ;menu.c: 465:     clcd_print("DOWNLOAD DONE  ", (0x80 + 0));
  4700     0CB7  300C               	movlw	low (STR_50| (0+32768))
  4701     0CB8  00F4               	movwf	clcd_print@str
  4702     0CB9  3089               	movlw	high (STR_50| (0+32768))
  4703     0CBA  00F5               	movwf	clcd_print@str+1
  4704     0CBB  3080               	movlw	128
  4705     0CBC  00F6               	movwf	clcd_print@addr
  4706     0CBD  160A  118A  22C8  120A  158A  	fcall	_clcd_print
  4707                           
  4708                           ;menu.c: 466:     clcd_print("SUCCESS        ", (0xC0 + 0));
  4709     0CC2  30BC               	movlw	low (STR_51| (0+32768))
  4710     0CC3  00F4               	movwf	clcd_print@str
  4711     0CC4  3088               	movlw	high (STR_51| (0+32768))
  4712     0CC5  00F5               	movwf	clcd_print@str+1
  4713     0CC6  30C0               	movlw	192
  4714     0CC7  00F6               	movwf	clcd_print@addr
  4715     0CC8  160A  118A  22C8  120A  158A  	fcall	_clcd_print
  4716     0CCD  2BFA               	goto	l2997
  4717     0CCE                     l470:
  4718     0CCE  0008               	return
  4719     0CCF                     __end_of_download_log:
  4720                           
  4721                           	psect	text7
  4722     11FC                     __ptext7:	
  4723 ;; *************** function _uart_puts *****************
  4724 ;; Defined at:
  4725 ;;		line 36 in file "uart.c"
  4726 ;; Parameters:    Size  Location     Type
  4727 ;;  str             2    5[COMMON] PTR const unsigned char 
  4728 ;;		 -> STR_49(3), STR_46(16), STR_45(19), STR_44(17), 
  4729 ;;		 -> STR_43(3), 
  4730 ;; Auto vars:     Size  Location     Type
  4731 ;;		None
  4732 ;; Return value:  Size  Location     Type
  4733 ;;                  1    wreg      void 
  4734 ;; Registers used:
  4735 ;;		wreg, fsr0l, fsr0h, status,2, status,0, pclath, btemp1, cstack
  4736 ;; Tracked objects:
  4737 ;;		On entry : 0/0
  4738 ;;		On exit  : 0/0
  4739 ;;		Unchanged: 0/0
  4740 ;; Data sizes:     COMMON   BANK0   BANK1   BANK3   BANK2
  4741 ;;      Params:         2       0       0       0       0
  4742 ;;      Locals:         0       0       0       0       0
  4743 ;;      Temps:          0       0       0       0       0
  4744 ;;      Totals:         2       0       0       0       0
  4745 ;;Total ram usage:        2 bytes
  4746 ;; Hardware stack levels used: 1
  4747 ;; Hardware stack levels required when called: 1
  4748 ;; This function calls:
  4749 ;;		_uart_putch
  4750 ;; This function is called by:
  4751 ;;		_download_log
  4752 ;; This function uses a non-reentrant model
  4753 ;;
  4754                           
  4755     11FC                     _uart_puts:	
  4756                           ;psect for function _uart_puts
  4757                           
  4758     11FC                     l2625:	
  4759                           ;incstack = 0
  4760                           ; Regs used in _uart_puts: [wreg-fsr0h+status,2+status,0+pclath+btemp1+cstack]
  4761                           
  4762                           
  4763                           ;uart.c: 36: void uart_puts(const char *str);uart.c: 37: {;uart.c: 38:     while(*str)
  4764     11FC  2A11               	goto	l2631
  4765     11FD                     l2627:
  4766                           
  4767                           ;uart.c: 39:     {;uart.c: 40:         uart_putch(*str++);
  4768     11FD  0876               	movf	uart_puts@str+1,w
  4769     11FE  00FF               	movwf	btemp1
  4770     11FF  0875               	movf	uart_puts@str,w
  4771     1200  0084               	movwf	4
  4772     1201  160A  118A  2000  160A  118A  	fcall	stringtab
  4773     1206  160A  118A  20AF  160A  118A  	fcall	_uart_putch
  4774     120B                     l2629:
  4775     120B  3001               	movlw	1
  4776     120C  07F5               	addwf	uart_puts@str,f
  4777     120D  1803               	skipnc
  4778     120E  0AF6               	incf	uart_puts@str+1,f
  4779     120F  3000               	movlw	0
  4780     1210  07F6               	addwf	uart_puts@str+1,f
  4781     1211                     l2631:
  4782                           
  4783                           ;uart.c: 38:     while(*str)
  4784     1211  0876               	movf	uart_puts@str+1,w
  4785     1212  1283               	bcf	3,5	;RP0=0, select bank0
  4786     1213  1303               	bcf	3,6	;RP1=0, select bank0
  4787     1214  00FF               	movwf	btemp1
  4788     1215  0875               	movf	uart_puts@str,w
  4789     1216  0084               	movwf	4
  4790     1217  160A  118A  2000  160A  118A  	fcall	stringtab
  4791     121C  3A00               	xorlw	0
  4792     121D  1D03               	skipz
  4793     121E  2A20               	goto	u2271
  4794     121F  2A21               	goto	u2270
  4795     1220                     u2271:
  4796     1220  29FD               	goto	l2627
  4797     1221                     u2270:
  4798     1221                     l309:
  4799     1221  0008               	return
  4800     1222                     __end_of_uart_puts:
  4801                           
  4802                           	psect	text8
  4803     10AF                     __ptext8:	
  4804 ;; *************** function _uart_putch *****************
  4805 ;; Defined at:
  4806 ;;		line 30 in file "uart.c"
  4807 ;; Parameters:    Size  Location     Type
  4808 ;;  data            1    wreg     unsigned char 
  4809 ;; Auto vars:     Size  Location     Type
  4810 ;;  data            1    4[COMMON] unsigned char 
  4811 ;; Return value:  Size  Location     Type
  4812 ;;                  1    wreg      void 
  4813 ;; Registers used:
  4814 ;;		wreg
  4815 ;; Tracked objects:
  4816 ;;		On entry : 0/0
  4817 ;;		On exit  : 0/0
  4818 ;;		Unchanged: 0/0
  4819 ;; Data sizes:     COMMON   BANK0   BANK1   BANK3   BANK2
  4820 ;;      Params:         0       0       0       0       0
  4821 ;;      Locals:         1       0       0       0       0
  4822 ;;      Temps:          0       0       0       0       0
  4823 ;;      Totals:         1       0       0       0       0
  4824 ;;Total ram usage:        1 bytes
  4825 ;; Hardware stack levels used: 1
  4826 ;; This function calls:
  4827 ;;		Nothing
  4828 ;; This function is called by:
  4829 ;;		_uart_puts
  4830 ;;		_download_log
  4831 ;; This function uses a non-reentrant model
  4832 ;;
  4833                           
  4834     10AF                     _uart_putch:	
  4835                           ;psect for function _uart_putch
  4836                           
  4837                           
  4838                           ;incstack = 0
  4839                           ; Regs used in _uart_putch: [wreg]
  4840                           ;uart_putch@data stored from wreg
  4841     10AF  00F4               	movwf	uart_putch@data
  4842     10B0                     l2571:
  4843     10B0                     l300:	
  4844                           ;uart.c: 30: void uart_putch(unsigned char data);uart.c: 31: {;uart.c: 32:     while(!TX
      +                          IF);
  4845                           
  4846     10B0  1283               	bcf	3,5	;RP0=0, select bank0
  4847     10B1  1303               	bcf	3,6	;RP1=0, select bank0
  4848     10B2  1E0C               	btfss	12,4	;volatile
  4849     10B3  28B5               	goto	u2241
  4850     10B4  28B6               	goto	u2240
  4851     10B5                     u2241:
  4852     10B5  28B0               	goto	l300
  4853     10B6                     u2240:
  4854     10B6                     l2573:
  4855                           
  4856                           ;uart.c: 33:     TXREG = data;
  4857     10B6  0874               	movf	uart_putch@data,w
  4858     10B7  0099               	movwf	25	;volatile
  4859     10B8                     l303:
  4860     10B8  0008               	return
  4861     10B9                     __end_of_uart_putch:
  4862                           
  4863                           	psect	text9
  4864     0A05                     __ptext9:	
  4865 ;; *************** function _read_external_eeprom *****************
  4866 ;; Defined at:
  4867 ;;		line 15 in file "external_eeprom.c"
  4868 ;; Parameters:    Size  Location     Type
  4869 ;;  address         1    wreg     unsigned char 
  4870 ;; Auto vars:     Size  Location     Type
  4871 ;;  address         1    2[COMMON] unsigned char 
  4872 ;;  data            1    3[COMMON] unsigned char 
  4873 ;; Return value:  Size  Location     Type
  4874 ;;                  1    wreg      unsigned char 
  4875 ;; Registers used:
  4876 ;;		wreg, status,2, status,0, pclath, cstack
  4877 ;; Tracked objects:
  4878 ;;		On entry : 0/0
  4879 ;;		On exit  : 0/0
  4880 ;;		Unchanged: 0/0
  4881 ;; Data sizes:     COMMON   BANK0   BANK1   BANK3   BANK2
  4882 ;;      Params:         0       0       0       0       0
  4883 ;;      Locals:         2       0       0       0       0
  4884 ;;      Temps:          0       0       0       0       0
  4885 ;;      Totals:         2       0       0       0       0
  4886 ;;Total ram usage:        2 bytes
  4887 ;; Hardware stack levels used: 1
  4888 ;; This function calls:
  4889 ;;		_i2c_read
  4890 ;;		_i2c_rep_start
  4891 ;;		_i2c_start
  4892 ;;		_i2c_stop
  4893 ;;		_i2c_write
  4894 ;; This function is called by:
  4895 ;;		_view_log
  4896 ;;		_download_log
  4897 ;; This function uses a non-reentrant model
  4898 ;;
  4899                           
  4900     0A05                     _read_external_eeprom:	
  4901                           ;psect for function _read_external_eeprom
  4902                           
  4903                           
  4904                           ;incstack = 0
  4905                           ; Regs used in _read_external_eeprom: [wreg+status,2+status,0+pclath+cstack]
  4906                           ;read_external_eeprom@address stored from wreg
  4907     0A05  00F2               	movwf	read_external_eeprom@address
  4908     0A06                     l2615:
  4909                           
  4910                           ;external_eeprom.c: 15: unsigned char read_external_eeprom(unsigned char address);extern
      +                          al_eeprom.c: 16: {;external_eeprom.c: 17:     unsigned char data;;external_eeprom.c: 19:
      +                               i2c_start();
  4911     0A06  160A  118A  209D  120A  158A  	fcall	_i2c_start
  4912                           
  4913                           ;external_eeprom.c: 20:     i2c_write(0xA0);
  4914     0A0B  30A0               	movlw	160
  4915     0A0C  160A  118A  20CE  120A  158A  	fcall	_i2c_write
  4916                           
  4917                           ;external_eeprom.c: 21:     i2c_write(address);
  4918     0A11  0872               	movf	read_external_eeprom@address,w
  4919     0A12  160A  118A  20CE  120A  158A  	fcall	_i2c_write
  4920                           
  4921                           ;external_eeprom.c: 22:     i2c_rep_start();
  4922     0A17  160A  118A  20C3  120A  158A  	fcall	_i2c_rep_start
  4923                           
  4924                           ;external_eeprom.c: 23:     i2c_write(0xA1);
  4925     0A1C  30A1               	movlw	161
  4926     0A1D  160A  118A  20CE  120A  158A  	fcall	_i2c_write
  4927                           
  4928                           ;external_eeprom.c: 24:     data = i2c_read(0);
  4929     0A22  3000               	movlw	0
  4930     0A23  160A  118A  21DB  120A  158A  	fcall	_i2c_read
  4931     0A28  00F3               	movwf	read_external_eeprom@data
  4932                           
  4933                           ;external_eeprom.c: 25:     i2c_stop();
  4934     0A29  160A  118A  20A6  120A  158A  	fcall	_i2c_stop
  4935     0A2E                     l2617:
  4936                           
  4937                           ;external_eeprom.c: 27:     return data;
  4938     0A2E  0873               	movf	read_external_eeprom@data,w
  4939     0A2F                     l119:
  4940     0A2F  0008               	return
  4941     0A30                     __end_of_read_external_eeprom:
  4942                           
  4943                           	psect	text10
  4944     145B                     __ptext10:	
  4945 ;; *************** function _clear_log *****************
  4946 ;; Defined at:
  4947 ;;		line 381 in file "menu.c"
  4948 ;; Parameters:    Size  Location     Type
  4949 ;;		None
  4950 ;; Auto vars:     Size  Location     Type
  4951 ;;		None
  4952 ;; Return value:  Size  Location     Type
  4953 ;;                  1    wreg      void 
  4954 ;; Registers used:
  4955 ;;		wreg, fsr0l, fsr0h, status,2, status,0, pclath, btemp1, cstack
  4956 ;; Tracked objects:
  4957 ;;		On entry : 0/0
  4958 ;;		On exit  : 0/0
  4959 ;;		Unchanged: 0/0
  4960 ;; Data sizes:     COMMON   BANK0   BANK1   BANK3   BANK2
  4961 ;;      Params:         0       0       0       0       0
  4962 ;;      Locals:         0       0       0       0       0
  4963 ;;      Temps:          2       0       0       0       0
  4964 ;;      Totals:         2       0       0       0       0
  4965 ;;Total ram usage:        2 bytes
  4966 ;; Hardware stack levels used: 1
  4967 ;; Hardware stack levels required when called: 1
  4968 ;; This function calls:
  4969 ;;		_clcd_print
  4970 ;; This function is called by:
  4971 ;;		_menu
  4972 ;; This function uses a non-reentrant model
  4973 ;;
  4974                           
  4975     145B                     _clear_log:	
  4976                           ;psect for function _clear_log
  4977                           
  4978     145B                     l2967:	
  4979                           ;incstack = 0
  4980                           ; Regs used in _clear_log: [wreg-fsr0h+status,2+status,0+pclath+btemp1+cstack]
  4981                           
  4982                           
  4983                           ;menu.c: 383:     static unsigned int delay = 0;;menu.c: 384:     static unsigned char o
      +                          nce = 1;;menu.c: 387:     if(once)
  4984     145B  1283               	bcf	3,5	;RP0=0, select bank0
  4985     145C  1303               	bcf	3,6	;RP1=0, select bank0
  4986     145D  0868               	movf	clear_log@once,w
  4987     145E  1903               	btfsc	3,2
  4988     145F  2C61               	goto	u2811
  4989     1460  2C62               	goto	u2810
  4990     1461                     u2811:
  4991     1461  2C80               	goto	l2975
  4992     1462                     u2810:
  4993     1462                     l2969:
  4994                           
  4995                           ;menu.c: 388:     {;menu.c: 390:         event_count = 0;
  4996     1462  01DF               	clrf	_event_count
  4997     1463                     l2971:
  4998                           
  4999                           ;menu.c: 392:         clcd_print("Logs are      ", (0x80 + 0));
  5000     1463  308C               	movlw	low (STR_37| (0+32768))
  5001     1464  00F4               	movwf	clcd_print@str
  5002     1465  3089               	movlw	high (STR_37| (0+32768))
  5003     1466  00F5               	movwf	clcd_print@str+1
  5004     1467  3080               	movlw	128
  5005     1468  00F6               	movwf	clcd_print@addr
  5006     1469  160A  118A  22C8  160A  118A  	fcall	_clcd_print
  5007     146E                     l2973:
  5008                           
  5009                           ;menu.c: 393:         clcd_print("clearing      ", (0xC0 + 0));
  5010     146E  309B               	movlw	low (STR_38| (0+32768))
  5011     146F  00F4               	movwf	clcd_print@str
  5012     1470  3089               	movlw	high (STR_38| (0+32768))
  5013     1471  00F5               	movwf	clcd_print@str+1
  5014     1472  30C0               	movlw	192
  5015     1473  00F6               	movwf	clcd_print@addr
  5016     1474  160A  118A  22C8  160A  118A  	fcall	_clcd_print
  5017                           
  5018                           ;menu.c: 395:         once = 0;
  5019     1479  1283               	bcf	3,5	;RP0=0, select bank0
  5020     147A  1303               	bcf	3,6	;RP1=0, select bank0
  5021     147B  01E8               	clrf	clear_log@once
  5022                           
  5023                           ;menu.c: 396:         delay = 0;
  5024     147C  1683               	bsf	3,5	;RP0=1, select bank1
  5025     147D  1303               	bcf	3,6	;RP1=0, select bank1
  5026     147E  01AA               	clrf	clear_log@delay^(0+128)
  5027     147F  01AB               	clrf	(clear_log@delay+1)^(0+128)
  5028     1480                     l2975:
  5029                           
  5030                           ;menu.c: 400:     if(delay++ < 50000)
  5031     1480  1683               	bsf	3,5	;RP0=1, select bank1
  5032     1481  1303               	bcf	3,6	;RP1=0, select bank1
  5033     1482  082B               	movf	(clear_log@delay+1)^(0+128),w
  5034     1483  00F8               	movwf	??_clear_log+1
  5035     1484  082A               	movf	clear_log@delay^(0+128),w
  5036     1485  00F7               	movwf	??_clear_log
  5037     1486  0AAA               	incf	clear_log@delay^(0+128),f
  5038     1487  1903               	skipnz
  5039     1488  0AAB               	incf	(clear_log@delay+1)^(0+128),f
  5040     1489  30C3               	movlw	195
  5041     148A  0278               	subwf	??_clear_log+1,w
  5042     148B  3050               	movlw	80
  5043     148C  1903               	skipnz
  5044     148D  0277               	subwf	??_clear_log,w
  5045     148E  1803               	skipnc
  5046     148F  2C91               	goto	u2821
  5047     1490  2C92               	goto	u2820
  5048     1491                     u2821:
  5049     1491  2C93               	goto	l465
  5050     1492                     u2820:
  5051     1492  2CAD               	goto	l466
  5052     1493                     l465:	
  5053                           ;menu.c: 403:     }
  5054                           
  5055                           
  5056                           ;menu.c: 405:     once = 1;
  5057     1493  3001               	movlw	1
  5058     1494  1283               	bcf	3,5	;RP0=0, select bank0
  5059     1495  1303               	bcf	3,6	;RP1=0, select bank0
  5060     1496  00E8               	movwf	clear_log@once
  5061     1497                     l2979:
  5062                           
  5063                           ;menu.c: 408:     clcd_print("                ", (0x80 + 0));
  5064     1497  306B               	movlw	low (STR_1| (0+32768))
  5065     1498  00F4               	movwf	clcd_print@str
  5066     1499  3088               	movlw	high (STR_1| (0+32768))
  5067     149A  00F5               	movwf	clcd_print@str+1
  5068     149B  3080               	movlw	128
  5069     149C  00F6               	movwf	clcd_print@addr
  5070     149D  160A  118A  22C8  160A  118A  	fcall	_clcd_print
  5071                           
  5072                           ;menu.c: 409:     clcd_print("                ", (0xC0 + 0));
  5073     14A2  306B               	movlw	low (STR_1| (0+32768))
  5074     14A3  00F4               	movwf	clcd_print@str
  5075     14A4  3088               	movlw	high (STR_1| (0+32768))
  5076     14A5  00F5               	movwf	clcd_print@str+1
  5077     14A6  30C0               	movlw	192
  5078     14A7  00F6               	movwf	clcd_print@addr
  5079     14A8  160A  118A  22C8  160A  118A  	fcall	_clcd_print
  5080     14AD                     l466:
  5081     14AD  0008               	return
  5082     14AE                     __end_of_clear_log:
  5083                           
  5084                           	psect	text11
  5085     011E                     __ptext11:	
  5086 ;; *************** function _change_password *****************
  5087 ;; Defined at:
  5088 ;;		line 652 in file "menu.c"
  5089 ;; Parameters:    Size  Location     Type
  5090 ;;  key             1    wreg     unsigned char 
  5091 ;; Auto vars:     Size  Location     Type
  5092 ;;  key             1   12[COMMON] unsigned char 
  5093 ;; Return value:  Size  Location     Type
  5094 ;;                  2   10[COMMON] int 
  5095 ;; Registers used:
  5096 ;;		wreg, fsr0l, fsr0h, status,2, status,0, pclath, btemp1, cstack
  5097 ;; Tracked objects:
  5098 ;;		On entry : 0/0
  5099 ;;		On exit  : 0/0
  5100 ;;		Unchanged: 0/0
  5101 ;; Data sizes:     COMMON   BANK0   BANK1   BANK3   BANK2
  5102 ;;      Params:         2       0       0       0       0
  5103 ;;      Locals:         1       0       0       0       0
  5104 ;;      Temps:          0       4       0       0       0
  5105 ;;      Totals:         3       4       0       0       0
  5106 ;;Total ram usage:        7 bytes
  5107 ;; Hardware stack levels used: 1
  5108 ;; Hardware stack levels required when called: 1
  5109 ;; This function calls:
  5110 ;;		_clcd_print
  5111 ;;		_clcd_putch
  5112 ;;		_strcmp
  5113 ;;		_strcpy
  5114 ;; This function is called by:
  5115 ;;		_menu
  5116 ;; This function uses a non-reentrant model
  5117 ;;
  5118                           
  5119     011E                     _change_password:	
  5120                           ;psect for function _change_password
  5121                           
  5122                           
  5123                           ;incstack = 0
  5124                           ; Regs used in _change_password: [wreg-fsr0h+status,2+status,0+pclath+btemp1+cstack]
  5125                           ;change_password@key stored from wreg
  5126     011E  00FC               	movwf	change_password@key
  5127     011F                     l3185:
  5128                           
  5129                           ;menu.c: 652: int change_password(unsigned char key);menu.c: 653: {;menu.c: 654:     sta
      +                          tic unsigned char state = 0;;menu.c: 655:     static unsigned char index = 0;;menu.c: 65
      +                          6:     static unsigned char once = 1;;menu.c: 657:     static unsigned long int delay;;m
      +                          enu.c: 659:     static char temp[5];;menu.c: 660:     static char temp2[5];;menu.c: 662:
      +                               switch(state)
  5130     011F  2AD9               	goto	l3291
  5131     0120                     l3187:
  5132                           
  5133                           ;menu.c: 667:             if(once)
  5134     0120  0865               	movf	change_password@once,w
  5135     0121  1903               	btfsc	3,2
  5136     0122  2924               	goto	u3121
  5137     0123  2925               	goto	u3120
  5138     0124                     u3121:
  5139     0124  2952               	goto	l3197
  5140     0125                     u3120:
  5141     0125                     l3189:
  5142                           
  5143                           ;menu.c: 668:             {;menu.c: 669:                 clcd_print("                ", 
      +                          (0x80 + 0));clcd_print("                ", (0xC0 + 0));
  5144     0125  306B               	movlw	low (STR_1| (0+32768))
  5145     0126  00F4               	movwf	clcd_print@str
  5146     0127  3088               	movlw	high (STR_1| (0+32768))
  5147     0128  00F5               	movwf	clcd_print@str+1
  5148     0129  3080               	movlw	128
  5149     012A  00F6               	movwf	clcd_print@addr
  5150     012B  160A  118A  22C8  120A  118A  	fcall	_clcd_print
  5151     0130  306B               	movlw	low (STR_1| (0+32768))
  5152     0131  00F4               	movwf	clcd_print@str
  5153     0132  3088               	movlw	high (STR_1| (0+32768))
  5154     0133  00F5               	movwf	clcd_print@str+1
  5155     0134  30C0               	movlw	192
  5156     0135  00F6               	movwf	clcd_print@addr
  5157     0136  160A  118A  22C8  120A  118A  	fcall	_clcd_print
  5158                           
  5159                           ;menu.c: 671:                 clcd_print("ENTER NEW PASS ", (0x80 + 0));
  5160     013B  305C               	movlw	low (STR_59| (0+32768))
  5161     013C  00F4               	movwf	clcd_print@str
  5162     013D  3089               	movlw	high (STR_59| (0+32768))
  5163     013E  00F5               	movwf	clcd_print@str+1
  5164     013F  3080               	movlw	128
  5165     0140  00F6               	movwf	clcd_print@addr
  5166     0141  160A  118A  22C8  120A  118A  	fcall	_clcd_print
  5167     0146                     l3191:
  5168                           
  5169                           ;menu.c: 672:                 clcd_putch('_', (0xC0 + 0));
  5170     0146  30C0               	movlw	192
  5171     0147  00F8               	movwf	clcd_putch@addr
  5172     0148  305F               	movlw	95
  5173     0149  160A  118A  20F1  120A  118A  	fcall	_clcd_putch
  5174     014E                     l3193:
  5175                           
  5176                           ;menu.c: 674:                 index = 0;
  5177     014E  1283               	bcf	3,5	;RP0=0, select bank0
  5178     014F  1303               	bcf	3,6	;RP1=0, select bank0
  5179     0150  01D3               	clrf	change_password@index
  5180     0151                     l3195:
  5181                           
  5182                           ;menu.c: 675:                 once = 0;
  5183     0151  01E5               	clrf	change_password@once
  5184     0152                     l3197:
  5185                           
  5186                           ;menu.c: 678:             if(key == 0x3E && index < 4)
  5187     0152  303E               	movlw	62
  5188     0153  067C               	xorwf	change_password@key,w
  5189     0154  1D03               	btfss	3,2
  5190     0155  2957               	goto	u3131
  5191     0156  2958               	goto	u3130
  5192     0157                     u3131:
  5193     0157  2970               	goto	l3207
  5194     0158                     u3130:
  5195     0158                     l3199:
  5196     0158  3004               	movlw	4
  5197     0159  0253               	subwf	change_password@index,w
  5198     015A  1803               	skipnc
  5199     015B  295D               	goto	u3141
  5200     015C  295E               	goto	u3140
  5201     015D                     u3141:
  5202     015D  2970               	goto	l3207
  5203     015E                     u3140:
  5204     015E                     l3201:
  5205                           
  5206                           ;menu.c: 679:             {;menu.c: 680:                 temp[index++] = '1';
  5207     015E  0853               	movf	change_password@index,w
  5208     015F  3EBE               	addlw	(low (change_password@temp| 0))& (0+255)
  5209     0160  0084               	movwf	4
  5210     0161  3031               	movlw	49
  5211     0162  1383               	bcf	3,7	;select IRP bank1
  5212     0163  0080               	movwf	0
  5213     0164                     l3203:
  5214     0164  3001               	movlw	1
  5215     0165  07D3               	addwf	change_password@index,f
  5216     0166                     l3205:
  5217                           
  5218                           ;menu.c: 681:                 clcd_putch('*', (0xC0 + index - 1));
  5219     0166  0853               	movf	change_password@index,w
  5220     0167  3EBF               	addlw	191
  5221     0168  00F8               	movwf	clcd_putch@addr
  5222     0169  302A               	movlw	42
  5223     016A  160A  118A  20F1  120A  118A  	fcall	_clcd_putch
  5224                           
  5225                           ;menu.c: 682:             }
  5226     016F  298D               	goto	l3217
  5227     0170                     l3207:
  5228     0170  303D               	movlw	61
  5229     0171  067C               	xorwf	change_password@key,w
  5230     0172  1D03               	btfss	3,2
  5231     0173  2975               	goto	u3151
  5232     0174  2976               	goto	u3150
  5233     0175                     u3151:
  5234     0175  298D               	goto	l3217
  5235     0176                     u3150:
  5236     0176                     l3209:
  5237     0176  3004               	movlw	4
  5238     0177  0253               	subwf	change_password@index,w
  5239     0178  1803               	skipnc
  5240     0179  297B               	goto	u3161
  5241     017A  297C               	goto	u3160
  5242     017B                     u3161:
  5243     017B  298D               	goto	l3217
  5244     017C                     u3160:
  5245     017C                     l3211:
  5246                           
  5247                           ;menu.c: 684:             {;menu.c: 685:                 temp[index++] = '0';
  5248     017C  0853               	movf	change_password@index,w
  5249     017D  3EBE               	addlw	(low (change_password@temp| 0))& (0+255)
  5250     017E  0084               	movwf	4
  5251     017F  3030               	movlw	48
  5252     0180  1383               	bcf	3,7	;select IRP bank1
  5253     0181  0080               	movwf	0
  5254     0182                     l3213:
  5255     0182  3001               	movlw	1
  5256     0183  07D3               	addwf	change_password@index,f
  5257     0184                     l3215:
  5258                           
  5259                           ;menu.c: 686:                 clcd_putch('*', (0xC0 + index - 1));
  5260     0184  0853               	movf	change_password@index,w
  5261     0185  3EBF               	addlw	191
  5262     0186  00F8               	movwf	clcd_putch@addr
  5263     0187  302A               	movlw	42
  5264     0188  160A  118A  20F1  120A  118A  	fcall	_clcd_putch
  5265     018D                     l3217:
  5266                           
  5267                           ;menu.c: 689:             if(index == 4)
  5268     018D  3004               	movlw	4
  5269     018E  1283               	bcf	3,5	;RP0=0, select bank0
  5270     018F  1303               	bcf	3,6	;RP1=0, select bank0
  5271     0190  0653               	xorwf	change_password@index,w
  5272     0191  1D03               	btfss	3,2
  5273     0192  2994               	goto	u3171
  5274     0193  2995               	goto	u3170
  5275     0194                     u3171:
  5276     0194  2AE6               	goto	l3293
  5277     0195                     u3170:
  5278     0195                     l3219:
  5279                           
  5280                           ;menu.c: 690:             {;menu.c: 691:                 temp[4] = '\0';
  5281     0195  1683               	bsf	3,5	;RP0=1, select bank1
  5282     0196  1303               	bcf	3,6	;RP1=0, select bank1
  5283     0197  01C2               	clrf	(change_password@temp^(0+128)+4)
  5284     0198                     l3221:
  5285                           
  5286                           ;menu.c: 693:                 state = 1;
  5287     0198  3001               	movlw	1
  5288     0199  1283               	bcf	3,5	;RP0=0, select bank0
  5289     019A  1303               	bcf	3,6	;RP1=0, select bank0
  5290     019B  00D4               	movwf	change_password@state
  5291                           
  5292                           ;menu.c: 694:                 index = 0;
  5293     019C  01D3               	clrf	change_password@index
  5294     019D                     l3223:
  5295                           
  5296                           ;menu.c: 695:                 once = 1;
  5297     019D  3001               	movlw	1
  5298     019E  00E5               	movwf	change_password@once
  5299     019F  2AE6               	goto	l3293
  5300     01A0                     l3225:
  5301                           
  5302                           ;menu.c: 703:             if(once)
  5303     01A0  0865               	movf	change_password@once,w
  5304     01A1  1903               	btfsc	3,2
  5305     01A2  29A4               	goto	u3181
  5306     01A3  29A5               	goto	u3180
  5307     01A4                     u3181:
  5308     01A4  29D1               	goto	l3233
  5309     01A5                     u3180:
  5310     01A5                     l3227:
  5311                           
  5312                           ;menu.c: 704:             {;menu.c: 705:                 clcd_print("                ", 
      +                          (0x80 + 0));clcd_print("                ", (0xC0 + 0));
  5313     01A5  306B               	movlw	low (STR_1| (0+32768))
  5314     01A6  00F4               	movwf	clcd_print@str
  5315     01A7  3088               	movlw	high (STR_1| (0+32768))
  5316     01A8  00F5               	movwf	clcd_print@str+1
  5317     01A9  3080               	movlw	128
  5318     01AA  00F6               	movwf	clcd_print@addr
  5319     01AB  160A  118A  22C8  120A  118A  	fcall	_clcd_print
  5320     01B0  306B               	movlw	low (STR_1| (0+32768))
  5321     01B1  00F4               	movwf	clcd_print@str
  5322     01B2  3088               	movlw	high (STR_1| (0+32768))
  5323     01B3  00F5               	movwf	clcd_print@str+1
  5324     01B4  30C0               	movlw	192
  5325     01B5  00F6               	movwf	clcd_print@addr
  5326     01B6  160A  118A  22C8  120A  118A  	fcall	_clcd_print
  5327                           
  5328                           ;menu.c: 707:                 clcd_print("RE-ENTER PASS  ", (0x80 + 0));
  5329     01BB  301C               	movlw	low (STR_62| (0+32768))
  5330     01BC  00F4               	movwf	clcd_print@str
  5331     01BD  3089               	movlw	high (STR_62| (0+32768))
  5332     01BE  00F5               	movwf	clcd_print@str+1
  5333     01BF  3080               	movlw	128
  5334     01C0  00F6               	movwf	clcd_print@addr
  5335     01C1  160A  118A  22C8  120A  118A  	fcall	_clcd_print
  5336     01C6                     l3229:
  5337                           
  5338                           ;menu.c: 708:                 clcd_putch('_', (0xC0 + 0));
  5339     01C6  30C0               	movlw	192
  5340     01C7  00F8               	movwf	clcd_putch@addr
  5341     01C8  305F               	movlw	95
  5342     01C9  160A  118A  20F1  120A  118A  	fcall	_clcd_putch
  5343     01CE                     l3231:
  5344                           
  5345                           ;menu.c: 710:                 once = 0;
  5346     01CE  1283               	bcf	3,5	;RP0=0, select bank0
  5347     01CF  1303               	bcf	3,6	;RP1=0, select bank0
  5348     01D0  01E5               	clrf	change_password@once
  5349     01D1                     l3233:
  5350                           
  5351                           ;menu.c: 713:             if(key == 0x3E && index < 4)
  5352     01D1  303E               	movlw	62
  5353     01D2  067C               	xorwf	change_password@key,w
  5354     01D3  1D03               	btfss	3,2
  5355     01D4  29D6               	goto	u3191
  5356     01D5  29D7               	goto	u3190
  5357     01D6                     u3191:
  5358     01D6  29EF               	goto	l3243
  5359     01D7                     u3190:
  5360     01D7                     l3235:
  5361     01D7  3004               	movlw	4
  5362     01D8  0253               	subwf	change_password@index,w
  5363     01D9  1803               	skipnc
  5364     01DA  29DC               	goto	u3201
  5365     01DB  29DD               	goto	u3200
  5366     01DC                     u3201:
  5367     01DC  29EF               	goto	l3243
  5368     01DD                     u3200:
  5369     01DD                     l3237:
  5370                           
  5371                           ;menu.c: 714:             {;menu.c: 715:                 temp2[index++] = '1';
  5372     01DD  0853               	movf	change_password@index,w
  5373     01DE  3EB9               	addlw	(low (change_password@temp2| 0))& (0+255)
  5374     01DF  0084               	movwf	4
  5375     01E0  3031               	movlw	49
  5376     01E1  1383               	bcf	3,7	;select IRP bank1
  5377     01E2  0080               	movwf	0
  5378     01E3                     l3239:
  5379     01E3  3001               	movlw	1
  5380     01E4  07D3               	addwf	change_password@index,f
  5381     01E5                     l3241:
  5382                           
  5383                           ;menu.c: 716:                 clcd_putch('*', (0xC0 + index - 1));
  5384     01E5  0853               	movf	change_password@index,w
  5385     01E6  3EBF               	addlw	191
  5386     01E7  00F8               	movwf	clcd_putch@addr
  5387     01E8  302A               	movlw	42
  5388     01E9  160A  118A  20F1  120A  118A  	fcall	_clcd_putch
  5389                           
  5390                           ;menu.c: 717:             }
  5391     01EE  2A0C               	goto	l3253
  5392     01EF                     l3243:
  5393     01EF  303D               	movlw	61
  5394     01F0  067C               	xorwf	change_password@key,w
  5395     01F1  1D03               	btfss	3,2
  5396     01F2  29F4               	goto	u3211
  5397     01F3  29F5               	goto	u3210
  5398     01F4                     u3211:
  5399     01F4  2A0C               	goto	l3253
  5400     01F5                     u3210:
  5401     01F5                     l3245:
  5402     01F5  3004               	movlw	4
  5403     01F6  0253               	subwf	change_password@index,w
  5404     01F7  1803               	skipnc
  5405     01F8  29FA               	goto	u3221
  5406     01F9  29FB               	goto	u3220
  5407     01FA                     u3221:
  5408     01FA  2A0C               	goto	l3253
  5409     01FB                     u3220:
  5410     01FB                     l3247:
  5411                           
  5412                           ;menu.c: 719:             {;menu.c: 720:                 temp2[index++] = '0';
  5413     01FB  0853               	movf	change_password@index,w
  5414     01FC  3EB9               	addlw	(low (change_password@temp2| 0))& (0+255)
  5415     01FD  0084               	movwf	4
  5416     01FE  3030               	movlw	48
  5417     01FF  1383               	bcf	3,7	;select IRP bank1
  5418     0200  0080               	movwf	0
  5419     0201                     l3249:
  5420     0201  3001               	movlw	1
  5421     0202  07D3               	addwf	change_password@index,f
  5422     0203                     l3251:
  5423                           
  5424                           ;menu.c: 721:                 clcd_putch('*', (0xC0 + index - 1));
  5425     0203  0853               	movf	change_password@index,w
  5426     0204  3EBF               	addlw	191
  5427     0205  00F8               	movwf	clcd_putch@addr
  5428     0206  302A               	movlw	42
  5429     0207  160A  118A  20F1  120A  118A  	fcall	_clcd_putch
  5430     020C                     l3253:
  5431                           
  5432                           ;menu.c: 724:             if(index == 4)
  5433     020C  3004               	movlw	4
  5434     020D  1283               	bcf	3,5	;RP0=0, select bank0
  5435     020E  1303               	bcf	3,6	;RP1=0, select bank0
  5436     020F  0653               	xorwf	change_password@index,w
  5437     0210  1D03               	btfss	3,2
  5438     0211  2A13               	goto	u3231
  5439     0212  2A14               	goto	u3230
  5440     0213                     u3231:
  5441     0213  2AE6               	goto	l3293
  5442     0214                     u3230:
  5443     0214                     l3255:
  5444                           
  5445                           ;menu.c: 725:             {;menu.c: 726:                 temp2[4] = '\0';
  5446     0214  1683               	bsf	3,5	;RP0=1, select bank1
  5447     0215  1303               	bcf	3,6	;RP1=0, select bank1
  5448     0216  01BD               	clrf	(change_password@temp2^(0+128)+4)
  5449     0217                     l3257:
  5450                           
  5451                           ;menu.c: 728:                 clcd_print("                ", (0x80 + 0));clcd_print("   
      +                                       ", (0xC0 + 0));
  5452     0217  306B               	movlw	low (STR_1| (0+32768))
  5453     0218  00F4               	movwf	clcd_print@str
  5454     0219  3088               	movlw	high (STR_1| (0+32768))
  5455     021A  00F5               	movwf	clcd_print@str+1
  5456     021B  3080               	movlw	128
  5457     021C  00F6               	movwf	clcd_print@addr
  5458     021D  160A  118A  22C8  120A  118A  	fcall	_clcd_print
  5459     0222                     l3259:
  5460     0222  306B               	movlw	low (STR_1| (0+32768))
  5461     0223  00F4               	movwf	clcd_print@str
  5462     0224  3088               	movlw	high (STR_1| (0+32768))
  5463     0225  00F5               	movwf	clcd_print@str+1
  5464     0226  30C0               	movlw	192
  5465     0227  00F6               	movwf	clcd_print@addr
  5466     0228  160A  118A  22C8  120A  118A  	fcall	_clcd_print
  5467     022D                     l3261:
  5468                           
  5469                           ;menu.c: 730:                 if(strcmp(temp, temp2) == 0)
  5470     022D  30BE               	movlw	(low (change_password@temp| 0))& (0+255)
  5471     022E  00F0               	movwf	strcmp@l
  5472     022F  30B9               	movlw	(low (change_password@temp2| 0))& (0+255)
  5473     0230  00F1               	movwf	strcmp@r
  5474     0231  160A  118A  2222  120A  118A  	fcall	_strcmp
  5475     0236  0870               	movf	?_strcmp,w
  5476     0237  0471               	iorwf	?_strcmp+1,w
  5477     0238  1D03               	btfss	3,2
  5478     0239  2A3B               	goto	u3241
  5479     023A  2A3C               	goto	u3240
  5480     023B                     u3241:
  5481     023B  2A5C               	goto	l3269
  5482     023C                     u3240:
  5483     023C                     l3263:
  5484                           
  5485                           ;menu.c: 731:                 {;menu.c: 732:                     strcpy(password, temp);
  5486     023C  30E5               	movlw	(low (_password| 0))& (0+255)
  5487     023D  00F0               	movwf	strcpy@dest
  5488     023E  30BE               	movlw	(low (change_password@temp| 0))& (0+255)
  5489     023F  00F1               	movwf	strcpy@src
  5490     0240  160A  118A  2126  120A  118A  	fcall	_strcpy
  5491     0245                     l3265:
  5492                           
  5493                           ;menu.c: 734:                     clcd_print("PASSWORD IS    ", (0x80 + 0));
  5494     0245  30DC               	movlw	low (STR_65| (0+32768))
  5495     0246  00F4               	movwf	clcd_print@str
  5496     0247  3088               	movlw	high (STR_65| (0+32768))
  5497     0248  00F5               	movwf	clcd_print@str+1
  5498     0249  3080               	movlw	128
  5499     024A  00F6               	movwf	clcd_print@addr
  5500     024B  160A  118A  22C8  120A  118A  	fcall	_clcd_print
  5501     0250                     l3267:
  5502                           
  5503                           ;menu.c: 735:                     clcd_print("CHANGED        ", (0xC0 + 0));
  5504     0250  309C               	movlw	low (STR_66| (0+32768))
  5505     0251  00F4               	movwf	clcd_print@str
  5506     0252  3088               	movlw	high (STR_66| (0+32768))
  5507     0253  00F5               	movwf	clcd_print@str+1
  5508     0254  30C0               	movlw	192
  5509     0255  00F6               	movwf	clcd_print@addr
  5510     0256  160A  118A  22C8  120A  118A  	fcall	_clcd_print
  5511                           
  5512                           ;menu.c: 736:                 }
  5513     025B  2A72               	goto	l3271
  5514     025C                     l3269:
  5515                           
  5516                           ;menu.c: 738:                 {;menu.c: 739:                     clcd_print("RE-ENTERED 
      +                          PWD ", (0x80 + 0));
  5517     025C  304C               	movlw	low (STR_67| (0+32768))
  5518     025D  00F4               	movwf	clcd_print@str
  5519     025E  3089               	movlw	high (STR_67| (0+32768))
  5520     025F  00F5               	movwf	clcd_print@str+1
  5521     0260  3080               	movlw	128
  5522     0261  00F6               	movwf	clcd_print@addr
  5523     0262  160A  118A  22C8  120A  118A  	fcall	_clcd_print
  5524                           
  5525                           ;menu.c: 740:                     clcd_print("IS WRONG       ", (0xC0 + 0));
  5526     0267  30CC               	movlw	low (STR_68| (0+32768))
  5527     0268  00F4               	movwf	clcd_print@str
  5528     0269  3088               	movlw	high (STR_68| (0+32768))
  5529     026A  00F5               	movwf	clcd_print@str+1
  5530     026B  30C0               	movlw	192
  5531     026C  00F6               	movwf	clcd_print@addr
  5532     026D  160A  118A  22C8  120A  118A  	fcall	_clcd_print
  5533     0272                     l3271:
  5534                           
  5535                           ;menu.c: 743:                 delay = 0;
  5536     0272  3000               	movlw	0
  5537     0273  1683               	bsf	3,5	;RP0=1, select bank1
  5538     0274  1303               	bcf	3,6	;RP1=0, select bank1
  5539     0275  00A3               	movwf	(change_password@delay+3)^(0+128)
  5540     0276  3000               	movlw	0
  5541     0277  00A2               	movwf	(change_password@delay+2)^(0+128)
  5542     0278  3000               	movlw	0
  5543     0279  00A1               	movwf	(change_password@delay+1)^(0+128)
  5544     027A  3000               	movlw	0
  5545     027B  00A0               	movwf	change_password@delay^(0+128)
  5546     027C                     l3273:
  5547                           
  5548                           ;menu.c: 744:                 state = 2;
  5549     027C  3002               	movlw	2
  5550     027D  1283               	bcf	3,5	;RP0=0, select bank0
  5551     027E  1303               	bcf	3,6	;RP1=0, select bank0
  5552     027F  00D4               	movwf	change_password@state
  5553     0280  2AE6               	goto	l3293
  5554     0281                     l3275:
  5555                           
  5556                           ;menu.c: 752:             if(delay++ > 100)
  5557     0281  1683               	bsf	3,5	;RP0=1, select bank1
  5558     0282  1303               	bcf	3,6	;RP1=0, select bank1
  5559     0283  0823               	movf	(change_password@delay+3)^(0+128),w
  5560     0284  1283               	bcf	3,5	;RP0=0, select bank0
  5561     0285  1303               	bcf	3,6	;RP1=0, select bank0
  5562     0286  00A3               	movwf	??_change_password+3
  5563     0287  1683               	bsf	3,5	;RP0=1, select bank1
  5564     0288  1303               	bcf	3,6	;RP1=0, select bank1
  5565     0289  0822               	movf	(change_password@delay+2)^(0+128),w
  5566     028A  1283               	bcf	3,5	;RP0=0, select bank0
  5567     028B  1303               	bcf	3,6	;RP1=0, select bank0
  5568     028C  00A2               	movwf	??_change_password+2
  5569     028D  1683               	bsf	3,5	;RP0=1, select bank1
  5570     028E  1303               	bcf	3,6	;RP1=0, select bank1
  5571     028F  0821               	movf	(change_password@delay+1)^(0+128),w
  5572     0290  1283               	bcf	3,5	;RP0=0, select bank0
  5573     0291  1303               	bcf	3,6	;RP1=0, select bank0
  5574     0292  00A1               	movwf	??_change_password+1
  5575     0293  1683               	bsf	3,5	;RP0=1, select bank1
  5576     0294  1303               	bcf	3,6	;RP1=0, select bank1
  5577     0295  0820               	movf	change_password@delay^(0+128),w
  5578     0296  1283               	bcf	3,5	;RP0=0, select bank0
  5579     0297  1303               	bcf	3,6	;RP1=0, select bank0
  5580     0298  00A0               	movwf	??_change_password
  5581     0299  3001               	movlw	1
  5582     029A  1683               	bsf	3,5	;RP0=1, select bank1
  5583     029B  1303               	bcf	3,6	;RP1=0, select bank1
  5584     029C  07A0               	addwf	change_password@delay^(0+128),f
  5585     029D  3000               	movlw	0
  5586     029E  07A1               	addwf	(change_password@delay+1)^(0+128),f
  5587     029F  1803               	skipnc
  5588     02A0  0AA2               	incf	(change_password@delay+2)^(0+128),f
  5589     02A1  07A2               	addwf	(change_password@delay+2)^(0+128),f
  5590     02A2  1803               	skipnc
  5591     02A3  0AA3               	incf	(change_password@delay+3)^(0+128),f
  5592     02A4  07A3               	addwf	(change_password@delay+3)^(0+128),f
  5593     02A5  1283               	bcf	3,5	;RP0=0, select bank0
  5594     02A6  1303               	bcf	3,6	;RP1=0, select bank0
  5595     02A7  0823               	movf	??_change_password+3,w
  5596     02A8  1D03               	btfss	3,2
  5597     02A9  2AB8               	goto	u3250
  5598     02AA  0822               	movf	??_change_password+2,w
  5599     02AB  1D03               	btfss	3,2
  5600     02AC  2AB8               	goto	u3250
  5601     02AD  0821               	movf	??_change_password+1,w
  5602     02AE  1D03               	btfss	3,2
  5603     02AF  2AB8               	goto	u3250
  5604     02B0  3065               	movlw	101
  5605     02B1  0220               	subwf	??_change_password,w
  5606     02B2  1D03               	skipz
  5607     02B3  2AB4               	goto	u3253
  5608     02B4                     u3253:
  5609     02B4  1C03               	btfss	3,0
  5610     02B5  2AB7               	goto	u3251
  5611     02B6  2AB8               	goto	u3250
  5612     02B7                     u3251:
  5613     02B7  2AE6               	goto	l3293
  5614     02B8                     u3250:
  5615     02B8                     l3277:
  5616                           
  5617                           ;menu.c: 753:             {;menu.c: 754:                 clcd_print("                ", 
      +                          (0x80 + 0));clcd_print("                ", (0xC0 + 0));
  5618     02B8  306B               	movlw	low (STR_1| (0+32768))
  5619     02B9  00F4               	movwf	clcd_print@str
  5620     02BA  3088               	movlw	high (STR_1| (0+32768))
  5621     02BB  00F5               	movwf	clcd_print@str+1
  5622     02BC  3080               	movlw	128
  5623     02BD  00F6               	movwf	clcd_print@addr
  5624     02BE  160A  118A  22C8  120A  118A  	fcall	_clcd_print
  5625     02C3  306B               	movlw	low (STR_1| (0+32768))
  5626     02C4  00F4               	movwf	clcd_print@str
  5627     02C5  3088               	movlw	high (STR_1| (0+32768))
  5628     02C6  00F5               	movwf	clcd_print@str+1
  5629     02C7  30C0               	movlw	192
  5630     02C8  00F6               	movwf	clcd_print@addr
  5631     02C9  160A  118A  22C8  120A  118A  	fcall	_clcd_print
  5632     02CE                     l3279:
  5633                           
  5634                           ;menu.c: 756:                 state = 0;
  5635     02CE  1283               	bcf	3,5	;RP0=0, select bank0
  5636     02CF  1303               	bcf	3,6	;RP1=0, select bank0
  5637     02D0  01D4               	clrf	change_password@state
  5638     02D1                     l3281:
  5639                           
  5640                           ;menu.c: 757:                 once = 1;
  5641     02D1  3001               	movlw	1
  5642     02D2  00E5               	movwf	change_password@once
  5643     02D3                     l3283:
  5644                           
  5645                           ;menu.c: 758:                 index = 0;
  5646     02D3  01D3               	clrf	change_password@index
  5647     02D4                     l3285:
  5648                           
  5649                           ;menu.c: 759:                 return 1;
  5650     02D4  3001               	movlw	1
  5651     02D5  00FA               	movwf	?_change_password
  5652     02D6  3000               	movlw	0
  5653     02D7  00FB               	movwf	?_change_password+1
  5654     02D8  2AE8               	goto	l555
  5655     02D9                     l3291:
  5656     02D9  1283               	bcf	3,5	;RP0=0, select bank0
  5657     02DA  1303               	bcf	3,6	;RP1=0, select bank0
  5658     02DB  0854               	movf	change_password@state,w
  5659                           
  5660                           ; Switch size 1, requested type "simple"
  5661                           ; Number of cases is 3, Range of values is 0 to 2
  5662                           ; switch strategies available:
  5663                           ; Name         Instructions Cycles
  5664                           ; simple_byte           10     6 (average)
  5665                           ; direct_byte           17     8 (fixed)
  5666                           ; jumptable            260     6 (fixed)
  5667                           ;	Chosen strategy is simple_byte
  5668     02DC  3A00               	xorlw	0	; case 0
  5669     02DD  1903               	skipnz
  5670     02DE  2920               	goto	l3187
  5671     02DF  3A01               	xorlw	1	; case 1
  5672     02E0  1903               	skipnz
  5673     02E1  29A0               	goto	l3225
  5674     02E2  3A03               	xorlw	3	; case 2
  5675     02E3  1903               	skipnz
  5676     02E4  2A81               	goto	l3275
  5677     02E5  2AE6               	goto	l3293
  5678     02E6                     l3293:
  5679                           
  5680                           ;menu.c: 764:     return 0;
  5681     02E6  01FA               	clrf	?_change_password
  5682     02E7  01FB               	clrf	?_change_password+1
  5683     02E8                     l555:
  5684     02E8  0008               	return
  5685     02E9                     __end_of_change_password:
  5686                           
  5687                           	psect	text12
  5688     1126                     __ptext12:	
  5689 ;; *************** function _strcpy *****************
  5690 ;; Defined at:
  5691 ;;		line 3 in file "C:\Program Files\Microchip\xc8\v3.10\pic\sources\c99\common\strcpy.c"
  5692 ;; Parameters:    Size  Location     Type
  5693 ;;  dest            1    0[COMMON] PTR unsigned char 
  5694 ;;		 -> password(5), 
  5695 ;;  src             1    1[COMMON] PTR const unsigned char 
  5696 ;;		 -> change_password@temp(5), 
  5697 ;; Auto vars:     Size  Location     Type
  5698 ;;  d               1    3[COMMON] PTR unsigned char 
  5699 ;;		 -> password(5), 
  5700 ;; Return value:  Size  Location     Type
  5701 ;;                  1    0[COMMON] PTR unsigned char 
  5702 ;; Registers used:
  5703 ;;		wreg, fsr0l, fsr0h, status,2, status,0
  5704 ;; Tracked objects:
  5705 ;;		On entry : 0/0
  5706 ;;		On exit  : 0/0
  5707 ;;		Unchanged: 0/0
  5708 ;; Data sizes:     COMMON   BANK0   BANK1   BANK3   BANK2
  5709 ;;      Params:         2       0       0       0       0
  5710 ;;      Locals:         1       0       0       0       0
  5711 ;;      Temps:          1       0       0       0       0
  5712 ;;      Totals:         4       0       0       0       0
  5713 ;;Total ram usage:        4 bytes
  5714 ;; Hardware stack levels used: 1
  5715 ;; This function calls:
  5716 ;;		Nothing
  5717 ;; This function is called by:
  5718 ;;		_change_password
  5719 ;; This function uses a non-reentrant model
  5720 ;;
  5721                           
  5722     1126                     _strcpy:	
  5723                           ;psect for function _strcpy
  5724                           
  5725     1126                     l2645:	
  5726                           ;incstack = 0
  5727                           ; Regs used in _strcpy: [wreg-fsr0h+status,2+status,0]
  5728                           
  5729     1126  0870               	movf	strcpy@dest,w
  5730     1127  00F3               	movwf	strcpy@d
  5731     1128                     l2647:
  5732     1128  0871               	movf	strcpy@src,w
  5733     1129  0AF1               	incf	strcpy@src,f
  5734     112A  0084               	movwf	4
  5735     112B  1383               	bcf	3,7	;select IRP bank0
  5736     112C  0800               	movf	0,w
  5737     112D  00F2               	movwf	??_strcpy
  5738     112E  0873               	movf	strcpy@d,w
  5739     112F  0AF3               	incf	strcpy@d,f
  5740     1130  0084               	movwf	4
  5741     1131  0872               	movf	??_strcpy,w
  5742     1132  0080               	movwf	0
  5743     1133  0800               	movf	0,w
  5744     1134  1D03               	btfss	3,2
  5745     1135  2937               	goto	u2301
  5746     1136  2938               	goto	u2300
  5747     1137                     u2301:
  5748     1137  2928               	goto	l2647
  5749     1138                     u2300:
  5750     1138                     l1111:
  5751     1138  0008               	return
  5752     1139                     __end_of_strcpy:
  5753                           
  5754                           	psect	text13
  5755     02E9                     __ptext13:	
  5756 ;; *************** function _login *****************
  5757 ;; Defined at:
  5758 ;;		line 19 in file "menu.c"
  5759 ;; Parameters:    Size  Location     Type
  5760 ;;  key             1    wreg     unsigned char 
  5761 ;; Auto vars:     Size  Location     Type
  5762 ;;  key             1    0[BANK0 ] unsigned char 
  5763 ;;  i               4    1[BANK0 ] unsigned long 
  5764 ;; Return value:  Size  Location     Type
  5765 ;;                  1    wreg      unsigned char 
  5766 ;; Registers used:
  5767 ;;		wreg, fsr0l, fsr0h, status,2, status,0, pclath, btemp1, cstack
  5768 ;; Tracked objects:
  5769 ;;		On entry : 0/0
  5770 ;;		On exit  : 0/0
  5771 ;;		Unchanged: 0/0
  5772 ;; Data sizes:     COMMON   BANK0   BANK1   BANK3   BANK2
  5773 ;;      Params:         0       0       0       0       0
  5774 ;;      Locals:         0       5       0       0       0
  5775 ;;      Temps:          4       0       0       0       0
  5776 ;;      Totals:         4       5       0       0       0
  5777 ;;Total ram usage:        9 bytes
  5778 ;; Hardware stack levels used: 1
  5779 ;; Hardware stack levels required when called: 2
  5780 ;; This function calls:
  5781 ;;		___awdiv
  5782 ;;		___awmod
  5783 ;;		_clcd_print
  5784 ;;		_clcd_putch
  5785 ;;		_strcmp
  5786 ;; This function is called by:
  5787 ;;		_main
  5788 ;; This function uses a non-reentrant model
  5789 ;;
  5790                           
  5791     02E9                     _login:	
  5792                           ;psect for function _login
  5793                           
  5794                           
  5795                           ;incstack = 0
  5796                           ; Regs used in _login: [wreg-fsr0h+status,2+status,0+pclath+btemp1+cstack]
  5797                           ;login@key stored from wreg
  5798     02E9  1283               	bcf	3,5	;RP0=0, select bank0
  5799     02EA  1303               	bcf	3,6	;RP1=0, select bank0
  5800     02EB  00A0               	movwf	login@key
  5801     02EC                     l3627:
  5802                           
  5803                           ;menu.c: 19: unsigned char login(unsigned char key);menu.c: 20: {;menu.c: 21:     static
      +                           unsigned char once = 1;;menu.c: 22:     static unsigned char index = 0;;menu.c: 23:    
      +                           static unsigned char attempts = 3;;menu.c: 25:     static unsigned char blocked = 0;;me
      +                          nu.c: 26:     static unsigned char sec_left = 30;;menu.c: 28:     static unsigned long i
      +                          nt delay = 0;;menu.c: 30:     static unsigned int blink = 0;;menu.c: 31:     static unsi
      +                          gned char blink_state = 0;;menu.c: 33:     static char entered[5];;menu.c: 36:     if(bl
      +                          ocked)
  5804     02EC  085C               	movf	login@blocked,w
  5805     02ED  1903               	btfsc	3,2
  5806     02EE  2AF0               	goto	u3991
  5807     02EF  2AF1               	goto	u3990
  5808     02F0                     u3991:
  5809     02F0  2B9D               	goto	l3663
  5810     02F1                     u3990:
  5811     02F1                     l3629:
  5812                           
  5813                           ;menu.c: 37:     {;menu.c: 38:         clcd_print("User Blocked    ", (0x80 + 0));
  5814     02F1  3049               	movlw	low (STR_18| (0+32768))
  5815     02F2  00F4               	movwf	clcd_print@str
  5816     02F3  3088               	movlw	high (STR_18| (0+32768))
  5817     02F4  00F5               	movwf	clcd_print@str+1
  5818     02F5  3080               	movlw	128
  5819     02F6  00F6               	movwf	clcd_print@addr
  5820     02F7  160A  118A  22C8  120A  118A  	fcall	_clcd_print
  5821                           
  5822                           ;menu.c: 39:         clcd_print("Sec Left : ", (0xC0 + 0));
  5823     02FC  30B7               	movlw	low (STR_19| (0+32768))
  5824     02FD  00F4               	movwf	clcd_print@str
  5825     02FE  3089               	movlw	high (STR_19| (0+32768))
  5826     02FF  00F5               	movwf	clcd_print@str+1
  5827     0300  30C0               	movlw	192
  5828     0301  00F6               	movwf	clcd_print@addr
  5829     0302  160A  118A  22C8  120A  118A  	fcall	_clcd_print
  5830     0307                     l3631:
  5831                           
  5832                           ;menu.c: 40:         clcd_putch((sec_left / 10) + '0', (0xC0 + 11));
  5833     0307  30CB               	movlw	203
  5834     0308  00F8               	movwf	clcd_putch@addr
  5835     0309  300A               	movlw	10
  5836     030A  00F0               	movwf	___awdiv@divisor
  5837     030B  3000               	movlw	0
  5838     030C  00F1               	movwf	___awdiv@divisor+1
  5839     030D  1283               	bcf	3,5	;RP0=0, select bank0
  5840     030E  1303               	bcf	3,6	;RP1=0, select bank0
  5841     030F  086A               	movf	login@sec_left,w
  5842     0310  00FA               	movwf	??_login
  5843     0311  01FB               	clrf	??_login+1
  5844     0312  087A               	movf	??_login,w
  5845     0313  00F2               	movwf	___awdiv@dividend
  5846     0314  087B               	movf	??_login+1,w
  5847     0315  00F3               	movwf	___awdiv@dividend+1
  5848     0316  160A  118A  2568  120A  118A  	fcall	___awdiv
  5849     031B  0870               	movf	?___awdiv,w
  5850     031C  3E30               	addlw	48
  5851     031D  160A  118A  20F1  120A  118A  	fcall	_clcd_putch
  5852     0322                     l3633:
  5853                           
  5854                           ;menu.c: 41:         clcd_putch((sec_left % 10) + '0', (0xC0 + 12));
  5855     0322  30CC               	movlw	204
  5856     0323  00F8               	movwf	clcd_putch@addr
  5857     0324  300A               	movlw	10
  5858     0325  00F0               	movwf	___awmod@divisor
  5859     0326  3000               	movlw	0
  5860     0327  00F1               	movwf	___awmod@divisor+1
  5861     0328  1283               	bcf	3,5	;RP0=0, select bank0
  5862     0329  1303               	bcf	3,6	;RP1=0, select bank0
  5863     032A  086A               	movf	login@sec_left,w
  5864     032B  00FA               	movwf	??_login
  5865     032C  01FB               	clrf	??_login+1
  5866     032D  087A               	movf	??_login,w
  5867     032E  00F2               	movwf	___awmod@dividend
  5868     032F  087B               	movf	??_login+1,w
  5869     0330  00F3               	movwf	___awmod@dividend+1
  5870     0331  160A  118A  24AE  120A  118A  	fcall	___awmod
  5871     0336  0870               	movf	?___awmod,w
  5872     0337  3E30               	addlw	48
  5873     0338  160A  118A  20F1  120A  118A  	fcall	_clcd_putch
  5874     033D                     l3635:
  5875                           
  5876                           ;menu.c: 44:         if(delay++ >= 5)
  5877     033D  1683               	bsf	3,5	;RP0=1, select bank1
  5878     033E  1303               	bcf	3,6	;RP1=0, select bank1
  5879     033F  0827               	movf	(login@delay+3)^(0+128),w
  5880     0340  00FD               	movwf	??_login+3
  5881     0341  0826               	movf	(login@delay+2)^(0+128),w
  5882     0342  00FC               	movwf	??_login+2
  5883     0343  0825               	movf	(login@delay+1)^(0+128),w
  5884     0344  00FB               	movwf	??_login+1
  5885     0345  0824               	movf	login@delay^(0+128),w
  5886     0346  00FA               	movwf	??_login
  5887     0347  3001               	movlw	1
  5888     0348  07A4               	addwf	login@delay^(0+128),f
  5889     0349  3000               	movlw	0
  5890     034A  07A5               	addwf	(login@delay+1)^(0+128),f
  5891     034B  1803               	skipnc
  5892     034C  0AA6               	incf	(login@delay+2)^(0+128),f
  5893     034D  07A6               	addwf	(login@delay+2)^(0+128),f
  5894     034E  1803               	skipnc
  5895     034F  0AA7               	incf	(login@delay+3)^(0+128),f
  5896     0350  07A7               	addwf	(login@delay+3)^(0+128),f
  5897     0351  087D               	movf	??_login+3,w
  5898     0352  1D03               	btfss	3,2
  5899     0353  2B62               	goto	u4000
  5900     0354  087C               	movf	??_login+2,w
  5901     0355  1D03               	btfss	3,2
  5902     0356  2B62               	goto	u4000
  5903     0357  087B               	movf	??_login+1,w
  5904     0358  1D03               	btfss	3,2
  5905     0359  2B62               	goto	u4000
  5906     035A  3005               	movlw	5
  5907     035B  027A               	subwf	??_login,w
  5908     035C  1D03               	skipz
  5909     035D  2B5E               	goto	u4003
  5910     035E                     u4003:
  5911     035E  1C03               	btfss	3,0
  5912     035F  2B61               	goto	u4001
  5913     0360  2B62               	goto	u4000
  5914     0361                     u4001:
  5915     0361  2B9B               	goto	l3659
  5916     0362                     u4000:
  5917     0362                     l3637:
  5918                           
  5919                           ;menu.c: 45:         {;menu.c: 46:             delay = 0;
  5920     0362  3000               	movlw	0
  5921     0363  1683               	bsf	3,5	;RP0=1, select bank1
  5922     0364  1303               	bcf	3,6	;RP1=0, select bank1
  5923     0365  00A7               	movwf	(login@delay+3)^(0+128)
  5924     0366  3000               	movlw	0
  5925     0367  00A6               	movwf	(login@delay+2)^(0+128)
  5926     0368  3000               	movlw	0
  5927     0369  00A5               	movwf	(login@delay+1)^(0+128)
  5928     036A  3000               	movlw	0
  5929     036B  00A4               	movwf	login@delay^(0+128)
  5930     036C                     l3639:
  5931                           
  5932                           ;menu.c: 47:             if(sec_left > 0)
  5933     036C  1283               	bcf	3,5	;RP0=0, select bank0
  5934     036D  1303               	bcf	3,6	;RP1=0, select bank0
  5935     036E  086A               	movf	login@sec_left,w
  5936     036F  1903               	btfsc	3,2
  5937     0370  2B72               	goto	u4011
  5938     0371  2B73               	goto	u4010
  5939     0372                     u4011:
  5940     0372  2B75               	goto	l378
  5941     0373                     u4010:
  5942     0373                     l3641:
  5943                           
  5944                           ;menu.c: 48:             {;menu.c: 49:                 sec_left--;
  5945     0373  3001               	movlw	1
  5946     0374  02EA               	subwf	login@sec_left,f
  5947     0375                     l378:	
  5948                           ;menu.c: 50:             }
  5949                           
  5950                           
  5951                           ;menu.c: 52:             if(sec_left == 0)
  5952     0375  086A               	movf	login@sec_left,w
  5953     0376  1D03               	btfss	3,2
  5954     0377  2B79               	goto	u4021
  5955     0378  2B7A               	goto	u4020
  5956     0379                     u4021:
  5957     0379  2B9B               	goto	l3659
  5958     037A                     u4020:
  5959     037A                     l3643:
  5960                           
  5961                           ;menu.c: 53:             {;menu.c: 54:                 blocked = 0;
  5962     037A  01DC               	clrf	login@blocked
  5963     037B                     l3645:
  5964                           
  5965                           ;menu.c: 55:                 sec_left = 30;
  5966     037B  301E               	movlw	30
  5967     037C  00EA               	movwf	login@sec_left
  5968     037D                     l3647:
  5969                           
  5970                           ;menu.c: 56:                 attempts = 3;
  5971     037D  3003               	movlw	3
  5972     037E  00EB               	movwf	login@attempts
  5973     037F                     l3649:
  5974                           
  5975                           ;menu.c: 57:                 once = 1;
  5976     037F  3001               	movlw	1
  5977     0380  00EC               	movwf	login@once
  5978                           
  5979                           ;menu.c: 58:                 index = 0;
  5980     0381  01DD               	clrf	login@index
  5981                           
  5982                           ;menu.c: 59:                 operation = 0;
  5983     0382  01E0               	clrf	_operation
  5984     0383                     l3651:
  5985                           
  5986                           ;menu.c: 61:                 clcd_print("                ", (0x80 + 0));
  5987     0383  306B               	movlw	low (STR_1| (0+32768))
  5988     0384  00F4               	movwf	clcd_print@str
  5989     0385  3088               	movlw	high (STR_1| (0+32768))
  5990     0386  00F5               	movwf	clcd_print@str+1
  5991     0387  3080               	movlw	128
  5992     0388  00F6               	movwf	clcd_print@addr
  5993     0389  160A  118A  22C8  120A  118A  	fcall	_clcd_print
  5994     038E                     l3653:
  5995                           
  5996                           ;menu.c: 62:                 clcd_print("                ", (0xC0 + 0));
  5997     038E  306B               	movlw	low (STR_1| (0+32768))
  5998     038F  00F4               	movwf	clcd_print@str
  5999     0390  3088               	movlw	high (STR_1| (0+32768))
  6000     0391  00F5               	movwf	clcd_print@str+1
  6001     0392  30C0               	movlw	192
  6002     0393  00F6               	movwf	clcd_print@addr
  6003     0394  160A  118A  22C8  120A  118A  	fcall	_clcd_print
  6004     0399                     l3655:
  6005                           
  6006                           ;menu.c: 63:                 return 2;
  6007     0399  3002               	movlw	2
  6008     039A  2D25               	goto	l380
  6009     039B                     l3659:
  6010                           
  6011                           ;menu.c: 67:         return 0;
  6012     039B  3000               	movlw	0
  6013     039C  2D25               	goto	l380
  6014     039D                     l3663:
  6015                           
  6016                           ;menu.c: 71:     if(once)
  6017     039D  086C               	movf	login@once,w
  6018     039E  1903               	btfsc	3,2
  6019     039F  2BA1               	goto	u4031
  6020     03A0  2BA2               	goto	u4030
  6021     03A1                     u4031:
  6022     03A1  2BCD               	goto	l3677
  6023     03A2                     u4030:
  6024     03A2                     l3665:
  6025                           
  6026                           ;menu.c: 72:     {;menu.c: 73:         clcd_print("Enter Password ", (0x80 + 0));
  6027     03A2  307C               	movlw	low (STR_22| (0+32768))
  6028     03A3  00F4               	movwf	clcd_print@str
  6029     03A4  3089               	movlw	high (STR_22| (0+32768))
  6030     03A5  00F5               	movwf	clcd_print@str+1
  6031     03A6  3080               	movlw	128
  6032     03A7  00F6               	movwf	clcd_print@addr
  6033     03A8  160A  118A  22C8  120A  118A  	fcall	_clcd_print
  6034                           
  6035                           ;menu.c: 74:         clcd_print("                ", (0xC0 + 0));
  6036     03AD  306B               	movlw	low (STR_1| (0+32768))
  6037     03AE  00F4               	movwf	clcd_print@str
  6038     03AF  3088               	movlw	high (STR_1| (0+32768))
  6039     03B0  00F5               	movwf	clcd_print@str+1
  6040     03B1  30C0               	movlw	192
  6041     03B2  00F6               	movwf	clcd_print@addr
  6042     03B3  160A  118A  22C8  120A  118A  	fcall	_clcd_print
  6043     03B8                     l3667:
  6044                           
  6045                           ;menu.c: 76:         index = 0;
  6046     03B8  1283               	bcf	3,5	;RP0=0, select bank0
  6047     03B9  1303               	bcf	3,6	;RP1=0, select bank0
  6048     03BA  01DD               	clrf	login@index
  6049     03BB                     l3669:
  6050                           
  6051                           ;menu.c: 77:         blink = 0;
  6052     03BB  1683               	bsf	3,5	;RP0=1, select bank1
  6053     03BC  1303               	bcf	3,6	;RP1=0, select bank1
  6054     03BD  01AC               	clrf	login@blink^(0+128)
  6055     03BE  01AD               	clrf	(login@blink+1)^(0+128)
  6056     03BF                     l3671:
  6057                           
  6058                           ;menu.c: 78:         blink_state = 0;
  6059     03BF  1283               	bcf	3,5	;RP0=0, select bank0
  6060     03C0  1303               	bcf	3,6	;RP1=0, select bank0
  6061     03C1  01DB               	clrf	login@blink_state
  6062     03C2                     l3673:
  6063                           
  6064                           ;menu.c: 80:         clcd_putch('_', (0xC0 + 0));
  6065     03C2  30C0               	movlw	192
  6066     03C3  00F8               	movwf	clcd_putch@addr
  6067     03C4  305F               	movlw	95
  6068     03C5  160A  118A  20F1  120A  118A  	fcall	_clcd_putch
  6069     03CA                     l3675:
  6070                           
  6071                           ;menu.c: 82:         once = 0;
  6072     03CA  1283               	bcf	3,5	;RP0=0, select bank0
  6073     03CB  1303               	bcf	3,6	;RP1=0, select bank0
  6074     03CC  01EC               	clrf	login@once
  6075     03CD                     l3677:
  6076                           
  6077                           ;menu.c: 86:     if(index < 4)
  6078     03CD  3004               	movlw	4
  6079     03CE  025D               	subwf	login@index,w
  6080     03CF  1803               	skipnc
  6081     03D0  2BD2               	goto	u4041
  6082     03D1  2BD3               	goto	u4040
  6083     03D2                     u4041:
  6084     03D2  2C0A               	goto	l3691
  6085     03D3                     u4040:
  6086     03D3                     l3679:
  6087                           
  6088                           ;menu.c: 87:     {;menu.c: 88:         if(++blink >= 200)
  6089     03D3  3001               	movlw	1
  6090     03D4  1683               	bsf	3,5	;RP0=1, select bank1
  6091     03D5  1303               	bcf	3,6	;RP1=0, select bank1
  6092     03D6  07AC               	addwf	login@blink^(0+128),f
  6093     03D7  1803               	skipnc
  6094     03D8  0AAD               	incf	(login@blink+1)^(0+128),f
  6095     03D9  3000               	movlw	0
  6096     03DA  07AD               	addwf	(login@blink+1)^(0+128),f
  6097     03DB  3000               	movlw	0
  6098     03DC  022D               	subwf	(login@blink+1)^(0+128),w
  6099     03DD  30C8               	movlw	200
  6100     03DE  1903               	skipnz
  6101     03DF  022C               	subwf	login@blink^(0+128),w
  6102     03E0  1C03               	skipc
  6103     03E1  2BE3               	goto	u4051
  6104     03E2  2BE4               	goto	u4050
  6105     03E3                     u4051:
  6106     03E3  2C0A               	goto	l3691
  6107     03E4                     u4050:
  6108     03E4                     l3681:
  6109                           
  6110                           ;menu.c: 89:         {;menu.c: 90:             blink = 0;
  6111     03E4  01AC               	clrf	login@blink^(0+128)
  6112     03E5  01AD               	clrf	(login@blink+1)^(0+128)
  6113     03E6                     l3683:
  6114                           
  6115                           ;menu.c: 91:             if(blink_state)
  6116     03E6  1283               	bcf	3,5	;RP0=0, select bank0
  6117     03E7  1303               	bcf	3,6	;RP1=0, select bank0
  6118     03E8  085B               	movf	login@blink_state,w
  6119     03E9  1903               	btfsc	3,2
  6120     03EA  2BEC               	goto	u4061
  6121     03EB  2BED               	goto	u4060
  6122     03EC                     u4061:
  6123     03EC  2BF7               	goto	l3687
  6124     03ED                     u4060:
  6125     03ED                     l3685:
  6126                           
  6127                           ;menu.c: 92:                 clcd_putch('_', (0xC0 + index));
  6128     03ED  085D               	movf	login@index,w
  6129     03EE  3EC0               	addlw	192
  6130     03EF  00F8               	movwf	clcd_putch@addr
  6131     03F0  305F               	movlw	95
  6132     03F1  160A  118A  20F1  120A  118A  	fcall	_clcd_putch
  6133     03F6  2C00               	goto	l3689
  6134     03F7                     l3687:
  6135                           
  6136                           ;menu.c: 94:                 clcd_putch(' ', (0xC0 + index));
  6137     03F7  085D               	movf	login@index,w
  6138     03F8  3EC0               	addlw	192
  6139     03F9  00F8               	movwf	clcd_putch@addr
  6140     03FA  3020               	movlw	32
  6141     03FB  160A  118A  20F1  120A  118A  	fcall	_clcd_putch
  6142     0400                     l3689:
  6143                           
  6144                           ;menu.c: 95:             blink_state = !blink_state;
  6145     0400  1283               	bcf	3,5	;RP0=0, select bank0
  6146     0401  1303               	bcf	3,6	;RP1=0, select bank0
  6147     0402  085B               	movf	login@blink_state,w
  6148     0403  1903               	btfsc	3,2
  6149     0404  2C06               	goto	u4071
  6150     0405  2C08               	goto	u4070
  6151     0406                     u4071:
  6152     0406  3001               	movlw	1
  6153     0407  2C09               	goto	u4080
  6154     0408                     u4070:
  6155     0408  3000               	movlw	0
  6156     0409                     u4080:
  6157     0409  00DB               	movwf	login@blink_state
  6158     040A                     l3691:
  6159                           
  6160                           ;menu.c: 100:     if(key == 0x3E && index < 4)
  6161     040A  303E               	movlw	62
  6162     040B  1283               	bcf	3,5	;RP0=0, select bank0
  6163     040C  0620               	xorwf	login@key,w
  6164     040D  1D03               	btfss	3,2
  6165     040E  2C10               	goto	u4091
  6166     040F  2C11               	goto	u4090
  6167     0410                     u4091:
  6168     0410  2C3A               	goto	l3705
  6169     0411                     u4090:
  6170     0411                     l3693:
  6171     0411  3004               	movlw	4
  6172     0412  025D               	subwf	login@index,w
  6173     0413  1803               	skipnc
  6174     0414  2C16               	goto	u4101
  6175     0415  2C17               	goto	u4100
  6176     0416                     u4101:
  6177     0416  2C3A               	goto	l3705
  6178     0417                     u4100:
  6179     0417                     l3695:
  6180                           
  6181                           ;menu.c: 101:     {;menu.c: 102:         entered[index] = '1';
  6182     0417  085D               	movf	login@index,w
  6183     0418  3EC3               	addlw	(low (login@entered| 0))& (0+255)
  6184     0419  0084               	movwf	4
  6185     041A  3031               	movlw	49
  6186     041B  1383               	bcf	3,7	;select IRP bank1
  6187     041C  0080               	movwf	0
  6188     041D                     l3697:
  6189                           
  6190                           ;menu.c: 104:         clcd_putch('*', (0xC0 + index));
  6191     041D  085D               	movf	login@index,w
  6192     041E  3EC0               	addlw	192
  6193     041F  00F8               	movwf	clcd_putch@addr
  6194     0420  302A               	movlw	42
  6195     0421  160A  118A  20F1  120A  118A  	fcall	_clcd_putch
  6196     0426                     l3699:
  6197                           
  6198                           ;menu.c: 106:         index++;
  6199     0426  3001               	movlw	1
  6200     0427  1283               	bcf	3,5	;RP0=0, select bank0
  6201     0428  1303               	bcf	3,6	;RP1=0, select bank0
  6202     0429  07DD               	addwf	login@index,f
  6203     042A                     l3701:
  6204                           
  6205                           ;menu.c: 107:         if(index < 4)
  6206     042A  3004               	movlw	4
  6207     042B  025D               	subwf	login@index,w
  6208     042C  1803               	skipnc
  6209     042D  2C2F               	goto	u4111
  6210     042E  2C30               	goto	u4110
  6211     042F                     u4111:
  6212     042F  2C68               	goto	l3719
  6213     0430                     u4110:
  6214     0430                     l3703:
  6215                           
  6216                           ;menu.c: 108:         {;menu.c: 109:             clcd_putch('_', (0xC0 + index));
  6217     0430  085D               	movf	login@index,w
  6218     0431  3EC0               	addlw	192
  6219     0432  00F8               	movwf	clcd_putch@addr
  6220     0433  305F               	movlw	95
  6221     0434  160A  118A  20F1  120A  118A  	fcall	_clcd_putch
  6222     0439  2C68               	goto	l3719
  6223     043A                     l3705:
  6224     043A  303D               	movlw	61
  6225     043B  0620               	xorwf	login@key,w
  6226     043C  1D03               	btfss	3,2
  6227     043D  2C3F               	goto	u4121
  6228     043E  2C40               	goto	u4120
  6229     043F                     u4121:
  6230     043F  2C68               	goto	l3719
  6231     0440                     u4120:
  6232     0440                     l3707:
  6233     0440  3004               	movlw	4
  6234     0441  025D               	subwf	login@index,w
  6235     0442  1803               	skipnc
  6236     0443  2C45               	goto	u4131
  6237     0444  2C46               	goto	u4130
  6238     0445                     u4131:
  6239     0445  2C68               	goto	l3719
  6240     0446                     u4130:
  6241     0446                     l3709:
  6242                           
  6243                           ;menu.c: 115:     {;menu.c: 116:         entered[index] = '0';
  6244     0446  085D               	movf	login@index,w
  6245     0447  3EC3               	addlw	(low (login@entered| 0))& (0+255)
  6246     0448  0084               	movwf	4
  6247     0449  3030               	movlw	48
  6248     044A  1383               	bcf	3,7	;select IRP bank1
  6249     044B  0080               	movwf	0
  6250     044C                     l3711:
  6251                           
  6252                           ;menu.c: 118:         clcd_putch('*', (0xC0 + index));
  6253     044C  085D               	movf	login@index,w
  6254     044D  3EC0               	addlw	192
  6255     044E  00F8               	movwf	clcd_putch@addr
  6256     044F  302A               	movlw	42
  6257     0450  160A  118A  20F1  120A  118A  	fcall	_clcd_putch
  6258     0455                     l3713:
  6259                           
  6260                           ;menu.c: 120:         index++;
  6261     0455  3001               	movlw	1
  6262     0456  1283               	bcf	3,5	;RP0=0, select bank0
  6263     0457  1303               	bcf	3,6	;RP1=0, select bank0
  6264     0458  07DD               	addwf	login@index,f
  6265     0459                     l3715:
  6266                           
  6267                           ;menu.c: 121:         if(index < 4)
  6268     0459  3004               	movlw	4
  6269     045A  025D               	subwf	login@index,w
  6270     045B  1803               	skipnc
  6271     045C  2C5E               	goto	u4141
  6272     045D  2C5F               	goto	u4140
  6273     045E                     u4141:
  6274     045E  2C68               	goto	l3719
  6275     045F                     u4140:
  6276     045F                     l3717:
  6277                           
  6278                           ;menu.c: 122:         {;menu.c: 123:             clcd_putch('_', (0xC0 + index));
  6279     045F  085D               	movf	login@index,w
  6280     0460  3EC0               	addlw	192
  6281     0461  00F8               	movwf	clcd_putch@addr
  6282     0462  305F               	movlw	95
  6283     0463  160A  118A  20F1  120A  118A  	fcall	_clcd_putch
  6284     0468                     l3719:
  6285                           
  6286                           ;menu.c: 128:     if(index == 4)
  6287     0468  3004               	movlw	4
  6288     0469  1283               	bcf	3,5	;RP0=0, select bank0
  6289     046A  1303               	bcf	3,6	;RP1=0, select bank0
  6290     046B  065D               	xorwf	login@index,w
  6291     046C  1D03               	btfss	3,2
  6292     046D  2C6F               	goto	u4151
  6293     046E  2C70               	goto	u4150
  6294     046F                     u4151:
  6295     046F  2B9B               	goto	l3659
  6296     0470                     u4150:
  6297     0470                     l3721:
  6298                           
  6299                           ;menu.c: 129:     {;menu.c: 130:         entered[4] = '\0';
  6300     0470  1683               	bsf	3,5	;RP0=1, select bank1
  6301     0471  1303               	bcf	3,6	;RP1=0, select bank1
  6302     0472  01C7               	clrf	(login@entered^(0+128)+4)
  6303     0473                     l3723:
  6304                           
  6305                           ;menu.c: 131:         if(strcmp(entered, password) == 0)
  6306     0473  30C3               	movlw	(low (login@entered| 0))& (0+255)
  6307     0474  00F0               	movwf	strcmp@l
  6308     0475  30E5               	movlw	(low (_password| 0))& (0+255)
  6309     0476  00F1               	movwf	strcmp@r
  6310     0477  160A  118A  2222  120A  118A  	fcall	_strcmp
  6311     047C  0870               	movf	?_strcmp,w
  6312     047D  0471               	iorwf	?_strcmp+1,w
  6313     047E  1D03               	btfss	3,2
  6314     047F  2C81               	goto	u4161
  6315     0480  2C82               	goto	u4160
  6316     0481                     u4161:
  6317     0481  2CA3               	goto	l3739
  6318     0482                     u4160:
  6319     0482                     l3725:
  6320                           
  6321                           ;menu.c: 132:         {;menu.c: 133:             attempts = 3;
  6322     0482  3003               	movlw	3
  6323     0483  1283               	bcf	3,5	;RP0=0, select bank0
  6324     0484  1303               	bcf	3,6	;RP1=0, select bank0
  6325     0485  00EB               	movwf	login@attempts
  6326     0486                     l3727:
  6327                           
  6328                           ;menu.c: 135:             clcd_print("                ", (0x80 + 0));
  6329     0486  306B               	movlw	low (STR_1| (0+32768))
  6330     0487  00F4               	movwf	clcd_print@str
  6331     0488  3088               	movlw	high (STR_1| (0+32768))
  6332     0489  00F5               	movwf	clcd_print@str+1
  6333     048A  3080               	movlw	128
  6334     048B  00F6               	movwf	clcd_print@addr
  6335     048C  160A  118A  22C8  120A  118A  	fcall	_clcd_print
  6336                           
  6337                           ;menu.c: 136:             clcd_print("                ", (0xC0 + 0));
  6338     0491  306B               	movlw	low (STR_1| (0+32768))
  6339     0492  00F4               	movwf	clcd_print@str
  6340     0493  3088               	movlw	high (STR_1| (0+32768))
  6341     0494  00F5               	movwf	clcd_print@str+1
  6342     0495  30C0               	movlw	192
  6343     0496  00F6               	movwf	clcd_print@addr
  6344     0497  160A  118A  22C8  120A  118A  	fcall	_clcd_print
  6345     049C                     l3729:
  6346                           
  6347                           ;menu.c: 138:             once = 1;
  6348     049C  3001               	movlw	1
  6349     049D  1283               	bcf	3,5	;RP0=0, select bank0
  6350     049E  1303               	bcf	3,6	;RP1=0, select bank0
  6351     049F  00EC               	movwf	login@once
  6352     04A0                     l3731:
  6353                           
  6354                           ;menu.c: 139:             index = 0;
  6355     04A0  01DD               	clrf	login@index
  6356     04A1                     l3733:
  6357                           
  6358                           ;menu.c: 140:             return 1;
  6359     04A1  3001               	movlw	1
  6360     04A2  2D25               	goto	l380
  6361     04A3                     l3739:
  6362                           
  6363                           ;menu.c: 143:         {;menu.c: 145:             attempts--;
  6364     04A3  3001               	movlw	1
  6365     04A4  1283               	bcf	3,5	;RP0=0, select bank0
  6366     04A5  1303               	bcf	3,6	;RP1=0, select bank0
  6367     04A6  02EB               	subwf	login@attempts,f
  6368     04A7                     l3741:
  6369                           
  6370                           ;menu.c: 147:             clcd_print("Wrong Password ", (0x80 + 0));
  6371     04A7  306C               	movlw	low (STR_26| (0+32768))
  6372     04A8  00F4               	movwf	clcd_print@str
  6373     04A9  3089               	movlw	high (STR_26| (0+32768))
  6374     04AA  00F5               	movwf	clcd_print@str+1
  6375     04AB  3080               	movlw	128
  6376     04AC  00F6               	movwf	clcd_print@addr
  6377     04AD  160A  118A  22C8  120A  118A  	fcall	_clcd_print
  6378     04B2                     l3743:
  6379                           
  6380                           ;menu.c: 148:             clcd_print("Attempt Left:  ", (0xC0 + 0));
  6381     04B2  30FC               	movlw	low (STR_27| (0+32768))
  6382     04B3  00F4               	movwf	clcd_print@str
  6383     04B4  3088               	movlw	high (STR_27| (0+32768))
  6384     04B5  00F5               	movwf	clcd_print@str+1
  6385     04B6  30C0               	movlw	192
  6386     04B7  00F6               	movwf	clcd_print@addr
  6387     04B8  160A  118A  22C8  120A  118A  	fcall	_clcd_print
  6388     04BD                     l3745:
  6389                           
  6390                           ;menu.c: 149:             clcd_putch(attempts + '0', (0xC0 + 14));
  6391     04BD  30CE               	movlw	206
  6392     04BE  00F8               	movwf	clcd_putch@addr
  6393     04BF  1283               	bcf	3,5	;RP0=0, select bank0
  6394     04C0  1303               	bcf	3,6	;RP1=0, select bank0
  6395     04C1  086B               	movf	login@attempts,w
  6396     04C2  3E30               	addlw	48
  6397     04C3  160A  118A  20F1  120A  118A  	fcall	_clcd_putch
  6398     04C8                     l3747:
  6399                           
  6400                           ;menu.c: 151:             for(unsigned long int i = 0; i < 100000; i++);
  6401     04C8  3000               	movlw	0
  6402     04C9  1283               	bcf	3,5	;RP0=0, select bank0
  6403     04CA  1303               	bcf	3,6	;RP1=0, select bank0
  6404     04CB  00A4               	movwf	login@i+3
  6405     04CC  3000               	movlw	0
  6406     04CD  00A3               	movwf	login@i+2
  6407     04CE  3000               	movlw	0
  6408     04CF  00A2               	movwf	login@i+1
  6409     04D0  3000               	movlw	0
  6410     04D1  00A1               	movwf	login@i
  6411     04D2                     l3753:
  6412     04D2  3001               	movlw	1
  6413     04D3  1283               	bcf	3,5	;RP0=0, select bank0
  6414     04D4  1303               	bcf	3,6	;RP1=0, select bank0
  6415     04D5  07A1               	addwf	login@i,f
  6416     04D6  3000               	movlw	0
  6417     04D7  1803               	skipnc
  6418     04D8  3001               	movlw	1
  6419     04D9  07A2               	addwf	login@i+1,f
  6420     04DA  3000               	movlw	0
  6421     04DB  1803               	skipnc
  6422     04DC  3001               	movlw	1
  6423     04DD  07A3               	addwf	login@i+2,f
  6424     04DE  3000               	movlw	0
  6425     04DF  1803               	skipnc
  6426     04E0  3001               	movlw	1
  6427     04E1  07A4               	addwf	login@i+3,f
  6428     04E2                     l3755:
  6429     04E2  0824               	movf	login@i+3,w
  6430     04E3  1D03               	btfss	3,2
  6431     04E4  2CF5               	goto	u4170
  6432     04E5  3001               	movlw	1
  6433     04E6  0223               	subwf	login@i+2,w
  6434     04E7  1D03               	skipz
  6435     04E8  2CF1               	goto	u4173
  6436     04E9  3086               	movlw	134
  6437     04EA  0222               	subwf	login@i+1,w
  6438     04EB  1D03               	skipz
  6439     04EC  2CF1               	goto	u4173
  6440     04ED  30A0               	movlw	160
  6441     04EE  0221               	subwf	login@i,w
  6442     04EF  1D03               	skipz
  6443     04F0  2CF1               	goto	u4173
  6444     04F1                     u4173:
  6445     04F1  1C03               	btfss	3,0
  6446     04F2  2CF4               	goto	u4171
  6447     04F3  2CF5               	goto	u4170
  6448     04F4                     u4171:
  6449     04F4  2CD2               	goto	l3753
  6450     04F5                     u4170:
  6451     04F5                     l3757:
  6452                           
  6453                           ;menu.c: 153:             clcd_print("                ", (0x80 + 0));
  6454     04F5  306B               	movlw	low (STR_1| (0+32768))
  6455     04F6  00F4               	movwf	clcd_print@str
  6456     04F7  3088               	movlw	high (STR_1| (0+32768))
  6457     04F8  00F5               	movwf	clcd_print@str+1
  6458     04F9  3080               	movlw	128
  6459     04FA  00F6               	movwf	clcd_print@addr
  6460     04FB  160A  118A  22C8  120A  118A  	fcall	_clcd_print
  6461                           
  6462                           ;menu.c: 154:             clcd_print("                ", (0xC0 + 0));
  6463     0500  306B               	movlw	low (STR_1| (0+32768))
  6464     0501  00F4               	movwf	clcd_print@str
  6465     0502  3088               	movlw	high (STR_1| (0+32768))
  6466     0503  00F5               	movwf	clcd_print@str+1
  6467     0504  30C0               	movlw	192
  6468     0505  00F6               	movwf	clcd_print@addr
  6469     0506  160A  118A  22C8  120A  118A  	fcall	_clcd_print
  6470     050B                     l3759:
  6471                           
  6472                           ;menu.c: 156:             if(attempts == 0)
  6473     050B  1283               	bcf	3,5	;RP0=0, select bank0
  6474     050C  1303               	bcf	3,6	;RP1=0, select bank0
  6475     050D  086B               	movf	login@attempts,w
  6476     050E  1D03               	btfss	3,2
  6477     050F  2D11               	goto	u4181
  6478     0510  2D12               	goto	u4180
  6479     0511                     u4181:
  6480     0511  2D20               	goto	l3765
  6481     0512                     u4180:
  6482     0512                     l3761:
  6483                           
  6484                           ;menu.c: 157:             {;menu.c: 158:                 blocked = 1;
  6485     0512  3001               	movlw	1
  6486     0513  00DC               	movwf	login@blocked
  6487                           
  6488                           ;menu.c: 159:                 sec_left = 30;
  6489     0514  301E               	movlw	30
  6490     0515  00EA               	movwf	login@sec_left
  6491     0516                     l3763:
  6492                           
  6493                           ;menu.c: 160:                 delay = 0;
  6494     0516  3000               	movlw	0
  6495     0517  1683               	bsf	3,5	;RP0=1, select bank1
  6496     0518  1303               	bcf	3,6	;RP1=0, select bank1
  6497     0519  00A7               	movwf	(login@delay+3)^(0+128)
  6498     051A  3000               	movlw	0
  6499     051B  00A6               	movwf	(login@delay+2)^(0+128)
  6500     051C  3000               	movlw	0
  6501     051D  00A5               	movwf	(login@delay+1)^(0+128)
  6502     051E  3000               	movlw	0
  6503     051F  00A4               	movwf	login@delay^(0+128)
  6504     0520                     l3765:
  6505                           
  6506                           ;menu.c: 162:             index = 0;
  6507     0520  1283               	bcf	3,5	;RP0=0, select bank0
  6508     0521  01DD               	clrf	login@index
  6509     0522                     l3767:
  6510                           
  6511                           ;menu.c: 163:             once = 1;
  6512     0522  3001               	movlw	1
  6513     0523  00EC               	movwf	login@once
  6514     0524  2B9B               	goto	l3659
  6515     0525                     l380:
  6516     0525  0008               	return
  6517     0526                     __end_of_login:
  6518                           
  6519                           	psect	text14
  6520     1222                     __ptext14:	
  6521 ;; *************** function _strcmp *****************
  6522 ;; Defined at:
  6523 ;;		line 3 in file "C:\Program Files\Microchip\xc8\v3.10\pic\sources\c99\common\strcmp.c"
  6524 ;; Parameters:    Size  Location     Type
  6525 ;;  l               1    0[COMMON] PTR const unsigned char 
  6526 ;;		 -> change_password@temp(5), login@entered(5), 
  6527 ;;  r               1    1[COMMON] PTR const unsigned char 
  6528 ;;		 -> change_password@temp2(5), password(5), 
  6529 ;; Auto vars:     Size  Location     Type
  6530 ;;		None
  6531 ;; Return value:  Size  Location     Type
  6532 ;;                  2    0[COMMON] int 
  6533 ;; Registers used:
  6534 ;;		wreg, fsr0l, fsr0h, status,2, status,0
  6535 ;; Tracked objects:
  6536 ;;		On entry : 0/0
  6537 ;;		On exit  : 0/0
  6538 ;;		Unchanged: 0/0
  6539 ;; Data sizes:     COMMON   BANK0   BANK1   BANK3   BANK2
  6540 ;;      Params:         2       0       0       0       0
  6541 ;;      Locals:         0       0       0       0       0
  6542 ;;      Temps:          2       0       0       0       0
  6543 ;;      Totals:         4       0       0       0       0
  6544 ;;Total ram usage:        4 bytes
  6545 ;; Hardware stack levels used: 1
  6546 ;; This function calls:
  6547 ;;		Nothing
  6548 ;; This function is called by:
  6549 ;;		_login
  6550 ;;		_change_password
  6551 ;; This function uses a non-reentrant model
  6552 ;;
  6553                           
  6554     1222                     _strcmp:	
  6555                           ;psect for function _strcmp
  6556                           
  6557     1222                     l2633:	
  6558                           ;incstack = 0
  6559                           ; Regs used in _strcmp: [wreg-fsr0h+status,2+status,0]
  6560                           
  6561     1222  2A27               	goto	l2637
  6562     1223                     l2635:
  6563     1223  3001               	movlw	1
  6564     1224  07F0               	addwf	strcmp@l,f
  6565     1225  3001               	movlw	1
  6566     1226  07F1               	addwf	strcmp@r,f
  6567     1227                     l2637:
  6568     1227  0871               	movf	strcmp@r,w
  6569     1228  0084               	movwf	4
  6570     1229  1383               	bcf	3,7	;select IRP bank0
  6571     122A  0800               	movf	0,w
  6572     122B  00F2               	movwf	??_strcmp
  6573     122C  0870               	movf	strcmp@l,w
  6574     122D  0084               	movwf	4
  6575     122E  0800               	movf	0,w
  6576     122F  0672               	xorwf	??_strcmp,w
  6577     1230  1D03               	skipz
  6578     1231  2A33               	goto	u2281
  6579     1232  2A34               	goto	u2280
  6580     1233                     u2281:
  6581     1233  2A3B               	goto	l2641
  6582     1234                     u2280:
  6583     1234                     l2639:
  6584     1234  0870               	movf	strcmp@l,w
  6585     1235  0084               	movwf	4
  6586     1236  0800               	movf	0,w
  6587     1237  1D03               	btfss	3,2
  6588     1238  2A3A               	goto	u2291
  6589     1239  2A3B               	goto	u2290
  6590     123A                     u2291:
  6591     123A  2A23               	goto	l2635
  6592     123B                     u2290:
  6593     123B                     l2641:
  6594     123B  0871               	movf	strcmp@r,w
  6595     123C  0084               	movwf	4
  6596     123D  0800               	movf	0,w
  6597     123E  00F2               	movwf	??_strcmp
  6598     123F  0870               	movf	strcmp@l,w
  6599     1240  0084               	movwf	4
  6600     1241  0800               	movf	0,w
  6601     1242  00F3               	movwf	??_strcmp+1
  6602     1243  0872               	movf	??_strcmp,w
  6603     1244  0273               	subwf	??_strcmp+1,w
  6604     1245  00F0               	movwf	?_strcmp
  6605     1246  01F1               	clrf	?_strcmp+1
  6606     1247  1C03               	skipc
  6607     1248  03F1               	decf	?_strcmp+1,f
  6608     1249                     l1105:
  6609     1249  0008               	return
  6610     124A                     __end_of_strcmp:
  6611                           
  6612                           	psect	text15
  6613     10F1                     __ptext15:	
  6614 ;; *************** function _clcd_putch *****************
  6615 ;; Defined at:
  6616 ;;		line 56 in file "clcd.c"
  6617 ;; Parameters:    Size  Location     Type
  6618 ;;  data            1    wreg     const unsigned char 
  6619 ;;  addr            1    8[COMMON] unsigned char 
  6620 ;; Auto vars:     Size  Location     Type
  6621 ;;  data            1    9[COMMON] const unsigned char 
  6622 ;; Return value:  Size  Location     Type
  6623 ;;                  1    wreg      void 
  6624 ;; Registers used:
  6625 ;;		wreg, status,2, status,0, pclath, cstack
  6626 ;; Tracked objects:
  6627 ;;		On entry : 0/0
  6628 ;;		On exit  : 0/0
  6629 ;;		Unchanged: 0/0
  6630 ;; Data sizes:     COMMON   BANK0   BANK1   BANK3   BANK2
  6631 ;;      Params:         1       0       0       0       0
  6632 ;;      Locals:         1       0       0       0       0
  6633 ;;      Temps:          0       0       0       0       0
  6634 ;;      Totals:         2       0       0       0       0
  6635 ;;Total ram usage:        2 bytes
  6636 ;; Hardware stack levels used: 1
  6637 ;; This function calls:
  6638 ;;		_clcd_write
  6639 ;; This function is called by:
  6640 ;;		_login
  6641 ;;		_menu
  6642 ;;		_change_password
  6643 ;; This function uses a non-reentrant model
  6644 ;;
  6645                           
  6646     10F1                     _clcd_putch:	
  6647                           ;psect for function _clcd_putch
  6648                           
  6649                           
  6650                           ;incstack = 0
  6651                           ; Regs used in _clcd_putch: [wreg+status,2+status,0+pclath+cstack]
  6652                           ;clcd_putch@data stored from wreg
  6653     10F1  00F9               	movwf	clcd_putch@data
  6654     10F2                     l2607:
  6655                           
  6656                           ;clcd.c: 56: void clcd_putch(const char data, unsigned char addr);clcd.c: 57: {;clcd.c: 
      +                          58:     clcd_write(addr, 0);
  6657     10F2  01F0               	clrf	clcd_write@mode
  6658     10F3  0878               	movf	clcd_putch@addr,w
  6659     10F4  160A  118A  2359  160A  118A  	fcall	_clcd_write
  6660                           
  6661                           ;clcd.c: 59:     clcd_write(data, 1);
  6662     10F9  01F0               	clrf	clcd_write@mode
  6663     10FA  0AF0               	incf	clcd_write@mode,f
  6664     10FB  0879               	movf	clcd_putch@data,w
  6665     10FC  160A  118A  2359  160A  118A  	fcall	_clcd_write
  6666     1101                     l94:
  6667     1101  0008               	return
  6668     1102                     __end_of_clcd_putch:
  6669                           
  6670                           	psect	text16
  6671     14AE                     __ptext16:	
  6672 ;; *************** function ___awmod *****************
  6673 ;; Defined at:
  6674 ;;		line 5 in file "C:\Program Files\Microchip\xc8\v3.10\pic\sources\c99\common\awmod.c"
  6675 ;; Parameters:    Size  Location     Type
  6676 ;;  divisor         2    0[COMMON] int 
  6677 ;;  dividend        2    2[COMMON] int 
  6678 ;; Auto vars:     Size  Location     Type
  6679 ;;  sign            1    5[COMMON] unsigned char 
  6680 ;;  counter         1    4[COMMON] unsigned char 
  6681 ;; Return value:  Size  Location     Type
  6682 ;;                  2    0[COMMON] int 
  6683 ;; Registers used:
  6684 ;;		wreg, status,2, status,0
  6685 ;; Tracked objects:
  6686 ;;		On entry : 0/0
  6687 ;;		On exit  : 0/0
  6688 ;;		Unchanged: 0/0
  6689 ;; Data sizes:     COMMON   BANK0   BANK1   BANK3   BANK2
  6690 ;;      Params:         4       0       0       0       0
  6691 ;;      Locals:         2       0       0       0       0
  6692 ;;      Temps:          0       0       0       0       0
  6693 ;;      Totals:         6       0       0       0       0
  6694 ;;Total ram usage:        6 bytes
  6695 ;; Hardware stack levels used: 1
  6696 ;; This function calls:
  6697 ;;		Nothing
  6698 ;; This function is called by:
  6699 ;;		_login
  6700 ;;		_set_time
  6701 ;; This function uses a non-reentrant model
  6702 ;;
  6703                           
  6704     14AE                     ___awmod:	
  6705                           ;psect for function ___awmod
  6706                           
  6707     14AE                     l2731:	
  6708                           ;incstack = 0
  6709                           ; Regs used in ___awmod: [wreg+status,2+status,0]
  6710                           
  6711     14AE  01F5               	clrf	___awmod@sign
  6712     14AF                     l2733:
  6713     14AF  1FF3               	btfss	___awmod@dividend+1,7
  6714     14B0  2CB2               	goto	u2501
  6715     14B1  2CB3               	goto	u2500
  6716     14B2                     u2501:
  6717     14B2  2CBA               	goto	l2739
  6718     14B3                     u2500:
  6719     14B3                     l2735:
  6720     14B3  09F2               	comf	___awmod@dividend,f
  6721     14B4  09F3               	comf	___awmod@dividend+1,f
  6722     14B5  0AF2               	incf	___awmod@dividend,f
  6723     14B6  1903               	skipnz
  6724     14B7  0AF3               	incf	___awmod@dividend+1,f
  6725     14B8                     l2737:
  6726     14B8  3001               	movlw	1
  6727     14B9  00F5               	movwf	___awmod@sign
  6728     14BA                     l2739:
  6729     14BA  1FF1               	btfss	___awmod@divisor+1,7
  6730     14BB  2CBD               	goto	u2511
  6731     14BC  2CBE               	goto	u2510
  6732     14BD                     u2511:
  6733     14BD  2CC3               	goto	l2743
  6734     14BE                     u2510:
  6735     14BE                     l2741:
  6736     14BE  09F0               	comf	___awmod@divisor,f
  6737     14BF  09F1               	comf	___awmod@divisor+1,f
  6738     14C0  0AF0               	incf	___awmod@divisor,f
  6739     14C1  1903               	skipnz
  6740     14C2  0AF1               	incf	___awmod@divisor+1,f
  6741     14C3                     l2743:
  6742     14C3  0870               	movf	___awmod@divisor,w
  6743     14C4  0471               	iorwf	___awmod@divisor+1,w
  6744     14C5  1903               	btfsc	3,2
  6745     14C6  2CC8               	goto	u2521
  6746     14C7  2CC9               	goto	u2520
  6747     14C8                     u2521:
  6748     14C8  2CF6               	goto	l2761
  6749     14C9                     u2520:
  6750     14C9                     l2745:
  6751     14C9  3001               	movlw	1
  6752     14CA  00F4               	movwf	___awmod@counter
  6753     14CB  2CD5               	goto	l2751
  6754     14CC                     l2747:
  6755     14CC  3001               	movlw	1
  6756     14CD                     u2535:
  6757     14CD  1003               	clrc
  6758     14CE  0DF0               	rlf	___awmod@divisor,f
  6759     14CF  0DF1               	rlf	___awmod@divisor+1,f
  6760     14D0  3EFF               	addlw	-1
  6761     14D1  1D03               	skipz
  6762     14D2  2CCD               	goto	u2535
  6763     14D3                     l2749:
  6764     14D3  3001               	movlw	1
  6765     14D4  07F4               	addwf	___awmod@counter,f
  6766     14D5                     l2751:
  6767     14D5  1FF1               	btfss	___awmod@divisor+1,7
  6768     14D6  2CD8               	goto	u2541
  6769     14D7  2CD9               	goto	u2540
  6770     14D8                     u2541:
  6771     14D8  2CCC               	goto	l2747
  6772     14D9                     u2540:
  6773     14D9                     l2753:
  6774     14D9  0871               	movf	___awmod@divisor+1,w
  6775     14DA  0273               	subwf	___awmod@dividend+1,w
  6776     14DB  1D03               	skipz
  6777     14DC  2CDF               	goto	u2555
  6778     14DD  0870               	movf	___awmod@divisor,w
  6779     14DE  0272               	subwf	___awmod@dividend,w
  6780     14DF                     u2555:
  6781     14DF  1C03               	skipc
  6782     14E0  2CE2               	goto	u2551
  6783     14E1  2CE3               	goto	u2550
  6784     14E2                     u2551:
  6785     14E2  2CE9               	goto	l2757
  6786     14E3                     u2550:
  6787     14E3                     l2755:
  6788     14E3  0870               	movf	___awmod@divisor,w
  6789     14E4  02F2               	subwf	___awmod@dividend,f
  6790     14E5  0871               	movf	___awmod@divisor+1,w
  6791     14E6  1C03               	skipc
  6792     14E7  03F3               	decf	___awmod@dividend+1,f
  6793     14E8  02F3               	subwf	___awmod@dividend+1,f
  6794     14E9                     l2757:
  6795     14E9  3001               	movlw	1
  6796     14EA                     u2565:
  6797     14EA  1003               	clrc
  6798     14EB  0CF1               	rrf	___awmod@divisor+1,f
  6799     14EC  0CF0               	rrf	___awmod@divisor,f
  6800     14ED  3EFF               	addlw	-1
  6801     14EE  1D03               	skipz
  6802     14EF  2CEA               	goto	u2565
  6803     14F0                     l2759:
  6804     14F0  3001               	movlw	1
  6805     14F1  02F4               	subwf	___awmod@counter,f
  6806     14F2  1D03               	btfss	3,2
  6807     14F3  2CF5               	goto	u2571
  6808     14F4  2CF6               	goto	u2570
  6809     14F5                     u2571:
  6810     14F5  2CD9               	goto	l2753
  6811     14F6                     u2570:
  6812     14F6                     l2761:
  6813     14F6  0875               	movf	___awmod@sign,w
  6814     14F7  1903               	btfsc	3,2
  6815     14F8  2CFA               	goto	u2581
  6816     14F9  2CFB               	goto	u2580
  6817     14FA                     u2581:
  6818     14FA  2D00               	goto	l2765
  6819     14FB                     u2580:
  6820     14FB                     l2763:
  6821     14FB  09F2               	comf	___awmod@dividend,f
  6822     14FC  09F3               	comf	___awmod@dividend+1,f
  6823     14FD  0AF2               	incf	___awmod@dividend,f
  6824     14FE  1903               	skipnz
  6825     14FF  0AF3               	incf	___awmod@dividend+1,f
  6826     1500                     l2765:
  6827     1500  0873               	movf	___awmod@dividend+1,w
  6828     1501  00F1               	movwf	?___awmod+1
  6829     1502  0872               	movf	___awmod@dividend,w
  6830     1503  00F0               	movwf	?___awmod
  6831     1504                     l807:
  6832     1504  0008               	return
  6833     1505                     __end_of___awmod:
  6834                           
  6835                           	psect	text17
  6836     1568                     __ptext17:	
  6837 ;; *************** function ___awdiv *****************
  6838 ;; Defined at:
  6839 ;;		line 5 in file "C:\Program Files\Microchip\xc8\v3.10\pic\sources\c99\common\awdiv.c"
  6840 ;; Parameters:    Size  Location     Type
  6841 ;;  divisor         2    0[COMMON] int 
  6842 ;;  dividend        2    2[COMMON] int 
  6843 ;; Auto vars:     Size  Location     Type
  6844 ;;  quotient        2    6[COMMON] int 
  6845 ;;  sign            1    5[COMMON] unsigned char 
  6846 ;;  counter         1    4[COMMON] unsigned char 
  6847 ;; Return value:  Size  Location     Type
  6848 ;;                  2    0[COMMON] int 
  6849 ;; Registers used:
  6850 ;;		wreg, status,2, status,0
  6851 ;; Tracked objects:
  6852 ;;		On entry : 0/0
  6853 ;;		On exit  : 0/0
  6854 ;;		Unchanged: 0/0
  6855 ;; Data sizes:     COMMON   BANK0   BANK1   BANK3   BANK2
  6856 ;;      Params:         4       0       0       0       0
  6857 ;;      Locals:         4       0       0       0       0
  6858 ;;      Temps:          0       0       0       0       0
  6859 ;;      Totals:         8       0       0       0       0
  6860 ;;Total ram usage:        8 bytes
  6861 ;; Hardware stack levels used: 1
  6862 ;; This function calls:
  6863 ;;		Nothing
  6864 ;; This function is called by:
  6865 ;;		_login
  6866 ;;		_set_time
  6867 ;; This function uses a non-reentrant model
  6868 ;;
  6869                           
  6870     1568                     ___awdiv:	
  6871                           ;psect for function ___awdiv
  6872                           
  6873     1568                     l2687:	
  6874                           ;incstack = 0
  6875                           ; Regs used in ___awdiv: [wreg+status,2+status,0]
  6876                           
  6877     1568  01F5               	clrf	___awdiv@sign
  6878     1569                     l2689:
  6879     1569  1FF1               	btfss	___awdiv@divisor+1,7
  6880     156A  2D6C               	goto	u2401
  6881     156B  2D6D               	goto	u2400
  6882     156C                     u2401:
  6883     156C  2D74               	goto	l2695
  6884     156D                     u2400:
  6885     156D                     l2691:
  6886     156D  09F0               	comf	___awdiv@divisor,f
  6887     156E  09F1               	comf	___awdiv@divisor+1,f
  6888     156F  0AF0               	incf	___awdiv@divisor,f
  6889     1570  1903               	skipnz
  6890     1571  0AF1               	incf	___awdiv@divisor+1,f
  6891     1572                     l2693:
  6892     1572  3001               	movlw	1
  6893     1573  00F5               	movwf	___awdiv@sign
  6894     1574                     l2695:
  6895     1574  1FF3               	btfss	___awdiv@dividend+1,7
  6896     1575  2D77               	goto	u2411
  6897     1576  2D78               	goto	u2410
  6898     1577                     u2411:
  6899     1577  2D7F               	goto	l2701
  6900     1578                     u2410:
  6901     1578                     l2697:
  6902     1578  09F2               	comf	___awdiv@dividend,f
  6903     1579  09F3               	comf	___awdiv@dividend+1,f
  6904     157A  0AF2               	incf	___awdiv@dividend,f
  6905     157B  1903               	skipnz
  6906     157C  0AF3               	incf	___awdiv@dividend+1,f
  6907     157D                     l2699:
  6908     157D  3001               	movlw	1
  6909     157E  06F5               	xorwf	___awdiv@sign,f
  6910     157F                     l2701:
  6911     157F  01F6               	clrf	___awdiv@quotient
  6912     1580  01F7               	clrf	___awdiv@quotient+1
  6913     1581                     l2703:
  6914     1581  0870               	movf	___awdiv@divisor,w
  6915     1582  0471               	iorwf	___awdiv@divisor+1,w
  6916     1583  1903               	btfsc	3,2
  6917     1584  2D86               	goto	u2421
  6918     1585  2D87               	goto	u2420
  6919     1586                     u2421:
  6920     1586  2DBC               	goto	l2723
  6921     1587                     u2420:
  6922     1587                     l2705:
  6923     1587  3001               	movlw	1
  6924     1588  00F4               	movwf	___awdiv@counter
  6925     1589  2D93               	goto	l2711
  6926     158A                     l2707:
  6927     158A  3001               	movlw	1
  6928     158B                     u2435:
  6929     158B  1003               	clrc
  6930     158C  0DF0               	rlf	___awdiv@divisor,f
  6931     158D  0DF1               	rlf	___awdiv@divisor+1,f
  6932     158E  3EFF               	addlw	-1
  6933     158F  1D03               	skipz
  6934     1590  2D8B               	goto	u2435
  6935     1591                     l2709:
  6936     1591  3001               	movlw	1
  6937     1592  07F4               	addwf	___awdiv@counter,f
  6938     1593                     l2711:
  6939     1593  1FF1               	btfss	___awdiv@divisor+1,7
  6940     1594  2D96               	goto	u2441
  6941     1595  2D97               	goto	u2440
  6942     1596                     u2441:
  6943     1596  2D8A               	goto	l2707
  6944     1597                     u2440:
  6945     1597                     l2713:
  6946     1597  3001               	movlw	1
  6947     1598                     u2455:
  6948     1598  1003               	clrc
  6949     1599  0DF6               	rlf	___awdiv@quotient,f
  6950     159A  0DF7               	rlf	___awdiv@quotient+1,f
  6951     159B  3EFF               	addlw	-1
  6952     159C  1D03               	skipz
  6953     159D  2D98               	goto	u2455
  6954     159E  0871               	movf	___awdiv@divisor+1,w
  6955     159F  0273               	subwf	___awdiv@dividend+1,w
  6956     15A0  1D03               	skipz
  6957     15A1  2DA4               	goto	u2465
  6958     15A2  0870               	movf	___awdiv@divisor,w
  6959     15A3  0272               	subwf	___awdiv@dividend,w
  6960     15A4                     u2465:
  6961     15A4  1C03               	skipc
  6962     15A5  2DA7               	goto	u2461
  6963     15A6  2DA8               	goto	u2460
  6964     15A7                     u2461:
  6965     15A7  2DAF               	goto	l2719
  6966     15A8                     u2460:
  6967     15A8                     l2715:
  6968     15A8  0870               	movf	___awdiv@divisor,w
  6969     15A9  02F2               	subwf	___awdiv@dividend,f
  6970     15AA  0871               	movf	___awdiv@divisor+1,w
  6971     15AB  1C03               	skipc
  6972     15AC  03F3               	decf	___awdiv@dividend+1,f
  6973     15AD  02F3               	subwf	___awdiv@dividend+1,f
  6974     15AE                     l2717:
  6975     15AE  1476               	bsf	___awdiv@quotient,0
  6976     15AF                     l2719:
  6977     15AF  3001               	movlw	1
  6978     15B0                     u2475:
  6979     15B0  1003               	clrc
  6980     15B1  0CF1               	rrf	___awdiv@divisor+1,f
  6981     15B2  0CF0               	rrf	___awdiv@divisor,f
  6982     15B3  3EFF               	addlw	-1
  6983     15B4  1D03               	skipz
  6984     15B5  2DB0               	goto	u2475
  6985     15B6                     l2721:
  6986     15B6  3001               	movlw	1
  6987     15B7  02F4               	subwf	___awdiv@counter,f
  6988     15B8  1D03               	btfss	3,2
  6989     15B9  2DBB               	goto	u2481
  6990     15BA  2DBC               	goto	u2480
  6991     15BB                     u2481:
  6992     15BB  2D97               	goto	l2713
  6993     15BC                     u2480:
  6994     15BC                     l2723:
  6995     15BC  0875               	movf	___awdiv@sign,w
  6996     15BD  1903               	btfsc	3,2
  6997     15BE  2DC0               	goto	u2491
  6998     15BF  2DC1               	goto	u2490
  6999     15C0                     u2491:
  7000     15C0  2DC6               	goto	l2727
  7001     15C1                     u2490:
  7002     15C1                     l2725:
  7003     15C1  09F6               	comf	___awdiv@quotient,f
  7004     15C2  09F7               	comf	___awdiv@quotient+1,f
  7005     15C3  0AF6               	incf	___awdiv@quotient,f
  7006     15C4  1903               	skipnz
  7007     15C5  0AF7               	incf	___awdiv@quotient+1,f
  7008     15C6                     l2727:
  7009     15C6  0877               	movf	___awdiv@quotient+1,w
  7010     15C7  00F1               	movwf	?___awdiv+1
  7011     15C8  0876               	movf	___awdiv@quotient,w
  7012     15C9  00F0               	movwf	?___awdiv
  7013     15CA                     l794:
  7014     15CA  0008               	return
  7015     15CB                     __end_of___awdiv:
  7016                           
  7017                           	psect	text18
  7018     124A                     __ptext18:	
  7019 ;; *************** function _init_config *****************
  7020 ;; Defined at:
  7021 ;;		line 23 in file "main.c"
  7022 ;; Parameters:    Size  Location     Type
  7023 ;;		None
  7024 ;; Auto vars:     Size  Location     Type
  7025 ;;		None
  7026 ;; Return value:  Size  Location     Type
  7027 ;;                  1    wreg      void 
  7028 ;; Registers used:
  7029 ;;		wreg, status,2, status,0, pclath, cstack
  7030 ;; Tracked objects:
  7031 ;;		On entry : 0/0
  7032 ;;		On exit  : 0/0
  7033 ;;		Unchanged: 0/0
  7034 ;; Data sizes:     COMMON   BANK0   BANK1   BANK3   BANK2
  7035 ;;      Params:         0       0       0       0       0
  7036 ;;      Locals:         0       0       0       0       0
  7037 ;;      Temps:          0       0       0       0       0
  7038 ;;      Totals:         0       0       0       0       0
  7039 ;;Total ram usage:        0 bytes
  7040 ;; Hardware stack levels used: 1
  7041 ;; Hardware stack levels required when called: 3
  7042 ;; This function calls:
  7043 ;;		_init_adc
  7044 ;;		_init_clcd
  7045 ;;		_init_digital_keypad
  7046 ;;		_init_ds1307
  7047 ;;		_init_i2c
  7048 ;;		_init_uart
  7049 ;; This function is called by:
  7050 ;;		_main
  7051 ;; This function uses a non-reentrant model
  7052 ;;
  7053                           
  7054     124A                     _init_config:	
  7055                           ;psect for function _init_config
  7056                           
  7057     124A                     l3567:	
  7058                           ;incstack = 0
  7059                           ; Regs used in _init_config: [wreg+status,2+status,0+pclath+cstack]
  7060                           
  7061                           
  7062                           ;main.c: 25:     init_adc();
  7063     124A  160A  118A  208E  160A  118A  	fcall	_init_adc
  7064     124F                     l3569:
  7065                           
  7066                           ;main.c: 26:     init_clcd();
  7067     124F  160A  118A  20D9  160A  118A  	fcall	_init_clcd
  7068     1254                     l3571:
  7069                           
  7070                           ;main.c: 27:     init_digital_keypad();
  7071     1254  160A  118A  2088  160A  118A  	fcall	_init_digital_keypad
  7072     1259                     l3573:
  7073                           
  7074                           ;main.c: 28:     init_i2c(100000);
  7075     1259  3000               	movlw	0
  7076     125A  1283               	bcf	3,5	;RP0=0, select bank0
  7077     125B  1303               	bcf	3,6	;RP1=0, select bank0
  7078     125C  00A3               	movwf	init_i2c@baud+3
  7079     125D  3001               	movlw	1
  7080     125E  00A2               	movwf	init_i2c@baud+2
  7081     125F  3086               	movlw	134
  7082     1260  00A1               	movwf	init_i2c@baud+1
  7083     1261  30A0               	movlw	160
  7084     1262  00A0               	movwf	init_i2c@baud
  7085     1263  160A  118A  2327  160A  118A  	fcall	_init_i2c
  7086     1268                     l3575:
  7087                           
  7088                           ;main.c: 29:     init_ds1307();
  7089     1268  160A  118A  2102  160A  118A  	fcall	_init_ds1307
  7090                           
  7091                           ;main.c: 30:     init_uart();
  7092     126D  160A  118A  2114  160A  118A  	fcall	_init_uart
  7093     1272                     l50:
  7094     1272  0008               	return
  7095     1273                     __end_of_init_config:
  7096                           
  7097                           	psect	text19
  7098     1114                     __ptext19:	
  7099 ;; *************** function _init_uart *****************
  7100 ;; Defined at:
  7101 ;;		line 15 in file "uart.c"
  7102 ;; Parameters:    Size  Location     Type
  7103 ;;		None
  7104 ;; Auto vars:     Size  Location     Type
  7105 ;;		None
  7106 ;; Return value:  Size  Location     Type
  7107 ;;                  1    wreg      void 
  7108 ;; Registers used:
  7109 ;;		None
  7110 ;; Tracked objects:
  7111 ;;		On entry : 0/0
  7112 ;;		On exit  : 0/0
  7113 ;;		Unchanged: 0/0
  7114 ;; Data sizes:     COMMON   BANK0   BANK1   BANK3   BANK2
  7115 ;;      Params:         0       0       0       0       0
  7116 ;;      Locals:         0       0       0       0       0
  7117 ;;      Temps:          0       0       0       0       0
  7118 ;;      Totals:         0       0       0       0       0
  7119 ;;Total ram usage:        0 bytes
  7120 ;; Hardware stack levels used: 1
  7121 ;; This function calls:
  7122 ;;		Nothing
  7123 ;; This function is called by:
  7124 ;;		_init_config
  7125 ;; This function uses a non-reentrant model
  7126 ;;
  7127                           
  7128     1114                     _init_uart:	
  7129                           ;psect for function _init_uart
  7130                           
  7131     1114                     l2801:	
  7132                           ;incstack = 0
  7133                           ; Regs used in _init_uart: []
  7134                           
  7135                           
  7136                           ;uart.c: 17:     TRISC6 = 0;
  7137     1114  1683               	bsf	3,5	;RP0=1, select bank1
  7138     1115  1303               	bcf	3,6	;RP1=0, select bank1
  7139     1116  1307               	bcf	7,6	;volatile
  7140                           
  7141                           ;uart.c: 18:     TRISC7 = 1;
  7142     1117  1787               	bsf	7,7	;volatile
  7143                           
  7144                           ;uart.c: 20:     BRGH = 1;
  7145     1118  1518               	bsf	24,2	;volatile
  7146                           
  7147                           ;uart.c: 21:     SPBRG = 129;
  7148     1119  3081               	movlw	129
  7149     111A  0099               	movwf	25	;volatile
  7150                           
  7151                           ;uart.c: 23:     SYNC = 0;
  7152     111B  1218               	bcf	24,4	;volatile
  7153                           
  7154                           ;uart.c: 24:     SPEN = 1;
  7155     111C  1283               	bcf	3,5	;RP0=0, select bank0
  7156     111D  1303               	bcf	3,6	;RP1=0, select bank0
  7157     111E  1798               	bsf	24,7	;volatile
  7158                           
  7159                           ;uart.c: 26:     TXEN = 1;
  7160     111F  1683               	bsf	3,5	;RP0=1, select bank1
  7161     1120  1303               	bcf	3,6	;RP1=0, select bank1
  7162     1121  1698               	bsf	24,5	;volatile
  7163                           
  7164                           ;uart.c: 27:     CREN = 1;
  7165     1122  1283               	bcf	3,5	;RP0=0, select bank0
  7166     1123  1303               	bcf	3,6	;RP1=0, select bank0
  7167     1124  1618               	bsf	24,4	;volatile
  7168     1125                     l297:
  7169     1125  0008               	return
  7170     1126                     __end_of_init_uart:
  7171                           
  7172                           	psect	text20
  7173     1327                     __ptext20:	
  7174 ;; *************** function _init_i2c *****************
  7175 ;; Defined at:
  7176 ;;		line 4 in file "i2c.c"
  7177 ;; Parameters:    Size  Location     Type
  7178 ;;  baud            4    0[BANK0 ] unsigned long 
  7179 ;; Auto vars:     Size  Location     Type
  7180 ;;		None
  7181 ;; Return value:  Size  Location     Type
  7182 ;;                  1    wreg      void 
  7183 ;; Registers used:
  7184 ;;		wreg, status,2, status,0, pclath, cstack
  7185 ;; Tracked objects:
  7186 ;;		On entry : 0/0
  7187 ;;		On exit  : 0/0
  7188 ;;		Unchanged: 0/0
  7189 ;; Data sizes:     COMMON   BANK0   BANK1   BANK3   BANK2
  7190 ;;      Params:         0       4       0       0       0
  7191 ;;      Locals:         0       0       0       0       0
  7192 ;;      Temps:          0       4       0       0       0
  7193 ;;      Totals:         0       8       0       0       0
  7194 ;;Total ram usage:        8 bytes
  7195 ;; Hardware stack levels used: 1
  7196 ;; Hardware stack levels required when called: 1
  7197 ;; This function calls:
  7198 ;;		___lldiv
  7199 ;; This function is called by:
  7200 ;;		_init_config
  7201 ;; This function uses a non-reentrant model
  7202 ;;
  7203                           
  7204     1327                     _init_i2c:	
  7205                           ;psect for function _init_i2c
  7206                           
  7207     1327                     l2789:	
  7208                           ;incstack = 0
  7209                           ; Regs used in _init_i2c: [wreg+status,2+status,0+pclath+cstack]
  7210                           
  7211                           
  7212                           ;i2c.c: 4: void init_i2c(unsigned long baud);i2c.c: 5: {;i2c.c: 7:     SSPM3 = 1;
  7213     1327  1283               	bcf	3,5	;RP0=0, select bank0
  7214     1328  1303               	bcf	3,6	;RP1=0, select bank0
  7215     1329  1594               	bsf	20,3	;volatile
  7216     132A                     l2791:
  7217                           
  7218                           ;i2c.c: 10:     SSPADD = (unsigned char)(20000000 / (4 * baud)) - 1;
  7219     132A  0820               	movf	init_i2c@baud,w
  7220     132B  00A4               	movwf	??_init_i2c
  7221     132C  0821               	movf	init_i2c@baud+1,w
  7222     132D  00A5               	movwf	??_init_i2c+1
  7223     132E  0822               	movf	init_i2c@baud+2,w
  7224     132F  00A6               	movwf	??_init_i2c+2
  7225     1330  0823               	movf	init_i2c@baud+3,w
  7226     1331  00A7               	movwf	??_init_i2c+3
  7227     1332  3002               	movlw	2
  7228     1333                     u2615:
  7229     1333  1003               	clrc
  7230     1334  0DA4               	rlf	??_init_i2c,f
  7231     1335  0DA5               	rlf	??_init_i2c+1,f
  7232     1336  0DA6               	rlf	??_init_i2c+2,f
  7233     1337  0DA7               	rlf	??_init_i2c+3,f
  7234     1338                     u2610:
  7235     1338  3EFF               	addlw	-1
  7236     1339  1D03               	skipz
  7237     133A  2B33               	goto	u2615
  7238     133B  0827               	movf	??_init_i2c+3,w
  7239     133C  00F3               	movwf	___lldiv@divisor+3
  7240     133D  0826               	movf	??_init_i2c+2,w
  7241     133E  00F2               	movwf	___lldiv@divisor+2
  7242     133F  0825               	movf	??_init_i2c+1,w
  7243     1340  00F1               	movwf	___lldiv@divisor+1
  7244     1341  0824               	movf	??_init_i2c,w
  7245     1342  00F0               	movwf	___lldiv@divisor
  7246     1343  3001               	movlw	1
  7247     1344  00F7               	movwf	___lldiv@dividend+3
  7248     1345  3031               	movlw	49
  7249     1346  00F6               	movwf	___lldiv@dividend+2
  7250     1347  302D               	movlw	45
  7251     1348  00F5               	movwf	___lldiv@dividend+1
  7252     1349  3000               	movlw	0
  7253     134A  00F4               	movwf	___lldiv@dividend
  7254     134B  160A  118A  25CB  160A  118A  	fcall	___lldiv
  7255     1350  0870               	movf	?___lldiv,w
  7256     1351  3EFF               	addlw	255
  7257     1352  1683               	bsf	3,5	;RP0=1, select bank1
  7258     1353  1303               	bcf	3,6	;RP1=0, select bank1
  7259     1354  0093               	movwf	19	;volatile
  7260     1355                     l2793:
  7261                           
  7262                           ;i2c.c: 13:     SSPEN = 1;
  7263     1355  1283               	bcf	3,5	;RP0=0, select bank0
  7264     1356  1303               	bcf	3,6	;RP1=0, select bank0
  7265     1357  1694               	bsf	20,5	;volatile
  7266     1358                     l198:
  7267     1358  0008               	return
  7268     1359                     __end_of_init_i2c:
  7269                           
  7270                           	psect	text21
  7271     15CB                     __ptext21:	
  7272 ;; *************** function ___lldiv *****************
  7273 ;; Defined at:
  7274 ;;		line 5 in file "C:\Program Files\Microchip\xc8\v3.10\pic\sources\c99\common\__lldiv.c"
  7275 ;; Parameters:    Size  Location     Type
  7276 ;;  divisor         4    0[COMMON] unsigned long 
  7277 ;;  dividend        4    4[COMMON] unsigned long 
  7278 ;; Auto vars:     Size  Location     Type
  7279 ;;  quotient        4    9[COMMON] unsigned long 
  7280 ;;  counter         1   13[COMMON] unsigned char 
  7281 ;; Return value:  Size  Location     Type
  7282 ;;                  4    0[COMMON] unsigned long 
  7283 ;; Registers used:
  7284 ;;		wreg, status,2, status,0
  7285 ;; Tracked objects:
  7286 ;;		On entry : 0/0
  7287 ;;		On exit  : 0/0
  7288 ;;		Unchanged: 0/0
  7289 ;; Data sizes:     COMMON   BANK0   BANK1   BANK3   BANK2
  7290 ;;      Params:         8       0       0       0       0
  7291 ;;      Locals:         5       0       0       0       0
  7292 ;;      Temps:          1       0       0       0       0
  7293 ;;      Totals:        14       0       0       0       0
  7294 ;;Total ram usage:       14 bytes
  7295 ;; Hardware stack levels used: 1
  7296 ;; This function calls:
  7297 ;;		Nothing
  7298 ;; This function is called by:
  7299 ;;		_init_i2c
  7300 ;; This function uses a non-reentrant model
  7301 ;;
  7302                           
  7303     15CB                     ___lldiv:	
  7304                           ;psect for function ___lldiv
  7305                           
  7306     15CB                     l2663:	
  7307                           ;incstack = 0
  7308                           ; Regs used in ___lldiv: [wreg+status,2+status,0]
  7309                           
  7310     15CB  3000               	movlw	0
  7311     15CC  00FC               	movwf	___lldiv@quotient+3
  7312     15CD  3000               	movlw	0
  7313     15CE  00FB               	movwf	___lldiv@quotient+2
  7314     15CF  3000               	movlw	0
  7315     15D0  00FA               	movwf	___lldiv@quotient+1
  7316     15D1  3000               	movlw	0
  7317     15D2  00F9               	movwf	___lldiv@quotient
  7318     15D3  0873               	movf	___lldiv@divisor+3,w
  7319     15D4  0472               	iorwf	___lldiv@divisor+2,w
  7320     15D5  0471               	iorwf	___lldiv@divisor+1,w
  7321     15D6  0470               	iorwf	___lldiv@divisor,w
  7322     15D7  1903               	skipnz
  7323     15D8  2DDA               	goto	u2331
  7324     15D9  2DDB               	goto	u2330
  7325     15DA                     u2331:
  7326     15DA  2E26               	goto	l2683
  7327     15DB                     u2330:
  7328     15DB                     l2665:
  7329     15DB  3001               	movlw	1
  7330     15DC  00FD               	movwf	___lldiv@counter
  7331     15DD  2DE9               	goto	l2669
  7332     15DE                     l2667:
  7333     15DE  3001               	movlw	1
  7334     15DF  00F8               	movwf	??___lldiv
  7335     15E0                     u2345:
  7336     15E0  1003               	clrc
  7337     15E1  0DF0               	rlf	___lldiv@divisor,f
  7338     15E2  0DF1               	rlf	___lldiv@divisor+1,f
  7339     15E3  0DF2               	rlf	___lldiv@divisor+2,f
  7340     15E4  0DF3               	rlf	___lldiv@divisor+3,f
  7341     15E5  0BF8               	decfsz	??___lldiv,f
  7342     15E6  2DE0               	goto	u2345
  7343     15E7  3001               	movlw	1
  7344     15E8  07FD               	addwf	___lldiv@counter,f
  7345     15E9                     l2669:
  7346     15E9  1FF3               	btfss	___lldiv@divisor+3,7
  7347     15EA  2DEC               	goto	u2351
  7348     15EB  2DED               	goto	u2350
  7349     15EC                     u2351:
  7350     15EC  2DDE               	goto	l2667
  7351     15ED                     u2350:
  7352     15ED                     l2671:
  7353     15ED  3001               	movlw	1
  7354     15EE  00F8               	movwf	??___lldiv
  7355     15EF                     u2365:
  7356     15EF  1003               	clrc
  7357     15F0  0DF9               	rlf	___lldiv@quotient,f
  7358     15F1  0DFA               	rlf	___lldiv@quotient+1,f
  7359     15F2  0DFB               	rlf	___lldiv@quotient+2,f
  7360     15F3  0DFC               	rlf	___lldiv@quotient+3,f
  7361     15F4  0BF8               	decfsz	??___lldiv,f
  7362     15F5  2DEF               	goto	u2365
  7363     15F6                     l2673:
  7364     15F6  0873               	movf	___lldiv@divisor+3,w
  7365     15F7  0277               	subwf	___lldiv@dividend+3,w
  7366     15F8  1D03               	skipz
  7367     15F9  2E04               	goto	u2375
  7368     15FA  0872               	movf	___lldiv@divisor+2,w
  7369     15FB  0276               	subwf	___lldiv@dividend+2,w
  7370     15FC  1D03               	skipz
  7371     15FD  2E04               	goto	u2375
  7372     15FE  0871               	movf	___lldiv@divisor+1,w
  7373     15FF  0275               	subwf	___lldiv@dividend+1,w
  7374     1600  1D03               	skipz
  7375     1601  2E04               	goto	u2375
  7376     1602  0870               	movf	___lldiv@divisor,w
  7377     1603  0274               	subwf	___lldiv@dividend,w
  7378     1604                     u2375:
  7379     1604  1C03               	skipc
  7380     1605  2E07               	goto	u2371
  7381     1606  2E08               	goto	u2370
  7382     1607                     u2371:
  7383     1607  2E17               	goto	l2679
  7384     1608                     u2370:
  7385     1608                     l2675:
  7386     1608  0870               	movf	___lldiv@divisor,w
  7387     1609  02F4               	subwf	___lldiv@dividend,f
  7388     160A  0871               	movf	___lldiv@divisor+1,w
  7389     160B  1C03               	skipc
  7390     160C  0F71               	incfsz	___lldiv@divisor+1,w
  7391     160D  02F5               	subwf	___lldiv@dividend+1,f
  7392     160E  0872               	movf	___lldiv@divisor+2,w
  7393     160F  1C03               	skipc
  7394     1610  0F72               	incfsz	___lldiv@divisor+2,w
  7395     1611  02F6               	subwf	___lldiv@dividend+2,f
  7396     1612  0873               	movf	___lldiv@divisor+3,w
  7397     1613  1C03               	skipc
  7398     1614  0F73               	incfsz	___lldiv@divisor+3,w
  7399     1615  02F7               	subwf	___lldiv@dividend+3,f
  7400     1616                     l2677:
  7401     1616  1479               	bsf	___lldiv@quotient,0
  7402     1617                     l2679:
  7403     1617  3001               	movlw	1
  7404     1618                     u2385:
  7405     1618  1003               	clrc
  7406     1619  0CF3               	rrf	___lldiv@divisor+3,f
  7407     161A  0CF2               	rrf	___lldiv@divisor+2,f
  7408     161B  0CF1               	rrf	___lldiv@divisor+1,f
  7409     161C  0CF0               	rrf	___lldiv@divisor,f
  7410     161D  3EFF               	addlw	-1
  7411     161E  1D03               	skipz
  7412     161F  2E18               	goto	u2385
  7413     1620                     l2681:
  7414     1620  3001               	movlw	1
  7415     1621  02FD               	subwf	___lldiv@counter,f
  7416     1622  1D03               	btfss	3,2
  7417     1623  2E25               	goto	u2391
  7418     1624  2E26               	goto	u2390
  7419     1625                     u2391:
  7420     1625  2DED               	goto	l2671
  7421     1626                     u2390:
  7422     1626                     l2683:
  7423     1626  087C               	movf	___lldiv@quotient+3,w
  7424     1627  00F3               	movwf	?___lldiv+3
  7425     1628  087B               	movf	___lldiv@quotient+2,w
  7426     1629  00F2               	movwf	?___lldiv+2
  7427     162A  087A               	movf	___lldiv@quotient+1,w
  7428     162B  00F1               	movwf	?___lldiv+1
  7429     162C  0879               	movf	___lldiv@quotient,w
  7430     162D  00F0               	movwf	?___lldiv
  7431     162E                     l677:
  7432     162E  0008               	return
  7433     162F                     __end_of___lldiv:
  7434                           
  7435                           	psect	text22
  7436     1102                     __ptext22:	
  7437 ;; *************** function _init_ds1307 *****************
  7438 ;; Defined at:
  7439 ;;		line 6 in file "ds1307.c"
  7440 ;; Parameters:    Size  Location     Type
  7441 ;;		None
  7442 ;; Auto vars:     Size  Location     Type
  7443 ;;  dummy           1   10[COMMON] unsigned char 
  7444 ;; Return value:  Size  Location     Type
  7445 ;;                  1    wreg      void 
  7446 ;; Registers used:
  7447 ;;		wreg, status,2, status,0, pclath, cstack
  7448 ;; Tracked objects:
  7449 ;;		On entry : 0/0
  7450 ;;		On exit  : 0/0
  7451 ;;		Unchanged: 0/0
  7452 ;; Data sizes:     COMMON   BANK0   BANK1   BANK3   BANK2
  7453 ;;      Params:         0       0       0       0       0
  7454 ;;      Locals:         1       0       0       0       0
  7455 ;;      Temps:          0       0       0       0       0
  7456 ;;      Totals:         1       0       0       0       0
  7457 ;;Total ram usage:        1 bytes
  7458 ;; Hardware stack levels used: 1
  7459 ;; Hardware stack levels required when called: 2
  7460 ;; This function calls:
  7461 ;;		_read_ds1307
  7462 ;;		_write_ds1307
  7463 ;; This function is called by:
  7464 ;;		_init_config
  7465 ;; This function uses a non-reentrant model
  7466 ;;
  7467                           
  7468     1102                     _init_ds1307:	
  7469                           ;psect for function _init_ds1307
  7470                           
  7471     1102                     l2795:	
  7472                           ;incstack = 0
  7473                           ; Regs used in _init_ds1307: [wreg+status,2+status,0+pclath+cstack]
  7474                           
  7475                           
  7476                           ;ds1307.c: 8:     unsigned char dummy;;ds1307.c: 10:     dummy = read_ds1307(0x00);
  7477     1102  3000               	movlw	0
  7478     1103  160A  118A  229D  160A  118A  	fcall	_read_ds1307
  7479     1108  00FA               	movwf	init_ds1307@dummy
  7480     1109                     l2797:
  7481                           
  7482                           ;ds1307.c: 11:     dummy = dummy & 0x7F;
  7483     1109  307F               	movlw	127
  7484     110A  05FA               	andwf	init_ds1307@dummy,f
  7485     110B                     l2799:
  7486                           
  7487                           ;ds1307.c: 12:     write_ds1307(0x00, dummy);
  7488     110B  087A               	movf	init_ds1307@dummy,w
  7489     110C  00F8               	movwf	write_ds1307@data
  7490     110D  3000               	movlw	0
  7491     110E  160A  118A  215F  160A  118A  	fcall	_write_ds1307
  7492     1113                     l140:
  7493     1113  0008               	return
  7494     1114                     __end_of_init_ds1307:
  7495                           
  7496                           	psect	text23
  7497     115F                     __ptext23:	
  7498 ;; *************** function _write_ds1307 *****************
  7499 ;; Defined at:
  7500 ;;		line 30 in file "ds1307.c"
  7501 ;; Parameters:    Size  Location     Type
  7502 ;;  addr            1    wreg     unsigned char 
  7503 ;;  data            1    8[COMMON] unsigned char 
  7504 ;; Auto vars:     Size  Location     Type
  7505 ;;  addr            1    9[COMMON] unsigned char 
  7506 ;; Return value:  Size  Location     Type
  7507 ;;                  1    wreg      void 
  7508 ;; Registers used:
  7509 ;;		wreg, status,2, status,0, pclath, cstack
  7510 ;; Tracked objects:
  7511 ;;		On entry : 0/0
  7512 ;;		On exit  : 0/0
  7513 ;;		Unchanged: 0/0
  7514 ;; Data sizes:     COMMON   BANK0   BANK1   BANK3   BANK2
  7515 ;;      Params:         1       0       0       0       0
  7516 ;;      Locals:         1       0       0       0       0
  7517 ;;      Temps:          0       0       0       0       0
  7518 ;;      Totals:         2       0       0       0       0
  7519 ;;Total ram usage:        2 bytes
  7520 ;; Hardware stack levels used: 1
  7521 ;; This function calls:
  7522 ;;		_i2c_start
  7523 ;;		_i2c_stop
  7524 ;;		_i2c_write
  7525 ;; This function is called by:
  7526 ;;		_init_ds1307
  7527 ;;		_set_time
  7528 ;; This function uses a non-reentrant model
  7529 ;;
  7530                           
  7531     115F                     _write_ds1307:	
  7532                           ;psect for function _write_ds1307
  7533                           
  7534                           
  7535                           ;incstack = 0
  7536                           ; Regs used in _write_ds1307: [wreg+status,2+status,0+pclath+cstack]
  7537                           ;write_ds1307@addr stored from wreg
  7538     115F  00F9               	movwf	write_ds1307@addr
  7539     1160                     l2621:
  7540                           
  7541                           ;ds1307.c: 30: void write_ds1307(unsigned char addr, unsigned char data);ds1307.c: 31: {
      +                          ;ds1307.c: 32:     i2c_start();
  7542     1160  160A  118A  209D  160A  118A  	fcall	_i2c_start
  7543                           
  7544                           ;ds1307.c: 33:     i2c_write(0b11010000);
  7545     1165  30D0               	movlw	208
  7546     1166  160A  118A  20CE  160A  118A  	fcall	_i2c_write
  7547                           
  7548                           ;ds1307.c: 34:     i2c_write(addr);
  7549     116B  0879               	movf	write_ds1307@addr,w
  7550     116C  160A  118A  20CE  160A  118A  	fcall	_i2c_write
  7551                           
  7552                           ;ds1307.c: 35:     i2c_write(data);
  7553     1171  0878               	movf	write_ds1307@data,w
  7554     1172  160A  118A  20CE  160A  118A  	fcall	_i2c_write
  7555                           
  7556                           ;ds1307.c: 36:     i2c_stop();
  7557     1177  160A  118A  20A6  160A  118A  	fcall	_i2c_stop
  7558     117C                     l146:
  7559     117C  0008               	return
  7560     117D                     __end_of_write_ds1307:
  7561                           
  7562                           	psect	text24
  7563     1088                     __ptext24:	
  7564 ;; *************** function _init_digital_keypad *****************
  7565 ;; Defined at:
  7566 ;;		line 4 in file "digital_keypad.c"
  7567 ;; Parameters:    Size  Location     Type
  7568 ;;		None
  7569 ;; Auto vars:     Size  Location     Type
  7570 ;;		None
  7571 ;; Return value:  Size  Location     Type
  7572 ;;                  1    wreg      void 
  7573 ;; Registers used:
  7574 ;;		wreg, status,2
  7575 ;; Tracked objects:
  7576 ;;		On entry : 0/0
  7577 ;;		On exit  : 0/0
  7578 ;;		Unchanged: 0/0
  7579 ;; Data sizes:     COMMON   BANK0   BANK1   BANK3   BANK2
  7580 ;;      Params:         0       0       0       0       0
  7581 ;;      Locals:         0       0       0       0       0
  7582 ;;      Temps:          0       0       0       0       0
  7583 ;;      Totals:         0       0       0       0       0
  7584 ;;Total ram usage:        0 bytes
  7585 ;; Hardware stack levels used: 1
  7586 ;; This function calls:
  7587 ;;		Nothing
  7588 ;; This function is called by:
  7589 ;;		_init_config
  7590 ;; This function uses a non-reentrant model
  7591 ;;
  7592                           
  7593     1088                     _init_digital_keypad:	
  7594                           ;psect for function _init_digital_keypad
  7595                           
  7596     1088                     l2787:	
  7597                           ;incstack = 0
  7598                           ; Regs used in _init_digital_keypad: [wreg+status,2]
  7599                           
  7600                           
  7601                           ;digital_keypad.c: 7:     TRISB = TRISB | 0x3F;
  7602     1088  1683               	bsf	3,5	;RP0=1, select bank1
  7603     1089  1303               	bcf	3,6	;RP1=0, select bank1
  7604     108A  0806               	movf	6,w	;volatile
  7605     108B  383F               	iorlw	63
  7606     108C  0086               	movwf	6	;volatile
  7607     108D                     l159:
  7608     108D  0008               	return
  7609     108E                     __end_of_init_digital_keypad:
  7610                           
  7611                           	psect	text25
  7612     10D9                     __ptext25:	
  7613 ;; *************** function _init_clcd *****************
  7614 ;; Defined at:
  7615 ;;		line 44 in file "clcd.c"
  7616 ;; Parameters:    Size  Location     Type
  7617 ;;		None
  7618 ;; Auto vars:     Size  Location     Type
  7619 ;;		None
  7620 ;; Return value:  Size  Location     Type
  7621 ;;                  1    wreg      void 
  7622 ;; Registers used:
  7623 ;;		wreg, status,2, status,0, pclath, cstack
  7624 ;; Tracked objects:
  7625 ;;		On entry : 0/0
  7626 ;;		On exit  : 0/0
  7627 ;;		Unchanged: 0/0
  7628 ;; Data sizes:     COMMON   BANK0   BANK1   BANK3   BANK2
  7629 ;;      Params:         0       0       0       0       0
  7630 ;;      Locals:         0       0       0       0       0
  7631 ;;      Temps:          0       0       0       0       0
  7632 ;;      Totals:         0       0       0       0       0
  7633 ;;Total ram usage:        0 bytes
  7634 ;; Hardware stack levels used: 1
  7635 ;; Hardware stack levels required when called: 2
  7636 ;; This function calls:
  7637 ;;		_init_display_controller
  7638 ;; This function is called by:
  7639 ;;		_init_config
  7640 ;; This function uses a non-reentrant model
  7641 ;;
  7642                           
  7643     10D9                     _init_clcd:	
  7644                           ;psect for function _init_clcd
  7645                           
  7646     10D9                     l2779:	
  7647                           ;incstack = 0
  7648                           ; Regs used in _init_clcd: [wreg+status,2+status,0+pclath+cstack]
  7649                           
  7650                           
  7651                           ;clcd.c: 47:     TRISD = 0x00;
  7652     10D9  1683               	bsf	3,5	;RP0=1, select bank1
  7653     10DA  1303               	bcf	3,6	;RP1=0, select bank1
  7654     10DB  0188               	clrf	8	;volatile
  7655     10DC                     l2781:
  7656                           
  7657                           ;clcd.c: 50:     TRISE2 = 0;
  7658     10DC  1109               	bcf	9,2	;volatile
  7659     10DD                     l2783:
  7660                           
  7661                           ;clcd.c: 51:     TRISE1 = 0;
  7662     10DD  1089               	bcf	9,1	;volatile
  7663     10DE                     l2785:
  7664                           
  7665                           ;clcd.c: 53:     init_display_controller();
  7666     10DE  160A  118A  2505  160A  118A  	fcall	_init_display_controller
  7667     10E3                     l91:
  7668     10E3  0008               	return
  7669     10E4                     __end_of_init_clcd:
  7670                           
  7671                           	psect	text26
  7672     1505                     __ptext26:	
  7673 ;; *************** function _init_display_controller *****************
  7674 ;; Defined at:
  7675 ;;		line 21 in file "clcd.c"
  7676 ;; Parameters:    Size  Location     Type
  7677 ;;		None
  7678 ;; Auto vars:     Size  Location     Type
  7679 ;;		None
  7680 ;; Return value:  Size  Location     Type
  7681 ;;                  1    wreg      void 
  7682 ;; Registers used:
  7683 ;;		wreg, status,2, status,0, pclath, cstack
  7684 ;; Tracked objects:
  7685 ;;		On entry : 0/0
  7686 ;;		On exit  : 0/0
  7687 ;;		Unchanged: 0/0
  7688 ;; Data sizes:     COMMON   BANK0   BANK1   BANK3   BANK2
  7689 ;;      Params:         0       0       0       0       0
  7690 ;;      Locals:         0       0       0       0       0
  7691 ;;      Temps:          2       0       0       0       0
  7692 ;;      Totals:         2       0       0       0       0
  7693 ;;Total ram usage:        2 bytes
  7694 ;; Hardware stack levels used: 1
  7695 ;; Hardware stack levels required when called: 1
  7696 ;; This function calls:
  7697 ;;		_clcd_write
  7698 ;; This function is called by:
  7699 ;;		_init_clcd
  7700 ;; This function uses a non-reentrant model
  7701 ;;
  7702                           
  7703     1505                     _init_display_controller:	
  7704                           ;psect for function _init_display_controller
  7705                           
  7706     1505                     l2583:	
  7707                           ;incstack = 0
  7708                           ; Regs used in _init_display_controller: [wreg+status,2+status,0+pclath+cstack]
  7709                           
  7710                           
  7711                           ;clcd.c: 24:     _delay((unsigned long)((30)*(20000000/4000.0)));
  7712     1505  30C3               	movlw	195
  7713     1506  00F5               	movwf	??_init_display_controller+1
  7714     1507  30CD               	movlw	205
  7715     1508  00F4               	movwf	??_init_display_controller
  7716     1509                     u4417:
  7717     1509  0BF4               	decfsz	??_init_display_controller,f
  7718     150A  2D09               	goto	u4417
  7719     150B  0BF5               	decfsz	??_init_display_controller+1,f
  7720     150C  2D09               	goto	u4417
  7721     150D                     l2585:
  7722                           
  7723                           ;clcd.c: 27:     clcd_write(0x33, 0);
  7724     150D  01F0               	clrf	clcd_write@mode
  7725     150E  3033               	movlw	51
  7726     150F  160A  118A  2359  160A  118A  	fcall	_clcd_write
  7727     1514                     l2587:
  7728                           
  7729                           ;clcd.c: 28:     _delay((unsigned long)((4100)*(20000000/4000000.0)));
  7730     1514  301B               	movlw	27
  7731     1515  00F5               	movwf	??_init_display_controller+1
  7732     1516  309E               	movlw	158
  7733     1517  00F4               	movwf	??_init_display_controller
  7734     1518                     u4427:
  7735     1518  0BF4               	decfsz	??_init_display_controller,f
  7736     1519  2D18               	goto	u4427
  7737     151A  0BF5               	decfsz	??_init_display_controller+1,f
  7738     151B  2D18               	goto	u4427
  7739     151C  0000               	nop
  7740                           
  7741                           ;clcd.c: 29:     clcd_write(0x33, 0);
  7742     151D  01F0               	clrf	clcd_write@mode
  7743     151E  3033               	movlw	51
  7744     151F  160A  118A  2359  160A  118A  	fcall	_clcd_write
  7745     1524                     l2589:
  7746                           
  7747                           ;clcd.c: 30:     _delay((unsigned long)((100)*(20000000/4000000.0)));
  7748     1524  30A6               	movlw	166
  7749     1525  00F4               	movwf	??_init_display_controller
  7750     1526                     u4437:
  7751     1526  0BF4               	decfsz	??_init_display_controller,f
  7752     1527  2D26               	goto	u4437
  7753     1528  0000               	nop
  7754     1529                     l2591:
  7755                           
  7756                           ;clcd.c: 31:     clcd_write(0x33, 0);
  7757     1529  01F0               	clrf	clcd_write@mode
  7758     152A  3033               	movlw	51
  7759     152B  160A  118A  2359  160A  118A  	fcall	_clcd_write
  7760     1530                     l2593:
  7761                           
  7762                           ;clcd.c: 32:     _delay((unsigned long)((1)*(20000000/4000000.0)));
  7763     1530  2D31               	nop2	;2 cycle nop
  7764     1531  2D32               	nop2	;2 cycle nop
  7765     1532  0000               	nop
  7766     1533                     l2595:
  7767                           
  7768                           ;clcd.c: 34:     clcd_write(0x02, 0);
  7769     1533  01F0               	clrf	clcd_write@mode
  7770     1534  3002               	movlw	2
  7771     1535  160A  118A  2359  160A  118A  	fcall	_clcd_write
  7772     153A                     l2597:
  7773                           
  7774                           ;clcd.c: 35:     _delay((unsigned long)((100)*(20000000/4000000.0)));
  7775     153A  30A6               	movlw	166
  7776     153B  00F4               	movwf	??_init_display_controller
  7777     153C                     u4447:
  7778     153C  0BF4               	decfsz	??_init_display_controller,f
  7779     153D  2D3C               	goto	u4447
  7780     153E  0000               	nop
  7781                           
  7782                           ;clcd.c: 36:     clcd_write(0x28, 0);
  7783     153F  01F0               	clrf	clcd_write@mode
  7784     1540  3028               	movlw	40
  7785     1541  160A  118A  2359  160A  118A  	fcall	_clcd_write
  7786     1546                     l2599:
  7787                           
  7788                           ;clcd.c: 37:     _delay((unsigned long)((100)*(20000000/4000000.0)));
  7789     1546  30A6               	movlw	166
  7790     1547  00F4               	movwf	??_init_display_controller
  7791     1548                     u4457:
  7792     1548  0BF4               	decfsz	??_init_display_controller,f
  7793     1549  2D48               	goto	u4457
  7794     154A  0000               	nop
  7795     154B                     l2601:
  7796                           
  7797                           ;clcd.c: 38:     clcd_write(0x01, 0);
  7798     154B  01F0               	clrf	clcd_write@mode
  7799     154C  3001               	movlw	1
  7800     154D  160A  118A  2359  160A  118A  	fcall	_clcd_write
  7801                           
  7802                           ;clcd.c: 39:     _delay((unsigned long)((500)*(20000000/4000000.0)));
  7803     1552  3004               	movlw	4
  7804     1553  00F5               	movwf	??_init_display_controller+1
  7805     1554  303D               	movlw	61
  7806     1555  00F4               	movwf	??_init_display_controller
  7807     1556                     u4467:
  7808     1556  0BF4               	decfsz	??_init_display_controller,f
  7809     1557  2D56               	goto	u4467
  7810     1558  0BF5               	decfsz	??_init_display_controller+1,f
  7811     1559  2D56               	goto	u4467
  7812     155A  2D5B               	nop2
  7813     155B                     l2603:
  7814                           
  7815                           ;clcd.c: 40:     clcd_write(0x0C, 0);
  7816     155B  01F0               	clrf	clcd_write@mode
  7817     155C  300C               	movlw	12
  7818     155D  160A  118A  2359  160A  118A  	fcall	_clcd_write
  7819     1562                     l2605:
  7820                           
  7821                           ;clcd.c: 41:     _delay((unsigned long)((100)*(20000000/4000000.0)));
  7822     1562  30A6               	movlw	166
  7823     1563  00F4               	movwf	??_init_display_controller
  7824     1564                     u4477:
  7825     1564  0BF4               	decfsz	??_init_display_controller,f
  7826     1565  2D64               	goto	u4477
  7827     1566  0000               	nop
  7828     1567                     l88:
  7829     1567  0008               	return
  7830     1568                     __end_of_init_display_controller:
  7831                           
  7832                           	psect	text27
  7833     108E                     __ptext27:	
  7834 ;; *************** function _init_adc *****************
  7835 ;; Defined at:
  7836 ;;		line 4 in file "adc.c"
  7837 ;; Parameters:    Size  Location     Type
  7838 ;;		None
  7839 ;; Auto vars:     Size  Location     Type
  7840 ;;		None
  7841 ;; Return value:  Size  Location     Type
  7842 ;;                  1    wreg      void 
  7843 ;; Registers used:
  7844 ;;		None
  7845 ;; Tracked objects:
  7846 ;;		On entry : 0/0
  7847 ;;		On exit  : 0/0
  7848 ;;		Unchanged: 0/0
  7849 ;; Data sizes:     COMMON   BANK0   BANK1   BANK3   BANK2
  7850 ;;      Params:         0       0       0       0       0
  7851 ;;      Locals:         0       0       0       0       0
  7852 ;;      Temps:          0       0       0       0       0
  7853 ;;      Totals:         0       0       0       0       0
  7854 ;;Total ram usage:        0 bytes
  7855 ;; Hardware stack levels used: 1
  7856 ;; This function calls:
  7857 ;;		Nothing
  7858 ;; This function is called by:
  7859 ;;		_init_config
  7860 ;; This function uses a non-reentrant model
  7861 ;;
  7862                           
  7863     108E                     _init_adc:	
  7864                           ;psect for function _init_adc
  7865                           
  7866     108E                     l2769:	
  7867                           ;incstack = 0
  7868                           ; Regs used in _init_adc: []
  7869                           
  7870                           
  7871                           ;adc.c: 7:     ADFM = 1;
  7872     108E  1683               	bsf	3,5	;RP0=1, select bank1
  7873     108F  1303               	bcf	3,6	;RP1=0, select bank1
  7874     1090  179F               	bsf	31,7	;volatile
  7875                           
  7876                           ;adc.c: 10:     ADON = 1;
  7877     1091  1283               	bcf	3,5	;RP0=0, select bank0
  7878     1092  1303               	bcf	3,6	;RP1=0, select bank0
  7879     1093  141F               	bsf	31,0	;volatile
  7880     1094                     l17:
  7881     1094  0008               	return
  7882     1095                     __end_of_init_adc:
  7883                           
  7884                           	psect	text28
  7885     0005                     __ptext28:	
  7886 ;; *************** function _dashboard *****************
  7887 ;; Defined at:
  7888 ;;		line 23 in file "dashboard.c"
  7889 ;; Parameters:    Size  Location     Type
  7890 ;;  key             1    wreg     unsigned char 
  7891 ;; Auto vars:     Size  Location     Type
  7892 ;;  key             1   46[BANK0 ] unsigned char 
  7893 ;; Return value:  Size  Location     Type
  7894 ;;                  1    wreg      void 
  7895 ;; Registers used:
  7896 ;;		wreg, fsr0l, fsr0h, status,2, status,0, pclath, btemp1, cstack
  7897 ;; Tracked objects:
  7898 ;;		On entry : 0/0
  7899 ;;		On exit  : 0/0
  7900 ;;		Unchanged: 0/0
  7901 ;; Data sizes:     COMMON   BANK0   BANK1   BANK3   BANK2
  7902 ;;      Params:         0       0       0       0       0
  7903 ;;      Locals:         0       1       0       0       0
  7904 ;;      Temps:          0       4       0       0       0
  7905 ;;      Totals:         0       5       0       0       0
  7906 ;;Total ram usage:        5 bytes
  7907 ;; Hardware stack levels used: 1
  7908 ;; Hardware stack levels required when called: 5
  7909 ;; This function calls:
  7910 ;;		___fldiv
  7911 ;;		___fltol
  7912 ;;		___lwdiv
  7913 ;;		___lwmod
  7914 ;;		___xxtofl
  7915 ;;		_clcd_print
  7916 ;;		_display_time
  7917 ;;		_get_time
  7918 ;;		_read_adc
  7919 ;;		_store_event
  7920 ;; This function is called by:
  7921 ;;		_main
  7922 ;; This function uses a non-reentrant model
  7923 ;;
  7924                           
  7925     0005                     _dashboard:	
  7926                           ;psect for function _dashboard
  7927                           
  7928                           
  7929                           ;incstack = 0
  7930                           ; Regs used in _dashboard: [wreg-fsr0h+status,2+status,0+pclath+btemp1+cstack]
  7931                           ;dashboard@key stored from wreg
  7932     0005  1283               	bcf	3,5	;RP0=0, select bank0
  7933     0006  1303               	bcf	3,6	;RP1=0, select bank0
  7934     0007  00CE               	movwf	dashboard@key
  7935     0008                     l3577:
  7936                           
  7937                           ;dashboard.c: 24:     clcd_print(" TIME     EV  SP", (0x80 + 0));
  7938     0008  305A               	movlw	low (STR_11| (0+32768))
  7939     0009  00F4               	movwf	clcd_print@str
  7940     000A  3088               	movlw	high (STR_11| (0+32768))
  7941     000B  00F5               	movwf	clcd_print@str+1
  7942     000C  3080               	movlw	128
  7943     000D  00F6               	movwf	clcd_print@addr
  7944     000E  160A  118A  22C8  120A  118A  	fcall	_clcd_print
  7945     0013                     l3579:
  7946                           
  7947                           ;dashboard.c: 26:     get_time(clock_reg);
  7948     0013  3061               	movlw	(low (_clock_reg| 0))& (0+255)
  7949     0014  00F4               	movwf	get_time@clock_reg
  7950     0015  160A  118A  21BB  120A  118A  	fcall	_get_time
  7951     001A                     l3581:
  7952                           
  7953                           ;dashboard.c: 27:     display_time(clock_reg);
  7954     001A  3061               	movlw	(low (_clock_reg| 0))& (0+255)
  7955     001B  00F7               	movwf	display_time@clock_reg
  7956     001C  160A  118A  2409  120A  118A  	fcall	_display_time
  7957     0021                     l3583:
  7958                           
  7959                           ;dashboard.c: 28:     clcd_print(" TIME     EV  SP", (0x80 + 0));
  7960     0021  305A               	movlw	low (STR_11| (0+32768))
  7961     0022  00F4               	movwf	clcd_print@str
  7962     0023  3088               	movlw	high (STR_11| (0+32768))
  7963     0024  00F5               	movwf	clcd_print@str+1
  7964     0025  3080               	movlw	128
  7965     0026  00F6               	movwf	clcd_print@addr
  7966     0027  160A  118A  22C8  120A  118A  	fcall	_clcd_print
  7967     002C                     l3585:
  7968                           
  7969                           ;dashboard.c: 30:     if(key == 0x3E)
  7970     002C  303E               	movlw	62
  7971     002D  1283               	bcf	3,5	;RP0=0, select bank0
  7972     002E  1303               	bcf	3,6	;RP1=0, select bank0
  7973     002F  064E               	xorwf	dashboard@key,w
  7974     0030  1D03               	btfss	3,2
  7975     0031  2833               	goto	u3921
  7976     0032  2834               	goto	u3920
  7977     0033                     u3921:
  7978     0033  285B               	goto	l3597
  7979     0034                     u3920:
  7980     0034                     l3587:
  7981                           
  7982                           ;dashboard.c: 31:     {;dashboard.c: 33:         if(pos == 7)
  7983     0034  3007               	movlw	7
  7984     0035  0651               	xorwf	_pos,w
  7985     0036  0452               	iorwf	_pos+1,w
  7986     0037  1D03               	btfss	3,2
  7987     0038  283A               	goto	u3931
  7988     0039  283B               	goto	u3930
  7989     003A                     u3931:
  7990     003A  2840               	goto	l3591
  7991     003B                     u3930:
  7992     003B                     l3589:
  7993                           
  7994                           ;dashboard.c: 34:         {;dashboard.c: 35:             pos = 1;
  7995     003B  3001               	movlw	1
  7996     003C  00D1               	movwf	_pos
  7997     003D  3000               	movlw	0
  7998     003E  00D2               	movwf	_pos+1
  7999                           
  8000                           ;dashboard.c: 36:         }
  8001     003F  2855               	goto	l3595
  8002     0040                     l3591:
  8003     0040  0852               	movf	_pos+1,w
  8004     0041  3A80               	xorlw	128
  8005     0042  00FF               	movwf	btemp1
  8006     0043  3080               	movlw	128
  8007     0044  027F               	subwf	btemp1,w
  8008     0045  1D03               	skipz
  8009     0046  2849               	goto	u3945
  8010     0047  3006               	movlw	6
  8011     0048  0251               	subwf	_pos,w
  8012     0049                     u3945:
  8013     0049  1803               	skipnc
  8014     004A  284C               	goto	u3941
  8015     004B  284D               	goto	u3940
  8016     004C                     u3941:
  8017     004C  2855               	goto	l3595
  8018     004D                     u3940:
  8019     004D                     l3593:
  8020                           
  8021                           ;dashboard.c: 39:         {;dashboard.c: 40:             pos++;
  8022     004D  3001               	movlw	1
  8023     004E  1283               	bcf	3,5	;RP0=0, select bank0
  8024     004F  1303               	bcf	3,6	;RP1=0, select bank0
  8025     0050  07D1               	addwf	_pos,f
  8026     0051  1803               	skipnc
  8027     0052  0AD2               	incf	_pos+1,f
  8028     0053  3000               	movlw	0
  8029     0054  07D2               	addwf	_pos+1,f
  8030     0055                     l3595:
  8031                           
  8032                           ;dashboard.c: 43:         store_event();
  8033     0055  160A  118A  2697  120A  118A  	fcall	_store_event
  8034                           
  8035                           ;dashboard.c: 44:     }
  8036     005A  288A               	goto	l3615
  8037     005B                     l3597:
  8038     005B  303D               	movlw	61
  8039     005C  064E               	xorwf	dashboard@key,w
  8040     005D  1D03               	btfss	3,2
  8041     005E  2860               	goto	u3951
  8042     005F  2861               	goto	u3950
  8043     0060                     u3951:
  8044     0060  287F               	goto	l3609
  8045     0061                     u3950:
  8046     0061                     l3599:
  8047                           
  8048                           ;dashboard.c: 46:     {;dashboard.c: 48:         if(pos == 7)
  8049     0061  3007               	movlw	7
  8050     0062  0651               	xorwf	_pos,w
  8051     0063  0452               	iorwf	_pos+1,w
  8052     0064  1D03               	btfss	3,2
  8053     0065  2867               	goto	u3961
  8054     0066  2868               	goto	u3960
  8055     0067                     u3961:
  8056     0067  2869               	goto	l3603
  8057     0068                     u3960:
  8058     0068  283B               	goto	l3589
  8059     0069                     l3603:
  8060     0069  0852               	movf	_pos+1,w
  8061     006A  3A80               	xorlw	128
  8062     006B  00FF               	movwf	btemp1
  8063     006C  3080               	movlw	128
  8064     006D  027F               	subwf	btemp1,w
  8065     006E  1D03               	skipz
  8066     006F  2872               	goto	u3975
  8067     0070  3001               	movlw	1
  8068     0071  0251               	subwf	_pos,w
  8069     0072                     u3975:
  8070     0072  1C03               	skipc
  8071     0073  2875               	goto	u3971
  8072     0074  2876               	goto	u3970
  8073     0075                     u3971:
  8074     0075  2855               	goto	l3595
  8075     0076                     u3970:
  8076     0076                     l3605:
  8077                           
  8078                           ;dashboard.c: 54:         {;dashboard.c: 55:             pos--;
  8079     0076  30FF               	movlw	255
  8080     0077  1283               	bcf	3,5	;RP0=0, select bank0
  8081     0078  1303               	bcf	3,6	;RP1=0, select bank0
  8082     0079  07D1               	addwf	_pos,f
  8083     007A  1803               	skipnc
  8084     007B  0AD2               	incf	_pos+1,f
  8085     007C  30FF               	movlw	255
  8086     007D  07D2               	addwf	_pos+1,f
  8087     007E  2855               	goto	l3595
  8088     007F                     l3609:
  8089     007F  303B               	movlw	59
  8090     0080  064E               	xorwf	dashboard@key,w
  8091     0081  1D03               	btfss	3,2
  8092     0082  2884               	goto	u3981
  8093     0083  2885               	goto	u3980
  8094     0084                     u3981:
  8095     0084  288A               	goto	l3615
  8096     0085                     u3980:
  8097     0085                     l3611:
  8098                           
  8099                           ;dashboard.c: 61:     {;dashboard.c: 62:         pos = 7;
  8100     0085  3007               	movlw	7
  8101     0086  00D1               	movwf	_pos
  8102     0087  3000               	movlw	0
  8103     0088  00D2               	movwf	_pos+1
  8104     0089  2855               	goto	l3595
  8105     008A                     l3615:
  8106                           
  8107                           ;dashboard.c: 66:     clcd_print(event[pos], (0xC0 + 10));
  8108     008A  1283               	bcf	3,5	;RP0=0, select bank0
  8109     008B  1303               	bcf	3,6	;RP1=0, select bank0
  8110     008C  0851               	movf	_pos,w
  8111     008D  00CA               	movwf	??_dashboard
  8112     008E  074A               	addwf	??_dashboard,w
  8113     008F  3ECB               	addlw	(low (_event| 0))& (0+255)
  8114     0090  0084               	movwf	4
  8115     0091  1383               	bcf	3,7	;select IRP bank1
  8116     0092  0800               	movf	0,w
  8117     0093  00F4               	movwf	clcd_print@str
  8118     0094  0A84               	incf	4,f
  8119     0095  0800               	movf	0,w
  8120     0096  0384               	decf	4,f
  8121     0097  00F5               	movwf	clcd_print@str+1
  8122     0098  30CA               	movlw	202
  8123     0099  00F6               	movwf	clcd_print@addr
  8124     009A  160A  118A  22C8  120A  118A  	fcall	_clcd_print
  8125     009F                     l3617:
  8126                           
  8127                           ;dashboard.c: 69:     adc_val = read_adc(0x00) / 10.23;
  8128     009F  3000               	movlw	0
  8129     00A0  160A  118A  217D  120A  118A  	fcall	_read_adc
  8130     00A5  0870               	movf	?_read_adc,w
  8131     00A6  1283               	bcf	3,5	;RP0=0, select bank0
  8132     00A7  1303               	bcf	3,6	;RP1=0, select bank0
  8133     00A8  00CA               	movwf	??_dashboard
  8134     00A9  0871               	movf	?_read_adc+1,w
  8135     00AA  00CB               	movwf	??_dashboard+1
  8136     00AB  01CC               	clrf	??_dashboard+2
  8137     00AC  01CD               	clrf	??_dashboard+3
  8138     00AD  084D               	movf	??_dashboard+3,w
  8139     00AE  00F9               	movwf	___xxtofl@val+3
  8140     00AF  084C               	movf	??_dashboard+2,w
  8141     00B0  00F8               	movwf	___xxtofl@val+2
  8142     00B1  084B               	movf	??_dashboard+1,w
  8143     00B2  00F7               	movwf	___xxtofl@val+1
  8144     00B3  084A               	movf	??_dashboard,w
  8145     00B4  00F6               	movwf	___xxtofl@val
  8146     00B5  3000               	movlw	0
  8147     00B6  160A  118A  274A  120A  118A  	fcall	___xxtofl
  8148     00BB  0879               	movf	?___xxtofl+3,w
  8149     00BC  1283               	bcf	3,5	;RP0=0, select bank0
  8150     00BD  1303               	bcf	3,6	;RP1=0, select bank0
  8151     00BE  00AD               	movwf	___fldiv@b+3
  8152     00BF  0878               	movf	?___xxtofl+2,w
  8153     00C0  00AC               	movwf	___fldiv@b+2
  8154     00C1  0877               	movf	?___xxtofl+1,w
  8155     00C2  00AB               	movwf	___fldiv@b+1
  8156     00C3  0876               	movf	?___xxtofl,w
  8157     00C4  00AA               	movwf	___fldiv@b
  8158     00C5  3041               	movlw	65
  8159     00C6  00A9               	movwf	___fldiv@a+3
  8160     00C7  3023               	movlw	35
  8161     00C8  00A8               	movwf	___fldiv@a+2
  8162     00C9  30AE               	movlw	174
  8163     00CA  00A7               	movwf	___fldiv@a+1
  8164     00CB  3014               	movlw	20
  8165     00CC  00A6               	movwf	___fldiv@a
  8166     00CD  120A  158A  2636  120A  118A  	fcall	___fldiv
  8167     00D2  1283               	bcf	3,5	;RP0=0, select bank0
  8168     00D3  1303               	bcf	3,6	;RP1=0, select bank0
  8169     00D4  0829               	movf	?___fldiv+3,w
  8170     00D5  00C3               	movwf	___fltol@f1+3
  8171     00D6  0828               	movf	?___fldiv+2,w
  8172     00D7  00C2               	movwf	___fltol@f1+2
  8173     00D8  0827               	movf	?___fldiv+1,w
  8174     00D9  00C1               	movwf	___fltol@f1+1
  8175     00DA  0826               	movf	?___fldiv,w
  8176     00DB  00C0               	movwf	___fltol@f1
  8177     00DC  120A  158A  2230  120A  118A  	fcall	___fltol
  8178     00E1  1283               	bcf	3,5	;RP0=0, select bank0
  8179     00E2  1303               	bcf	3,6	;RP1=0, select bank0
  8180     00E3  0841               	movf	?___fltol+1,w
  8181     00E4  1683               	bsf	3,5	;RP0=1, select bank1
  8182     00E5  1303               	bcf	3,6	;RP1=0, select bank1
  8183     00E6  00AF               	movwf	(_adc_val+1)^(0+128)
  8184     00E7  1283               	bcf	3,5	;RP0=0, select bank0
  8185     00E8  1303               	bcf	3,6	;RP1=0, select bank0
  8186     00E9  0840               	movf	?___fltol,w
  8187     00EA  1683               	bsf	3,5	;RP0=1, select bank1
  8188     00EB  1303               	bcf	3,6	;RP1=0, select bank1
  8189     00EC  00AE               	movwf	_adc_val^(0+128)
  8190     00ED                     l3619:
  8191                           
  8192                           ;dashboard.c: 70:     speed[0] = ( adc_val / 10 ) + '0';
  8193     00ED  300A               	movlw	10
  8194     00EE  00F0               	movwf	___lwdiv@divisor
  8195     00EF  3000               	movlw	0
  8196     00F0  00F1               	movwf	___lwdiv@divisor+1
  8197     00F1  082F               	movf	(_adc_val+1)^(0+128),w
  8198     00F2  00F3               	movwf	___lwdiv@dividend+1
  8199     00F3  082E               	movf	_adc_val^(0+128),w
  8200     00F4  00F2               	movwf	___lwdiv@dividend
  8201     00F5  160A  118A  23C7  120A  118A  	fcall	___lwdiv
  8202     00FA  0870               	movf	?___lwdiv,w
  8203     00FB  3E30               	addlw	48
  8204     00FC  1683               	bsf	3,5	;RP0=1, select bank1
  8205     00FD  1303               	bcf	3,6	;RP1=0, select bank1
  8206     00FE  00C8               	movwf	_speed^(0+128)
  8207     00FF                     l3621:
  8208                           
  8209                           ;dashboard.c: 71:     speed[1] = ( adc_val % 10 ) + '0';
  8210     00FF  300A               	movlw	10
  8211     0100  00F0               	movwf	___lwmod@divisor
  8212     0101  3000               	movlw	0
  8213     0102  00F1               	movwf	___lwmod@divisor+1
  8214     0103  082F               	movf	(_adc_val+1)^(0+128),w
  8215     0104  00F3               	movwf	___lwmod@dividend+1
  8216     0105  082E               	movf	_adc_val^(0+128),w
  8217     0106  00F2               	movwf	___lwmod@dividend
  8218     0107  160A  118A  238F  120A  118A  	fcall	___lwmod
  8219     010C  0870               	movf	?___lwmod,w
  8220     010D  3E30               	addlw	48
  8221     010E  1683               	bsf	3,5	;RP0=1, select bank1
  8222     010F  1303               	bcf	3,6	;RP1=0, select bank1
  8223     0110  00C9               	movwf	(_speed^(0+128)+1)
  8224     0111                     l3623:
  8225                           
  8226                           ;dashboard.c: 72:     speed[2] = '\0';
  8227     0111  01CA               	clrf	(_speed^(0+128)+2)
  8228     0112                     l3625:
  8229                           
  8230                           ;dashboard.c: 74:     clcd_print(speed, (0xC0 + 14));
  8231     0112  30C8               	movlw	(low (_speed| 0))& (0+255)
  8232     0113  00F4               	movwf	clcd_print@str
  8233     0114  3000               	movlw	0
  8234     0115  00F5               	movwf	clcd_print@str+1
  8235     0116  30CE               	movlw	206
  8236     0117  00F6               	movwf	clcd_print@addr
  8237     0118  160A  118A  22C8  120A  118A  	fcall	_clcd_print
  8238     011D                     l261:
  8239     011D  0008               	return
  8240     011E                     __end_of_dashboard:
  8241                           
  8242                           	psect	text29
  8243     1697                     __ptext29:	
  8244 ;; *************** function _store_event *****************
  8245 ;; Defined at:
  8246 ;;		line 78 in file "dashboard.c"
  8247 ;; Parameters:    Size  Location     Type
  8248 ;;		None
  8249 ;; Auto vars:     Size  Location     Type
  8250 ;;  i               2   12[COMMON] int 
  8251 ;; Return value:  Size  Location     Type
  8252 ;;                  1    wreg      void 
  8253 ;; Registers used:
  8254 ;;		wreg, fsr0l, fsr0h, status,2, status,0, pclath, btemp1, cstack
  8255 ;; Tracked objects:
  8256 ;;		On entry : 0/0
  8257 ;;		On exit  : 0/0
  8258 ;;		Unchanged: 0/0
  8259 ;; Data sizes:     COMMON   BANK0   BANK1   BANK3   BANK2
  8260 ;;      Params:         0       0       0       0       0
  8261 ;;      Locals:         2       0       0       0       0
  8262 ;;      Temps:          7       0       0       0       0
  8263 ;;      Totals:         9       0       0       0       0
  8264 ;;Total ram usage:        9 bytes
  8265 ;; Hardware stack levels used: 1
  8266 ;; Hardware stack levels required when called: 2
  8267 ;; This function calls:
  8268 ;;		_write_external_eeprom
  8269 ;; This function is called by:
  8270 ;;		_dashboard
  8271 ;; This function uses a non-reentrant model
  8272 ;;
  8273                           
  8274     1697                     _store_event:	
  8275                           ;psect for function _store_event
  8276                           
  8277     1697                     l2841:	
  8278                           ;incstack = 0
  8279                           ; Regs used in _store_event: [wreg-fsr0h+status,2+status,0+pclath+btemp1+cstack]
  8280                           
  8281                           
  8282                           ;dashboard.c: 81:     static unsigned char address = 0;;dashboard.c: 83:     for(int i =
      +                           0; i < 8; i++)
  8283     1697  01FC               	clrf	store_event@i
  8284     1698  01FD               	clrf	store_event@i+1
  8285     1699                     l2847:
  8286                           
  8287                           ;dashboard.c: 84:     {;dashboard.c: 85:         if(i==2 || i == 5)
  8288     1699  3002               	movlw	2
  8289     169A  067C               	xorwf	store_event@i,w
  8290     169B  047D               	iorwf	store_event@i+1,w
  8291     169C  1903               	btfsc	3,2
  8292     169D  2E9F               	goto	u2691
  8293     169E  2EA0               	goto	u2690
  8294     169F                     u2691:
  8295     169F  2EBA               	goto	l2855
  8296     16A0                     u2690:
  8297     16A0                     l2849:
  8298     16A0  3005               	movlw	5
  8299     16A1  067C               	xorwf	store_event@i,w
  8300     16A2  047D               	iorwf	store_event@i+1,w
  8301     16A3  1D03               	btfss	3,2
  8302     16A4  2EA6               	goto	u2701
  8303     16A5  2EA7               	goto	u2700
  8304     16A6                     u2701:
  8305     16A6  2EA8               	goto	l2851
  8306     16A7                     u2700:
  8307     16A7  2EBA               	goto	l2855
  8308     16A8                     l2851:
  8309                           
  8310                           ;dashboard.c: 89:         write_external_eeprom(address++,time[i]);
  8311     16A8  087C               	movf	store_event@i,w
  8312     16A9  3EB0               	addlw	(low (_time| 0))& (0+255)
  8313     16AA  0084               	movwf	4
  8314     16AB  1383               	bcf	3,7	;select IRP bank1
  8315     16AC  0800               	movf	0,w
  8316     16AD  00F1               	movwf	write_external_eeprom@data
  8317     16AE  1283               	bcf	3,5	;RP0=0, select bank0
  8318     16AF  1303               	bcf	3,6	;RP1=0, select bank0
  8319     16B0  085E               	movf	store_event@address,w
  8320     16B1  160A  118A  22F7  160A  118A  	fcall	_write_external_eeprom
  8321     16B6                     l2853:
  8322     16B6  3001               	movlw	1
  8323     16B7  1283               	bcf	3,5	;RP0=0, select bank0
  8324     16B8  1303               	bcf	3,6	;RP1=0, select bank0
  8325     16B9  07DE               	addwf	store_event@address,f
  8326     16BA                     l2855:
  8327     16BA  3001               	movlw	1
  8328     16BB  07FC               	addwf	store_event@i,f
  8329     16BC  1803               	skipnc
  8330     16BD  0AFD               	incf	store_event@i+1,f
  8331     16BE  3000               	movlw	0
  8332     16BF  07FD               	addwf	store_event@i+1,f
  8333     16C0                     l2857:
  8334     16C0  087D               	movf	store_event@i+1,w
  8335     16C1  3A80               	xorlw	128
  8336     16C2  00FF               	movwf	btemp1
  8337     16C3  3080               	movlw	128
  8338     16C4  027F               	subwf	btemp1,w
  8339     16C5  1D03               	skipz
  8340     16C6  2EC9               	goto	u2715
  8341     16C7  3008               	movlw	8
  8342     16C8  027C               	subwf	store_event@i,w
  8343     16C9                     u2715:
  8344     16C9  1C03               	skipc
  8345     16CA  2ECC               	goto	u2711
  8346     16CB  2ECD               	goto	u2710
  8347     16CC                     u2711:
  8348     16CC  2E99               	goto	l2847
  8349     16CD                     u2710:
  8350     16CD                     l2859:
  8351                           
  8352                           ;dashboard.c: 92:     write_external_eeprom(address++, event[pos][0]);
  8353     16CD  1283               	bcf	3,5	;RP0=0, select bank0
  8354     16CE  1303               	bcf	3,6	;RP1=0, select bank0
  8355     16CF  0851               	movf	_pos,w
  8356     16D0  00F5               	movwf	??_store_event
  8357     16D1  0775               	addwf	??_store_event,w
  8358     16D2  3ECB               	addlw	(low (_event| 0))& (0+255)
  8359     16D3  0084               	movwf	4
  8360     16D4  1383               	bcf	3,7	;select IRP bank1
  8361     16D5  0800               	movf	0,w
  8362     16D6  00F6               	movwf	??_store_event+1
  8363     16D7  0A84               	incf	4,f
  8364     16D8  0800               	movf	0,w
  8365     16D9  00F7               	movwf	??_store_event+2
  8366     16DA  0877               	movf	??_store_event+2,w
  8367     16DB  00FF               	movwf	btemp1
  8368     16DC  0876               	movf	??_store_event+1,w
  8369     16DD  0084               	movwf	4
  8370     16DE  160A  118A  2000  160A  118A  	fcall	stringtab
  8371     16E3  00F1               	movwf	write_external_eeprom@data
  8372     16E4  085E               	movf	store_event@address,w
  8373     16E5  160A  118A  22F7  160A  118A  	fcall	_write_external_eeprom
  8374     16EA                     l2861:
  8375     16EA  3001               	movlw	1
  8376     16EB  1283               	bcf	3,5	;RP0=0, select bank0
  8377     16EC  1303               	bcf	3,6	;RP1=0, select bank0
  8378     16ED  07DE               	addwf	store_event@address,f
  8379     16EE                     l2863:
  8380                           
  8381                           ;dashboard.c: 93:     write_external_eeprom(address++, event[pos][1]);
  8382     16EE  3001               	movlw	1
  8383     16EF  00F5               	movwf	??_store_event
  8384     16F0  0851               	movf	_pos,w
  8385     16F1  00F6               	movwf	??_store_event+1
  8386     16F2  0776               	addwf	??_store_event+1,w
  8387     16F3  3ECB               	addlw	(low (_event| 0))& (0+255)
  8388     16F4  0084               	movwf	4
  8389     16F5  1383               	bcf	3,7	;select IRP bank1
  8390     16F6  0800               	movf	0,w
  8391     16F7  00F7               	movwf	??_store_event+2
  8392     16F8  0A84               	incf	4,f
  8393     16F9  0800               	movf	0,w
  8394     16FA  00F8               	movwf	??_store_event+3
  8395     16FB  0875               	movf	??_store_event,w
  8396     16FC  0777               	addwf	??_store_event+2,w
  8397     16FD  00FA               	movwf	??_store_event+5
  8398     16FE  0878               	movf	??_store_event+3,w
  8399     16FF  00F9               	movwf	??_store_event+4
  8400     1700  1803               	skipnc
  8401     1701  0AF9               	incf	??_store_event+4,f
  8402     1702  1BF5               	btfsc	??_store_event,7
  8403     1703  03F9               	decf	??_store_event+4,f
  8404     1704  0879               	movf	??_store_event+4,w
  8405     1705  00FB               	movwf	??_store_event+6
  8406     1706  087B               	movf	??_store_event+6,w
  8407     1707  00FF               	movwf	btemp1
  8408     1708  087A               	movf	??_store_event+5,w
  8409     1709  0084               	movwf	4
  8410     170A  160A  118A  2000  160A  118A  	fcall	stringtab
  8411     170F  00F1               	movwf	write_external_eeprom@data
  8412     1710  085E               	movf	store_event@address,w
  8413     1711  160A  118A  22F7  160A  118A  	fcall	_write_external_eeprom
  8414     1716  3001               	movlw	1
  8415     1717  1283               	bcf	3,5	;RP0=0, select bank0
  8416     1718  1303               	bcf	3,6	;RP1=0, select bank0
  8417     1719  07DE               	addwf	store_event@address,f
  8418     171A                     l2865:
  8419                           
  8420                           ;dashboard.c: 95:     write_external_eeprom(address++, speed[0]);
  8421     171A  1683               	bsf	3,5	;RP0=1, select bank1
  8422     171B  1303               	bcf	3,6	;RP1=0, select bank1
  8423     171C  0848               	movf	_speed^(0+128),w
  8424     171D  00F1               	movwf	write_external_eeprom@data
  8425     171E  1283               	bcf	3,5	;RP0=0, select bank0
  8426     171F  1303               	bcf	3,6	;RP1=0, select bank0
  8427     1720  085E               	movf	store_event@address,w
  8428     1721  160A  118A  22F7  160A  118A  	fcall	_write_external_eeprom
  8429     1726                     l2867:
  8430     1726  3001               	movlw	1
  8431     1727  1283               	bcf	3,5	;RP0=0, select bank0
  8432     1728  1303               	bcf	3,6	;RP1=0, select bank0
  8433     1729  07DE               	addwf	store_event@address,f
  8434                           
  8435                           ;dashboard.c: 96:     write_external_eeprom(address++, speed[1]);
  8436     172A  1683               	bsf	3,5	;RP0=1, select bank1
  8437     172B  1303               	bcf	3,6	;RP1=0, select bank1
  8438     172C  0849               	movf	(_speed^(0+128)+1),w
  8439     172D  00F1               	movwf	write_external_eeprom@data
  8440     172E  1283               	bcf	3,5	;RP0=0, select bank0
  8441     172F  1303               	bcf	3,6	;RP1=0, select bank0
  8442     1730  085E               	movf	store_event@address,w
  8443     1731  160A  118A  22F7  160A  118A  	fcall	_write_external_eeprom
  8444     1736                     l2869:
  8445     1736  3001               	movlw	1
  8446     1737  1283               	bcf	3,5	;RP0=0, select bank0
  8447     1738  1303               	bcf	3,6	;RP1=0, select bank0
  8448     1739  07DE               	addwf	store_event@address,f
  8449     173A                     l2871:
  8450                           
  8451                           ;dashboard.c: 98:     if(address > 99)
  8452     173A  3064               	movlw	100
  8453     173B  025E               	subwf	store_event@address,w
  8454     173C  1C03               	skipc
  8455     173D  2F3F               	goto	u2721
  8456     173E  2F40               	goto	u2720
  8457     173F                     u2721:
  8458     173F  2F41               	goto	l2875
  8459     1740                     u2720:
  8460     1740                     l2873:
  8461                           
  8462                           ;dashboard.c: 99:     {;dashboard.c: 100:         address = 0;
  8463     1740  01DE               	clrf	store_event@address
  8464     1741                     l2875:
  8465                           
  8466                           ;dashboard.c: 103:     if(event_count < 10)
  8467     1741  300A               	movlw	10
  8468     1742  025F               	subwf	_event_count,w
  8469     1743  1803               	skipnc
  8470     1744  2F46               	goto	u2731
  8471     1745  2F47               	goto	u2730
  8472     1746                     u2731:
  8473     1746  2F49               	goto	l274
  8474     1747                     u2730:
  8475     1747                     l2877:
  8476                           
  8477                           ;dashboard.c: 104:     {;dashboard.c: 105:         event_count++;
  8478     1747  3001               	movlw	1
  8479     1748  07DF               	addwf	_event_count,f
  8480     1749                     l274:
  8481     1749  0008               	return
  8482     174A                     __end_of_store_event:
  8483                           
  8484                           	psect	text30
  8485     12F7                     __ptext30:	
  8486 ;; *************** function _write_external_eeprom *****************
  8487 ;; Defined at:
  8488 ;;		line 5 in file "external_eeprom.c"
  8489 ;; Parameters:    Size  Location     Type
  8490 ;;  address         1    wreg     unsigned char 
  8491 ;;  data            1    1[COMMON] unsigned char 
  8492 ;; Auto vars:     Size  Location     Type
  8493 ;;  address         1    4[COMMON] unsigned char 
  8494 ;;  wait            2    2[COMMON] unsigned int 
  8495 ;; Return value:  Size  Location     Type
  8496 ;;                  1    wreg      void 
  8497 ;; Registers used:
  8498 ;;		wreg, status,2, status,0, pclath, cstack
  8499 ;; Tracked objects:
  8500 ;;		On entry : 0/0
  8501 ;;		On exit  : 0/0
  8502 ;;		Unchanged: 0/0
  8503 ;; Data sizes:     COMMON   BANK0   BANK1   BANK3   BANK2
  8504 ;;      Params:         1       0       0       0       0
  8505 ;;      Locals:         3       0       0       0       0
  8506 ;;      Temps:          0       0       0       0       0
  8507 ;;      Totals:         4       0       0       0       0
  8508 ;;Total ram usage:        4 bytes
  8509 ;; Hardware stack levels used: 1
  8510 ;; Hardware stack levels required when called: 1
  8511 ;; This function calls:
  8512 ;;		_i2c_start
  8513 ;;		_i2c_stop
  8514 ;;		_i2c_write
  8515 ;; This function is called by:
  8516 ;;		_store_event
  8517 ;; This function uses a non-reentrant model
  8518 ;;
  8519                           
  8520     12F7                     _write_external_eeprom:	
  8521                           ;psect for function _write_external_eeprom
  8522                           
  8523                           
  8524                           ;incstack = 0
  8525                           ; Regs used in _write_external_eeprom: [wreg+status,2+status,0+pclath+cstack]
  8526                           ;write_external_eeprom@address stored from wreg
  8527     12F7  00F4               	movwf	write_external_eeprom@address
  8528     12F8                     l2609:
  8529                           
  8530                           ;external_eeprom.c: 5: void write_external_eeprom(unsigned char address, unsigned char d
      +                          ata);external_eeprom.c: 6: {;external_eeprom.c: 7:     i2c_start();
  8531     12F8  160A  118A  209D  160A  118A  	fcall	_i2c_start
  8532                           
  8533                           ;external_eeprom.c: 8:     i2c_write(0xA0);
  8534     12FD  30A0               	movlw	160
  8535     12FE  160A  118A  20CE  160A  118A  	fcall	_i2c_write
  8536                           
  8537                           ;external_eeprom.c: 9:     i2c_write(address);
  8538     1303  0874               	movf	write_external_eeprom@address,w
  8539     1304  160A  118A  20CE  160A  118A  	fcall	_i2c_write
  8540                           
  8541                           ;external_eeprom.c: 10:     i2c_write(data);
  8542     1309  0871               	movf	write_external_eeprom@data,w
  8543     130A  160A  118A  20CE  160A  118A  	fcall	_i2c_write
  8544                           
  8545                           ;external_eeprom.c: 11:     i2c_stop();
  8546     130F  160A  118A  20A6  160A  118A  	fcall	_i2c_stop
  8547     1314                     l2611:
  8548                           
  8549                           ;external_eeprom.c: 12:     for (unsigned int wait = 3000;wait--;);
  8550     1314  30B8               	movlw	184
  8551     1315  00F2               	movwf	write_external_eeprom@wait
  8552     1316  300B               	movlw	11
  8553     1317  00F3               	movwf	write_external_eeprom@wait+1
  8554     1318                     l2613:
  8555     1318  3001               	movlw	1
  8556     1319  02F2               	subwf	write_external_eeprom@wait,f
  8557     131A  3000               	movlw	0
  8558     131B  1C03               	skipc
  8559     131C  03F3               	decf	write_external_eeprom@wait+1,f
  8560     131D  02F3               	subwf	write_external_eeprom@wait+1,f
  8561     131E  0A72               	incf	write_external_eeprom@wait,w
  8562     131F  1D03               	skipz
  8563     1320  2B25               	goto	u2261
  8564     1321  0A73               	incf	write_external_eeprom@wait+1,w
  8565     1322  1D03               	btfss	3,2
  8566     1323  2B25               	goto	u2261
  8567     1324  2B26               	goto	u2260
  8568     1325                     u2261:
  8569     1325  2B18               	goto	l2613
  8570     1326                     u2260:
  8571     1326                     l116:
  8572     1326  0008               	return
  8573     1327                     __end_of_write_external_eeprom:
  8574                           
  8575                           	psect	text31
  8576     117D                     __ptext31:	
  8577 ;; *************** function _read_adc *****************
  8578 ;; Defined at:
  8579 ;;		line 13 in file "adc.c"
  8580 ;; Parameters:    Size  Location     Type
  8581 ;;  channel         1    wreg     unsigned char 
  8582 ;; Auto vars:     Size  Location     Type
  8583 ;;  channel         1    5[COMMON] unsigned char 
  8584 ;;  adc_reg_val     2    3[COMMON] unsigned short 
  8585 ;; Return value:  Size  Location     Type
  8586 ;;                  2    0[COMMON] unsigned short 
  8587 ;; Registers used:
  8588 ;;		wreg, status,2, status,0
  8589 ;; Tracked objects:
  8590 ;;		On entry : 0/0
  8591 ;;		On exit  : 0/0
  8592 ;;		Unchanged: 0/0
  8593 ;; Data sizes:     COMMON   BANK0   BANK1   BANK3   BANK2
  8594 ;;      Params:         2       0       0       0       0
  8595 ;;      Locals:         3       0       0       0       0
  8596 ;;      Temps:          1       0       0       0       0
  8597 ;;      Totals:         6       0       0       0       0
  8598 ;;Total ram usage:        6 bytes
  8599 ;; Hardware stack levels used: 1
  8600 ;; This function calls:
  8601 ;;		Nothing
  8602 ;; This function is called by:
  8603 ;;		_dashboard
  8604 ;; This function uses a non-reentrant model
  8605 ;;
  8606                           
  8607     117D                     _read_adc:	
  8608                           ;psect for function _read_adc
  8609                           
  8610                           
  8611                           ;incstack = 0
  8612                           ; Regs used in _read_adc: [wreg+status,2+status,0]
  8613                           ;read_adc@channel stored from wreg
  8614     117D  00F5               	movwf	read_adc@channel
  8615     117E                     l2771:
  8616                           
  8617                           ;adc.c: 13: unsigned short read_adc(unsigned char channel);adc.c: 14: {;adc.c: 15:     u
      +                          nsigned short adc_reg_val;;adc.c: 18:     ADCON0 = (ADCON0 & 0xC7) | (channel << 3);
  8618     117E  0875               	movf	read_adc@channel,w
  8619     117F  00F2               	movwf	??_read_adc
  8620     1180  3003               	movlw	3
  8621     1181                     u2595:
  8622     1181  1003               	clrc
  8623     1182  0DF2               	rlf	??_read_adc,f
  8624     1183  3EFF               	addlw	-1
  8625     1184  1D03               	skipz
  8626     1185  2981               	goto	u2595
  8627     1186  1283               	bcf	3,5	;RP0=0, select bank0
  8628     1187  1303               	bcf	3,6	;RP1=0, select bank0
  8629     1188  081F               	movf	31,w	;volatile
  8630     1189  39C7               	andlw	199
  8631     118A  0472               	iorwf	??_read_adc,w
  8632     118B  009F               	movwf	31	;volatile
  8633     118C                     l2773:
  8634                           
  8635                           ;adc.c: 21:     GO = 1;
  8636     118C  151F               	bsf	31,2	;volatile
  8637     118D                     l20:	
  8638                           ;adc.c: 23:     while (nDONE);
  8639                           
  8640     118D  191F               	btfsc	31,2	;volatile
  8641     118E  2990               	goto	u2601
  8642     118F  2991               	goto	u2600
  8643     1190                     u2601:
  8644     1190  298D               	goto	l20
  8645     1191                     u2600:
  8646     1191                     l2775:
  8647                           
  8648                           ;adc.c: 25:     adc_reg_val = (ADRESH << 8) | ADRESL;
  8649     1191  081E               	movf	30,w	;volatile
  8650     1192  00F4               	movwf	read_adc@adc_reg_val+1
  8651     1193  1683               	bsf	3,5	;RP0=1, select bank1
  8652     1194  1303               	bcf	3,6	;RP1=0, select bank1
  8653     1195  081E               	movf	30,w	;volatile
  8654     1196  00F3               	movwf	read_adc@adc_reg_val
  8655                           
  8656                           ;adc.c: 27:     return adc_reg_val;
  8657     1197  0874               	movf	read_adc@adc_reg_val+1,w
  8658     1198  00F1               	movwf	?_read_adc+1
  8659     1199  0873               	movf	read_adc@adc_reg_val,w
  8660     119A  00F0               	movwf	?_read_adc
  8661     119B                     l23:
  8662     119B  0008               	return
  8663     119C                     __end_of_read_adc:
  8664                           
  8665                           	psect	text32
  8666     11BB                     __ptext32:	
  8667 ;; *************** function _get_time *****************
  8668 ;; Defined at:
  8669 ;;		line 39 in file "ds1307.c"
  8670 ;; Parameters:    Size  Location     Type
  8671 ;;  clock_reg       1    4[COMMON] PTR unsigned char 
  8672 ;;		 -> clock_reg(3), 
  8673 ;; Auto vars:     Size  Location     Type
  8674 ;;		None
  8675 ;; Return value:  Size  Location     Type
  8676 ;;                  1    wreg      void 
  8677 ;; Registers used:
  8678 ;;		wreg, fsr0l, fsr0h, status,2, status,0, pclath, cstack
  8679 ;; Tracked objects:
  8680 ;;		On entry : 0/0
  8681 ;;		On exit  : 0/0
  8682 ;;		Unchanged: 0/0
  8683 ;; Data sizes:     COMMON   BANK0   BANK1   BANK3   BANK2
  8684 ;;      Params:         1       0       0       0       0
  8685 ;;      Locals:         0       0       0       0       0
  8686 ;;      Temps:          0       0       0       0       0
  8687 ;;      Totals:         1       0       0       0       0
  8688 ;;Total ram usage:        1 bytes
  8689 ;; Hardware stack levels used: 1
  8690 ;; This function calls:
  8691 ;;		_read_ds1307
  8692 ;; This function is called by:
  8693 ;;		_dashboard
  8694 ;;		_set_time
  8695 ;; This function uses a non-reentrant model
  8696 ;;
  8697                           
  8698     11BB                     _get_time:	
  8699                           ;psect for function _get_time
  8700                           
  8701     11BB                     l2623:	
  8702                           ;incstack = 0
  8703                           ; Regs used in _get_time: [wreg-fsr0h+status,2+status,0+pclath+cstack]
  8704                           
  8705                           
  8706                           ;ds1307.c: 39: void get_time(unsigned char *clock_reg);ds1307.c: 40: {;ds1307.c: 41:    
      +                           clock_reg[0] = read_ds1307(0x02);
  8707     11BB  0874               	movf	get_time@clock_reg,w
  8708     11BC  0084               	movwf	4
  8709     11BD  3002               	movlw	2
  8710     11BE  160A  118A  229D  160A  118A  	fcall	_read_ds1307
  8711     11C3  1383               	bcf	3,7	;select IRP bank0
  8712     11C4  0080               	movwf	0
  8713                           
  8714                           ;ds1307.c: 42:     clock_reg[1] = read_ds1307(0x01);
  8715     11C5  0A74               	incf	get_time@clock_reg,w
  8716     11C6  0084               	movwf	4
  8717     11C7  3001               	movlw	1
  8718     11C8  160A  118A  229D  160A  118A  	fcall	_read_ds1307
  8719     11CD  1383               	bcf	3,7	;select IRP bank0
  8720     11CE  0080               	movwf	0
  8721                           
  8722                           ;ds1307.c: 43:     clock_reg[2] = read_ds1307(0x00);
  8723     11CF  0874               	movf	get_time@clock_reg,w
  8724     11D0  3E02               	addlw	2
  8725     11D1  0084               	movwf	4
  8726     11D2  3000               	movlw	0
  8727     11D3  160A  118A  229D  160A  118A  	fcall	_read_ds1307
  8728     11D8  1383               	bcf	3,7	;select IRP bank0
  8729     11D9  0080               	movwf	0
  8730     11DA                     l149:
  8731     11DA  0008               	return
  8732     11DB                     __end_of_get_time:
  8733                           
  8734                           	psect	text33
  8735     129D                     __ptext33:	
  8736 ;; *************** function _read_ds1307 *****************
  8737 ;; Defined at:
  8738 ;;		line 15 in file "ds1307.c"
  8739 ;; Parameters:    Size  Location     Type
  8740 ;;  addr            1    wreg     unsigned char 
  8741 ;; Auto vars:     Size  Location     Type
  8742 ;;  addr            1    2[COMMON] unsigned char 
  8743 ;;  data            1    3[COMMON] unsigned char 
  8744 ;; Return value:  Size  Location     Type
  8745 ;;                  1    wreg      unsigned char 
  8746 ;; Registers used:
  8747 ;;		wreg, status,2, status,0, pclath, cstack
  8748 ;; Tracked objects:
  8749 ;;		On entry : 0/0
  8750 ;;		On exit  : 0/0
  8751 ;;		Unchanged: 0/0
  8752 ;; Data sizes:     COMMON   BANK0   BANK1   BANK3   BANK2
  8753 ;;      Params:         0       0       0       0       0
  8754 ;;      Locals:         2       0       0       0       0
  8755 ;;      Temps:          0       0       0       0       0
  8756 ;;      Totals:         2       0       0       0       0
  8757 ;;Total ram usage:        2 bytes
  8758 ;; Hardware stack levels used: 1
  8759 ;; This function calls:
  8760 ;;		_i2c_read
  8761 ;;		_i2c_rep_start
  8762 ;;		_i2c_start
  8763 ;;		_i2c_stop
  8764 ;;		_i2c_write
  8765 ;; This function is called by:
  8766 ;;		_init_ds1307
  8767 ;;		_get_time
  8768 ;; This function uses a non-reentrant model
  8769 ;;
  8770                           
  8771     129D                     _read_ds1307:	
  8772                           ;psect for function _read_ds1307
  8773                           
  8774                           
  8775                           ;incstack = 0
  8776                           ; Regs used in _read_ds1307: [wreg+status,2+status,0+pclath+cstack]
  8777                           ;read_ds1307@addr stored from wreg
  8778     129D  00F2               	movwf	read_ds1307@addr
  8779     129E                     l2565:
  8780                           
  8781                           ;ds1307.c: 15: unsigned char read_ds1307(unsigned char addr);ds1307.c: 16: {;ds1307.c: 1
      +                          7:     unsigned char data;;ds1307.c: 19:     i2c_start();
  8782     129E  160A  118A  209D  160A  118A  	fcall	_i2c_start
  8783                           
  8784                           ;ds1307.c: 20:     i2c_write(0b11010000);
  8785     12A3  30D0               	movlw	208
  8786     12A4  160A  118A  20CE  160A  118A  	fcall	_i2c_write
  8787                           
  8788                           ;ds1307.c: 21:     i2c_write(addr);
  8789     12A9  0872               	movf	read_ds1307@addr,w
  8790     12AA  160A  118A  20CE  160A  118A  	fcall	_i2c_write
  8791                           
  8792                           ;ds1307.c: 22:     i2c_rep_start();
  8793     12AF  160A  118A  20C3  160A  118A  	fcall	_i2c_rep_start
  8794                           
  8795                           ;ds1307.c: 23:     i2c_write(0b11010001);
  8796     12B4  30D1               	movlw	209
  8797     12B5  160A  118A  20CE  160A  118A  	fcall	_i2c_write
  8798                           
  8799                           ;ds1307.c: 24:     data = i2c_read(0);
  8800     12BA  3000               	movlw	0
  8801     12BB  160A  118A  21DB  160A  118A  	fcall	_i2c_read
  8802     12C0  00F3               	movwf	read_ds1307@data
  8803                           
  8804                           ;ds1307.c: 25:     i2c_stop();
  8805     12C1  160A  118A  20A6  160A  118A  	fcall	_i2c_stop
  8806     12C6                     l2567:
  8807                           
  8808                           ;ds1307.c: 27:     return data;
  8809     12C6  0873               	movf	read_ds1307@data,w
  8810     12C7                     l143:
  8811     12C7  0008               	return
  8812     12C8                     __end_of_read_ds1307:
  8813                           
  8814                           	psect	text34
  8815     10CE                     __ptext34:	
  8816 ;; *************** function _i2c_write *****************
  8817 ;; Defined at:
  8818 ;;		line 65 in file "i2c.c"
  8819 ;; Parameters:    Size  Location     Type
  8820 ;;  data            1    wreg     unsigned char 
  8821 ;; Auto vars:     Size  Location     Type
  8822 ;;  data            1    0[COMMON] unsigned char 
  8823 ;; Return value:  Size  Location     Type
  8824 ;;                  2  104[None  ] int 
  8825 ;; Registers used:
  8826 ;;		wreg, status,2, status,0, pclath, cstack
  8827 ;; Tracked objects:
  8828 ;;		On entry : 0/0
  8829 ;;		On exit  : 0/0
  8830 ;;		Unchanged: 0/0
  8831 ;; Data sizes:     COMMON   BANK0   BANK1   BANK3   BANK2
  8832 ;;      Params:         0       0       0       0       0
  8833 ;;      Locals:         1       0       0       0       0
  8834 ;;      Temps:          0       0       0       0       0
  8835 ;;      Totals:         1       0       0       0       0
  8836 ;;Total ram usage:        1 bytes
  8837 ;; Hardware stack levels used: 1
  8838 ;; This function calls:
  8839 ;;		_i2c_wait_for_idle
  8840 ;; This function is called by:
  8841 ;;		_write_external_eeprom
  8842 ;;		_read_external_eeprom
  8843 ;;		_read_ds1307
  8844 ;;		_write_ds1307
  8845 ;; This function uses a non-reentrant model
  8846 ;;
  8847                           
  8848     10CE                     _i2c_write:	
  8849                           ;psect for function _i2c_write
  8850                           
  8851                           
  8852                           ;incstack = 0
  8853                           ; Regs used in _i2c_write: [wreg+status,2+status,0+pclath+cstack]
  8854                           ;i2c_write@data stored from wreg
  8855     10CE  00F0               	movwf	i2c_write@data
  8856     10CF                     l2521:
  8857                           
  8858                           ;i2c.c: 65: int i2c_write(unsigned char data);i2c.c: 66: {;i2c.c: 67:     i2c_wait_for_i
      +                          dle();
  8859     10CF  160A  118A  20E4  160A  118A  	fcall	_i2c_wait_for_idle
  8860     10D4                     l2523:
  8861                           
  8862                           ;i2c.c: 68:     SSPBUF = data;
  8863     10D4  0870               	movf	i2c_write@data,w
  8864     10D5  1283               	bcf	3,5	;RP0=0, select bank0
  8865     10D6  1303               	bcf	3,6	;RP1=0, select bank0
  8866     10D7  0093               	movwf	19	;volatile
  8867     10D8                     l2525:
  8868     10D8                     l221:	
  8869                           ;i2c.c: 70:     return !ACKSTAT;;	Return value of _i2c_write is never used
  8870                           
  8871     10D8  0008               	return
  8872     10D9                     __end_of_i2c_write:
  8873                           
  8874                           	psect	text35
  8875     10C3                     __ptext35:	
  8876 ;; *************** function _i2c_rep_start *****************
  8877 ;; Defined at:
  8878 ;;		line 28 in file "i2c.c"
  8879 ;; Parameters:    Size  Location     Type
  8880 ;;		None
  8881 ;; Auto vars:     Size  Location     Type
  8882 ;;		None
  8883 ;; Return value:  Size  Location     Type
  8884 ;;                  1    wreg      void 
  8885 ;; Registers used:
  8886 ;;		wreg, status,2, status,0, pclath, cstack
  8887 ;; Tracked objects:
  8888 ;;		On entry : 0/0
  8889 ;;		On exit  : 0/0
  8890 ;;		Unchanged: 0/0
  8891 ;; Data sizes:     COMMON   BANK0   BANK1   BANK3   BANK2
  8892 ;;      Params:         0       0       0       0       0
  8893 ;;      Locals:         0       0       0       0       0
  8894 ;;      Temps:          0       0       0       0       0
  8895 ;;      Totals:         0       0       0       0       0
  8896 ;;Total ram usage:        0 bytes
  8897 ;; Hardware stack levels used: 1
  8898 ;; This function calls:
  8899 ;;		_i2c_start
  8900 ;;		_i2c_stop
  8901 ;; This function is called by:
  8902 ;;		_read_external_eeprom
  8903 ;;		_read_ds1307
  8904 ;; This function uses a non-reentrant model
  8905 ;;
  8906                           
  8907     10C3                     _i2c_rep_start:	
  8908                           ;psect for function _i2c_rep_start
  8909                           
  8910     10C3                     l2529:	
  8911                           ;incstack = 0
  8912                           ; Regs used in _i2c_rep_start: [wreg+status,2+status,0+pclath+cstack]
  8913                           
  8914                           
  8915                           ;i2c.c: 30:     i2c_stop();
  8916     10C3  160A  118A  20A6  160A  118A  	fcall	_i2c_stop
  8917                           
  8918                           ;i2c.c: 31:     i2c_start();
  8919     10C8  160A  118A  209D  160A  118A  	fcall	_i2c_start
  8920     10CD                     l210:
  8921     10CD  0008               	return
  8922     10CE                     __end_of_i2c_rep_start:
  8923                           
  8924                           	psect	text36
  8925     10A6                     __ptext36:	
  8926 ;; *************** function _i2c_stop *****************
  8927 ;; Defined at:
  8928 ;;		line 35 in file "i2c.c"
  8929 ;; Parameters:    Size  Location     Type
  8930 ;;		None
  8931 ;; Auto vars:     Size  Location     Type
  8932 ;;		None
  8933 ;; Return value:  Size  Location     Type
  8934 ;;                  1    wreg      void 
  8935 ;; Registers used:
  8936 ;;		wreg, status,2, status,0, pclath, cstack
  8937 ;; Tracked objects:
  8938 ;;		On entry : 0/0
  8939 ;;		On exit  : 0/0
  8940 ;;		Unchanged: 0/0
  8941 ;; Data sizes:     COMMON   BANK0   BANK1   BANK3   BANK2
  8942 ;;      Params:         0       0       0       0       0
  8943 ;;      Locals:         0       0       0       0       0
  8944 ;;      Temps:          0       0       0       0       0
  8945 ;;      Totals:         0       0       0       0       0
  8946 ;;Total ram usage:        0 bytes
  8947 ;; Hardware stack levels used: 1
  8948 ;; This function calls:
  8949 ;;		_i2c_wait_for_idle
  8950 ;; This function is called by:
  8951 ;;		_write_external_eeprom
  8952 ;;		_read_external_eeprom
  8953 ;;		_read_ds1307
  8954 ;;		_write_ds1307
  8955 ;;		_i2c_rep_start
  8956 ;; This function uses a non-reentrant model
  8957 ;;
  8958                           
  8959     10A6                     _i2c_stop:	
  8960                           ;psect for function _i2c_stop
  8961                           
  8962     10A6                     l2517:	
  8963                           ;incstack = 0
  8964                           ; Regs used in _i2c_stop: [wreg+status,2+status,0+pclath+cstack]
  8965                           
  8966                           
  8967                           ;i2c.c: 37:     i2c_wait_for_idle();
  8968     10A6  160A  118A  20E4  160A  118A  	fcall	_i2c_wait_for_idle
  8969     10AB                     l2519:
  8970                           
  8971                           ;i2c.c: 38:     PEN = 1;
  8972     10AB  1683               	bsf	3,5	;RP0=1, select bank1
  8973     10AC  1303               	bcf	3,6	;RP1=0, select bank1
  8974     10AD  1511               	bsf	17,2	;volatile
  8975     10AE                     l213:
  8976     10AE  0008               	return
  8977     10AF                     __end_of_i2c_stop:
  8978                           
  8979                           	psect	text37
  8980     109D                     __ptext37:	
  8981 ;; *************** function _i2c_start *****************
  8982 ;; Defined at:
  8983 ;;		line 22 in file "i2c.c"
  8984 ;; Parameters:    Size  Location     Type
  8985 ;;		None
  8986 ;; Auto vars:     Size  Location     Type
  8987 ;;		None
  8988 ;; Return value:  Size  Location     Type
  8989 ;;                  1    wreg      void 
  8990 ;; Registers used:
  8991 ;;		wreg, status,2, status,0, pclath, cstack
  8992 ;; Tracked objects:
  8993 ;;		On entry : 0/0
  8994 ;;		On exit  : 0/0
  8995 ;;		Unchanged: 0/0
  8996 ;; Data sizes:     COMMON   BANK0   BANK1   BANK3   BANK2
  8997 ;;      Params:         0       0       0       0       0
  8998 ;;      Locals:         0       0       0       0       0
  8999 ;;      Temps:          0       0       0       0       0
  9000 ;;      Totals:         0       0       0       0       0
  9001 ;;Total ram usage:        0 bytes
  9002 ;; Hardware stack levels used: 1
  9003 ;; This function calls:
  9004 ;;		_i2c_wait_for_idle
  9005 ;; This function is called by:
  9006 ;;		_write_external_eeprom
  9007 ;;		_read_external_eeprom
  9008 ;;		_read_ds1307
  9009 ;;		_write_ds1307
  9010 ;;		_i2c_rep_start
  9011 ;; This function uses a non-reentrant model
  9012 ;;
  9013                           
  9014     109D                     _i2c_start:	
  9015                           ;psect for function _i2c_start
  9016                           
  9017     109D                     l2513:	
  9018                           ;incstack = 0
  9019                           ; Regs used in _i2c_start: [wreg+status,2+status,0+pclath+cstack]
  9020                           
  9021                           
  9022                           ;i2c.c: 24:     i2c_wait_for_idle();
  9023     109D  160A  118A  20E4  160A  118A  	fcall	_i2c_wait_for_idle
  9024     10A2                     l2515:
  9025                           
  9026                           ;i2c.c: 25:     SEN = 1;
  9027     10A2  1683               	bsf	3,5	;RP0=1, select bank1
  9028     10A3  1303               	bcf	3,6	;RP1=0, select bank1
  9029     10A4  1411               	bsf	17,0	;volatile
  9030     10A5                     l207:
  9031     10A5  0008               	return
  9032     10A6                     __end_of_i2c_start:
  9033                           
  9034                           	psect	text38
  9035     11DB                     __ptext38:	
  9036 ;; *************** function _i2c_read *****************
  9037 ;; Defined at:
  9038 ;;		line 41 in file "i2c.c"
  9039 ;; Parameters:    Size  Location     Type
  9040 ;;  ack             1    wreg     unsigned char 
  9041 ;; Auto vars:     Size  Location     Type
  9042 ;;  ack             1    0[COMMON] unsigned char 
  9043 ;;  data            1    1[COMMON] unsigned char 
  9044 ;; Return value:  Size  Location     Type
  9045 ;;                  1    wreg      unsigned char 
  9046 ;; Registers used:
  9047 ;;		wreg, status,2, status,0, pclath, cstack
  9048 ;; Tracked objects:
  9049 ;;		On entry : 0/0
  9050 ;;		On exit  : 0/0
  9051 ;;		Unchanged: 0/0
  9052 ;; Data sizes:     COMMON   BANK0   BANK1   BANK3   BANK2
  9053 ;;      Params:         0       0       0       0       0
  9054 ;;      Locals:         2       0       0       0       0
  9055 ;;      Temps:          0       0       0       0       0
  9056 ;;      Totals:         2       0       0       0       0
  9057 ;;Total ram usage:        2 bytes
  9058 ;; Hardware stack levels used: 1
  9059 ;; This function calls:
  9060 ;;		_i2c_wait_for_idle
  9061 ;; This function is called by:
  9062 ;;		_read_external_eeprom
  9063 ;;		_read_ds1307
  9064 ;; This function uses a non-reentrant model
  9065 ;;
  9066                           
  9067     11DB                     _i2c_read:	
  9068                           ;psect for function _i2c_read
  9069                           
  9070                           
  9071                           ;incstack = 0
  9072                           ; Regs used in _i2c_read: [wreg+status,2+status,0+pclath+cstack]
  9073                           ;i2c_read@ack stored from wreg
  9074     11DB  00F0               	movwf	i2c_read@ack
  9075     11DC                     l2531:
  9076                           
  9077                           ;i2c.c: 41: unsigned char i2c_read(unsigned char ack);i2c.c: 42: {;i2c.c: 43:     unsign
      +                          ed char data;;i2c.c: 45:     i2c_wait_for_idle();
  9078     11DC  160A  118A  20E4  160A  118A  	fcall	_i2c_wait_for_idle
  9079     11E1                     l2533:
  9080                           
  9081                           ;i2c.c: 46:     RCEN = 1;
  9082     11E1  1683               	bsf	3,5	;RP0=1, select bank1
  9083     11E2  1303               	bcf	3,6	;RP1=0, select bank1
  9084     11E3  1591               	bsf	17,3	;volatile
  9085                           
  9086                           ;i2c.c: 48:     i2c_wait_for_idle();
  9087     11E4  160A  118A  20E4  160A  118A  	fcall	_i2c_wait_for_idle
  9088     11E9                     l2535:
  9089                           
  9090                           ;i2c.c: 49:     data = SSPBUF;
  9091     11E9  1283               	bcf	3,5	;RP0=0, select bank0
  9092     11EA  1303               	bcf	3,6	;RP1=0, select bank0
  9093     11EB  0813               	movf	19,w	;volatile
  9094     11EC  00F1               	movwf	i2c_read@data
  9095     11ED                     l2537:
  9096                           
  9097                           ;i2c.c: 51:     if (ack == 1)
  9098     11ED  0370               	decf	i2c_read@ack,w
  9099     11EE  1D03               	btfss	3,2
  9100     11EF  29F1               	goto	u2201
  9101     11F0  29F2               	goto	u2200
  9102     11F1                     u2201:
  9103     11F1  29F6               	goto	l216
  9104     11F2                     u2200:
  9105     11F2                     l2539:
  9106                           
  9107                           ;i2c.c: 52:     {;i2c.c: 53:         ACKDT = 1;
  9108     11F2  1683               	bsf	3,5	;RP0=1, select bank1
  9109     11F3  1303               	bcf	3,6	;RP1=0, select bank1
  9110     11F4  1691               	bsf	17,5	;volatile
  9111                           
  9112                           ;i2c.c: 54:     }
  9113     11F5  29F9               	goto	l217
  9114     11F6                     l216:	
  9115                           ;i2c.c: 55:     else
  9116                           
  9117                           
  9118                           ;i2c.c: 56:     {;i2c.c: 57:         ACKDT = 0;
  9119     11F6  1683               	bsf	3,5	;RP0=1, select bank1
  9120     11F7  1303               	bcf	3,6	;RP1=0, select bank1
  9121     11F8  1291               	bcf	17,5	;volatile
  9122     11F9                     l217:	
  9123                           ;i2c.c: 58:     }
  9124                           
  9125                           
  9126                           ;i2c.c: 60:     ACKEN = 1;
  9127     11F9  1611               	bsf	17,4	;volatile
  9128     11FA                     l2541:
  9129                           
  9130                           ;i2c.c: 62:     return data;
  9131     11FA  0871               	movf	i2c_read@data,w
  9132     11FB                     l218:
  9133     11FB  0008               	return
  9134     11FC                     __end_of_i2c_read:
  9135                           
  9136                           	psect	text39
  9137     10E4                     __ptext39:	
  9138 ;; *************** function _i2c_wait_for_idle *****************
  9139 ;; Defined at:
  9140 ;;		line 16 in file "i2c.c"
  9141 ;; Parameters:    Size  Location     Type
  9142 ;;		None
  9143 ;; Auto vars:     Size  Location     Type
  9144 ;;		None
  9145 ;; Return value:  Size  Location     Type
  9146 ;;                  1    wreg      void 
  9147 ;; Registers used:
  9148 ;;		wreg, status,2
  9149 ;; Tracked objects:
  9150 ;;		On entry : 0/0
  9151 ;;		On exit  : 0/0
  9152 ;;		Unchanged: 0/0
  9153 ;; Data sizes:     COMMON   BANK0   BANK1   BANK3   BANK2
  9154 ;;      Params:         0       0       0       0       0
  9155 ;;      Locals:         0       0       0       0       0
  9156 ;;      Temps:          0       0       0       0       0
  9157 ;;      Totals:         0       0       0       0       0
  9158 ;;Total ram usage:        0 bytes
  9159 ;; Hardware stack levels used: 1
  9160 ;; This function calls:
  9161 ;;		Nothing
  9162 ;; This function is called by:
  9163 ;;		_i2c_start
  9164 ;;		_i2c_stop
  9165 ;;		_i2c_read
  9166 ;;		_i2c_write
  9167 ;; This function uses a non-reentrant model
  9168 ;;
  9169                           
  9170     10E4                     _i2c_wait_for_idle:	
  9171                           ;psect for function _i2c_wait_for_idle
  9172                           
  9173     10E4                     l2509:	
  9174                           ;incstack = 0
  9175                           ; Regs used in _i2c_wait_for_idle: [wreg+status,2]
  9176                           
  9177     10E4                     l201:	
  9178                           ;i2c.c: 19:     while (R_nW || (SSPCON2 & 0x1F));
  9179                           
  9180     10E4  1683               	bsf	3,5	;RP0=1, select bank1
  9181     10E5  1303               	bcf	3,6	;RP1=0, select bank1
  9182     10E6  1914               	btfsc	20,2	;volatile
  9183     10E7  28E9               	goto	u2181
  9184     10E8  28EA               	goto	u2180
  9185     10E9                     u2181:
  9186     10E9  28E4               	goto	l201
  9187     10EA                     u2180:
  9188     10EA                     l2511:
  9189     10EA  0811               	movf	17,w	;volatile
  9190     10EB  391F               	andlw	31
  9191     10EC  1D03               	btfss	3,2
  9192     10ED  28EF               	goto	u2191
  9193     10EE  28F0               	goto	u2190
  9194     10EF                     u2191:
  9195     10EF  28E4               	goto	l201
  9196     10F0                     u2190:
  9197     10F0                     l204:
  9198     10F0  0008               	return
  9199     10F1                     __end_of_i2c_wait_for_idle:
  9200                           
  9201                           	psect	text40
  9202     1409                     __ptext40:	
  9203 ;; *************** function _display_time *****************
  9204 ;; Defined at:
  9205 ;;		line 46 in file "ds1307.c"
  9206 ;; Parameters:    Size  Location     Type
  9207 ;;  clock_reg       1    7[COMMON] PTR unsigned char 
  9208 ;;		 -> clock_reg(3), 
  9209 ;; Auto vars:     Size  Location     Type
  9210 ;;		None
  9211 ;; Return value:  Size  Location     Type
  9212 ;;                  1    wreg      void 
  9213 ;; Registers used:
  9214 ;;		wreg, fsr0l, fsr0h, status,2, status,0, pclath, btemp1, cstack
  9215 ;; Tracked objects:
  9216 ;;		On entry : 0/0
  9217 ;;		On exit  : 0/0
  9218 ;;		Unchanged: 0/0
  9219 ;; Data sizes:     COMMON   BANK0   BANK1   BANK3   BANK2
  9220 ;;      Params:         1       0       0       0       0
  9221 ;;      Locals:         0       0       0       0       0
  9222 ;;      Temps:          1       0       0       0       0
  9223 ;;      Totals:         2       0       0       0       0
  9224 ;;Total ram usage:        2 bytes
  9225 ;; Hardware stack levels used: 1
  9226 ;; Hardware stack levels required when called: 1
  9227 ;; This function calls:
  9228 ;;		_clcd_print
  9229 ;; This function is called by:
  9230 ;;		_dashboard
  9231 ;; This function uses a non-reentrant model
  9232 ;;
  9233                           
  9234     1409                     _display_time:	
  9235                           ;psect for function _display_time
  9236                           
  9237     1409                     l2831:	
  9238                           ;incstack = 0
  9239                           ; Regs used in _display_time: [wreg-fsr0h+status,2+status,0+pclath+btemp1+cstack]
  9240                           
  9241                           
  9242                           ;ds1307.c: 46: void display_time(unsigned char *clock_reg);ds1307.c: 47: {;ds1307.c: 55:
      +                               time[0] = ((clock_reg[0] >> 4) & 0x03) + '0';
  9243     1409  0877               	movf	display_time@clock_reg,w
  9244     140A  0084               	movwf	4
  9245     140B  1383               	bcf	3,7	;select IRP bank0
  9246     140C  0800               	movf	0,w
  9247     140D  00F8               	movwf	??_display_time
  9248     140E  3004               	movlw	4
  9249     140F                     u2665:
  9250     140F  1003               	clrc
  9251     1410  0CF8               	rrf	??_display_time,f
  9252     1411  3EFF               	addlw	-1
  9253     1412  1D03               	skipz
  9254     1413  2C0F               	goto	u2665
  9255     1414  0878               	movf	??_display_time,w
  9256     1415  3903               	andlw	3
  9257     1416  3E30               	addlw	48
  9258     1417  1683               	bsf	3,5	;RP0=1, select bank1
  9259     1418  1303               	bcf	3,6	;RP1=0, select bank1
  9260     1419  00B0               	movwf	_time^(0+128)
  9261                           
  9262                           ;ds1307.c: 56:     time[1] = (clock_reg[0] & 0x0F) + '0';
  9263     141A  0877               	movf	display_time@clock_reg,w
  9264     141B  0084               	movwf	4
  9265     141C  0800               	movf	0,w
  9266     141D  390F               	andlw	15
  9267     141E  3E30               	addlw	48
  9268     141F  00B1               	movwf	(_time^(0+128)+1)
  9269     1420                     l2833:
  9270                           
  9271                           ;ds1307.c: 62:     time[2] = ':';
  9272     1420  303A               	movlw	58
  9273     1421  00B2               	movwf	(_time^(0+128)+2)
  9274                           
  9275                           ;ds1307.c: 64:     time[3] = ((clock_reg[1] >> 4) & 0x07) + '0';
  9276     1422  0A77               	incf	display_time@clock_reg,w
  9277     1423  0084               	movwf	4
  9278     1424  0800               	movf	0,w
  9279     1425  00F8               	movwf	??_display_time
  9280     1426  3004               	movlw	4
  9281     1427                     u2675:
  9282     1427  1003               	clrc
  9283     1428  0CF8               	rrf	??_display_time,f
  9284     1429  3EFF               	addlw	-1
  9285     142A  1D03               	skipz
  9286     142B  2C27               	goto	u2675
  9287     142C  0878               	movf	??_display_time,w
  9288     142D  3907               	andlw	7
  9289     142E  3E30               	addlw	48
  9290     142F  00B3               	movwf	(_time^(0+128)+3)
  9291                           
  9292                           ;ds1307.c: 66:     time[4] = (clock_reg[1] & 0x0F) + '0';
  9293     1430  0A77               	incf	display_time@clock_reg,w
  9294     1431  0084               	movwf	4
  9295     1432  0800               	movf	0,w
  9296     1433  390F               	andlw	15
  9297     1434  3E30               	addlw	48
  9298     1435  00B4               	movwf	(_time^(0+128)+4)
  9299     1436                     l2835:
  9300                           
  9301                           ;ds1307.c: 68:     time[5] = ':';
  9302     1436  303A               	movlw	58
  9303     1437  00B5               	movwf	(_time^(0+128)+5)
  9304                           
  9305                           ;ds1307.c: 70:     time[6] = ((clock_reg[2] >> 4) & 0x07) + '0';
  9306     1438  0877               	movf	display_time@clock_reg,w
  9307     1439  3E02               	addlw	2
  9308     143A  0084               	movwf	4
  9309     143B  0800               	movf	0,w
  9310     143C  00F8               	movwf	??_display_time
  9311     143D  3004               	movlw	4
  9312     143E                     u2685:
  9313     143E  1003               	clrc
  9314     143F  0CF8               	rrf	??_display_time,f
  9315     1440  3EFF               	addlw	-1
  9316     1441  1D03               	skipz
  9317     1442  2C3E               	goto	u2685
  9318     1443  0878               	movf	??_display_time,w
  9319     1444  3907               	andlw	7
  9320     1445  3E30               	addlw	48
  9321     1446  00B6               	movwf	(_time^(0+128)+6)
  9322                           
  9323                           ;ds1307.c: 71:     time[7] = (clock_reg[2] & 0x0F) + '0';
  9324     1447  0877               	movf	display_time@clock_reg,w
  9325     1448  3E02               	addlw	2
  9326     1449  0084               	movwf	4
  9327     144A  0800               	movf	0,w
  9328     144B  390F               	andlw	15
  9329     144C  3E30               	addlw	48
  9330     144D  00B7               	movwf	(_time^(0+128)+7)
  9331     144E                     l2837:
  9332                           
  9333                           ;ds1307.c: 76:     time[8] = '\0';
  9334     144E  01B8               	clrf	(_time^(0+128)+8)
  9335     144F                     l2839:
  9336                           
  9337                           ;ds1307.c: 78:     clcd_print(time, (0xC0 + 0));
  9338     144F  30B0               	movlw	(low (_time| 0))& (0+255)
  9339     1450  00F4               	movwf	clcd_print@str
  9340     1451  3000               	movlw	0
  9341     1452  00F5               	movwf	clcd_print@str+1
  9342     1453  30C0               	movlw	192
  9343     1454  00F6               	movwf	clcd_print@addr
  9344     1455  160A  118A  22C8  160A  118A  	fcall	_clcd_print
  9345     145A                     l152:
  9346     145A  0008               	return
  9347     145B                     __end_of_display_time:
  9348                           
  9349                           	psect	text41
  9350     12C8                     __ptext41:	
  9351 ;; *************** function _clcd_print *****************
  9352 ;; Defined at:
  9353 ;;		line 62 in file "clcd.c"
  9354 ;; Parameters:    Size  Location     Type
  9355 ;;  str             2    4[COMMON] PTR const unsigned char 
  9356 ;;		 -> STR_70(17), STR_69(17), STR_68(16), STR_67(16), 
  9357 ;;		 -> STR_66(16), STR_65(16), STR_64(17), STR_63(17), 
  9358 ;;		 -> STR_62(16), STR_61(17), STR_60(17), STR_59(16), 
  9359 ;;		 -> STR_58(17), STR_57(17), STR_56(17), STR_55(17), 
  9360 ;;		 -> STR_54(17), STR_53(17), STR_52(17), set_time@temp(9), 
  9361 ;;		 -> STR_51(16), STR_50(16), STR_48(16), STR_47(16), 
  9362 ;;		 -> STR_42(16), STR_41(16), STR_40(17), STR_39(17), 
  9363 ;;		 -> STR_38(15), STR_37(15), view_log@log(17), STR_36(20), 
  9364 ;;		 -> STR_35(17), STR_34(16), STR_33(17), STR_32(17), 
  9365 ;;		 -> STR_31(17), STR_30(17), STR_29(17), STR_28(17), 
  9366 ;;		 -> STR_27(16), STR_26(16), STR_25(17), STR_24(17), 
  9367 ;;		 -> STR_23(17), STR_22(16), STR_21(17), STR_20(17), 
  9368 ;;		 -> STR_19(12), STR_18(17), STR_17(12), STR_16(9), 
  9369 ;;		 -> STR_15(13), STR_14(10), STR_13(9), speed(3), 
  9370 ;;		 -> STR_12(17), STR_11(17), STR_10(3), STR_9(3), 
  9371 ;;		 -> STR_8(3), STR_7(3), STR_6(3), STR_5(3), 
  9372 ;;		 -> STR_4(3), STR_3(3), time(9), STR_2(17), 
  9373 ;;		 -> STR_1(17), 
  9374 ;;  addr            1    6[COMMON] unsigned char 
  9375 ;; Auto vars:     Size  Location     Type
  9376 ;;		None
  9377 ;; Return value:  Size  Location     Type
  9378 ;;                  1    wreg      void 
  9379 ;; Registers used:
  9380 ;;		wreg, fsr0l, fsr0h, status,2, status,0, pclath, btemp1, cstack
  9381 ;; Tracked objects:
  9382 ;;		On entry : 0/0
  9383 ;;		On exit  : 0/0
  9384 ;;		Unchanged: 0/0
  9385 ;; Data sizes:     COMMON   BANK0   BANK1   BANK3   BANK2
  9386 ;;      Params:         3       0       0       0       0
  9387 ;;      Locals:         0       0       0       0       0
  9388 ;;      Temps:          0       0       0       0       0
  9389 ;;      Totals:         3       0       0       0       0
  9390 ;;Total ram usage:        3 bytes
  9391 ;; Hardware stack levels used: 1
  9392 ;; This function calls:
  9393 ;;		_clcd_write
  9394 ;; This function is called by:
  9395 ;;		_main
  9396 ;;		_display_time
  9397 ;;		_dashboard
  9398 ;;		_login
  9399 ;;		_menu
  9400 ;;		_view_log
  9401 ;;		_clear_log
  9402 ;;		_download_log
  9403 ;;		_set_time
  9404 ;;		_change_password
  9405 ;; This function uses a non-reentrant model
  9406 ;;
  9407                           
  9408     12C8                     _clcd_print:	
  9409                           ;psect for function _clcd_print
  9410                           
  9411     12C8                     l2575:	
  9412                           ;incstack = 0
  9413                           ; Regs used in _clcd_print: [wreg-fsr0h+status,2+status,0+pclath+btemp1+cstack]
  9414                           
  9415                           
  9416                           ;clcd.c: 62: void clcd_print(const char *str, unsigned char addr);clcd.c: 63: {;clcd.c: 
      +                          64:     clcd_write(addr, 0);
  9417     12C8  01F0               	clrf	clcd_write@mode
  9418     12C9  0876               	movf	clcd_print@addr,w
  9419     12CA  160A  118A  2359  160A  118A  	fcall	_clcd_write
  9420                           
  9421                           ;clcd.c: 66:     while (*str != '\0')
  9422     12CF  2AE6               	goto	l2581
  9423     12D0                     l2577:
  9424                           
  9425                           ;clcd.c: 67:     {;clcd.c: 68:         clcd_write(*str, 1);
  9426     12D0  01F0               	clrf	clcd_write@mode
  9427     12D1  0AF0               	incf	clcd_write@mode,f
  9428     12D2  0875               	movf	clcd_print@str+1,w
  9429     12D3  00FF               	movwf	btemp1
  9430     12D4  0874               	movf	clcd_print@str,w
  9431     12D5  0084               	movwf	4
  9432     12D6  160A  118A  2000  160A  118A  	fcall	stringtab
  9433     12DB  160A  118A  2359  160A  118A  	fcall	_clcd_write
  9434     12E0                     l2579:
  9435                           
  9436                           ;clcd.c: 69:         str++;
  9437     12E0  3001               	movlw	1
  9438     12E1  07F4               	addwf	clcd_print@str,f
  9439     12E2  1803               	skipnc
  9440     12E3  0AF5               	incf	clcd_print@str+1,f
  9441     12E4  3000               	movlw	0
  9442     12E5  07F5               	addwf	clcd_print@str+1,f
  9443     12E6                     l2581:
  9444                           
  9445                           ;clcd.c: 66:     while (*str != '\0')
  9446     12E6  0875               	movf	clcd_print@str+1,w
  9447     12E7  1283               	bcf	3,5	;RP0=0, select bank0
  9448     12E8  1303               	bcf	3,6	;RP1=0, select bank0
  9449     12E9  00FF               	movwf	btemp1
  9450     12EA  0874               	movf	clcd_print@str,w
  9451     12EB  0084               	movwf	4
  9452     12EC  160A  118A  2000  160A  118A  	fcall	stringtab
  9453     12F1  3A00               	xorlw	0
  9454     12F2  1D03               	skipz
  9455     12F3  2AF5               	goto	u2251
  9456     12F4  2AF6               	goto	u2250
  9457     12F5                     u2251:
  9458     12F5  2AD0               	goto	l2577
  9459     12F6                     u2250:
  9460     12F6                     l100:
  9461     12F6  0008               	return
  9462     12F7                     __end_of_clcd_print:
  9463                           
  9464                           	psect	text42
  9465     1359                     __ptext42:	
  9466 ;; *************** function _clcd_write *****************
  9467 ;; Defined at:
  9468 ;;		line 4 in file "clcd.c"
  9469 ;; Parameters:    Size  Location     Type
  9470 ;;  byte            1    wreg     unsigned char 
  9471 ;;  mode            1    0[COMMON] unsigned char 
  9472 ;; Auto vars:     Size  Location     Type
  9473 ;;  byte            1    3[COMMON] unsigned char 
  9474 ;; Return value:  Size  Location     Type
  9475 ;;                  1    wreg      void 
  9476 ;; Registers used:
  9477 ;;		wreg, status,2, status,0
  9478 ;; Tracked objects:
  9479 ;;		On entry : 0/0
  9480 ;;		On exit  : 0/0
  9481 ;;		Unchanged: 0/0
  9482 ;; Data sizes:     COMMON   BANK0   BANK1   BANK3   BANK2
  9483 ;;      Params:         1       0       0       0       0
  9484 ;;      Locals:         1       0       0       0       0
  9485 ;;      Temps:          2       0       0       0       0
  9486 ;;      Totals:         4       0       0       0       0
  9487 ;;Total ram usage:        4 bytes
  9488 ;; Hardware stack levels used: 1
  9489 ;; This function calls:
  9490 ;;		Nothing
  9491 ;; This function is called by:
  9492 ;;		_init_display_controller
  9493 ;;		_clcd_putch
  9494 ;;		_clcd_print
  9495 ;; This function uses a non-reentrant model
  9496 ;;
  9497                           
  9498     1359                     _clcd_write:	
  9499                           ;psect for function _clcd_write
  9500                           
  9501                           
  9502                           ;incstack = 0
  9503                           ; Regs used in _clcd_write: [wreg+status,2+status,0]
  9504                           ;clcd_write@byte stored from wreg
  9505     1359  00F3               	movwf	clcd_write@byte
  9506     135A                     l2545:
  9507                           
  9508                           ;clcd.c: 4: static void clcd_write(unsigned char byte, unsigned char mode);clcd.c: 5: {;
      +                          clcd.c: 6:     RE2 = mode;
  9509     135A  1870               	btfsc	clcd_write@mode,0
  9510     135B  2B5D               	goto	u2211
  9511     135C  2B61               	goto	u2210
  9512     135D                     u2211:
  9513     135D  1283               	bcf	3,5	;RP0=0, select bank0
  9514     135E  1303               	bcf	3,6	;RP1=0, select bank0
  9515     135F  1509               	bsf	9,2	;volatile
  9516     1360  2B64               	goto	u2224
  9517     1361                     u2210:
  9518     1361  1283               	bcf	3,5	;RP0=0, select bank0
  9519     1362  1303               	bcf	3,6	;RP1=0, select bank0
  9520     1363  1109               	bcf	9,2	;volatile
  9521     1364                     u2224:
  9522     1364                     l2547:
  9523                           
  9524                           ;clcd.c: 8:     PORTD = byte & 0xF0;
  9525     1364  0873               	movf	clcd_write@byte,w
  9526     1365  39F0               	andlw	240
  9527     1366  0088               	movwf	8	;volatile
  9528     1367                     l2549:
  9529                           
  9530                           ;clcd.c: 9:     RE1 = 1;
  9531     1367  1489               	bsf	9,1	;volatile
  9532     1368                     l2551:
  9533                           
  9534                           ;clcd.c: 10:     _delay((unsigned long)((100)*(20000000/4000000.0)));
  9535     1368  30A6               	movlw	166
  9536     1369  00F1               	movwf	??_clcd_write
  9537     136A                     u4487:
  9538     136A  0BF1               	decfsz	??_clcd_write,f
  9539     136B  2B6A               	goto	u4487
  9540     136C  0000               	nop
  9541     136D                     l2553:
  9542                           
  9543                           ;clcd.c: 11:     RE1 = 0;
  9544     136D  1283               	bcf	3,5	;RP0=0, select bank0
  9545     136E  1303               	bcf	3,6	;RP1=0, select bank0
  9546     136F  1089               	bcf	9,1	;volatile
  9547     1370                     l2555:
  9548                           
  9549                           ;clcd.c: 13:     PORTD = (byte & 0x0F) << 4;
  9550     1370  0873               	movf	clcd_write@byte,w
  9551     1371  390F               	andlw	15
  9552     1372  00F1               	movwf	??_clcd_write
  9553     1373  3003               	movlw	3
  9554     1374                     u2235:
  9555     1374  1003               	clrc
  9556     1375  0DF1               	rlf	??_clcd_write,f
  9557     1376  3EFF               	addlw	-1
  9558     1377  1D03               	skipz
  9559     1378  2B74               	goto	u2235
  9560     1379  1003               	clrc
  9561     137A  0D71               	rlf	??_clcd_write,w
  9562     137B  0088               	movwf	8	;volatile
  9563     137C                     l2557:
  9564                           
  9565                           ;clcd.c: 14:     RE1 = 1;
  9566     137C  1489               	bsf	9,1	;volatile
  9567     137D                     l2559:
  9568                           
  9569                           ;clcd.c: 15:     _delay((unsigned long)((100)*(20000000/4000000.0)));
  9570     137D  30A6               	movlw	166
  9571     137E  00F1               	movwf	??_clcd_write
  9572     137F                     u4497:
  9573     137F  0BF1               	decfsz	??_clcd_write,f
  9574     1380  2B7F               	goto	u4497
  9575     1381  0000               	nop
  9576     1382                     l2561:
  9577                           
  9578                           ;clcd.c: 16:     RE1 = 0;
  9579     1382  1283               	bcf	3,5	;RP0=0, select bank0
  9580     1383  1303               	bcf	3,6	;RP1=0, select bank0
  9581     1384  1089               	bcf	9,1	;volatile
  9582     1385                     l2563:
  9583                           
  9584                           ;clcd.c: 18:     _delay((unsigned long)((4100)*(20000000/4000000.0)));
  9585     1385  301B               	movlw	27
  9586     1386  00F2               	movwf	??_clcd_write+1
  9587     1387  309E               	movlw	158
  9588     1388  00F1               	movwf	??_clcd_write
  9589     1389                     u4507:
  9590     1389  0BF1               	decfsz	??_clcd_write,f
  9591     138A  2B89               	goto	u4507
  9592     138B  0BF2               	decfsz	??_clcd_write+1,f
  9593     138C  2B89               	goto	u4507
  9594     138D  0000               	nop
  9595     138E                     l85:
  9596     138E  0008               	return
  9597     138F                     __end_of_clcd_write:
  9598                           
  9599                           	psect	text43
  9600     174A                     __ptext43:	
  9601 ;; *************** function ___xxtofl *****************
  9602 ;; Defined at:
  9603 ;;		line 10 in file "C:\Program Files\Microchip\xc8\v3.10\pic\sources\c99\common\xxtofl.c"
  9604 ;; Parameters:    Size  Location     Type
  9605 ;;  sign            1    wreg     unsigned char 
  9606 ;;  val             4    6[COMMON] long 
  9607 ;; Auto vars:     Size  Location     Type
  9608 ;;  sign            1    0[BANK0 ] unsigned char 
  9609 ;;  arg             4    2[BANK0 ] unsigned long 
  9610 ;;  exp             1    1[BANK0 ] unsigned char 
  9611 ;; Return value:  Size  Location     Type
  9612 ;;                  4    6[COMMON] unsigned char 
  9613 ;; Registers used:
  9614 ;;		wreg, status,2, status,0
  9615 ;; Tracked objects:
  9616 ;;		On entry : 0/0
  9617 ;;		On exit  : 0/0
  9618 ;;		Unchanged: 0/0
  9619 ;; Data sizes:     COMMON   BANK0   BANK1   BANK3   BANK2
  9620 ;;      Params:         4       0       0       0       0
  9621 ;;      Locals:         0       6       0       0       0
  9622 ;;      Temps:          4       0       0       0       0
  9623 ;;      Totals:         8       6       0       0       0
  9624 ;;Total ram usage:       14 bytes
  9625 ;; Hardware stack levels used: 1
  9626 ;; This function calls:
  9627 ;;		Nothing
  9628 ;; This function is called by:
  9629 ;;		_dashboard
  9630 ;; This function uses a non-reentrant model
  9631 ;;
  9632                           
  9633     174A                     ___xxtofl:	
  9634                           ;psect for function ___xxtofl
  9635                           
  9636                           
  9637                           ;incstack = 0
  9638                           ; Regs used in ___xxtofl: [wreg+status,2+status,0]
  9639                           ;___xxtofl@sign stored from wreg
  9640     174A  1283               	bcf	3,5	;RP0=0, select bank0
  9641     174B  1303               	bcf	3,6	;RP1=0, select bank0
  9642     174C  00A0               	movwf	___xxtofl@sign
  9643     174D                     l3525:
  9644     174D  0820               	movf	___xxtofl@sign,w
  9645     174E  1903               	btfsc	3,2
  9646     174F  2F51               	goto	u3781
  9647     1750  2F52               	goto	u3780
  9648     1751                     u3781:
  9649     1751  2F66               	goto	l3531
  9650     1752                     u3780:
  9651     1752                     l3527:
  9652     1752  1FF9               	btfss	___xxtofl@val+3,7
  9653     1753  2F55               	goto	u3791
  9654     1754  2F56               	goto	u3790
  9655     1755                     u3791:
  9656     1755  2F66               	goto	l3531
  9657     1756                     u3790:
  9658     1756                     l3529:
  9659     1756  0976               	comf	___xxtofl@val,w
  9660     1757  00A2               	movwf	___xxtofl@arg
  9661     1758  0977               	comf	___xxtofl@val+1,w
  9662     1759  00A3               	movwf	___xxtofl@arg+1
  9663     175A  0978               	comf	___xxtofl@val+2,w
  9664     175B  00A4               	movwf	___xxtofl@arg+2
  9665     175C  0979               	comf	___xxtofl@val+3,w
  9666     175D  00A5               	movwf	___xxtofl@arg+3
  9667     175E  0AA2               	incf	___xxtofl@arg,f
  9668     175F  1903               	skipnz
  9669     1760  0AA3               	incf	___xxtofl@arg+1,f
  9670     1761  1903               	skipnz
  9671     1762  0AA4               	incf	___xxtofl@arg+2,f
  9672     1763  1903               	skipnz
  9673     1764  0AA5               	incf	___xxtofl@arg+3,f
  9674     1765  2F6E               	goto	l1082
  9675     1766                     l3531:
  9676     1766  0879               	movf	___xxtofl@val+3,w
  9677     1767  00A5               	movwf	___xxtofl@arg+3
  9678     1768  0878               	movf	___xxtofl@val+2,w
  9679     1769  00A4               	movwf	___xxtofl@arg+2
  9680     176A  0877               	movf	___xxtofl@val+1,w
  9681     176B  00A3               	movwf	___xxtofl@arg+1
  9682     176C  0876               	movf	___xxtofl@val,w
  9683     176D  00A2               	movwf	___xxtofl@arg
  9684     176E                     l1082:
  9685     176E  0879               	movf	___xxtofl@val+3,w
  9686     176F  0478               	iorwf	___xxtofl@val+2,w
  9687     1770  0477               	iorwf	___xxtofl@val+1,w
  9688     1771  0476               	iorwf	___xxtofl@val,w
  9689     1772  1D03               	skipz
  9690     1773  2F75               	goto	u3801
  9691     1774  2F76               	goto	u3800
  9692     1775                     u3801:
  9693     1775  2F7F               	goto	l1083
  9694     1776                     u3800:
  9695     1776                     l3533:
  9696     1776  3000               	movlw	0
  9697     1777  00F9               	movwf	?___xxtofl+3
  9698     1778  3000               	movlw	0
  9699     1779  00F8               	movwf	?___xxtofl+2
  9700     177A  3000               	movlw	0
  9701     177B  00F7               	movwf	?___xxtofl+1
  9702     177C  3000               	movlw	0
  9703     177D  00F6               	movwf	?___xxtofl
  9704     177E  2FFF               	goto	l1084
  9705     177F                     l1083:
  9706     177F  3096               	movlw	150
  9707     1780  00A1               	movwf	___xxtofl@exp
  9708     1781  2F8D               	goto	l3539
  9709     1782                     l3537:
  9710     1782  3001               	movlw	1
  9711     1783  07A1               	addwf	___xxtofl@exp,f
  9712     1784  3001               	movlw	1
  9713     1785                     u3815:
  9714     1785  1003               	clrc
  9715     1786  0CA5               	rrf	___xxtofl@arg+3,f
  9716     1787  0CA4               	rrf	___xxtofl@arg+2,f
  9717     1788  0CA3               	rrf	___xxtofl@arg+1,f
  9718     1789  0CA2               	rrf	___xxtofl@arg,f
  9719     178A  3EFF               	addlw	-1
  9720     178B  1D03               	skipz
  9721     178C  2F85               	goto	u3815
  9722     178D                     l3539:
  9723     178D  30FE               	movlw	254
  9724     178E  0525               	andwf	___xxtofl@arg+3,w
  9725     178F  1D03               	btfss	3,2
  9726     1790  2F92               	goto	u3821
  9727     1791  2F93               	goto	u3820
  9728     1792                     u3821:
  9729     1792  2F82               	goto	l3537
  9730     1793                     u3820:
  9731     1793  2FAD               	goto	l1088
  9732     1794                     l3541:
  9733     1794  3001               	movlw	1
  9734     1795  07A1               	addwf	___xxtofl@exp,f
  9735     1796                     l3543:
  9736     1796  3001               	movlw	1
  9737     1797  07A2               	addwf	___xxtofl@arg,f
  9738     1798  3000               	movlw	0
  9739     1799  1803               	skipnc
  9740     179A  3001               	movlw	1
  9741     179B  07A3               	addwf	___xxtofl@arg+1,f
  9742     179C  3000               	movlw	0
  9743     179D  1803               	skipnc
  9744     179E  3001               	movlw	1
  9745     179F  07A4               	addwf	___xxtofl@arg+2,f
  9746     17A0  3000               	movlw	0
  9747     17A1  1803               	skipnc
  9748     17A2  3001               	movlw	1
  9749     17A3  07A5               	addwf	___xxtofl@arg+3,f
  9750     17A4                     l3545:
  9751     17A4  3001               	movlw	1
  9752     17A5                     u3835:
  9753     17A5  1003               	clrc
  9754     17A6  0CA5               	rrf	___xxtofl@arg+3,f
  9755     17A7  0CA4               	rrf	___xxtofl@arg+2,f
  9756     17A8  0CA3               	rrf	___xxtofl@arg+1,f
  9757     17A9  0CA2               	rrf	___xxtofl@arg,f
  9758     17AA  3EFF               	addlw	-1
  9759     17AB  1D03               	skipz
  9760     17AC  2FA5               	goto	u3835
  9761     17AD                     l1088:
  9762     17AD  30FF               	movlw	255
  9763     17AE  0525               	andwf	___xxtofl@arg+3,w
  9764     17AF  1D03               	btfss	3,2
  9765     17B0  2FB2               	goto	u3841
  9766     17B1  2FB3               	goto	u3840
  9767     17B2                     u3841:
  9768     17B2  2F94               	goto	l3541
  9769     17B3                     u3840:
  9770     17B3  2FBF               	goto	l3549
  9771     17B4                     l3547:
  9772     17B4  3001               	movlw	1
  9773     17B5  02A1               	subwf	___xxtofl@exp,f
  9774     17B6  3001               	movlw	1
  9775     17B7  00FA               	movwf	??___xxtofl
  9776     17B8                     u3855:
  9777     17B8  1003               	clrc
  9778     17B9  0DA2               	rlf	___xxtofl@arg,f
  9779     17BA  0DA3               	rlf	___xxtofl@arg+1,f
  9780     17BB  0DA4               	rlf	___xxtofl@arg+2,f
  9781     17BC  0DA5               	rlf	___xxtofl@arg+3,f
  9782     17BD  0BFA               	decfsz	??___xxtofl,f
  9783     17BE  2FB8               	goto	u3855
  9784     17BF                     l3549:
  9785     17BF  1BA4               	btfsc	___xxtofl@arg+2,7
  9786     17C0  2FC2               	goto	u3861
  9787     17C1  2FC3               	goto	u3860
  9788     17C2                     u3861:
  9789     17C2  2FC9               	goto	l1095
  9790     17C3                     u3860:
  9791     17C3                     l3551:
  9792     17C3  3002               	movlw	2
  9793     17C4  0221               	subwf	___xxtofl@exp,w
  9794     17C5  1803               	skipnc
  9795     17C6  2FC8               	goto	u3871
  9796     17C7  2FC9               	goto	u3870
  9797     17C8                     u3871:
  9798     17C8  2FB4               	goto	l3547
  9799     17C9                     u3870:
  9800     17C9                     l1095:
  9801     17C9  1821               	btfsc	___xxtofl@exp,0
  9802     17CA  2FCC               	goto	u3881
  9803     17CB  2FCD               	goto	u3880
  9804     17CC                     u3881:
  9805     17CC  2FD5               	goto	l1096
  9806     17CD                     u3880:
  9807     17CD                     l3553:
  9808     17CD  30FF               	movlw	255
  9809     17CE  05A2               	andwf	___xxtofl@arg,f
  9810     17CF  30FF               	movlw	255
  9811     17D0  05A3               	andwf	___xxtofl@arg+1,f
  9812     17D1  307F               	movlw	127
  9813     17D2  05A4               	andwf	___xxtofl@arg+2,f
  9814     17D3  30FF               	movlw	255
  9815     17D4  05A5               	andwf	___xxtofl@arg+3,f
  9816     17D5                     l1096:
  9817     17D5  1003               	clrc
  9818     17D6  0CA1               	rrf	___xxtofl@exp,f
  9819     17D7                     l3555:
  9820     17D7  0821               	movf	___xxtofl@exp,w
  9821     17D8  00FA               	movwf	??___xxtofl
  9822     17D9  01FB               	clrf	??___xxtofl+1
  9823     17DA  01FC               	clrf	??___xxtofl+2
  9824     17DB  01FD               	clrf	??___xxtofl+3
  9825     17DC  3018               	movlw	24
  9826     17DD                     u3895:
  9827     17DD  1003               	clrc
  9828     17DE  0DFA               	rlf	??___xxtofl,f
  9829     17DF  0DFB               	rlf	??___xxtofl+1,f
  9830     17E0  0DFC               	rlf	??___xxtofl+2,f
  9831     17E1  0DFD               	rlf	??___xxtofl+3,f
  9832     17E2                     u3890:
  9833     17E2  3EFF               	addlw	-1
  9834     17E3  1D03               	skipz
  9835     17E4  2FDD               	goto	u3895
  9836     17E5  087A               	movf	??___xxtofl,w
  9837     17E6  04A2               	iorwf	___xxtofl@arg,f
  9838     17E7  087B               	movf	??___xxtofl+1,w
  9839     17E8  04A3               	iorwf	___xxtofl@arg+1,f
  9840     17E9  087C               	movf	??___xxtofl+2,w
  9841     17EA  04A4               	iorwf	___xxtofl@arg+2,f
  9842     17EB  087D               	movf	??___xxtofl+3,w
  9843     17EC  04A5               	iorwf	___xxtofl@arg+3,f
  9844     17ED                     l3557:
  9845     17ED  0820               	movf	___xxtofl@sign,w
  9846     17EE  1903               	btfsc	3,2
  9847     17EF  2FF1               	goto	u3901
  9848     17F0  2FF2               	goto	u3900
  9849     17F1                     u3901:
  9850     17F1  2FF7               	goto	l3563
  9851     17F2                     u3900:
  9852     17F2                     l3559:
  9853     17F2  1FF9               	btfss	___xxtofl@val+3,7
  9854     17F3  2FF5               	goto	u3911
  9855     17F4  2FF6               	goto	u3910
  9856     17F5                     u3911:
  9857     17F5  2FF7               	goto	l3563
  9858     17F6                     u3910:
  9859     17F6                     l3561:
  9860     17F6  17A5               	bsf	___xxtofl@arg+3,7
  9861     17F7                     l3563:
  9862     17F7  0825               	movf	___xxtofl@arg+3,w
  9863     17F8  00F9               	movwf	?___xxtofl+3
  9864     17F9  0824               	movf	___xxtofl@arg+2,w
  9865     17FA  00F8               	movwf	?___xxtofl+2
  9866     17FB  0823               	movf	___xxtofl@arg+1,w
  9867     17FC  00F7               	movwf	?___xxtofl+1
  9868     17FD  0822               	movf	___xxtofl@arg,w
  9869     17FE  00F6               	movwf	?___xxtofl
  9870     17FF                     l1084:
  9871     17FF  0008               	return
  9872     1800                     __end_of___xxtofl:
  9873                           
  9874                           	psect	text44
  9875     138F                     __ptext44:	
  9876 ;; *************** function ___lwmod *****************
  9877 ;; Defined at:
  9878 ;;		line 5 in file "C:\Program Files\Microchip\xc8\v3.10\pic\sources\c99\common\lwmod.c"
  9879 ;; Parameters:    Size  Location     Type
  9880 ;;  divisor         2    0[COMMON] unsigned int 
  9881 ;;  dividend        2    2[COMMON] unsigned int 
  9882 ;; Auto vars:     Size  Location     Type
  9883 ;;  counter         1    4[COMMON] unsigned char 
  9884 ;; Return value:  Size  Location     Type
  9885 ;;                  2    0[COMMON] unsigned int 
  9886 ;; Registers used:
  9887 ;;		wreg, status,2, status,0
  9888 ;; Tracked objects:
  9889 ;;		On entry : 0/0
  9890 ;;		On exit  : 0/0
  9891 ;;		Unchanged: 0/0
  9892 ;; Data sizes:     COMMON   BANK0   BANK1   BANK3   BANK2
  9893 ;;      Params:         4       0       0       0       0
  9894 ;;      Locals:         1       0       0       0       0
  9895 ;;      Temps:          0       0       0       0       0
  9896 ;;      Totals:         5       0       0       0       0
  9897 ;;Total ram usage:        5 bytes
  9898 ;; Hardware stack levels used: 1
  9899 ;; This function calls:
  9900 ;;		Nothing
  9901 ;; This function is called by:
  9902 ;;		_dashboard
  9903 ;; This function uses a non-reentrant model
  9904 ;;
  9905                           
  9906     138F                     ___lwmod:	
  9907                           ;psect for function ___lwmod
  9908                           
  9909     138F                     l3359:	
  9910                           ;incstack = 0
  9911                           ; Regs used in ___lwmod: [wreg+status,2+status,0]
  9912                           
  9913     138F  0870               	movf	___lwmod@divisor,w
  9914     1390  0471               	iorwf	___lwmod@divisor+1,w
  9915     1391  1903               	btfsc	3,2
  9916     1392  2B94               	goto	u3431
  9917     1393  2B95               	goto	u3430
  9918     1394                     u3431:
  9919     1394  2BC2               	goto	l3377
  9920     1395                     u3430:
  9921     1395                     l3361:
  9922     1395  3001               	movlw	1
  9923     1396  00F4               	movwf	___lwmod@counter
  9924     1397  2BA1               	goto	l3367
  9925     1398                     l3363:
  9926     1398  3001               	movlw	1
  9927     1399                     u3445:
  9928     1399  1003               	clrc
  9929     139A  0DF0               	rlf	___lwmod@divisor,f
  9930     139B  0DF1               	rlf	___lwmod@divisor+1,f
  9931     139C  3EFF               	addlw	-1
  9932     139D  1D03               	skipz
  9933     139E  2B99               	goto	u3445
  9934     139F                     l3365:
  9935     139F  3001               	movlw	1
  9936     13A0  07F4               	addwf	___lwmod@counter,f
  9937     13A1                     l3367:
  9938     13A1  1FF1               	btfss	___lwmod@divisor+1,7
  9939     13A2  2BA4               	goto	u3451
  9940     13A3  2BA5               	goto	u3450
  9941     13A4                     u3451:
  9942     13A4  2B98               	goto	l3363
  9943     13A5                     u3450:
  9944     13A5                     l3369:
  9945     13A5  0871               	movf	___lwmod@divisor+1,w
  9946     13A6  0273               	subwf	___lwmod@dividend+1,w
  9947     13A7  1D03               	skipz
  9948     13A8  2BAB               	goto	u3465
  9949     13A9  0870               	movf	___lwmod@divisor,w
  9950     13AA  0272               	subwf	___lwmod@dividend,w
  9951     13AB                     u3465:
  9952     13AB  1C03               	skipc
  9953     13AC  2BAE               	goto	u3461
  9954     13AD  2BAF               	goto	u3460
  9955     13AE                     u3461:
  9956     13AE  2BB5               	goto	l3373
  9957     13AF                     u3460:
  9958     13AF                     l3371:
  9959     13AF  0870               	movf	___lwmod@divisor,w
  9960     13B0  02F2               	subwf	___lwmod@dividend,f
  9961     13B1  0871               	movf	___lwmod@divisor+1,w
  9962     13B2  1C03               	skipc
  9963     13B3  03F3               	decf	___lwmod@dividend+1,f
  9964     13B4  02F3               	subwf	___lwmod@dividend+1,f
  9965     13B5                     l3373:
  9966     13B5  3001               	movlw	1
  9967     13B6                     u3475:
  9968     13B6  1003               	clrc
  9969     13B7  0CF1               	rrf	___lwmod@divisor+1,f
  9970     13B8  0CF0               	rrf	___lwmod@divisor,f
  9971     13B9  3EFF               	addlw	-1
  9972     13BA  1D03               	skipz
  9973     13BB  2BB6               	goto	u3475
  9974     13BC                     l3375:
  9975     13BC  3001               	movlw	1
  9976     13BD  02F4               	subwf	___lwmod@counter,f
  9977     13BE  1D03               	btfss	3,2
  9978     13BF  2BC1               	goto	u3481
  9979     13C0  2BC2               	goto	u3480
  9980     13C1                     u3481:
  9981     13C1  2BA5               	goto	l3369
  9982     13C2                     u3480:
  9983     13C2                     l3377:
  9984     13C2  0873               	movf	___lwmod@dividend+1,w
  9985     13C3  00F1               	movwf	?___lwmod+1
  9986     13C4  0872               	movf	___lwmod@dividend,w
  9987     13C5  00F0               	movwf	?___lwmod
  9988     13C6                     l931:
  9989     13C6  0008               	return
  9990     13C7                     __end_of___lwmod:
  9991                           
  9992                           	psect	text45
  9993     13C7                     __ptext45:	
  9994 ;; *************** function ___lwdiv *****************
  9995 ;; Defined at:
  9996 ;;		line 5 in file "C:\Program Files\Microchip\xc8\v3.10\pic\sources\c99\common\lwdiv.c"
  9997 ;; Parameters:    Size  Location     Type
  9998 ;;  divisor         2    0[COMMON] unsigned int 
  9999 ;;  dividend        2    2[COMMON] unsigned int 
 10000 ;; Auto vars:     Size  Location     Type
 10001 ;;  quotient        2    4[COMMON] unsigned int 
 10002 ;;  counter         1    6[COMMON] unsigned char 
 10003 ;; Return value:  Size  Location     Type
 10004 ;;                  2    0[COMMON] unsigned int 
 10005 ;; Registers used:
 10006 ;;		wreg, status,2, status,0
 10007 ;; Tracked objects:
 10008 ;;		On entry : 0/0
 10009 ;;		On exit  : 0/0
 10010 ;;		Unchanged: 0/0
 10011 ;; Data sizes:     COMMON   BANK0   BANK1   BANK3   BANK2
 10012 ;;      Params:         4       0       0       0       0
 10013 ;;      Locals:         3       0       0       0       0
 10014 ;;      Temps:          0       0       0       0       0
 10015 ;;      Totals:         7       0       0       0       0
 10016 ;;Total ram usage:        7 bytes
 10017 ;; Hardware stack levels used: 1
 10018 ;; This function calls:
 10019 ;;		Nothing
 10020 ;; This function is called by:
 10021 ;;		_dashboard
 10022 ;; This function uses a non-reentrant model
 10023 ;;
 10024                           
 10025     13C7                     ___lwdiv:	
 10026                           ;psect for function ___lwdiv
 10027                           
 10028     13C7                     l3333:	
 10029                           ;incstack = 0
 10030                           ; Regs used in ___lwdiv: [wreg+status,2+status,0]
 10031                           
 10032     13C7  01F4               	clrf	___lwdiv@quotient
 10033     13C8  01F5               	clrf	___lwdiv@quotient+1
 10034     13C9                     l3335:
 10035     13C9  0870               	movf	___lwdiv@divisor,w
 10036     13CA  0471               	iorwf	___lwdiv@divisor+1,w
 10037     13CB  1903               	btfsc	3,2
 10038     13CC  2BCE               	goto	u3361
 10039     13CD  2BCF               	goto	u3360
 10040     13CE                     u3361:
 10041     13CE  2C04               	goto	l3355
 10042     13CF                     u3360:
 10043     13CF                     l3337:
 10044     13CF  3001               	movlw	1
 10045     13D0  00F6               	movwf	___lwdiv@counter
 10046     13D1  2BDB               	goto	l3343
 10047     13D2                     l3339:
 10048     13D2  3001               	movlw	1
 10049     13D3                     u3375:
 10050     13D3  1003               	clrc
 10051     13D4  0DF0               	rlf	___lwdiv@divisor,f
 10052     13D5  0DF1               	rlf	___lwdiv@divisor+1,f
 10053     13D6  3EFF               	addlw	-1
 10054     13D7  1D03               	skipz
 10055     13D8  2BD3               	goto	u3375
 10056     13D9                     l3341:
 10057     13D9  3001               	movlw	1
 10058     13DA  07F6               	addwf	___lwdiv@counter,f
 10059     13DB                     l3343:
 10060     13DB  1FF1               	btfss	___lwdiv@divisor+1,7
 10061     13DC  2BDE               	goto	u3381
 10062     13DD  2BDF               	goto	u3380
 10063     13DE                     u3381:
 10064     13DE  2BD2               	goto	l3339
 10065     13DF                     u3380:
 10066     13DF                     l3345:
 10067     13DF  3001               	movlw	1
 10068     13E0                     u3395:
 10069     13E0  1003               	clrc
 10070     13E1  0DF4               	rlf	___lwdiv@quotient,f
 10071     13E2  0DF5               	rlf	___lwdiv@quotient+1,f
 10072     13E3  3EFF               	addlw	-1
 10073     13E4  1D03               	skipz
 10074     13E5  2BE0               	goto	u3395
 10075     13E6  0871               	movf	___lwdiv@divisor+1,w
 10076     13E7  0273               	subwf	___lwdiv@dividend+1,w
 10077     13E8  1D03               	skipz
 10078     13E9  2BEC               	goto	u3405
 10079     13EA  0870               	movf	___lwdiv@divisor,w
 10080     13EB  0272               	subwf	___lwdiv@dividend,w
 10081     13EC                     u3405:
 10082     13EC  1C03               	skipc
 10083     13ED  2BEF               	goto	u3401
 10084     13EE  2BF0               	goto	u3400
 10085     13EF                     u3401:
 10086     13EF  2BF7               	goto	l3351
 10087     13F0                     u3400:
 10088     13F0                     l3347:
 10089     13F0  0870               	movf	___lwdiv@divisor,w
 10090     13F1  02F2               	subwf	___lwdiv@dividend,f
 10091     13F2  0871               	movf	___lwdiv@divisor+1,w
 10092     13F3  1C03               	skipc
 10093     13F4  03F3               	decf	___lwdiv@dividend+1,f
 10094     13F5  02F3               	subwf	___lwdiv@dividend+1,f
 10095     13F6                     l3349:
 10096     13F6  1474               	bsf	___lwdiv@quotient,0
 10097     13F7                     l3351:
 10098     13F7  3001               	movlw	1
 10099     13F8                     u3415:
 10100     13F8  1003               	clrc
 10101     13F9  0CF1               	rrf	___lwdiv@divisor+1,f
 10102     13FA  0CF0               	rrf	___lwdiv@divisor,f
 10103     13FB  3EFF               	addlw	-1
 10104     13FC  1D03               	skipz
 10105     13FD  2BF8               	goto	u3415
 10106     13FE                     l3353:
 10107     13FE  3001               	movlw	1
 10108     13FF  02F6               	subwf	___lwdiv@counter,f
 10109     1400  1D03               	btfss	3,2
 10110     1401  2C03               	goto	u3421
 10111     1402  2C04               	goto	u3420
 10112     1403                     u3421:
 10113     1403  2BDF               	goto	l3345
 10114     1404                     u3420:
 10115     1404                     l3355:
 10116     1404  0875               	movf	___lwdiv@quotient+1,w
 10117     1405  00F1               	movwf	?___lwdiv+1
 10118     1406  0874               	movf	___lwdiv@quotient,w
 10119     1407  00F0               	movwf	?___lwdiv
 10120     1408                     l921:
 10121     1408  0008               	return
 10122     1409                     __end_of___lwdiv:
 10123                           
 10124                           	psect	text46
 10125     0A30                     __ptext46:	
 10126 ;; *************** function ___fltol *****************
 10127 ;; Defined at:
 10128 ;;		line 43 in file "C:\Program Files\Microchip\xc8\v3.10\pic\sources\c99\common\fltol.c"
 10129 ;; Parameters:    Size  Location     Type
 10130 ;;  f1              4   32[BANK0 ] unsigned int 
 10131 ;; Auto vars:     Size  Location     Type
 10132 ;;  exp1            1   41[BANK0 ] unsigned char 
 10133 ;;  sign1           1   40[BANK0 ] unsigned char 
 10134 ;; Return value:  Size  Location     Type
 10135 ;;                  4   32[BANK0 ] long 
 10136 ;; Registers used:
 10137 ;;		wreg, status,2, status,0
 10138 ;; Tracked objects:
 10139 ;;		On entry : 0/0
 10140 ;;		On exit  : 0/0
 10141 ;;		Unchanged: 0/0
 10142 ;; Data sizes:     COMMON   BANK0   BANK1   BANK3   BANK2
 10143 ;;      Params:         0       4       0       0       0
 10144 ;;      Locals:         0       2       0       0       0
 10145 ;;      Temps:          0       4       0       0       0
 10146 ;;      Totals:         0      10       0       0       0
 10147 ;;Total ram usage:       10 bytes
 10148 ;; Hardware stack levels used: 1
 10149 ;; This function calls:
 10150 ;;		Nothing
 10151 ;; This function is called by:
 10152 ;;		_dashboard
 10153 ;; This function uses a non-reentrant model
 10154 ;;
 10155                           
 10156     0A30                     ___fltol:	
 10157                           ;psect for function ___fltol
 10158                           
 10159     0A30                     l3297:	
 10160                           ;incstack = 0
 10161                           ; Regs used in ___fltol: [wreg+status,2+status,0]
 10162                           
 10163     0A30  1003               	clrc
 10164     0A31  1283               	bcf	3,5	;RP0=0, select bank0
 10165     0A32  1303               	bcf	3,6	;RP1=0, select bank0
 10166     0A33  0D42               	rlf	___fltol@f1+2,w
 10167     0A34  0D43               	rlf	___fltol@f1+3,w
 10168     0A35  00C9               	movwf	___fltol@exp1
 10169     0A36  0849               	movf	___fltol@exp1,w
 10170     0A37  1D03               	btfss	3,2
 10171     0A38  2A3A               	goto	u3261
 10172     0A39  2A3B               	goto	u3260
 10173     0A3A                     u3261:
 10174     0A3A  2A44               	goto	l3303
 10175     0A3B                     u3260:
 10176     0A3B                     l3299:
 10177     0A3B  3000               	movlw	0
 10178     0A3C  00C3               	movwf	?___fltol+3
 10179     0A3D  3000               	movlw	0
 10180     0A3E  00C2               	movwf	?___fltol+2
 10181     0A3F  3000               	movlw	0
 10182     0A40  00C1               	movwf	?___fltol+1
 10183     0A41  3000               	movlw	0
 10184     0A42  00C0               	movwf	?___fltol
 10185     0A43  2AA5               	goto	l835
 10186     0A44                     l3303:
 10187     0A44  0840               	movf	___fltol@f1,w
 10188     0A45  00C4               	movwf	??___fltol
 10189     0A46  0841               	movf	___fltol@f1+1,w
 10190     0A47  00C5               	movwf	??___fltol+1
 10191     0A48  0842               	movf	___fltol@f1+2,w
 10192     0A49  00C6               	movwf	??___fltol+2
 10193     0A4A  0843               	movf	___fltol@f1+3,w
 10194     0A4B  00C7               	movwf	??___fltol+3
 10195     0A4C  301F               	movlw	31
 10196     0A4D                     u3275:
 10197     0A4D  1003               	clrc
 10198     0A4E  0CC7               	rrf	??___fltol+3,f
 10199     0A4F  0CC6               	rrf	??___fltol+2,f
 10200     0A50  0CC5               	rrf	??___fltol+1,f
 10201     0A51  0CC4               	rrf	??___fltol,f
 10202     0A52                     u3270:
 10203     0A52  3EFF               	addlw	-1
 10204     0A53  1D03               	skipz
 10205     0A54  2A4D               	goto	u3275
 10206     0A55  0844               	movf	??___fltol,w
 10207     0A56  00C8               	movwf	___fltol@sign1
 10208     0A57                     l3305:
 10209     0A57  17C2               	bsf	___fltol@f1+2,7
 10210     0A58                     l3307:
 10211     0A58  30FF               	movlw	255
 10212     0A59  05C0               	andwf	___fltol@f1,f
 10213     0A5A  30FF               	movlw	255
 10214     0A5B  05C1               	andwf	___fltol@f1+1,f
 10215     0A5C  30FF               	movlw	255
 10216     0A5D  05C2               	andwf	___fltol@f1+2,f
 10217     0A5E  3000               	movlw	0
 10218     0A5F  05C3               	andwf	___fltol@f1+3,f
 10219     0A60                     l3309:
 10220     0A60  3096               	movlw	150
 10221     0A61  02C9               	subwf	___fltol@exp1,f
 10222     0A62                     l3311:
 10223     0A62  1FC9               	btfss	___fltol@exp1,7
 10224     0A63  2A65               	goto	u3281
 10225     0A64  2A66               	goto	u3280
 10226     0A65                     u3281:
 10227     0A65  2A7E               	goto	l3321
 10228     0A66                     u3280:
 10229     0A66                     l3313:
 10230     0A66  0849               	movf	___fltol@exp1,w
 10231     0A67  3A80               	xorlw	128
 10232     0A68  3E97               	addlw	151
 10233     0A69  1803               	skipnc
 10234     0A6A  2A6C               	goto	u3291
 10235     0A6B  2A6D               	goto	u3290
 10236     0A6C                     u3291:
 10237     0A6C  2A6E               	goto	l3319
 10238     0A6D                     u3290:
 10239     0A6D  2A3B               	goto	l3299
 10240     0A6E                     l3319:
 10241     0A6E  3001               	movlw	1
 10242     0A6F                     u3305:
 10243     0A6F  1003               	clrc
 10244     0A70  0CC3               	rrf	___fltol@f1+3,f
 10245     0A71  0CC2               	rrf	___fltol@f1+2,f
 10246     0A72  0CC1               	rrf	___fltol@f1+1,f
 10247     0A73  0CC0               	rrf	___fltol@f1,f
 10248     0A74  3EFF               	addlw	-1
 10249     0A75  1D03               	skipz
 10250     0A76  2A6F               	goto	u3305
 10251     0A77  3001               	movlw	1
 10252     0A78  07C9               	addwf	___fltol@exp1,f
 10253     0A79  1D03               	btfss	3,2
 10254     0A7A  2A7C               	goto	u3311
 10255     0A7B  2A7D               	goto	u3310
 10256     0A7C                     u3311:
 10257     0A7C  2A6E               	goto	l3319
 10258     0A7D                     u3310:
 10259     0A7D  2A95               	goto	l3329
 10260     0A7E                     l3321:
 10261     0A7E  3020               	movlw	32
 10262     0A7F  0249               	subwf	___fltol@exp1,w
 10263     0A80  1C03               	skipc
 10264     0A81  2A83               	goto	u3321
 10265     0A82  2A84               	goto	u3320
 10266     0A83                     u3321:
 10267     0A83  2A90               	goto	l842
 10268     0A84                     u3320:
 10269     0A84  2A3B               	goto	l3299
 10270     0A85                     l3327:
 10271     0A85  3001               	movlw	1
 10272     0A86  00C4               	movwf	??___fltol
 10273     0A87                     u3335:
 10274     0A87  1003               	clrc
 10275     0A88  0DC0               	rlf	___fltol@f1,f
 10276     0A89  0DC1               	rlf	___fltol@f1+1,f
 10277     0A8A  0DC2               	rlf	___fltol@f1+2,f
 10278     0A8B  0DC3               	rlf	___fltol@f1+3,f
 10279     0A8C  0BC4               	decfsz	??___fltol,f
 10280     0A8D  2A87               	goto	u3335
 10281     0A8E  3001               	movlw	1
 10282     0A8F  02C9               	subwf	___fltol@exp1,f
 10283     0A90                     l842:
 10284     0A90  0849               	movf	___fltol@exp1,w
 10285     0A91  1D03               	btfss	3,2
 10286     0A92  2A94               	goto	u3341
 10287     0A93  2A95               	goto	u3340
 10288     0A94                     u3341:
 10289     0A94  2A85               	goto	l3327
 10290     0A95                     u3340:
 10291     0A95                     l3329:
 10292     0A95  0848               	movf	___fltol@sign1,w
 10293     0A96  1903               	btfsc	3,2
 10294     0A97  2A99               	goto	u3351
 10295     0A98  2A9A               	goto	u3350
 10296     0A99                     u3351:
 10297     0A99  2AA5               	goto	l845
 10298     0A9A                     u3350:
 10299     0A9A                     l3331:
 10300     0A9A  09C0               	comf	___fltol@f1,f
 10301     0A9B  09C1               	comf	___fltol@f1+1,f
 10302     0A9C  09C2               	comf	___fltol@f1+2,f
 10303     0A9D  09C3               	comf	___fltol@f1+3,f
 10304     0A9E  0AC0               	incf	___fltol@f1,f
 10305     0A9F  1903               	skipnz
 10306     0AA0  0AC1               	incf	___fltol@f1+1,f
 10307     0AA1  1903               	skipnz
 10308     0AA2  0AC2               	incf	___fltol@f1+2,f
 10309     0AA3  1903               	skipnz
 10310     0AA4  0AC3               	incf	___fltol@f1+3,f
 10311     0AA5                     l845:
 10312     0AA5                     l835:
 10313     0AA5  0008               	return
 10314     0AA6                     __end_of___fltol:
 10315                           
 10316                           	psect	text47
 10317     0E36                     __ptext47:	
 10318 ;; *************** function ___fldiv *****************
 10319 ;; Defined at:
 10320 ;;		line 8 in file "C:\Program Files\Microchip\xc8\v3.10\pic\sources\c99\common\sprcdiv.c"
 10321 ;; Parameters:    Size  Location     Type
 10322 ;;  a               4    6[BANK0 ] long 
 10323 ;;  b               4   10[BANK0 ] long 
 10324 ;; Auto vars:     Size  Location     Type
 10325 ;;  grs             4   26[BANK0 ] unsigned long 
 10326 ;;  rem             4   19[BANK0 ] unsigned long 
 10327 ;;  new_exp         2   24[BANK0 ] short 
 10328 ;;  aexp            1   31[BANK0 ] unsigned char 
 10329 ;;  bexp            1   30[BANK0 ] unsigned char 
 10330 ;;  sign            1   23[BANK0 ] unsigned char 
 10331 ;; Return value:  Size  Location     Type
 10332 ;;                  4    6[BANK0 ] unsigned char 
 10333 ;; Registers used:
 10334 ;;		wreg, status,2, status,0, btemp1
 10335 ;; Tracked objects:
 10336 ;;		On entry : 0/0
 10337 ;;		On exit  : 0/0
 10338 ;;		Unchanged: 0/0
 10339 ;; Data sizes:     COMMON   BANK0   BANK1   BANK3   BANK2
 10340 ;;      Params:         0       8       0       0       0
 10341 ;;      Locals:         0      13       0       0       0
 10342 ;;      Temps:          0       5       0       0       0
 10343 ;;      Totals:         0      26       0       0       0
 10344 ;;Total ram usage:       26 bytes
 10345 ;; Hardware stack levels used: 1
 10346 ;; This function calls:
 10347 ;;		Nothing
 10348 ;; This function is called by:
 10349 ;;		_dashboard
 10350 ;; This function uses a non-reentrant model
 10351 ;;
 10352                           
 10353     0E36                     ___fldiv:	
 10354                           ;psect for function ___fldiv
 10355                           
 10356     0E36                     l3381:	
 10357                           ;incstack = 0
 10358                           ; Regs used in ___fldiv: [wreg+status,2+status,0+btemp1]
 10359                           
 10360     0E36  1283               	bcf	3,5	;RP0=0, select bank0
 10361     0E37  1303               	bcf	3,6	;RP1=0, select bank0
 10362     0E38  082D               	movf	___fldiv@b+3,w
 10363     0E39  00B7               	movwf	___fldiv@sign
 10364     0E3A                     l3383:
 10365     0E3A  3080               	movlw	128
 10366     0E3B  05B7               	andwf	___fldiv@sign,f
 10367     0E3C                     l3385:
 10368     0E3C  082D               	movf	___fldiv@b+3,w
 10369     0E3D  00AE               	movwf	??___fldiv
 10370     0E3E  072E               	addwf	??___fldiv,w
 10371     0E3F  00BE               	movwf	___fldiv@bexp
 10372     0E40                     l3387:
 10373     0E40  1FAC               	btfss	___fldiv@b+2,7
 10374     0E41  2E43               	goto	u3491
 10375     0E42  2E44               	goto	u3490
 10376     0E43                     u3491:
 10377     0E43  2E45               	goto	l3391
 10378     0E44                     u3490:
 10379     0E44                     l3389:
 10380     0E44  143E               	bsf	___fldiv@bexp,0
 10381     0E45                     l3391:
 10382     0E45  083E               	movf	___fldiv@bexp,w
 10383     0E46  1903               	btfsc	3,2
 10384     0E47  2E49               	goto	u3501
 10385     0E48  2E4A               	goto	u3500
 10386     0E49                     u3501:
 10387     0E49  2E5A               	goto	l3401
 10388     0E4A                     u3500:
 10389     0E4A                     l3393:
 10390     0E4A  0A3E               	incf	___fldiv@bexp,w
 10391     0E4B  1D03               	btfss	3,2
 10392     0E4C  2E4E               	goto	u3511
 10393     0E4D  2E4F               	goto	u3510
 10394     0E4E                     u3511:
 10395     0E4E  2E57               	goto	l3397
 10396     0E4F                     u3510:
 10397     0E4F                     l3395:
 10398     0E4F  3000               	movlw	0
 10399     0E50  00AD               	movwf	___fldiv@b+3
 10400     0E51  3000               	movlw	0
 10401     0E52  00AC               	movwf	___fldiv@b+2
 10402     0E53  3000               	movlw	0
 10403     0E54  00AB               	movwf	___fldiv@b+1
 10404     0E55  3000               	movlw	0
 10405     0E56  00AA               	movwf	___fldiv@b
 10406     0E57                     l3397:
 10407     0E57  17AC               	bsf	___fldiv@b+2,7
 10408     0E58                     l3399:
 10409     0E58  01AD               	clrf	___fldiv@b+3
 10410     0E59  2E62               	goto	l3403
 10411     0E5A                     l3401:
 10412     0E5A  3000               	movlw	0
 10413     0E5B  00AD               	movwf	___fldiv@b+3
 10414     0E5C  3000               	movlw	0
 10415     0E5D  00AC               	movwf	___fldiv@b+2
 10416     0E5E  3000               	movlw	0
 10417     0E5F  00AB               	movwf	___fldiv@b+1
 10418     0E60  3000               	movlw	0
 10419     0E61  00AA               	movwf	___fldiv@b
 10420     0E62                     l3403:
 10421     0E62  0829               	movf	___fldiv@a+3,w
 10422     0E63  3980               	andlw	128
 10423     0E64  06B7               	xorwf	___fldiv@sign,f
 10424     0E65                     l3405:
 10425     0E65  0829               	movf	___fldiv@a+3,w
 10426     0E66  00AE               	movwf	??___fldiv
 10427     0E67  072E               	addwf	??___fldiv,w
 10428     0E68  00BF               	movwf	___fldiv@aexp
 10429     0E69                     l3407:
 10430     0E69  1FA8               	btfss	___fldiv@a+2,7
 10431     0E6A  2E6C               	goto	u3521
 10432     0E6B  2E6D               	goto	u3520
 10433     0E6C                     u3521:
 10434     0E6C  2E6E               	goto	l3411
 10435     0E6D                     u3520:
 10436     0E6D                     l3409:
 10437     0E6D  143F               	bsf	___fldiv@aexp,0
 10438     0E6E                     l3411:
 10439     0E6E  083F               	movf	___fldiv@aexp,w
 10440     0E6F  1903               	btfsc	3,2
 10441     0E70  2E72               	goto	u3531
 10442     0E71  2E73               	goto	u3530
 10443     0E72                     u3531:
 10444     0E72  2E83               	goto	l3421
 10445     0E73                     u3530:
 10446     0E73                     l3413:
 10447     0E73  0A3F               	incf	___fldiv@aexp,w
 10448     0E74  1D03               	btfss	3,2
 10449     0E75  2E77               	goto	u3541
 10450     0E76  2E78               	goto	u3540
 10451     0E77                     u3541:
 10452     0E77  2E80               	goto	l3417
 10453     0E78                     u3540:
 10454     0E78                     l3415:
 10455     0E78  3000               	movlw	0
 10456     0E79  00A9               	movwf	___fldiv@a+3
 10457     0E7A  3000               	movlw	0
 10458     0E7B  00A8               	movwf	___fldiv@a+2
 10459     0E7C  3000               	movlw	0
 10460     0E7D  00A7               	movwf	___fldiv@a+1
 10461     0E7E  3000               	movlw	0
 10462     0E7F  00A6               	movwf	___fldiv@a
 10463     0E80                     l3417:
 10464     0E80  17A8               	bsf	___fldiv@a+2,7
 10465     0E81                     l3419:
 10466     0E81  01A9               	clrf	___fldiv@a+3
 10467     0E82  2E8B               	goto	l998
 10468     0E83                     l3421:
 10469     0E83  3000               	movlw	0
 10470     0E84  00A9               	movwf	___fldiv@a+3
 10471     0E85  3000               	movlw	0
 10472     0E86  00A8               	movwf	___fldiv@a+2
 10473     0E87  3000               	movlw	0
 10474     0E88  00A7               	movwf	___fldiv@a+1
 10475     0E89  3000               	movlw	0
 10476     0E8A  00A6               	movwf	___fldiv@a
 10477     0E8B                     l998:
 10478     0E8B  0829               	movf	___fldiv@a+3,w
 10479     0E8C  0428               	iorwf	___fldiv@a+2,w
 10480     0E8D  0427               	iorwf	___fldiv@a+1,w
 10481     0E8E  0426               	iorwf	___fldiv@a,w
 10482     0E8F  1D03               	skipz
 10483     0E90  2E92               	goto	u3551
 10484     0E91  2E93               	goto	u3550
 10485     0E92                     u3551:
 10486     0E92  2EAA               	goto	l3431
 10487     0E93                     u3550:
 10488     0E93                     l3423:
 10489     0E93  3000               	movlw	0
 10490     0E94  00AD               	movwf	___fldiv@b+3
 10491     0E95  3000               	movlw	0
 10492     0E96  00AC               	movwf	___fldiv@b+2
 10493     0E97  3000               	movlw	0
 10494     0E98  00AB               	movwf	___fldiv@b+1
 10495     0E99  3000               	movlw	0
 10496     0E9A  00AA               	movwf	___fldiv@b
 10497     0E9B  3080               	movlw	128
 10498     0E9C  04AC               	iorwf	___fldiv@b+2,f
 10499     0E9D  307F               	movlw	127
 10500     0E9E  04AD               	iorwf	___fldiv@b+3,f
 10501     0E9F                     l3425:
 10502     0E9F  0837               	movf	___fldiv@sign,w
 10503     0EA0  04AD               	iorwf	___fldiv@b+3,f
 10504     0EA1                     l3427:
 10505     0EA1  082D               	movf	___fldiv@b+3,w
 10506     0EA2  00A9               	movwf	?___fldiv+3
 10507     0EA3  082C               	movf	___fldiv@b+2,w
 10508     0EA4  00A8               	movwf	?___fldiv+2
 10509     0EA5  082B               	movf	___fldiv@b+1,w
 10510     0EA6  00A7               	movwf	?___fldiv+1
 10511     0EA7  082A               	movf	___fldiv@b,w
 10512     0EA8  00A6               	movwf	?___fldiv
 10513     0EA9  2FFF               	goto	l1000
 10514     0EAA                     l3431:
 10515     0EAA  083E               	movf	___fldiv@bexp,w
 10516     0EAB  1D03               	btfss	3,2
 10517     0EAC  2EAE               	goto	u3561
 10518     0EAD  2EAF               	goto	u3560
 10519     0EAE                     u3561:
 10520     0EAE  2EB8               	goto	l3437
 10521     0EAF                     u3560:
 10522     0EAF                     l3433:
 10523     0EAF  3000               	movlw	0
 10524     0EB0  00A9               	movwf	?___fldiv+3
 10525     0EB1  3000               	movlw	0
 10526     0EB2  00A8               	movwf	?___fldiv+2
 10527     0EB3  3000               	movlw	0
 10528     0EB4  00A7               	movwf	?___fldiv+1
 10529     0EB5  3000               	movlw	0
 10530     0EB6  00A6               	movwf	?___fldiv
 10531     0EB7  2FFF               	goto	l1000
 10532     0EB8                     l3437:
 10533     0EB8  083E               	movf	___fldiv@bexp,w
 10534     0EB9  00AE               	movwf	??___fldiv
 10535     0EBA  01AF               	clrf	??___fldiv+1
 10536     0EBB  082F               	movf	??___fldiv+1,w
 10537     0EBC  00B1               	movwf	??___fldiv+3
 10538     0EBD  083F               	movf	___fldiv@aexp,w
 10539     0EBE  022E               	subwf	??___fldiv,w
 10540     0EBF  00B0               	movwf	??___fldiv+2
 10541     0EC0  1C03               	skipc
 10542     0EC1  03B1               	decf	??___fldiv+3,f
 10543     0EC2  0830               	movf	??___fldiv+2,w
 10544     0EC3  3E7F               	addlw	127
 10545     0EC4  00B8               	movwf	___fldiv@new_exp
 10546     0EC5  0831               	movf	??___fldiv+3,w
 10547     0EC6  1803               	skipnc
 10548     0EC7  3E01               	addlw	1
 10549     0EC8  3E00               	addlw	0
 10550     0EC9  00B9               	movwf	___fldiv@new_exp+1
 10551     0ECA                     l3439:
 10552     0ECA  082D               	movf	___fldiv@b+3,w
 10553     0ECB  00B6               	movwf	___fldiv@rem+3
 10554     0ECC  082C               	movf	___fldiv@b+2,w
 10555     0ECD  00B5               	movwf	___fldiv@rem+2
 10556     0ECE  082B               	movf	___fldiv@b+1,w
 10557     0ECF  00B4               	movwf	___fldiv@rem+1
 10558     0ED0  082A               	movf	___fldiv@b,w
 10559     0ED1  00B3               	movwf	___fldiv@rem
 10560     0ED2                     l3441:
 10561     0ED2  3000               	movlw	0
 10562     0ED3  00AD               	movwf	___fldiv@b+3
 10563     0ED4  3000               	movlw	0
 10564     0ED5  00AC               	movwf	___fldiv@b+2
 10565     0ED6  3000               	movlw	0
 10566     0ED7  00AB               	movwf	___fldiv@b+1
 10567     0ED8  3000               	movlw	0
 10568     0ED9  00AA               	movwf	___fldiv@b
 10569     0EDA                     l3443:
 10570     0EDA  3000               	movlw	0
 10571     0EDB  00BD               	movwf	___fldiv@grs+3
 10572     0EDC  3000               	movlw	0
 10573     0EDD  00BC               	movwf	___fldiv@grs+2
 10574     0EDE  3000               	movlw	0
 10575     0EDF  00BB               	movwf	___fldiv@grs+1
 10576     0EE0  3000               	movlw	0
 10577     0EE1  00BA               	movwf	___fldiv@grs
 10578     0EE2                     l3445:
 10579     0EE2  01BF               	clrf	___fldiv@aexp
 10580     0EE3  2F2C               	goto	l3465
 10581     0EE4                     l3447:
 10582     0EE4  083F               	movf	___fldiv@aexp,w
 10583     0EE5  1903               	btfsc	3,2
 10584     0EE6  2EE8               	goto	u3571
 10585     0EE7  2EE9               	goto	u3570
 10586     0EE8                     u3571:
 10587     0EE8  2F09               	goto	l3457
 10588     0EE9                     u3570:
 10589     0EE9                     l3449:
 10590     0EE9  3001               	movlw	1
 10591     0EEA  00AE               	movwf	??___fldiv
 10592     0EEB                     u3585:
 10593     0EEB  1003               	clrc
 10594     0EEC  0DB3               	rlf	___fldiv@rem,f
 10595     0EED  0DB4               	rlf	___fldiv@rem+1,f
 10596     0EEE  0DB5               	rlf	___fldiv@rem+2,f
 10597     0EEF  0DB6               	rlf	___fldiv@rem+3,f
 10598     0EF0  0BAE               	decfsz	??___fldiv,f
 10599     0EF1  2EEB               	goto	u3585
 10600     0EF2  3001               	movlw	1
 10601     0EF3  00AE               	movwf	??___fldiv
 10602     0EF4                     u3595:
 10603     0EF4  1003               	clrc
 10604     0EF5  0DAA               	rlf	___fldiv@b,f
 10605     0EF6  0DAB               	rlf	___fldiv@b+1,f
 10606     0EF7  0DAC               	rlf	___fldiv@b+2,f
 10607     0EF8  0DAD               	rlf	___fldiv@b+3,f
 10608     0EF9  0BAE               	decfsz	??___fldiv,f
 10609     0EFA  2EF4               	goto	u3595
 10610     0EFB                     l3451:
 10611     0EFB  1FBD               	btfss	___fldiv@grs+3,7
 10612     0EFC  2EFE               	goto	u3601
 10613     0EFD  2EFF               	goto	u3600
 10614     0EFE                     u3601:
 10615     0EFE  2F00               	goto	l3455
 10616     0EFF                     u3600:
 10617     0EFF                     l3453:
 10618     0EFF  142A               	bsf	___fldiv@b,0
 10619     0F00                     l3455:
 10620     0F00  3001               	movlw	1
 10621     0F01  00AE               	movwf	??___fldiv
 10622     0F02                     u3615:
 10623     0F02  1003               	clrc
 10624     0F03  0DBA               	rlf	___fldiv@grs,f
 10625     0F04  0DBB               	rlf	___fldiv@grs+1,f
 10626     0F05  0DBC               	rlf	___fldiv@grs+2,f
 10627     0F06  0DBD               	rlf	___fldiv@grs+3,f
 10628     0F07  0BAE               	decfsz	??___fldiv,f
 10629     0F08  2F02               	goto	u3615
 10630     0F09                     l3457:
 10631     0F09  0829               	movf	___fldiv@a+3,w
 10632     0F0A  0236               	subwf	___fldiv@rem+3,w
 10633     0F0B  1D03               	skipz
 10634     0F0C  2F17               	goto	u3625
 10635     0F0D  0828               	movf	___fldiv@a+2,w
 10636     0F0E  0235               	subwf	___fldiv@rem+2,w
 10637     0F0F  1D03               	skipz
 10638     0F10  2F17               	goto	u3625
 10639     0F11  0827               	movf	___fldiv@a+1,w
 10640     0F12  0234               	subwf	___fldiv@rem+1,w
 10641     0F13  1D03               	skipz
 10642     0F14  2F17               	goto	u3625
 10643     0F15  0826               	movf	___fldiv@a,w
 10644     0F16  0233               	subwf	___fldiv@rem,w
 10645     0F17                     u3625:
 10646     0F17  1C03               	skipc
 10647     0F18  2F1A               	goto	u3621
 10648     0F19  2F1B               	goto	u3620
 10649     0F1A                     u3621:
 10650     0F1A  2F2A               	goto	l3463
 10651     0F1B                     u3620:
 10652     0F1B                     l3459:
 10653     0F1B  173D               	bsf	___fldiv@grs+3,6
 10654     0F1C                     l3461:
 10655     0F1C  0826               	movf	___fldiv@a,w
 10656     0F1D  02B3               	subwf	___fldiv@rem,f
 10657     0F1E  0827               	movf	___fldiv@a+1,w
 10658     0F1F  1C03               	skipc
 10659     0F20  0F27               	incfsz	___fldiv@a+1,w
 10660     0F21  02B4               	subwf	___fldiv@rem+1,f
 10661     0F22  0828               	movf	___fldiv@a+2,w
 10662     0F23  1C03               	skipc
 10663     0F24  0F28               	incfsz	___fldiv@a+2,w
 10664     0F25  02B5               	subwf	___fldiv@rem+2,f
 10665     0F26  0829               	movf	___fldiv@a+3,w
 10666     0F27  1C03               	skipc
 10667     0F28  0F29               	incfsz	___fldiv@a+3,w
 10668     0F29  02B6               	subwf	___fldiv@rem+3,f
 10669     0F2A                     l3463:
 10670     0F2A  3001               	movlw	1
 10671     0F2B  07BF               	addwf	___fldiv@aexp,f
 10672     0F2C                     l3465:
 10673     0F2C  301A               	movlw	26
 10674     0F2D  023F               	subwf	___fldiv@aexp,w
 10675     0F2E  1C03               	skipc
 10676     0F2F  2F31               	goto	u3631
 10677     0F30  2F32               	goto	u3630
 10678     0F31                     u3631:
 10679     0F31  2EE4               	goto	l3447
 10680     0F32                     u3630:
 10681     0F32                     l3467:
 10682     0F32  0836               	movf	___fldiv@rem+3,w
 10683     0F33  0435               	iorwf	___fldiv@rem+2,w
 10684     0F34  0434               	iorwf	___fldiv@rem+1,w
 10685     0F35  0433               	iorwf	___fldiv@rem,w
 10686     0F36  1903               	skipnz
 10687     0F37  2F39               	goto	u3641
 10688     0F38  2F3A               	goto	u3640
 10689     0F39                     u3641:
 10690     0F39  2F59               	goto	l3481
 10691     0F3A                     u3640:
 10692     0F3A                     l3469:
 10693     0F3A  143A               	bsf	___fldiv@grs,0
 10694     0F3B  2F59               	goto	l3481
 10695     0F3C                     l3471:
 10696     0F3C  3001               	movlw	1
 10697     0F3D  00AE               	movwf	??___fldiv
 10698     0F3E                     u3655:
 10699     0F3E  1003               	clrc
 10700     0F3F  0DAA               	rlf	___fldiv@b,f
 10701     0F40  0DAB               	rlf	___fldiv@b+1,f
 10702     0F41  0DAC               	rlf	___fldiv@b+2,f
 10703     0F42  0DAD               	rlf	___fldiv@b+3,f
 10704     0F43  0BAE               	decfsz	??___fldiv,f
 10705     0F44  2F3E               	goto	u3655
 10706     0F45                     l3473:
 10707     0F45  1FBD               	btfss	___fldiv@grs+3,7
 10708     0F46  2F48               	goto	u3661
 10709     0F47  2F49               	goto	u3660
 10710     0F48                     u3661:
 10711     0F48  2F4A               	goto	l3477
 10712     0F49                     u3660:
 10713     0F49                     l3475:
 10714     0F49  142A               	bsf	___fldiv@b,0
 10715     0F4A                     l3477:
 10716     0F4A  3001               	movlw	1
 10717     0F4B  00AE               	movwf	??___fldiv
 10718     0F4C                     u3675:
 10719     0F4C  1003               	clrc
 10720     0F4D  0DBA               	rlf	___fldiv@grs,f
 10721     0F4E  0DBB               	rlf	___fldiv@grs+1,f
 10722     0F4F  0DBC               	rlf	___fldiv@grs+2,f
 10723     0F50  0DBD               	rlf	___fldiv@grs+3,f
 10724     0F51  0BAE               	decfsz	??___fldiv,f
 10725     0F52  2F4C               	goto	u3675
 10726     0F53                     l3479:
 10727     0F53  30FF               	movlw	255
 10728     0F54  07B8               	addwf	___fldiv@new_exp,f
 10729     0F55  1803               	skipnc
 10730     0F56  0AB9               	incf	___fldiv@new_exp+1,f
 10731     0F57  30FF               	movlw	255
 10732     0F58  07B9               	addwf	___fldiv@new_exp+1,f
 10733     0F59                     l3481:
 10734     0F59  1FAC               	btfss	___fldiv@b+2,7
 10735     0F5A  2F5C               	goto	u3681
 10736     0F5B  2F5D               	goto	u3680
 10737     0F5C                     u3681:
 10738     0F5C  2F3C               	goto	l3471
 10739     0F5D                     u3680:
 10740     0F5D                     l3483:
 10741     0F5D  01BF               	clrf	___fldiv@aexp
 10742     0F5E                     l3485:
 10743     0F5E  1FBD               	btfss	___fldiv@grs+3,7
 10744     0F5F  2F61               	goto	u3691
 10745     0F60  2F62               	goto	u3690
 10746     0F61                     u3691:
 10747     0F61  2F7E               	goto	l3493
 10748     0F62                     u3690:
 10749     0F62                     l3487:
 10750     0F62  30FF               	movlw	255
 10751     0F63  053A               	andwf	___fldiv@grs,w
 10752     0F64  00AE               	movwf	??___fldiv
 10753     0F65  30FF               	movlw	255
 10754     0F66  053B               	andwf	___fldiv@grs+1,w
 10755     0F67  00AF               	movwf	??___fldiv+1
 10756     0F68  30FF               	movlw	255
 10757     0F69  053C               	andwf	___fldiv@grs+2,w
 10758     0F6A  00B0               	movwf	??___fldiv+2
 10759     0F6B  307F               	movlw	127
 10760     0F6C  053D               	andwf	___fldiv@grs+3,w
 10761     0F6D  00B1               	movwf	??___fldiv+3
 10762     0F6E  0831               	movf	??___fldiv+3,w
 10763     0F6F  0430               	iorwf	??___fldiv+2,w
 10764     0F70  042F               	iorwf	??___fldiv+1,w
 10765     0F71  042E               	iorwf	??___fldiv,w
 10766     0F72  1903               	skipnz
 10767     0F73  2F75               	goto	u3701
 10768     0F74  2F76               	goto	u3700
 10769     0F75                     u3701:
 10770     0F75  2F79               	goto	l1014
 10771     0F76                     u3700:
 10772     0F76                     l3489:
 10773     0F76  3001               	movlw	1
 10774     0F77  00BF               	movwf	___fldiv@aexp
 10775     0F78  2F7E               	goto	l3493
 10776     0F79                     l1014:
 10777     0F79  1C2A               	btfss	___fldiv@b,0
 10778     0F7A  2F7C               	goto	u3711
 10779     0F7B  2F7D               	goto	u3710
 10780     0F7C                     u3711:
 10781     0F7C  2F7E               	goto	l3493
 10782     0F7D                     u3710:
 10783     0F7D  2F76               	goto	l3489
 10784     0F7E                     l3493:
 10785     0F7E  083F               	movf	___fldiv@aexp,w
 10786     0F7F  1903               	btfsc	3,2
 10787     0F80  2F82               	goto	u3721
 10788     0F81  2F83               	goto	u3720
 10789     0F82                     u3721:
 10790     0F82  2FB4               	goto	l3503
 10791     0F83                     u3720:
 10792     0F83                     l3495:
 10793     0F83  3001               	movlw	1
 10794     0F84  07AA               	addwf	___fldiv@b,f
 10795     0F85  3000               	movlw	0
 10796     0F86  1803               	skipnc
 10797     0F87  3001               	movlw	1
 10798     0F88  07AB               	addwf	___fldiv@b+1,f
 10799     0F89  3000               	movlw	0
 10800     0F8A  1803               	skipnc
 10801     0F8B  3001               	movlw	1
 10802     0F8C  07AC               	addwf	___fldiv@b+2,f
 10803     0F8D  3000               	movlw	0
 10804     0F8E  1803               	skipnc
 10805     0F8F  3001               	movlw	1
 10806     0F90  07AD               	addwf	___fldiv@b+3,f
 10807     0F91                     l3497:
 10808     0F91  1C2D               	btfss	___fldiv@b+3,0
 10809     0F92  2F94               	goto	u3731
 10810     0F93  2F95               	goto	u3730
 10811     0F94                     u3731:
 10812     0F94  2FB4               	goto	l3503
 10813     0F95                     u3730:
 10814     0F95                     l3499:
 10815     0F95  082A               	movf	___fldiv@b,w
 10816     0F96  00AE               	movwf	??___fldiv
 10817     0F97  082B               	movf	___fldiv@b+1,w
 10818     0F98  00AF               	movwf	??___fldiv+1
 10819     0F99  082C               	movf	___fldiv@b+2,w
 10820     0F9A  00B0               	movwf	??___fldiv+2
 10821     0F9B  082D               	movf	___fldiv@b+3,w
 10822     0F9C  00B1               	movwf	??___fldiv+3
 10823     0F9D  3001               	movlw	1
 10824     0F9E  00B2               	movwf	??___fldiv+4
 10825     0F9F                     u3745:
 10826     0F9F  0D31               	rlf	??___fldiv+3,w
 10827     0FA0  0CB1               	rrf	??___fldiv+3,f
 10828     0FA1  0CB0               	rrf	??___fldiv+2,f
 10829     0FA2  0CAF               	rrf	??___fldiv+1,f
 10830     0FA3  0CAE               	rrf	??___fldiv,f
 10831     0FA4                     u3740:
 10832     0FA4  0BB2               	decfsz	??___fldiv+4,f
 10833     0FA5  2F9F               	goto	u3745
 10834     0FA6  0831               	movf	??___fldiv+3,w
 10835     0FA7  00AD               	movwf	___fldiv@b+3
 10836     0FA8  0830               	movf	??___fldiv+2,w
 10837     0FA9  00AC               	movwf	___fldiv@b+2
 10838     0FAA  082F               	movf	??___fldiv+1,w
 10839     0FAB  00AB               	movwf	___fldiv@b+1
 10840     0FAC  082E               	movf	??___fldiv,w
 10841     0FAD  00AA               	movwf	___fldiv@b
 10842     0FAE                     l3501:
 10843     0FAE  3001               	movlw	1
 10844     0FAF  07B8               	addwf	___fldiv@new_exp,f
 10845     0FB0  1803               	skipnc
 10846     0FB1  0AB9               	incf	___fldiv@new_exp+1,f
 10847     0FB2  3000               	movlw	0
 10848     0FB3  07B9               	addwf	___fldiv@new_exp+1,f
 10849     0FB4                     l3503:
 10850     0FB4  0839               	movf	___fldiv@new_exp+1,w
 10851     0FB5  3A80               	xorlw	128
 10852     0FB6  00FF               	movwf	btemp1
 10853     0FB7  3080               	movlw	128
 10854     0FB8  027F               	subwf	btemp1,w
 10855     0FB9  1D03               	skipz
 10856     0FBA  2FBD               	goto	u3755
 10857     0FBB  30FF               	movlw	255
 10858     0FBC  0238               	subwf	___fldiv@new_exp,w
 10859     0FBD                     u3755:
 10860     0FBD  1C03               	skipc
 10861     0FBE  2FC0               	goto	u3751
 10862     0FBF  2FC1               	goto	u3750
 10863     0FC0                     u3751:
 10864     0FC0  2FCF               	goto	l3507
 10865     0FC1                     u3750:
 10866     0FC1                     l3505:
 10867     0FC1  30FF               	movlw	255
 10868     0FC2  1283               	bcf	3,5	;RP0=0, select bank0
 10869     0FC3  1303               	bcf	3,6	;RP1=0, select bank0
 10870     0FC4  00B8               	movwf	___fldiv@new_exp
 10871     0FC5  3000               	movlw	0
 10872     0FC6  00B9               	movwf	___fldiv@new_exp+1
 10873     0FC7  3000               	movlw	0
 10874     0FC8  00AD               	movwf	___fldiv@b+3
 10875     0FC9  3000               	movlw	0
 10876     0FCA  00AC               	movwf	___fldiv@b+2
 10877     0FCB  3000               	movlw	0
 10878     0FCC  00AB               	movwf	___fldiv@b+1
 10879     0FCD  3000               	movlw	0
 10880     0FCE  00AA               	movwf	___fldiv@b
 10881     0FCF                     l3507:
 10882     0FCF  1283               	bcf	3,5	;RP0=0, select bank0
 10883     0FD0  1303               	bcf	3,6	;RP1=0, select bank0
 10884     0FD1  0839               	movf	___fldiv@new_exp+1,w
 10885     0FD2  3A80               	xorlw	128
 10886     0FD3  00FF               	movwf	btemp1
 10887     0FD4  3080               	movlw	128
 10888     0FD5  027F               	subwf	btemp1,w
 10889     0FD6  1D03               	skipz
 10890     0FD7  2FDA               	goto	u3765
 10891     0FD8  3001               	movlw	1
 10892     0FD9  0238               	subwf	___fldiv@new_exp,w
 10893     0FDA                     u3765:
 10894     0FDA  1803               	skipnc
 10895     0FDB  2FDD               	goto	u3761
 10896     0FDC  2FDE               	goto	u3760
 10897     0FDD                     u3761:
 10898     0FDD  2FEB               	goto	l1020
 10899     0FDE                     u3760:
 10900     0FDE                     l3509:
 10901     0FDE  1283               	bcf	3,5	;RP0=0, select bank0
 10902     0FDF  1303               	bcf	3,6	;RP1=0, select bank0
 10903     0FE0  01B8               	clrf	___fldiv@new_exp
 10904     0FE1  01B9               	clrf	___fldiv@new_exp+1
 10905     0FE2                     l3511:
 10906     0FE2  3000               	movlw	0
 10907     0FE3  00AD               	movwf	___fldiv@b+3
 10908     0FE4  3000               	movlw	0
 10909     0FE5  00AC               	movwf	___fldiv@b+2
 10910     0FE6  3000               	movlw	0
 10911     0FE7  00AB               	movwf	___fldiv@b+1
 10912     0FE8  3000               	movlw	0
 10913     0FE9  00AA               	movwf	___fldiv@b
 10914     0FEA                     l3513:
 10915     0FEA  01B7               	clrf	___fldiv@sign
 10916     0FEB                     l1020:
 10917     0FEB  1283               	bcf	3,5	;RP0=0, select bank0
 10918     0FEC  1303               	bcf	3,6	;RP1=0, select bank0
 10919     0FED  0838               	movf	___fldiv@new_exp,w
 10920     0FEE  00BE               	movwf	___fldiv@bexp
 10921     0FEF                     l3515:
 10922     0FEF  1C3E               	btfss	___fldiv@bexp,0
 10923     0FF0  2FF2               	goto	u3771
 10924     0FF1  2FF3               	goto	u3770
 10925     0FF2                     u3771:
 10926     0FF2  2FF5               	goto	l3519
 10927     0FF3                     u3770:
 10928     0FF3                     l3517:
 10929     0FF3  17AC               	bsf	___fldiv@b+2,7
 10930     0FF4  2FF7               	goto	l1022
 10931     0FF5                     l3519:
 10932     0FF5  307F               	movlw	127
 10933     0FF6  05AC               	andwf	___fldiv@b+2,f
 10934     0FF7                     l1022:
 10935     0FF7  083E               	movf	___fldiv@bexp,w
 10936     0FF8  00AE               	movwf	??___fldiv
 10937     0FF9  1003               	clrc
 10938     0FFA  0C2E               	rrf	??___fldiv,w
 10939     0FFB  00AD               	movwf	___fldiv@b+3
 10940     0FFC  0837               	movf	___fldiv@sign,w
 10941     0FFD  04AD               	iorwf	___fldiv@b+3,f
 10942     0FFE  2EA1               	goto	l3427
 10943     0FFF                     l1000:
 10944     0FFF  0008               	return
 10945     1000                     __end_of___fldiv:
 10946     0002                     ___latbits      equ	2
 10947     007E                     btemp           set	126	;btemp
 10948     007E                     btemp0          set	126
 10949     007F                     btemp1          set	127
 10950     007E                     wtemp0          set	126
 10951     007F                     wtemp0a         set	127
 10952     007F                     ttemp0a         set	127
 10953     0080                     ltemp0a         set	128
 10954                           
 10955                           	psect	config
 10956                           
 10957                           ;Config register CONFIG @ 0x2007
 10958                           ;	Oscillator Selection bits
 10959                           ;	FOSC = 0x3, unprogrammed default
 10960                           ;	Watchdog Timer Enable bit
 10961                           ;	WDTE = OFF, WDT disabled
 10962                           ;	Power-up Timer Enable bit
 10963                           ;	PWRTE = 0x1, unprogrammed default
 10964                           ;	Brown-out Reset Enable bit
 10965                           ;	BOREN = 0x1, unprogrammed default
 10966                           ;	Low-Voltage (Single-Supply) In-Circuit Serial Programming Enable bit
 10967                           ;	LVP = 0x1, unprogrammed default
 10968                           ;	Data EEPROM Memory Code Protection bit
 10969                           ;	CPD = 0x1, unprogrammed default
 10970                           ;	Flash Program Memory Write Enable bits
 10971                           ;	WRT = 0x3, unprogrammed default
 10972                           ;	In-Circuit Debugger Mode bit
 10973                           ;	DEBUG = 0x1, unprogrammed default
 10974                           ;	Flash Program Memory Code Protection bit
 10975                           ;	CP = 0x1, unprogrammed default
 10976     2007                     	org	8199
 10977     2007  3FFB               	dw	16379

Data Sizes:
    Strings     515
    Constant    0
    Data        41
    BSS         148
    Persistent  0
    Stack       0

Auto Spaces:
    Space          Size  Autos    Used
    COMMON           14     14      14
    BANK0            80     49      79
    BANK1            80      0      74
    BANK3            96      0      85
    BANK2            96      0       0

Pointer List with Targets:

    clcd_print@str	PTR const unsigned char  size(2) Largest target is 20
		 -> set_time@temp(BANK0[9]), speed(BANK1[3]), STR_1(CODE[17]), STR_10(CODE[3]), 
		 -> STR_11(CODE[17]), STR_12(CODE[17]), STR_13(CODE[9]), STR_14(CODE[10]), 
		 -> STR_15(CODE[13]), STR_16(CODE[9]), STR_17(CODE[12]), STR_18(CODE[17]), 
		 -> STR_19(CODE[12]), STR_2(CODE[17]), STR_20(CODE[17]), STR_21(CODE[17]), 
		 -> STR_22(CODE[16]), STR_23(CODE[17]), STR_24(CODE[17]), STR_25(CODE[17]), 
		 -> STR_26(CODE[16]), STR_27(CODE[16]), STR_28(CODE[17]), STR_29(CODE[17]), 
		 -> STR_3(CODE[3]), STR_30(CODE[17]), STR_31(CODE[17]), STR_32(CODE[17]), 
		 -> STR_33(CODE[17]), STR_34(CODE[16]), STR_35(CODE[17]), STR_36(CODE[20]), 
		 -> STR_37(CODE[15]), STR_38(CODE[15]), STR_39(CODE[17]), STR_4(CODE[3]), 
		 -> STR_40(CODE[17]), STR_41(CODE[16]), STR_42(CODE[16]), STR_47(CODE[16]), 
		 -> STR_48(CODE[16]), STR_5(CODE[3]), STR_50(CODE[16]), STR_51(CODE[16]), 
		 -> STR_52(CODE[17]), STR_53(CODE[17]), STR_54(CODE[17]), STR_55(CODE[17]), 
		 -> STR_56(CODE[17]), STR_57(CODE[17]), STR_58(CODE[17]), STR_59(CODE[16]), 
		 -> STR_6(CODE[3]), STR_60(CODE[17]), STR_61(CODE[17]), STR_62(CODE[16]), 
		 -> STR_63(CODE[17]), STR_64(CODE[17]), STR_65(CODE[16]), STR_66(CODE[16]), 
		 -> STR_67(CODE[16]), STR_68(CODE[16]), STR_69(CODE[17]), STR_7(CODE[3]), 
		 -> STR_70(CODE[17]), STR_8(CODE[3]), STR_9(CODE[3]), time(BANK1[9]), 
		 -> view_log@log(BANK0[17]), 

    display_time@clock_reg	PTR unsigned char  size(1) Largest target is 3
		 -> clock_reg(BANK0[3]), 

    event	PTR unsigned char [8] size(2) Largest target is 3
		 -> STR_10(CODE[3]), STR_3(CODE[3]), STR_4(CODE[3]), STR_5(CODE[3]), 
		 -> STR_6(CODE[3]), STR_7(CODE[3]), STR_8(CODE[3]), STR_9(CODE[3]), 

    get_time@clock_reg	PTR unsigned char  size(1) Largest target is 3
		 -> clock_reg(BANK0[3]), 

    sp__strcpy	PTR unsigned char  size(1) Largest target is 5
		 -> password(BANK1[5]), 

    str	PTR unsigned char [5] size(2) Largest target is 13
		 -> STR_13(CODE[9]), STR_14(CODE[10]), STR_15(CODE[13]), STR_16(CODE[9]), 
		 -> STR_17(CODE[12]), 

    strcmp@l	PTR const unsigned char  size(1) Largest target is 5
		 -> change_password@temp(BANK1[5]), login@entered(BANK1[5]), 

    strcmp@r	PTR const unsigned char  size(1) Largest target is 5
		 -> change_password@temp2(BANK1[5]), password(BANK1[5]), 

    strcpy@d	PTR unsigned char  size(1) Largest target is 5
		 -> password(BANK1[5]), 

    strcpy@dest	PTR unsigned char  size(1) Largest target is 5
		 -> password(BANK1[5]), 

    strcpy@src	PTR const unsigned char  size(1) Largest target is 5
		 -> change_password@temp(BANK1[5]), 

    uart_puts@str	PTR const unsigned char  size(2) Largest target is 19
		 -> STR_43(CODE[3]), STR_44(CODE[17]), STR_45(CODE[19]), STR_46(CODE[16]), 
		 -> STR_49(CODE[3]), 


Critical Paths under _main in COMMON

    _main->_login
    _menu->_change_password
    _view_log->_clcd_print
    _set_time->_write_ds1307
    _download_log->_clcd_print
    _download_log->_uart_puts
    _uart_puts->_uart_putch
    _uart_putch->_read_external_eeprom
    _read_external_eeprom->_i2c_read
    _clear_log->_clcd_print
    _change_password->_clcd_putch
    _login->_clcd_putch
    _clcd_putch->___awdiv
    _init_i2c->___lldiv
    _init_ds1307->_write_ds1307
    _write_ds1307->___awdiv
    _init_clcd->_init_display_controller
    _init_display_controller->_clcd_write
    _dashboard->___xxtofl
    _dashboard->_store_event
    _store_event->_write_external_eeprom
    _write_external_eeprom->_i2c_write
    _get_time->_read_ds1307
    _read_ds1307->_i2c_read
    _display_time->_clcd_print
    _clcd_print->_clcd_write
    ___xxtofl->_read_adc
    ___fltol->___xxtofl
    ___fldiv->___xxtofl

Critical Paths under _main in BANK0

    _main->_dashboard
    _menu->_view_log
    _init_config->_init_i2c
    _dashboard->___fltol
    ___fltol->___fldiv
    ___fldiv->___xxtofl

Critical Paths under _main in BANK1

    None.

Critical Paths under _main in BANK3

    None.

Critical Paths under _main in BANK2

    None.

Call Graph Tables:

 ---------------------------------------------------------------------------------
 (Depth) Function   	        Calls       Base Space   Used Autos Params    Refs
 ---------------------------------------------------------------------------------
 (0) _main                                                 2     2      0   11266
                                             47 BANK0      2     2      0
                         _clcd_print
                          _dashboard
                        _init_config
                              _login
                               _menu
                _read_digital_keypad
 ---------------------------------------------------------------------------------
 (1) _menu                                                 8     8      0    5720
                                             19 BANK0      8     8      0
                    _change_password
                         _clcd_print
                         _clcd_putch
                          _clear_log
                       _download_log
                _read_digital_keypad
                           _set_time
                           _view_log
 ---------------------------------------------------------------------------------
 (2) _view_log                                            21    21      0    1282
                                              7 COMMON     2     2      0
                                              0 BANK0     19    19      0
                             ___bmul
                         _clcd_print
               _read_external_eeprom
 ---------------------------------------------------------------------------------
 (2) _set_time                                            17    17      0    1829
                                              0 BANK0     17    17      0
                            ___awdiv
                            ___awmod
                             ___bmul
                         _clcd_print
                           _get_time
                       _write_ds1307
 ---------------------------------------------------------------------------------
 (3) ___bmul                                               3     2      1     111
                                              0 COMMON     3     2      1
 ---------------------------------------------------------------------------------
 (2) _read_digital_keypad                                  2     2      0      29
                                              0 COMMON     2     2      0
 ---------------------------------------------------------------------------------
 (2) _download_log                                         5     5      0     778
                                              7 COMMON     5     5      0
                         _clcd_print
               _read_external_eeprom
                         _uart_putch
                          _uart_puts
 ---------------------------------------------------------------------------------
 (3) _uart_puts                                            2     0      2      79
                                              5 COMMON     2     0      2
                         _uart_putch
 ---------------------------------------------------------------------------------
 (4) _uart_putch                                           1     1      0      29
                                              4 COMMON     1     1      0
               _read_external_eeprom (ARG)
 ---------------------------------------------------------------------------------
 (3) _read_external_eeprom                                 2     2      0     133
                                              2 COMMON     2     2      0
                           _i2c_read
                      _i2c_rep_start
                          _i2c_start
                           _i2c_stop
                          _i2c_write
 ---------------------------------------------------------------------------------
 (2) _clear_log                                            2     2      0     282
                                              7 COMMON     2     2      0
                         _clcd_print
 ---------------------------------------------------------------------------------
 (2) _change_password                                      7     5      2     749
                                             10 COMMON     3     1      2
                                              0 BANK0      4     4      0
                         _clcd_print
                         _clcd_putch
                             _strcmp
                             _strcpy
 ---------------------------------------------------------------------------------
 (3) _strcpy                                               4     2      2      75
                                              0 COMMON     4     2      2
 ---------------------------------------------------------------------------------
 (1) _login                                                9     9      0    1286
                                             10 COMMON     4     4      0
                                              0 BANK0      5     5      0
                            ___awdiv
                            ___awmod
                         _clcd_print
                         _clcd_putch
                             _strcmp
 ---------------------------------------------------------------------------------
 (3) _strcmp                                               4     2      2     116
                                              0 COMMON     4     2      2
 ---------------------------------------------------------------------------------
 (3) _clcd_putch                                           2     1      1     160
                                              8 COMMON     2     1      1
                            ___awdiv (ARG)
                            ___awmod (ARG)
                         _clcd_write
 ---------------------------------------------------------------------------------
 (3) ___awmod                                              6     2      4     310
                                              0 COMMON     6     2      4
 ---------------------------------------------------------------------------------
 (3) ___awdiv                                              8     4      4     314
                                              0 COMMON     8     4      4
 ---------------------------------------------------------------------------------
 (1) _init_config                                          0     0      0     541
                           _init_adc
                          _init_clcd
                _init_digital_keypad
                        _init_ds1307
                           _init_i2c
                          _init_uart
 ---------------------------------------------------------------------------------
 (2) _init_uart                                            0     0      0       0
 ---------------------------------------------------------------------------------
 (2) _init_i2c                                             8     4      4     187
                                              0 BANK0      8     4      4
                            ___lldiv
 ---------------------------------------------------------------------------------
 (3) ___lldiv                                             14     6      8     164
                                              0 COMMON    14     6      8
 ---------------------------------------------------------------------------------
 (2) _init_ds1307                                          1     1      0     263
                                             10 COMMON     1     1      0
                        _read_ds1307
                       _write_ds1307
 ---------------------------------------------------------------------------------
 (3) _write_ds1307                                         2     1      1     106
                                              8 COMMON     2     1      1
                            ___awdiv (ARG)
                            ___awmod (ARG)
                          _i2c_start
                           _i2c_stop
                          _i2c_write
 ---------------------------------------------------------------------------------
 (2) _init_digital_keypad                                  0     0      0       0
 ---------------------------------------------------------------------------------
 (2) _init_clcd                                            0     0      0      91
            _init_display_controller
 ---------------------------------------------------------------------------------
 (3) _init_display_controller                              2     2      0      91
                                              4 COMMON     2     2      0
                         _clcd_write
 ---------------------------------------------------------------------------------
 (2) _init_adc                                             0     0      0       0
 ---------------------------------------------------------------------------------
 (1) _dashboard                                            5     5      0    3273
                                             42 BANK0      5     5      0
                            ___fldiv
                            ___fltol
                            ___lwdiv
                            ___lwmod
                           ___xxtofl
                         _clcd_print
                       _display_time
                           _get_time
                           _read_adc
                        _store_event
 ---------------------------------------------------------------------------------
 (2) _store_event                                          9     9      0     220
                                              5 COMMON     9     9      0
              _write_external_eeprom
 ---------------------------------------------------------------------------------
 (3) _write_external_eeprom                                4     3      1     108
                                              1 COMMON     4     3      1
                          _i2c_start
                           _i2c_stop
                          _i2c_write
 ---------------------------------------------------------------------------------
 (2) _read_adc                                             6     4      2      52
                                              0 COMMON     6     4      2
 ---------------------------------------------------------------------------------
 (3) _get_time                                             1     0      1     201
                                              4 COMMON     1     0      1
                        _read_ds1307
 ---------------------------------------------------------------------------------
 (4) _read_ds1307                                          2     2      0     133
                                              2 COMMON     2     2      0
                           _i2c_read
                      _i2c_rep_start
                          _i2c_start
                           _i2c_stop
                          _i2c_write
 ---------------------------------------------------------------------------------
 (5) _i2c_write                                            1     1      0      29
                                              0 COMMON     1     1      0
                  _i2c_wait_for_idle
 ---------------------------------------------------------------------------------
 (5) _i2c_rep_start                                        0     0      0       0
                          _i2c_start
                           _i2c_stop
 ---------------------------------------------------------------------------------
 (6) _i2c_stop                                             0     0      0       0
                  _i2c_wait_for_idle
 ---------------------------------------------------------------------------------
 (6) _i2c_start                                            0     0      0       0
                  _i2c_wait_for_idle
 ---------------------------------------------------------------------------------
 (5) _i2c_read                                             2     2      0      52
                                              0 COMMON     2     2      0
                  _i2c_wait_for_idle
 ---------------------------------------------------------------------------------
 (7) _i2c_wait_for_idle                                    0     0      0       0
 ---------------------------------------------------------------------------------
 (2) _display_time                                         2     1      1     415
                                              7 COMMON     2     1      1
                         _clcd_print
 ---------------------------------------------------------------------------------
 (3) _clcd_print                                           3     0      3     282
                                              4 COMMON     3     0      3
                         _clcd_write
 ---------------------------------------------------------------------------------
 (4) _clcd_write                                           4     3      1      91
                                              0 COMMON     4     3      1
 ---------------------------------------------------------------------------------
 (2) ___xxtofl                                            14    10      4     337
                                              6 COMMON     8     4      4
                                              0 BANK0      6     6      0
                           _read_adc (ARG)
 ---------------------------------------------------------------------------------
 (2) ___lwmod                                              5     1      4     161
                                              0 COMMON     5     1      4
 ---------------------------------------------------------------------------------
 (2) ___lwdiv                                              7     3      4     164
                                              0 COMMON     7     3      4
 ---------------------------------------------------------------------------------
 (2) ___fltol                                             10     6      4     230
                                             32 BANK0     10     6      4
                            ___fldiv (ARG)
                           ___xxtofl (ARG)
                           _read_adc (ARG)
 ---------------------------------------------------------------------------------
 (2) ___fldiv                                             26    18      8    1124
                                              6 BANK0     26    18      8
                           ___xxtofl (ARG)
                           _read_adc (ARG)
 ---------------------------------------------------------------------------------
 Estimated maximum stack depth 7
 ---------------------------------------------------------------------------------

 Call Graph Graphs:

 _main (ROOT)
   _clcd_print
     _clcd_write
   _dashboard
     ___fldiv
       ___xxtofl (ARG)
         _read_adc (ARG)
       _read_adc (ARG)
     ___fltol
       ___fldiv (ARG)
       ___xxtofl (ARG)
       _read_adc (ARG)
     ___lwdiv
     ___lwmod
     ___xxtofl
     _clcd_print
     _display_time
       _clcd_print
     _get_time
       _read_ds1307
         _i2c_read
           _i2c_wait_for_idle
         _i2c_rep_start
           _i2c_start
             _i2c_wait_for_idle
           _i2c_stop
             _i2c_wait_for_idle
         _i2c_start
         _i2c_stop
         _i2c_write
           _i2c_wait_for_idle
     _read_adc
     _store_event
       _write_external_eeprom
         _i2c_start
         _i2c_stop
         _i2c_write
   _init_config
     _init_adc
     _init_clcd
       _init_display_controller
         _clcd_write
     _init_digital_keypad
     _init_ds1307
       _read_ds1307
       _write_ds1307
         ___awdiv (ARG)
         ___awmod (ARG)
         _i2c_start (ARG)
         _i2c_stop (ARG)
         _i2c_write (ARG)
     _init_i2c
       ___lldiv
     _init_uart
   _login
     ___awdiv
     ___awmod
     _clcd_print
     _clcd_putch
       ___awdiv (ARG)
       ___awmod (ARG)
       _clcd_write (ARG)
     _strcmp
   _menu
     _change_password
       _clcd_print
       _clcd_putch
       _strcmp
       _strcpy
     _clcd_print
     _clcd_putch
     _clear_log
       _clcd_print
     _download_log
       _clcd_print
       _read_external_eeprom
         _i2c_read
         _i2c_rep_start
         _i2c_start
         _i2c_stop
         _i2c_write
       _uart_putch
         _read_external_eeprom (ARG)
       _uart_puts
         _uart_putch
     _read_digital_keypad
     _set_time
       ___awdiv
       ___awmod
       ___bmul
       _clcd_print
       _get_time
       _write_ds1307
     _view_log
       ___bmul
       _clcd_print
       _read_external_eeprom
   _read_digital_keypad

Address spaces:
Name               Size   Autos  Total    Usage
BANK3               96      0      85     88.5%
BITBANK3            96      0       0      0.0%
BANK2               96      0       0      0.0%
BITBANK2            96      0       0      0.0%
BANK1               80      0      74     92.5%
BITBANK1            80      0       0      0.0%
BANK0               80     49      79     98.8%
BITBANK0            80      0       0      0.0%
COMMON              14     14      14    100.0%
BITCOMMON           14      0       0      0.0%
DATA                 0      0     252      0.0%
STACK                0      0       0      0.0%


Microchip Technology PIC Macro Assembler V3.10 build 20250813170317 
Symbol Table                                                                                   Wed Jun 24 10:23:38 2026

                   ___fldiv@aexp 003F                     ___fldiv@bexp 003E                                pc 0002  
                   ___fldiv@sign 0037            _write_external_eeprom 12F7                   ___bmul@product 0071  
                 clcd_print@addr 0076                               l20 118D                               l23 119B  
                             l17 1094                               l50 1272                               l55 1634  
                             l91 10E3                               l85 138E                               l94 1101  
                             l88 1567                               _GO 00FA                     ___awdiv@sign 0075  
                             fsr 0004                              l100 12F6                              l201 10E4  
                            l210 10CD                              l204 10F0                              l116 1326  
                            l140 1113                              l300 10B0                              l213 10AE  
                            l221 10D8                              l207 10A5                              l143 12C7  
                            l119 0A2F                              l303 10B8                              l152 145A  
                            l216 11F6                              l217 11F9                              l218 11FB  
                            l146 117C                              l149 11DA                              l261 011D  
                            l309 1221                              l165 129C                              l159 108D  
                            l521 07C6                              l274 1749                              l450 0BA1  
                            l380 0525                              l516 06A9                              l428 0E35  
                            l198 1358                              l470 0CCE                              l518 06AE  
                            l519 06B3                              l297 1125                              l465 1493  
                            l378 0375                              l466 14AD                              l555 02E8  
                            l807 1504                              l921 1408                              l842 0A90  
                            l835 0AA5                              l931 13C6                              l667 114B  
                            l845 0AA5                              l677 162E                              l794 15CA  
                            l998 0E8B                              _RE1 0049                              _RE2 004A  
                            _PEN 048A                              _SEN 0488                    ?_display_time 0077  
                 clcd_putch@addr 0078                              _pos 0051                              fsr0 0004  
                            _str 00DB                   clcd_putch@data 0079                              indf 0000  
                   ___awmod@sign 0075                     ___fltol@exp1 0049                             l1000 0FFF  
                           l1020 0FEB                             l1022 0FF7                             l1014 0F79  
                           l1111 1138                             l1105 1249                             l3001 0C08  
                           l1082 176E                             l1083 177F                             l3011 0C2A  
                           l3003 0C0A                             l1084 17FF                             l3021 0C64  
                           l3013 0C37                             l3005 0C15                             l3101 05DC  
                           l1095 17C9                             l3031 0C97                             l3023 0C6A  
                           l3015 0C42                             l3007 0C17                             l3103 05DF  
                           l3111 05EC                             l1096 17D5                             l1088 17AD  
                           l3201 015E                             l3033 0CA4                             l3025 0C77  
                           l3017 0C55                             l3009 0C24                             l3121 0642  
                           l3113 0601                             l3105 05E2            ??_read_digital_keypad 0070  
                           l3211 017C                             l3203 0164                             l3035 0CAD  
                           l3027 0C82                             l3019 0C57                             l3131 067A  
                           l3123 0644                             l3115 0616                             l3107 05E7  
                           l3051 0567                             l3043 0529                             l3221 0198  
                           l3213 0182                             l3205 0166                             l3029 0C95  
                           l3037 0CAF                             l3141 069D                             l3133 0682  
                           l3125 0659                             l3117 0618                             l3109 05EA  
                           l3061 058D                             l3053 057F                             l3045 052E  
                           l3311 0A62                             l3303 0A44                             l2511 10EA  
                           l3231 01CE                             l3223 019D                             l3215 0184  
                           l3207 0170                             l3039 0CB7                             l3151 06CB  
                           l3135 068B                             l3127 066E                             l3119 062D  
                           l3071 05A2                             l3063 0593                             l3047 0535  
                           l3055 0580                             l3401 0E5A                             l3313 0A66  
                           l3321 0A7E                             l3305 0A57                             l2513 109D  
                           l2521 10CF                             l2601 154B                             l3241 01E5  
                           l3233 01D1                             l3225 01A0                             l3209 0176  
                           l3217 018D                             l3161 0793                             l3153 077F  
                           l3145 06B8                             l3137 068D                             l3129 066F  
                           l3081 05B3                             l3073 05A4                             l3065 0595  
                           l3057 0586                             l3049 054F                             l3411 0E6E  
                           l3403 0E62                             l3331 0A9A                             l3307 0A58  
                           l2531 11DC                             l2515 10A2                             l2523 10D4  
                           l2611 1314                             l2603 155B                             l3251 0203  
                           l3235 01D7                             l3243 01EF                             l3227 01A5  
                           l3219 0195                             l3171 07A8                             l3163 079E  
                           l3155 0783                             l3139 0697                             l3091 05C7  
                           l3083 05B5                             l3075 05A6                             l3067 059A  
                           l3059 058B                             l3501 0FAE                             l3413 0E73  
                           l3421 0E83                             l3405 0E65                             l3309 0A60  
                           l3341 13D9                             l3333 13C7                             l2509 10E4  
                           l2541 11FA                             l2533 11E1                             l2517 10A6  
                           l2525 10D8                             l2613 1318                             l2605 1562  
                           l2621 1160                             l2701 157F                             l3261 022D  
                           l3245 01F5                             l3253 020C                             l3237 01DD  
                           l3229 01C6                             l3173 07AD                             l3181 07C5  
                           l3157 0784                             l3149 06C3                             l3093 05CC  
                           l3085 05BB                             l3077 05AC                             l3069 059C  
                           l3511 0FE2                             l3503 0FB4                             l3423 0E93  
                           l3431 0EAA                             l3415 0E78                             l3407 0E69  
                           l3327 0A85                             l3319 0A6E                             l3351 13F7  
                           l3343 13DB                             l3335 13C9                             l2551 1368  
                           l2535 11E9                             l2519 10AB                             l2623 11BB  
                           l2711 1593                             l2703 1581                             l2607 10F2  
                           l3271 0272                             l3263 023C                             l3255 0214  
                           l3247 01FB                             l3239 01E3                             l3191 0146  
                           l2615 0A06                             l2631 1211                             l3175 07B8  
                           l3159 0788                             l3167 07A0                             l3095 05CF  
                           l3087 05BC                             l3079 05AD                             l3513 0FEA  
                           l3505 0FC1                             l3441 0ED2                             l3433 0EAF  
                           l3425 0E9F                             l3417 0E80                             l3409 0E6D  
                           l3329 0A95                             l3353 13FE                             l3345 13DF  
                           l3337 13CF                             l3361 1395                             l2561 1382  
                           l2553 136D                             l2545 135A                             l2537 11ED  
                           l2529 10C3                             l2609 12F8                             l2801 1114  
                           l2721 15B6                             l2713 1597                             l2705 1587  
                           l2641 123B                             l2633 1222                             l3281 02D1  
                           l3273 027C                             l3265 0245                             l3257 0217  
                           l3249 0201                             l3193 014E                             l3185 011F  
                           l2617 0A2E                             l2625 11FC                             l3177 07C3  
                           l3169 07A6                             l3097 05D2                             l3089 05C2  
                           l3515 0FEF                             l3507 0FCF                             l3451 0EFB  
                           l3443 0EDA                             l3427 0EA1                             l3419 0E81  
                           l3347 13F0                             l3339 13D2                             l3355 1404  
                           l3371 13AF                             l3363 1398                             l3531 1766  
                           l2563 1385                             l2555 1370                             l2547 1364  
                           l2539 11F2                             l3611 0085                             l3603 0069  
                           l2715 15A8                             l2707 158A                             l2723 15BC  
                           l2731 14AE                             l2635 1223                             l3283 02D3  
                           l3275 0281                             l3267 0250                             l3259 0222  
                           l3195 0151                             l3187 0120                             l3291 02D9  
                           l2571 10B0                             l2627 11FD                             l2811 127E  
                           l2803 1274                             l2651 113B                             l3099 05D7  
                           l3517 0FF3                             l3509 0FDE                             l3461 0F1C  
                           l3453 0EFF                             l3445 0EE2                             l3437 0EB8  
                           l3381 0E36                             l3349 13F6                             l3373 13B5  
                           l3365 139F                             l3541 1794                             l3533 1776  
                           l3525 174D                             l2557 137C                             l2549 1367  
                           l2581 12E6                             l2565 129E                             l3621 00FF  
                           l3605 0076                             l2725 15C1                             l2717 15AE  
                           l2709 1591                             l2741 14BE                             l2733 14AF  
                           l2637 1227                             l3701 042A                             l2645 1126  
                           l3285 02D4                             l3277 02B8                             l3269 025C  
                           l3293 02E6                             l3189 0125                             l3197 0152  
                           l2573 10B6                             l2629 120B                             l2813 1289  
                           l2805 1279                             l2653 113F                             l2901 0AF9  
                           l3519 0FF5                             l3471 0F3C                             l3463 0F2A  
                           l3455 0F00                             l3447 0EE4                             l3439 0ECA  
                           l3391 0E45                             l3383 0E3A                             l3375 13BC  
                           l3367 13A1                             l3359 138F                             l3551 17C3  
                           l3543 1796                             l3527 1752                             l2559 137D  
                           l2575 12C8                             l2831 1409                             l2567 12C6  
                           l3623 0111                             l3615 008A                             l2591 1529  
                           l2583 1505                             l2671 15ED                             l2663 15CB  
                           l2727 15C6                             l2719 15AF                             l2751 14D5  
                           l2743 14C3                             l2735 14B3                             l2639 1234  
                           l3711 044C                             l3703 0430                             l3631 0307  
                           l2647 1128                             l3279 02CE                             l3199 0158  
                           l2815 128E                             l2823 1290                             l2655 1141  
                           l2911 0B18                             l3473 0F45                             l3481 0F59  
                           l3449 0EE9                             l3457 0F09                             l3465 0F2C  
                           l3393 0E4A                             l3385 0E3C                             l3297 0A30  
                           l3369 13A5                             l3377 13C2                             l3561 17F6  
                           l3553 17CD                             l3545 17A4                             l3537 1782  
                           l3529 1756                             l2577 12D0                             l2833 1420  
                           l2841 1697                             l3625 0112                             l3617 009F  
                           l3609 007F                             l2593 1530                             l2585 150D  
                           l2681 1620                             l2673 15F6                             l2665 15DB  
                           l2753 14D9                             l2745 14C9                             l2761 14F6  
                           l2737 14B8                             l3721 0470                             l3713 0455  
                           l3705 043A                             l3641 0373                             l3633 0322  
                           l2825 1299                             l2657 1143                             l2649 113A  
                           l2921 0B33                             l2913 0B1D                             l3801 0D0A  
                           l3483 0F5D                             l3475 0F49                             l3467 0F32  
                           l3459 0F1B                             l3395 0E4F                             l3387 0E40  
                           l3299 0A3B                             l3563 17F7                             l3555 17D7  
                           l3547 17B4                             l3539 178D                             l2579 12E0  
                           l2835 1436                             l2771 117E                             l2851 16A8  
                           l3619 00ED                             l2595 1533                             l2587 1514  
                           l2675 1608                             l2667 15DE                             l2683 1626  
                           l3571 1254                             l2691 156D                             l2763 14FB  
                           l2755 14E3                             l2747 14CC                             l2739 14BA  
                           l3731 04A0                             l3723 0473                             l3715 0459  
                           l3707 0440                             l3651 0383                             l3643 037A  
                           l3635 033D                             l3627 02EC                             l2827 129B  
                           l2659 114A                             l2931 0B4B                             l2923 0B35  
                           l2915 0B1F                             l2907 0B00                             l3811 0D26  
                           l3803 0D0E                             l3493 0F7E                             l3485 0F5E  
                           l3477 0F4A                             l3469 0F3A                             l3397 0E57  
                           l3389 0E44                             l3557 17ED                             l3549 17BF  
                           l2837 144E                             l2773 118C                             l2861 16EA  
                           l2853 16B6                             l3581 001A                             l2597 153A  
                           l2589 1524                             l2781 10DC                             l2677 1616  
                           l2669 15E9                             l3573 1259                             l2693 1572  
                           l2765 1500                             l2757 14E9                             l2749 14D3  
                           l3741 04A7                             l3733 04A1                             l3725 0482  
                           l3717 045F                             l3709 0446                             l3653 038E  
                           l3645 037B                             l3637 0362                             l3629 02F1  
                           l2941 0B63                             l2933 0B4D                             l2925 0B37  
                           l2917 0B28                             l2909 0B0D                             l3821 0D5F  
                           l3813 0D2C                             l3805 0D17                             l3901 168D  
                           l3495 0F83                             l3487 0F62                             l3479 0F53  
                           l3399 0E58                             l3559 17F2                             l2839 144F  
                           l2775 1191                             l2871 173A                             l2863 16EE  
                           l2855 16BA                             l2847 1699                             l3591 0040  
                           l3583 0021                             l2599 1546                             l2783 10DD  
                           l2679 1617                             l2791 132A                             l3575 1268  
                           l3567 124A                             l2695 1574                             l2687 1568  
                           l2759 14F0                             l3743 04B2                             l3727 0486  
                           l3719 0468                             l3671 03BF                             l3655 0399  
                           l3647 037D                             l3639 036C                             l3663 039D  
                           l2951 0B7B                             l2943 0B65                             l2935 0B4F  
                           l2927 0B40                             l2919 0B2A                             l3823 0D65  
                           l3815 0D32                             l3807 0D1D                             l3497 0F91  
                           l3489 0F76                             l2873 1740                             l2865 171A  
                           l2857 16C0                             l2849 16A0                             l3593 004D  
                           l3585 002C                             l3577 0008                             l2769 108E  
                           l2785 10DE                             l2793 1355                             l3569 124F  
                           l2697 1578                             l2689 1569                             l3761 0512  
                           l3753 04D2                             l3745 04BD                             l3729 049C  
                           l3681 03E4                             l3673 03C2                             l3665 03A2  
                           l3649 037F                             l2961 0B93                             l2953 0B7D  
                           l2945 0B67                             l2937 0B58                             l2929 0B42  
                           l2881 0AAE                             l3841 0D8B                             l3833 0D6F  
                           l3817 0D48                             l3499 0F95                             l2875 1741  
                           l2867 1726                             l2859 16CD                             l3595 0055  
                           l3587 0034                             l3579 0013                             l2779 10D9  
                           l2787 1088                             l2795 1102                             l2699 157D  
                           l3763 0516                             l3755 04E2                             l3747 04C8  
                           l3739 04A3                             l3683 03E6                             l3691 040A  
                           l3675 03CA                             l3667 03B8                             l3659 039B  
                           l2971 1463                             l2963 0B95                             l2955 0B7F  
                           l2947 0B70                             l2939 0B5A                             l2891 0AD4  
                           l2883 0AC4                             l3851 0DA8                             l3835 0D78  
                           l3819 0D51                             l2877 1747                             l2869 1736  
                           l3589 003B                             l3597 005B                             l2797 1109  
                           l2789 1327                             l3765 0520                             l3757 04F5  
                           l3693 0411                             l3685 03ED                             l3669 03BB  
                           l3677 03CD                             l2973 146E                             l2981 0BA2  
                           l2965 0B96                             l2957 0B88                             l2949 0B72  
                           l2893 0AD9                             l2885 0ACC                             l3861 0DCE  
                           l3853 0DA9                             l3837 0D84                             l3829 0D67  
                           l3781 0CE3                             l3773 0CD2                             l3599 0061  
                           l2799 110B                             l3767 0522                             l3759 050B  
                           l3695 0417                             l3687 03F7                             l3679 03D3  
                           l2975 1480                             l2967 145B                             l2991 0BCB  
                           l2983 0BA3                             l2959 0B8A                             l2895 0ADC  
                           l2879 0AA9                             l3871 0E1A                             l3863 0DE3  
                           l3855 0DB4                             l3847 0D92                             l3791 0CF6  
                           l3783 0CE8                             l3775 0CD8                             l3697 041D  
                           l3689 0400                             l2969 1462                             l2993 0BD4  
                           l2985 0BAE                             l2897 0AE2                             l2889 0ACE  
                           l3873 0E22                             l3865 0DEB                             l3857 0DBF  
                           l3793 0CFB                             l3849 0DA3                             l3777 0CDD  
                           l3881 1648                             l3699 0426                             l2979 1497  
                           l2995 0BDB                             l2987 0BB9                             l2899 0AF4  
                           l3859 0DC6                             l3867 0DFF                             l3795 0D01  
                           l3779 0CDE                             l3787 0CEB                             l3891 167D  
                           l3883 1650                             l3875 162F                             l2997 0BFA  
                           l2989 0BC2                             l3869 0E12                             l3789 0CF1  
                           l3885 1666                             l3877 163D                             l3799 0D04  
                           l3895 1680                             l3887 166F                             l3879 1642  
                           l3897 1686                             l3889 1678                             _ADFM 04FF  
                           l3899 1688                             _ADON 00F8                             STR_1 086B  
                           STR_2 086B                             STR_3 09FD                             STR_4 09FA  
                           STR_5 09EE                             STR_6 09F1                             STR_7 09F4  
                           STR_8 09F7                             STR_9 0A00                             _BRGH 04C2  
                           _CREN 00C4                             u2200 11F2                             u3000 05D7  
                           u2201 11F1                             u3001 05D6                             u2210 1361  
                           u3010 05DC                             u2211 135D                             u3011 05DB  
                           u2300 1138                             u3020 05E7                             u2301 1137  
                           u3021 05E6                             u2310 113F                             u3110 07A6  
                           u3030 068B                             u2311 113E                             u3111 07A5  
                           u3031 068A                             u2224 1364                             u2400 156D  
                           u4000 0362                             u3200 01DD                             u3120 0125  
                           u2240 10B6                             u2320 114A                             u3040 0695  
                           u2401 156C                             u4001 0361                             u3201 01DC  
                           u3121 0124                             u2241 10B5                             u2321 1149  
                           u3105 076E                             u3041 0693                             u2250 12F6  
                           u2330 15DB                             u2410 1578                             u4010 0373  
                           u3210 01F5                             u3130 0158                             u3050 0696  
                           u2235 1374                             u2251 12F5                             u2331 15DA  
                           u2411 1577                             u4011 0372                             u4003 035E  
                           u3211 01F4                             u3131 0157                             u2180 10EA  
                           u2260 1326                             u2420 1587                             u2500 14B3  
                           u4100 0417                             u4020 037A                             u3220 01FB  
                           u3140 015E                             u3060 069D                             u2181 10E9  
                           u2261 1325                             u2421 1586                             u2501 14B2  
                           u4101 0416                             u4021 0379                             u3221 01FA  
                           u3141 015D                             u3061 069C                             u3310 0A7D  
                           u2190 10F0                             u2350 15ED                             u2510 14BE  
                           u4110 0430                             u4030 03A2                             u3230 0214  
                           u3150 0176                             u2270 1221                             u3070 06CB  
                           u3311 0A7C                             u2191 10EF                             u2351 15EC  
                           u2511 14BD                             u4111 042F                             u4031 03A1  
                           u3231 0213                             u3151 0175                             u2271 1220  
                           u3071 06CA                             u3320 0A84                             u3400 13F0  
                           u2600 1191                             u2440 1597                             u2520 14C9  
                           u2280 1234                             u4120 0440                             u4040 03D3  
                           u3240 023C                             u3160 017C                             u4200 0CDD  
                           u3321 0A83                             u3305 0A6F                             u3401 13EF  
                           u2601 1190                             u2345 15E0                             u2441 1596  
                           u2521 14C8                             u2281 1233                             u4121 043F  
                           u4041 03D2                             u3241 023B                             u3161 017B  
                           u4201 0CDC                             u2370 1608                             u2610 1338  
                           u2290 123B                             u4130 0446                             u4050 03E4  
                           u3250 02B8                             u3170 0195                             u4210 0CE8  
                           u2371 1607                             u2435 158B                             u2291 123A  
                           u4131 0445                             u4051 03E3                             u3251 02B7  
                           u3171 0194                             u4211 0CE7                             u3500 0E4A  
                           u3340 0A95                             u3260 0A3B                             u3420 1404  
                           u2700 16A7                             u2460 15A8                             u2540 14D9  
                           u4140 045F                             u4060 03ED                             u3180 01A5  
                           u2620 1279                             u4300 0D91                             u4220 0CF1  
                           u3501 0E49                             u3341 0A94                             u3261 0A3A  
                           u3421 1403                             u3405 13EC                             u2701 16A6  
                           u2365 15EF                             u2461 15A7                             u2541 14D8  
                           u4141 045E                             u4061 03EC                             u3253 02B4  
                           u3181 01A4                             u2621 1278                             u3085 06F6  
                           u4301 0D90                             u4221 0CF0                             u3510 0E4F  
                           u3350 0A9A                             u3270 0A52                             u3430 1395  
                           u2710 16CD                             u2390 1626                             u2550 14E3  
                           u4150 0470                             u4070 0408                             u3190 01D7  
                           u2630 1289                             u4310 0DA8                             u4230 0CF6  
                           u3511 0E4E                             u3351 0A99                             u3335 0A87  
                           u3415 13F8                             u3431 1394                             u2711 16CC  
                           u2391 1625                             u2375 1604                             u2615 1333  
                           u2455 1598                             u2551 14E2                             u2535 14CD  
                           u4151 046F                             u4071 0406                             u3191 01D6  
                           u2631 1288                             u3095 0732                             u4311 0DA7  
                           u4231 0CF5                             u3600 0EFF                             u3520 0E6D  
                           u3280 0A66                             u3360 13CF                             u2720 1740  
                           u2480 15BC                             u4160 0482                             u4080 0409  
                           u2640 128E                             u2800 0AFF                             u4320 0DC6  
                           u4240 0D01                             u3601 0EFE                             u3521 0E6C  
                           u3281 0A65                             u3361 13CE                             u2721 173F  
                           u2385 1618                             u2481 15BB                             u2465 15A4  
                           u4161 0481                             u2641 128D                             u2801 0AFE  
                           u4321 0DC5                             u4241 0D00                             u3530 0E73  
                           u3290 0A6D                             u3450 13A5                             u2730 1747  
                           u2490 15C1                             u2570 14F6                             u4170 04F5  
                           u4090 0411                             u2810 1462                             u2650 1299  
                           u4330 0DEB                             u4250 0D0A            ?_read_external_eeprom 0070  
                           u3531 0E72                             u3291 0A6C                             u3275 0A4D  
                           u3451 13A4                             u2731 1746                             u2715 16C9  
                           u2491 15C0                             u2475 15B0                             u2571 14F5  
                           u2555 14DF                             u4171 04F4                             u4091 0410  
                           u2811 1461                             u2651 1298                             u4331 0DEA  
                           u4251 0D09                             u3700 0F76                             u3620 0F1B  
                           u3540 0E78                             u3380 13DF                             u3460 13AF  
                           u2580 14FB                             u4180 0512                             u2820 1492  
                           u2900 058B                             u2740 0AAE                             u4340 0E22  
                           u4260 0D25                             u3701 0F75                             u3621 0F1A  
                           u3541 0E77                             u3381 13DE                             u3461 13AE  
                           u3445 1399                             u2581 14FA                             u2565 14EA  
                           u4181 0511                             u4173 04F1                             u2821 1491  
                           u2901 058A                             u2741 0AAD                             u4341 0E21  
                           u4261 0D24                             u3710 0F7D                             u3630 0F32  
                           u3550 0E93                             u2830 0BDB                             u2910 0593  
                           u2750 0ACC                             u4270 0D65                             u4190 0CD8  
                           u4350 1642                             u3711 0F7C                             u3631 0F31  
                           u3615 0F02                             u3551 0E92                             u3375 13D3  
                           u4407 0C00                             u2831 0BDA                             u2911 0592  
                           u2751 0ACB                             u4271 0D64                             u4191 0CD7  
                           u4351 1641                             u3720 0F83                             u3640 0F3A  
                           u3560 0EAF                             u3480 13C2                             u3800 1776  
                           u2840 0CB7                             u2920 059A                             u2760 0AD4  
                           u4280 0D6E                             u4360 1650                             u3721 0F82  
                           u3641 0F39                             u3625 0F17                             u3561 0EAE  
                           u3481 13C1                             u3465 13AB                             u3801 1775  
                           u2665 140F                             u4417 1509                             u2841 0CB6  
                           u2921 0599                             u2761 0AD3                             u4281 0D6D  
                           u4361 164F                             u3730 0F95                             u3570 0EE9  
                           u3490 0E44                             u2690 16A0                             u2930 05A2  
                           u2850 052E                             u2770 0AD9                             u4290 0D8A  
                           u4370 167D                             u3731 0F94                             u3571 0EE8  
                           u3491 0E43                             u3395 13E0                             u3475 13B6  
                           u4507 1389                             u2675 1427                             u2595 1181  
                           u2691 169F                             u4427 1518                             u2931 05A1  
                           u2851 052D                             u2771 0AD8                             u4291 0D89  
                           u4371 167C                             u3740 0FA4                             u3660 0F49  
                           u3900 17F2                             u3820 1793                             u2940 05AC  
                           u2780 0AE2                             u4380 1686                             u3661 0F48  
                           u3901 17F1                             u3821 1792                             u2685 143E  
                           u4437 1526                             u2941 05AB                             u2781 0AE1  
                           u4381 1685                             u3750 0FC1                             u3910 17F6  
                           u2950 05B3                             u2790 0AF4                             u4390 168D  
                           u3751 0FC0                             u3655 0F3E                             u3911 17F5  
                           u3815 1785                             u4447 153C                             u2951 05B2  
                           u2791 0AF3                             u4391 168C                             u3760 0FDE  
                           u3680 0F5D                             u3840 17B3                             u3920 0034  
                           u2960 05BB                             u3761 0FDD                             u3745 0F9F  
                           u3681 0F5C                             u3585 0EEB                             u3841 17B2  
                           u3921 0033                             u4457 1548                             u2961 05BA  
                           u2865 053F                             u3770 0FF3                             u3690 0F62  
                           u3930 003B                             u2970 05C2                             u2890 0586  
                           u3771 0FF2                             u3755 0FBD                             u3691 0F61  
                           u3675 0F4C                             u3595 0EF4                             u3835 17A5  
                           u3931 003A                             u4467 1556                             u2971 05C1  
                           u2891 0585                             u2875 0557                             u2795 0AF0  
                           u3860 17C3                             u3780 1752                             u3940 004D  
                           u2980 05C7                             _RCEN 048B                             u3765 0FDA  
                           u3861 17C2                             u3781 1751                             u3941 004C  
                           u4477 1564                             u2981 05C6                             u2885 056F  
                           u3870 17C9                             u3790 1756                             u3950 0061  
                           u2990 05CC                             u3871 17C8                             u3855 17B8  
                           u3791 1755                             u4487 136A                             u3951 0060  
                           u2991 05CB                             u3880 17CD                             u3960 0068  
                           u3881 17CC                             u4497 137F                             u3961 0067  
                           u3945 0049                             u3890 17E2                             u3970 0076  
                           u3971 0075                             u3980 0085                             u3981 0084  
                           u3990 02F1                             u3895 17DD                             u3975 0072  
                           u3991 02F0                             _SPEN 00C7                             _TXEN 04C5  
                           _TXIF 0064                             _SYNC 04C4                             _R_nW 04A2  
                           _data 0190                    login@attempts 006B                             _main 162F  
                           _menu 0CCF                             _time 00B0                             btemp 007E  
                           start 0000                  ___fldiv@new_exp 0038                    login@sec_left 006A  
              ___bmul@multiplier 0072                   clcd_write@byte 0073                   clcd_write@mode 0070  
                    _store_event 1697                    _i2c_rep_start 10C3                     ?_init_ds1307 0070  
                  ___fltol@sign1 0048                            ?_main 0070                     ?_read_ds1307 0070  
                          _ACKEN 048C                            _ACKDT 048D                   ??_display_time 0078  
                          ?_menu 0070                  __end_of___fldiv 1000                  __end_of___awdiv 15CB  
                          STR_10 09EB                            STR_11 085A                            STR_20 086B  
                          STR_12 085A                            STR_21 086B                            STR_13 09E2  
                          STR_30 086B                            STR_22 097C                            STR_14 09CF  
                          STR_31 086B                            STR_23 086B                            STR_15 09AA  
                          STR_40 086B                            STR_32 086B                            STR_24 086B  
                          STR_16 09D9                            STR_33 086B                            STR_25 086B  
                          STR_41 092C                            STR_17 09C3                            STR_26 096C  
                          STR_34 093C                            STR_50 090C                            STR_42 08EC  
                          STR_18 0849                            STR_43 0824                            STR_35 086B  
                          STR_19 09B7                            STR_27 08FC                            STR_51 08BC  
                          STR_60 086B                            STR_28 086B                            STR_52 0838  
                          STR_44 0827                            STR_36 0800                  __end_of___awmod 1505  
                          STR_61 086B                            STR_53 086B                            STR_29 086B  
                          STR_37 098C                            STR_45 0814                            STR_70 086B  
                          STR_54 086B                            STR_38 099B                            STR_62 091C  
                          STR_46 087C                            STR_63 086B                            STR_55 086B  
                          STR_39 086B                            STR_47 08AC                            STR_64 086B  
                          STR_56 086B                            STR_48 088C                            STR_49 0824  
                          STR_57 086B                            STR_65 08DC                            STR_58 086B  
                          STR_66 089C                            STR_59 095C                            STR_67 094C  
                          STR_68 08CC                            STR_69 086B                  __end_of___fltol 0AA6  
                __end_of___lldiv 162F                      i2c_read@ack 0070                  ___awdiv@divisor 0070  
                __end_of___lwdiv 1409                  __end_of___lwmod 13C7                     ?_init_config 0070  
                ___awdiv@counter 0074                            _SPBRG 0099                            _PORTB 0006  
                          _PORTD 0008                            _SSPM3 00A3                            _TRISB 0086  
                          _TRISD 0088                            _SSPEN 00A5                            _TXREG 0019  
                          _nDONE 00FA        write_external_eeprom@data 0071        write_external_eeprom@wait 0072  
                          _event 00CB                     view_log@addr 0032                            _login 02E9  
                          _speed 00C8                            btemp0 007E                            btemp1 007F  
                _change_password 011E                            pclath 000A                            status 0003  
                          wtemp0 007E                 init_ds1307@dummy 007A                  __initialization 07C7  
                 ?_i2c_rep_start 0070           ?_write_external_eeprom 0071                     __end_of_main 1697  
                   __end_of_menu 0E36                 __end_of_i2c_read 11FC                 __end_of_i2c_stop 10AF  
                  ?_download_log 0070                           ??_main 007E                           ??_menu 0033  
                         _ADCON0 001F           ??_read_external_eeprom 0072                           _ADRESH 001E  
                         ?_login 0070                           _ADRESL 009E                 ___awdiv@dividend 0072  
                   i2c_read@data 0071                     _write_ds1307 115F                   clear_log@delay 00AA  
                         _SSPADD 0093                      menu@ret_352 0035                           _TRISE1 0449  
                         _TRISE2 044A                           _TRISC6 043E                           _TRISC7 043F  
                         _SSPBUF 0013                 __end_of___xxtofl 1800      __end_of_init_digital_keypad 108E  
               __end_of_get_time 11DB                           ___bmul 1139          _init_display_controller 1505  
                      ??___fldiv 002E                        ??___awdiv 0074                        ??___awmod 0074  
                      ??___fltol 0044                        ??___lldiv 0078                        ??___lwdiv 0074  
                      ??___lwmod 0074                 __end_of_init_i2c 1359                 __end_of_init_adc 1095  
               __end_of_read_adc 119C                   ??_download_log 0077                 ___awdiv@quotient 0076  
                ___awmod@divisor 0070                  set_time@visible 0066                  ___awmod@counter 0074  
                         _strcmp 1222                           _strcpy 1126               store_event@address 005E  
                         login@i 0021          __end_of_change_password 02E9                 __end_of_set_time 07C7  
                         ltemp0a 0080                 __end_of_view_log 0BA2                           ttemp0a 007F  
                         wtemp0a 007F                     ___xxtofl@arg 0022                     ___xxtofl@exp 0021  
                   ___xxtofl@val 0076          __end_of__initialization 07FC             __end_of_display_time 145B  
                     ___fltol@f1 0040                  ??_i2c_rep_start 0070              ___bmul@multiplicand 0070  
                 __pcstackCOMMON 0070                     __pidataBANK0 10B9                     __pidataBANK1 119C  
                  __end_of_login 0526                __end_of_i2c_start 10A6                __end_of_i2c_write 10D9  
              _i2c_wait_for_idle 10E4                          ??_login 007A               ?_i2c_wait_for_idle 0070  
                     __pbssBANK0 0051                       __pbssBANK1 00A0                       __pbssBANK3 0190  
                      ?_i2c_read 0070                        ?_i2c_stop 0070        ??_init_display_controller 0074  
                     _clcd_print 12C8              ??_i2c_wait_for_idle 0070                       _clcd_putch 10F1  
                     _clcd_write 1359     write_external_eeprom@address 0074                       __pmaintext 162F  
               login@blink_state 005B                  read_ds1307@addr 0072                     ?_store_event 0070  
                read_ds1307@data 0073                          ?___bmul 0070                          _ACKSTAT 048E  
                        ?_strcmp 0070                          ?_strcpy 0070      __end_of_read_digital_keypad 129D  
                      ?___xxtofl 0076                 ?_change_password 007A        __end_of_i2c_wait_for_idle 10F1  
                   init_i2c@baud 0020                          _SSPCON2 0091                        ?_get_time 0074  
                   menu@menu_pos 0037                       __stringtab 1000                       ??_i2c_read 0070  
              __end_of_dashboard 011E                       ??_i2c_stop 0070                        ?_init_i2c 0020  
           __end_of_download_log 0CCF                        ?_init_adc 0070                        ?_read_adc 0070  
              __end_of_clear_log 14AE          ??_write_external_eeprom 0072                        ?_set_time 0070  
             change_password@key 007C                          ___fldiv 0E36                          ___awdiv 1568  
                        ___awmod 14AE                        ?_view_log 0070                          ___fltol 0A30  
                        ___lldiv 15CB                          _adc_val 00AE                          ___lwdiv 13C7  
                   store_event@i 007C                          ___lwmod 138F                          __ptext1 0CCF  
                        __ptext2 0AA6                          __ptext3 0526                          __ptext4 1139  
                        __ptext5 1273                          __ptext6 0BA2                          __ptext7 11FC  
                        __ptext8 10AF                          __ptext9 0A05  __end_of_init_display_controller 1568  
              __end_of_init_clcd 10E4                       ??___xxtofl 007A                __end_of_init_uart 1126  
               ___awmod@dividend 0072                          main@key 0050                          clrloop0 1096  
                        main@ret 004F                       ??_get_time 0075             end_of_initialization 07FC  
                        menu@key 003A                          menu@ret 0038                          menu@top 005A  
                    set_time@key 0030                       ??_init_i2c 0024                       ??_init_adc 0070  
                     ??_read_adc 0072                      ?_clcd_print 0074                      ?_clcd_putch 0078  
                ___lldiv@divisor 0070                __end_of_uart_puts 1222                      ?_clcd_write 0070  
                ___lldiv@counter 007D                       ??_set_time 0020                       ??_view_log 0077  
                   __pstringtext 0800                          strcmp@l 0070                          strcmp@r 0071  
                        strcpy@d 0073                       _uart_putch 10AF                  read_adc@channel 0075  
                   _display_time 1409                    i2c_write@data 0070                    ___xxtofl@sign 0020  
                    ___fldiv@grs 003A                      ___fldiv@rem 0033                    clcd_print@str 0074  
                   login@blocked 005C         read_external_eeprom@data 0073                     login@entered 00C3  
                 __end_of___bmul 114C                      view_log@key 0031                      view_log@log 0020  
                 __end_of_strcmp 124A                   __end_of_strcpy 1139              start_initialization 07C7  
                      _i2c_start 109D                        _i2c_write 10CE                    clear_log@once 0068  
                     menu@redraw 0069                       menu@select 0059            __end_of_i2c_rep_start 10CE  
                       ??___bmul 0071                       init_fetch0 114C             change_password@delay 00A0  
                  ??_init_ds1307 007A                      __pdataBANK0 0065                      __pdataBANK1 00CB  
           change_password@index 0053             change_password@temp2 00B9             change_password@state 0054  
                    ?_uart_putch 0070                    ??_read_ds1307 0072                     _download_log 0BA2  
                       ??_strcmp 0072                         ??_strcpy 0072                    ??_init_config 007E  
                      ___fldiv@a 0026                        ___fldiv@b 002A                       login@delay 00A4  
                     login@blink 00AC                        ___latbits 0002                       login@index 005D  
                  __pcstackBANK0 0020                       ?_i2c_start 0070                       ?_i2c_write 0070  
                      _dashboard 0005                 ___lwdiv@dividend 0072    __end_of_write_external_eeprom 1327  
                      _clear_log 145B                         ?___fldiv 0026                         ?___awdiv 0070  
                       ?___awmod 0070                         ?___fltol 0040                         ?___lldiv 0070  
                       ?___lwdiv 0070                        _clock_reg 0061                         ?___lwmod 0070  
                      __pstrings 1000              __end_of_init_ds1307 1114              read_adc@adc_reg_val 0073  
            __end_of_read_ds1307 12C8                 ___lwdiv@quotient 0074                        _init_clcd 10D9  
            __end_of_init_config 1273                        _init_uart 1114                    ?_write_ds1307 0078  
       ?_init_display_controller 0070                     _old_menu_pos 006D      read_external_eeprom@address 0072  
                      clear_ram0 1095                     ??_clcd_print 0077                     ??_clcd_putch 0079  
                   ??_clcd_write 0071                       ?_dashboard 0070                       ?_clear_log 0070  
                      _operation 0060                        _uart_puts 11FC                     dashboard@key 004E  
                  download_log@i 007A                      __stringbase 1012                      ??_i2c_start 0070  
             __end_of_clcd_print 12F7                      ??_i2c_write 0070               __end_of_clcd_putch 1102  
             __end_of_clcd_write 138F                       ?_init_clcd 0070                       ?_init_uart 0070  
                 ??_write_ds1307 0079              _init_digital_keypad 1088                         _i2c_read 11DB  
                       _i2c_stop 10A6                get_time@clock_reg 0074                    set_time@blink 00A8  
                  set_time@field 0058                    set_time@hours 0057              change_password@once 0065  
            change_password@temp 00BE                       ?_uart_puts 0075     __end_of_read_external_eeprom 0A30  
           ?_init_digital_keypad 0070                      _init_ds1307 1102                      _event_count 005F  
                      login@once 006C               __end_of__stringtab 1012                      _read_ds1307 129D  
                    _init_config 124A                         ___xxtofl 174A                  ___lwdiv@divisor 0070  
                ___lwdiv@counter 0076                         __ptext10 145B                         __ptext11 011E  
                       __ptext20 1327                         __ptext12 1126                         __ptext21 15CB  
                       __ptext13 02E9                         __ptext30 12F7                         __ptext22 1102  
                       __ptext14 1222                         __ptext31 117D                         __ptext23 115F  
                       __ptext15 10F1                         __ptext40 1409                         __ptext32 11BB  
                       __ptext24 1088                         __ptext16 14AE                         __ptext41 12C8  
                       __ptext33 129D                         __ptext25 10D9                         __ptext17 1568  
                       __ptext42 1359                         __ptext34 10CE                         __ptext26 1505  
                       __ptext18 124A                         __ptext43 174A                         __ptext35 10C3  
                       __ptext27 108E                         __ptext19 1114                         __ptext44 138F  
                       __ptext36 10A6                         __ptext28 0005                         __ptext45 13C7  
                       __ptext37 109D                         __ptext29 1697                         __ptext46 0A30  
                       __ptext38 11DB                         __ptext47 0E36                         __ptext39 10E4  
                       _get_time 11BB                       strcpy@dest 0070                         _init_i2c 1327  
                       _init_adc 108E                         _read_adc 117D          read_digital_keypad@mode 0071  
        read_digital_keypad@once 006E                      ??_dashboard 004A                         _password 00E5  
          display_time@clock_reg 0077                      ??_clear_log 0077                    ??_store_event 0075  
              ??_change_password 0020                         _set_time 0526                         _view_log 0AA6  
                view_log@log_pos 0064            ??_init_digital_keypad 0070                     ??_uart_putch 0074  
                   set_time@mins 0056                     set_time@once 0067                     set_time@secs 0055  
                   set_time@temp 0027                         init_ram0 1150                      ??_init_clcd 0076  
                    ??_init_uart 0070                         login@key 0020                 ___lwmod@dividend 0072  
               ___lldiv@dividend 0074               __end_of_uart_putch 10B9                        strcpy@src 0071  
                      stringcode 100A                      ??_uart_puts 0077             __end_of_write_ds1307 117D  
            _read_digital_keypad 1273              __end_of_store_event 174A                 ___lldiv@quotient 0079  
                ___lwmod@divisor 0070                  ___lwmod@counter 0074                         stringtab 1000  
                 uart_putch@data 0074             ?_read_digital_keypad 0070                 write_ds1307@addr 0079  
               write_ds1307@data 0078             _read_external_eeprom 0A05                 download_log@addr 007B  
                   uart_puts@str 0075  
