

Microchip MPLAB XC8 Assembler V3.10 build 20250813170317 
                                                                                               Wed Jun 24 08:02:13 2026

Microchip MPLAB XC8 C Compiler v3.10 (Free license) build 20250813170317 Og1 
     1                           	processor	16F877A
     2                           	pagewidth 120
     3                           	opt	flic
     4                           	psect	idataBANK0,global,class=CODE,space=0,delta=2,noexec
     5                           	psect	idataBANK1,global,class=CODE,space=0,delta=2,noexec
     6                           	psect	strings,global,class=STRING,space=0,delta=2,noexec
     7                           	psect	stringtext,global,reloc=256,class=STRCODE,space=0,delta=2,noexec
     8                           	psect	cinit,global,class=CODE,space=0,merge=1,delta=2
     9                           	psect	bssBANK0,global,class=BANK0,space=1,delta=1,noexec
    10                           	psect	dataBANK0,global,class=BANK0,space=1,delta=1,noexec
    11                           	psect	bssBANK1,global,class=BANK1,space=1,delta=1,noexec
    12                           	psect	dataBANK1,global,class=BANK1,space=1,delta=1,noexec
    13                           	psect	bssBANK3,global,class=BANK3,space=1,delta=1,noexec
    14                           	psect	inittext,global,class=CODE,space=0,delta=2
    15                           	psect	clrtext,global,class=CODE,space=0,delta=2
    16                           	psect	cstackCOMMON,global,class=COMMON,space=1,delta=1,noexec
    17                           	psect	cstackBANK0,global,class=BANK0,space=1,delta=1,noexec
    18                           	psect	maintext,global,class=CODE,space=0,split=1,delta=2
    19                           	psect	text1,local,class=CODE,space=0,merge=1,delta=2
    20                           	psect	text2,local,class=CODE,space=0,merge=1,delta=2
    21                           	psect	text3,local,class=CODE,space=0,merge=1,delta=2
    22                           	psect	text4,local,class=CODE,space=0,merge=1,delta=2,group=1
    23                           	psect	text5,local,class=CODE,space=0,merge=1,delta=2
    24                           	psect	text6,local,class=CODE,space=0,merge=1,delta=2
    25                           	psect	text7,local,class=CODE,space=0,merge=1,delta=2
    26                           	psect	text8,local,class=CODE,space=0,merge=1,delta=2
    27                           	psect	text9,local,class=CODE,space=0,merge=1,delta=2
    28                           	psect	text10,local,class=CODE,space=0,merge=1,delta=2
    29                           	psect	text11,local,class=CODE,space=0,merge=1,delta=2
    30                           	psect	text12,local,class=CODE,space=0,merge=1,delta=2,group=2
    31                           	psect	text13,local,class=CODE,space=0,merge=1,delta=2
    32                           	psect	text14,local,class=CODE,space=0,merge=1,delta=2,group=2
    33                           	psect	text15,local,class=CODE,space=0,merge=1,delta=2
    34                           	psect	text16,local,class=CODE,space=0,merge=1,delta=2,group=1
    35                           	psect	text17,local,class=CODE,space=0,merge=1,delta=2,group=1
    36                           	psect	text18,local,class=CODE,space=0,merge=1,delta=2
    37                           	psect	text19,local,class=CODE,space=0,merge=1,delta=2
    38                           	psect	text20,local,class=CODE,space=0,merge=1,delta=2
    39                           	psect	text21,local,class=CODE,space=0,merge=1,delta=2,group=1
    40                           	psect	text22,local,class=CODE,space=0,merge=1,delta=2
    41                           	psect	text23,local,class=CODE,space=0,merge=1,delta=2
    42                           	psect	text24,local,class=CODE,space=0,merge=1,delta=2
    43                           	psect	text25,local,class=CODE,space=0,merge=1,delta=2
    44                           	psect	text26,local,class=CODE,space=0,merge=1,delta=2
    45                           	psect	text27,local,class=CODE,space=0,merge=1,delta=2
    46                           	psect	text28,local,class=CODE,space=0,merge=1,delta=2
    47                           	psect	text29,local,class=CODE,space=0,merge=1,delta=2
    48                           	psect	text30,local,class=CODE,space=0,merge=1,delta=2
    49                           	psect	text31,local,class=CODE,space=0,merge=1,delta=2
    50                           	psect	text32,local,class=CODE,space=0,merge=1,delta=2
    51                           	psect	text33,local,class=CODE,space=0,merge=1,delta=2
    52                           	psect	text34,local,class=CODE,space=0,merge=1,delta=2
    53                           	psect	text35,local,class=CODE,space=0,merge=1,delta=2
    54                           	psect	text36,local,class=CODE,space=0,merge=1,delta=2
    55                           	psect	text37,local,class=CODE,space=0,merge=1,delta=2
    56                           	psect	text38,local,class=CODE,space=0,merge=1,delta=2
    57                           	psect	text39,local,class=CODE,space=0,merge=1,delta=2
    58                           	psect	text40,local,class=CODE,space=0,merge=1,delta=2
    59                           	psect	text41,local,class=CODE,space=0,merge=1,delta=2
    60                           	psect	text42,local,class=CODE,space=0,merge=1,delta=2
    61                           	psect	text43,local,class=CODE,space=0,merge=1,delta=2,group=1
    62                           	psect	text44,local,class=CODE,space=0,merge=1,delta=2,group=1
    63                           	psect	text45,local,class=CODE,space=0,merge=1,delta=2,group=1
    64                           	psect	text46,local,class=CODE,space=0,merge=1,delta=2,group=1
    65                           	psect	text47,local,class=CODE,space=0,merge=1,delta=2,group=1
    66                           	psect	config,global,abs,ovrld,class=CONFIG,space=4,delta=2,noexec
    67                           	dabs	1,0x7E,2
    68     0000                     
    69                           ; Generated 26/03/2025 GMT
    70                           ; 
    71                           ; Copyright © 2025, Microchip Technology Inc. and its subsidiaries ("Microchip")
    72                           ; All rights reserved.
    73                           ; 
    74                           ; This software is developed by Microchip Technology Inc. and its subsidiaries ("Microch
      +                          ip").
    75                           ; 
    76                           ; Redistribution and use in source and binary forms, with or without modification, are
    77                           ; permitted provided that the following conditions are met:
    78                           ; 
    79                           ;     1. Redistributions of source code must retain the above copyright notice, this lis
      +                          t of
    80                           ;        conditions and the following disclaimer.
    81                           ; 
    82                           ;     2. Redistributions in binary form must reproduce the above copyright notice, this 
      +                          list
    83                           ;        of conditions and the following disclaimer in the documentation and/or other
    84                           ;        materials provided with the distribution. Publication is not required when
    85                           ;        this file is used in an embedded application.
    86                           ; 
    87                           ;     3. Microchip's name may not be used to endorse or promote products derived from th
      +                          is
    88                           ;        software without specific prior written permission.
    89                           ; 
    90                           ; THIS SOFTWARE IS PROVIDED BY MICROCHIP "AS IS" AND ANY EXPRESS OR IMPLIED WARRANTIES,
    91                           ; INCLUDING, BUT NOT LIMITED TO, THE IMPLIED WARRANTIES OF MERCHANTABILITY AND FITNESS F
      +                          OR
    92                           ; PURPOSE ARE DISCLAIMED.  IN NO EVENT SHALL MICROCHIP BE LIABLE FOR ANY DIRECT, INDIREC
      +                          T,
    93                           ; INCIDENTAL, SPECIAL, EXEMPLARY, OR CONSEQUENTIAL DAMAGES (INCLUDING BUT NOT LIMITED TO
    94                           ; PROCUREMENT OF SUBSTITUTE GOODS OR SERVICES; LOSS OF USE, DATA OR PROFITS; OR BUSINESS
    95                           ; INTERRUPTION) HOWSOEVER CAUSED AND ON ANY THEORY OF LIABILITY, WHETHER IN CONTRACT, ST
      +                          RICT
    96                           ; LIABILITY, OR TORT (INCLUDING NEGLIGENCE OR OTHERWISE) ARISING IN ANY WAY OUT OF THE U
      +                          SE OF
    97                           ; THIS SOFTWARE, EVEN IF ADVISED OF THE POSSIBILITY OF SUCH DAMAGE.
    98                           ; 
    99                           ; 
   100                           ; Code-generator required, PIC16F877A Definitions
   101                           ; 
   102                           ; SFR Addresses
   103     0004                     fsr             equ	4
   104     0004                     fsr0            equ	4
   105     0000                     indf            equ	0
   106     0000                     indf0           equ	0
   107     0002                     pc              equ	2
   108     0002                     pcl             equ	2
   109     000A                     pclath          equ	10
   110     0003                     status          equ	3
   111     0000                     INDF            equ	0	;# 
   112     0001                     TMR0            equ	1	;# 
   113     0002                     PCL             equ	2	;# 
   114     0003                     STATUS          equ	3	;# 
   115     0004                     FSR             equ	4	;# 
   116     0005                     PORTA           equ	5	;# 
   117     0006                     PORTB           equ	6	;# 
   118     0007                     PORTC           equ	7	;# 
   119     0008                     PORTD           equ	8	;# 
   120     0009                     PORTE           equ	9	;# 
   121     000A                     PCLATH          equ	10	;# 
   122     000B                     INTCON          equ	11	;# 
   123     000C                     PIR1            equ	12	;# 
   124     000D                     PIR2            equ	13	;# 
   125     000E                     TMR1            equ	14	;# 
   126     000E                     TMR1L           equ	14	;# 
   127     000F                     TMR1H           equ	15	;# 
   128     0010                     T1CON           equ	16	;# 
   129     0011                     TMR2            equ	17	;# 
   130     0012                     T2CON           equ	18	;# 
   131     0013                     SSPBUF          equ	19	;# 
   132     0014                     SSPCON          equ	20	;# 
   133     0015                     CCPR1           equ	21	;# 
   134     0015                     CCPR1L          equ	21	;# 
   135     0016                     CCPR1H          equ	22	;# 
   136     0017                     CCP1CON         equ	23	;# 
   137     0018                     RCSTA           equ	24	;# 
   138     0019                     TXREG           equ	25	;# 
   139     001A                     RCREG           equ	26	;# 
   140     001B                     CCPR2           equ	27	;# 
   141     001B                     CCPR2L          equ	27	;# 
   142     001C                     CCPR2H          equ	28	;# 
   143     001D                     CCP2CON         equ	29	;# 
   144     001E                     ADRESH          equ	30	;# 
   145     001F                     ADCON0          equ	31	;# 
   146     0081                     OPTION_REG      equ	129	;# 
   147     0085                     TRISA           equ	133	;# 
   148     0086                     TRISB           equ	134	;# 
   149     0087                     TRISC           equ	135	;# 
   150     0088                     TRISD           equ	136	;# 
   151     0089                     TRISE           equ	137	;# 
   152     008C                     PIE1            equ	140	;# 
   153     008D                     PIE2            equ	141	;# 
   154     008E                     PCON            equ	142	;# 
   155     0091                     SSPCON2         equ	145	;# 
   156     0092                     PR2             equ	146	;# 
   157     0093                     SSPADD          equ	147	;# 
   158     0094                     SSPSTAT         equ	148	;# 
   159     0098                     TXSTA           equ	152	;# 
   160     0099                     SPBRG           equ	153	;# 
   161     009C                     CMCON           equ	156	;# 
   162     009D                     CVRCON          equ	157	;# 
   163     009E                     ADRESL          equ	158	;# 
   164     009F                     ADCON1          equ	159	;# 
   165     010C                     EEDATA          equ	268	;# 
   166     010D                     EEADR           equ	269	;# 
   167     010E                     EEDATH          equ	270	;# 
   168     010F                     EEADRH          equ	271	;# 
   169     018C                     EECON1          equ	396	;# 
   170     018D                     EECON2          equ	397	;# 
   171     0000                     INDF            equ	0	;# 
   172     0001                     TMR0            equ	1	;# 
   173     0002                     PCL             equ	2	;# 
   174     0003                     STATUS          equ	3	;# 
   175     0004                     FSR             equ	4	;# 
   176     0005                     PORTA           equ	5	;# 
   177     0006                     PORTB           equ	6	;# 
   178     0007                     PORTC           equ	7	;# 
   179     0008                     PORTD           equ	8	;# 
   180     0009                     PORTE           equ	9	;# 
   181     000A                     PCLATH          equ	10	;# 
   182     000B                     INTCON          equ	11	;# 
   183     000C                     PIR1            equ	12	;# 
   184     000D                     PIR2            equ	13	;# 
   185     000E                     TMR1            equ	14	;# 
   186     000E                     TMR1L           equ	14	;# 
   187     000F                     TMR1H           equ	15	;# 
   188     0010                     T1CON           equ	16	;# 
   189     0011                     TMR2            equ	17	;# 
   190     0012                     T2CON           equ	18	;# 
   191     0013                     SSPBUF          equ	19	;# 
   192     0014                     SSPCON          equ	20	;# 
   193     0015                     CCPR1           equ	21	;# 
   194     0015                     CCPR1L          equ	21	;# 
   195     0016                     CCPR1H          equ	22	;# 
   196     0017                     CCP1CON         equ	23	;# 
   197     0018                     RCSTA           equ	24	;# 
   198     0019                     TXREG           equ	25	;# 
   199     001A                     RCREG           equ	26	;# 
   200     001B                     CCPR2           equ	27	;# 
   201     001B                     CCPR2L          equ	27	;# 
   202     001C                     CCPR2H          equ	28	;# 
   203     001D                     CCP2CON         equ	29	;# 
   204     001E                     ADRESH          equ	30	;# 
   205     001F                     ADCON0          equ	31	;# 
   206     0081                     OPTION_REG      equ	129	;# 
   207     0085                     TRISA           equ	133	;# 
   208     0086                     TRISB           equ	134	;# 
   209     0087                     TRISC           equ	135	;# 
   210     0088                     TRISD           equ	136	;# 
   211     0089                     TRISE           equ	137	;# 
   212     008C                     PIE1            equ	140	;# 
   213     008D                     PIE2            equ	141	;# 
   214     008E                     PCON            equ	142	;# 
   215     0091                     SSPCON2         equ	145	;# 
   216     0092                     PR2             equ	146	;# 
   217     0093                     SSPADD          equ	147	;# 
   218     0094                     SSPSTAT         equ	148	;# 
   219     0098                     TXSTA           equ	152	;# 
   220     0099                     SPBRG           equ	153	;# 
   221     009C                     CMCON           equ	156	;# 
   222     009D                     CVRCON          equ	157	;# 
   223     009E                     ADRESL          equ	158	;# 
   224     009F                     ADCON1          equ	159	;# 
   225     010C                     EEDATA          equ	268	;# 
   226     010D                     EEADR           equ	269	;# 
   227     010E                     EEDATH          equ	270	;# 
   228     010F                     EEADRH          equ	271	;# 
   229     018C                     EECON1          equ	396	;# 
   230     018D                     EECON2          equ	397	;# 
   231     0000                     INDF            equ	0	;# 
   232     0001                     TMR0            equ	1	;# 
   233     0002                     PCL             equ	2	;# 
   234     0003                     STATUS          equ	3	;# 
   235     0004                     FSR             equ	4	;# 
   236     0005                     PORTA           equ	5	;# 
   237     0006                     PORTB           equ	6	;# 
   238     0007                     PORTC           equ	7	;# 
   239     0008                     PORTD           equ	8	;# 
   240     0009                     PORTE           equ	9	;# 
   241     000A                     PCLATH          equ	10	;# 
   242     000B                     INTCON          equ	11	;# 
   243     000C                     PIR1            equ	12	;# 
   244     000D                     PIR2            equ	13	;# 
   245     000E                     TMR1            equ	14	;# 
   246     000E                     TMR1L           equ	14	;# 
   247     000F                     TMR1H           equ	15	;# 
   248     0010                     T1CON           equ	16	;# 
   249     0011                     TMR2            equ	17	;# 
   250     0012                     T2CON           equ	18	;# 
   251     0013                     SSPBUF          equ	19	;# 
   252     0014                     SSPCON          equ	20	;# 
   253     0015                     CCPR1           equ	21	;# 
   254     0015                     CCPR1L          equ	21	;# 
   255     0016                     CCPR1H          equ	22	;# 
   256     0017                     CCP1CON         equ	23	;# 
   257     0018                     RCSTA           equ	24	;# 
   258     0019                     TXREG           equ	25	;# 
   259     001A                     RCREG           equ	26	;# 
   260     001B                     CCPR2           equ	27	;# 
   261     001B                     CCPR2L          equ	27	;# 
   262     001C                     CCPR2H          equ	28	;# 
   263     001D                     CCP2CON         equ	29	;# 
   264     001E                     ADRESH          equ	30	;# 
   265     001F                     ADCON0          equ	31	;# 
   266     0081                     OPTION_REG      equ	129	;# 
   267     0085                     TRISA           equ	133	;# 
   268     0086                     TRISB           equ	134	;# 
   269     0087                     TRISC           equ	135	;# 
   270     0088                     TRISD           equ	136	;# 
   271     0089                     TRISE           equ	137	;# 
   272     008C                     PIE1            equ	140	;# 
   273     008D                     PIE2            equ	141	;# 
   274     008E                     PCON            equ	142	;# 
   275     0091                     SSPCON2         equ	145	;# 
   276     0092                     PR2             equ	146	;# 
   277     0093                     SSPADD          equ	147	;# 
   278     0094                     SSPSTAT         equ	148	;# 
   279     0098                     TXSTA           equ	152	;# 
   280     0099                     SPBRG           equ	153	;# 
   281     009C                     CMCON           equ	156	;# 
   282     009D                     CVRCON          equ	157	;# 
   283     009E                     ADRESL          equ	158	;# 
   284     009F                     ADCON1          equ	159	;# 
   285     010C                     EEDATA          equ	268	;# 
   286     010D                     EEADR           equ	269	;# 
   287     010E                     EEDATH          equ	270	;# 
   288     010F                     EEADRH          equ	271	;# 
   289     018C                     EECON1          equ	396	;# 
   290     018D                     EECON2          equ	397	;# 
   291     0000                     INDF            equ	0	;# 
   292     0001                     TMR0            equ	1	;# 
   293     0002                     PCL             equ	2	;# 
   294     0003                     STATUS          equ	3	;# 
   295     0004                     FSR             equ	4	;# 
   296     0005                     PORTA           equ	5	;# 
   297     0006                     PORTB           equ	6	;# 
   298     0007                     PORTC           equ	7	;# 
   299     0008                     PORTD           equ	8	;# 
   300     0009                     PORTE           equ	9	;# 
   301     000A                     PCLATH          equ	10	;# 
   302     000B                     INTCON          equ	11	;# 
   303     000C                     PIR1            equ	12	;# 
   304     000D                     PIR2            equ	13	;# 
   305     000E                     TMR1            equ	14	;# 
   306     000E                     TMR1L           equ	14	;# 
   307     000F                     TMR1H           equ	15	;# 
   308     0010                     T1CON           equ	16	;# 
   309     0011                     TMR2            equ	17	;# 
   310     0012                     T2CON           equ	18	;# 
   311     0013                     SSPBUF          equ	19	;# 
   312     0014                     SSPCON          equ	20	;# 
   313     0015                     CCPR1           equ	21	;# 
   314     0015                     CCPR1L          equ	21	;# 
   315     0016                     CCPR1H          equ	22	;# 
   316     0017                     CCP1CON         equ	23	;# 
   317     0018                     RCSTA           equ	24	;# 
   318     0019                     TXREG           equ	25	;# 
   319     001A                     RCREG           equ	26	;# 
   320     001B                     CCPR2           equ	27	;# 
   321     001B                     CCPR2L          equ	27	;# 
   322     001C                     CCPR2H          equ	28	;# 
   323     001D                     CCP2CON         equ	29	;# 
   324     001E                     ADRESH          equ	30	;# 
   325     001F                     ADCON0          equ	31	;# 
   326     0081                     OPTION_REG      equ	129	;# 
   327     0085                     TRISA           equ	133	;# 
   328     0086                     TRISB           equ	134	;# 
   329     0087                     TRISC           equ	135	;# 
   330     0088                     TRISD           equ	136	;# 
   331     0089                     TRISE           equ	137	;# 
   332     008C                     PIE1            equ	140	;# 
   333     008D                     PIE2            equ	141	;# 
   334     008E                     PCON            equ	142	;# 
   335     0091                     SSPCON2         equ	145	;# 
   336     0092                     PR2             equ	146	;# 
   337     0093                     SSPADD          equ	147	;# 
   338     0094                     SSPSTAT         equ	148	;# 
   339     0098                     TXSTA           equ	152	;# 
   340     0099                     SPBRG           equ	153	;# 
   341     009C                     CMCON           equ	156	;# 
   342     009D                     CVRCON          equ	157	;# 
   343     009E                     ADRESL          equ	158	;# 
   344     009F                     ADCON1          equ	159	;# 
   345     010C                     EEDATA          equ	268	;# 
   346     010D                     EEADR           equ	269	;# 
   347     010E                     EEDATH          equ	270	;# 
   348     010F                     EEADRH          equ	271	;# 
   349     018C                     EECON1          equ	396	;# 
   350     018D                     EECON2          equ	397	;# 
   351     0000                     INDF            equ	0	;# 
   352     0001                     TMR0            equ	1	;# 
   353     0002                     PCL             equ	2	;# 
   354     0003                     STATUS          equ	3	;# 
   355     0004                     FSR             equ	4	;# 
   356     0005                     PORTA           equ	5	;# 
   357     0006                     PORTB           equ	6	;# 
   358     0007                     PORTC           equ	7	;# 
   359     0008                     PORTD           equ	8	;# 
   360     0009                     PORTE           equ	9	;# 
   361     000A                     PCLATH          equ	10	;# 
   362     000B                     INTCON          equ	11	;# 
   363     000C                     PIR1            equ	12	;# 
   364     000D                     PIR2            equ	13	;# 
   365     000E                     TMR1            equ	14	;# 
   366     000E                     TMR1L           equ	14	;# 
   367     000F                     TMR1H           equ	15	;# 
   368     0010                     T1CON           equ	16	;# 
   369     0011                     TMR2            equ	17	;# 
   370     0012                     T2CON           equ	18	;# 
   371     0013                     SSPBUF          equ	19	;# 
   372     0014                     SSPCON          equ	20	;# 
   373     0015                     CCPR1           equ	21	;# 
   374     0015                     CCPR1L          equ	21	;# 
   375     0016                     CCPR1H          equ	22	;# 
   376     0017                     CCP1CON         equ	23	;# 
   377     0018                     RCSTA           equ	24	;# 
   378     0019                     TXREG           equ	25	;# 
   379     001A                     RCREG           equ	26	;# 
   380     001B                     CCPR2           equ	27	;# 
   381     001B                     CCPR2L          equ	27	;# 
   382     001C                     CCPR2H          equ	28	;# 
   383     001D                     CCP2CON         equ	29	;# 
   384     001E                     ADRESH          equ	30	;# 
   385     001F                     ADCON0          equ	31	;# 
   386     0081                     OPTION_REG      equ	129	;# 
   387     0085                     TRISA           equ	133	;# 
   388     0086                     TRISB           equ	134	;# 
   389     0087                     TRISC           equ	135	;# 
   390     0088                     TRISD           equ	136	;# 
   391     0089                     TRISE           equ	137	;# 
   392     008C                     PIE1            equ	140	;# 
   393     008D                     PIE2            equ	141	;# 
   394     008E                     PCON            equ	142	;# 
   395     0091                     SSPCON2         equ	145	;# 
   396     0092                     PR2             equ	146	;# 
   397     0093                     SSPADD          equ	147	;# 
   398     0094                     SSPSTAT         equ	148	;# 
   399     0098                     TXSTA           equ	152	;# 
   400     0099                     SPBRG           equ	153	;# 
   401     009C                     CMCON           equ	156	;# 
   402     009D                     CVRCON          equ	157	;# 
   403     009E                     ADRESL          equ	158	;# 
   404     009F                     ADCON1          equ	159	;# 
   405     010C                     EEDATA          equ	268	;# 
   406     010D                     EEADR           equ	269	;# 
   407     010E                     EEDATH          equ	270	;# 
   408     010F                     EEADRH          equ	271	;# 
   409     018C                     EECON1          equ	396	;# 
   410     018D                     EECON2          equ	397	;# 
   411     0000                     INDF            equ	0	;# 
   412     0001                     TMR0            equ	1	;# 
   413     0002                     PCL             equ	2	;# 
   414     0003                     STATUS          equ	3	;# 
   415     0004                     FSR             equ	4	;# 
   416     0005                     PORTA           equ	5	;# 
   417     0006                     PORTB           equ	6	;# 
   418     0007                     PORTC           equ	7	;# 
   419     0008                     PORTD           equ	8	;# 
   420     0009                     PORTE           equ	9	;# 
   421     000A                     PCLATH          equ	10	;# 
   422     000B                     INTCON          equ	11	;# 
   423     000C                     PIR1            equ	12	;# 
   424     000D                     PIR2            equ	13	;# 
   425     000E                     TMR1            equ	14	;# 
   426     000E                     TMR1L           equ	14	;# 
   427     000F                     TMR1H           equ	15	;# 
   428     0010                     T1CON           equ	16	;# 
   429     0011                     TMR2            equ	17	;# 
   430     0012                     T2CON           equ	18	;# 
   431     0013                     SSPBUF          equ	19	;# 
   432     0014                     SSPCON          equ	20	;# 
   433     0015                     CCPR1           equ	21	;# 
   434     0015                     CCPR1L          equ	21	;# 
   435     0016                     CCPR1H          equ	22	;# 
   436     0017                     CCP1CON         equ	23	;# 
   437     0018                     RCSTA           equ	24	;# 
   438     0019                     TXREG           equ	25	;# 
   439     001A                     RCREG           equ	26	;# 
   440     001B                     CCPR2           equ	27	;# 
   441     001B                     CCPR2L          equ	27	;# 
   442     001C                     CCPR2H          equ	28	;# 
   443     001D                     CCP2CON         equ	29	;# 
   444     001E                     ADRESH          equ	30	;# 
   445     001F                     ADCON0          equ	31	;# 
   446     0081                     OPTION_REG      equ	129	;# 
   447     0085                     TRISA           equ	133	;# 
   448     0086                     TRISB           equ	134	;# 
   449     0087                     TRISC           equ	135	;# 
   450     0088                     TRISD           equ	136	;# 
   451     0089                     TRISE           equ	137	;# 
   452     008C                     PIE1            equ	140	;# 
   453     008D                     PIE2            equ	141	;# 
   454     008E                     PCON            equ	142	;# 
   455     0091                     SSPCON2         equ	145	;# 
   456     0092                     PR2             equ	146	;# 
   457     0093                     SSPADD          equ	147	;# 
   458     0094                     SSPSTAT         equ	148	;# 
   459     0098                     TXSTA           equ	152	;# 
   460     0099                     SPBRG           equ	153	;# 
   461     009C                     CMCON           equ	156	;# 
   462     009D                     CVRCON          equ	157	;# 
   463     009E                     ADRESL          equ	158	;# 
   464     009F                     ADCON1          equ	159	;# 
   465     010C                     EEDATA          equ	268	;# 
   466     010D                     EEADR           equ	269	;# 
   467     010E                     EEDATH          equ	270	;# 
   468     010F                     EEADRH          equ	271	;# 
   469     018C                     EECON1          equ	396	;# 
   470     018D                     EECON2          equ	397	;# 
   471     0000                     INDF            equ	0	;# 
   472     0001                     TMR0            equ	1	;# 
   473     0002                     PCL             equ	2	;# 
   474     0003                     STATUS          equ	3	;# 
   475     0004                     FSR             equ	4	;# 
   476     0005                     PORTA           equ	5	;# 
   477     0006                     PORTB           equ	6	;# 
   478     0007                     PORTC           equ	7	;# 
   479     0008                     PORTD           equ	8	;# 
   480     0009                     PORTE           equ	9	;# 
   481     000A                     PCLATH          equ	10	;# 
   482     000B                     INTCON          equ	11	;# 
   483     000C                     PIR1            equ	12	;# 
   484     000D                     PIR2            equ	13	;# 
   485     000E                     TMR1            equ	14	;# 
   486     000E                     TMR1L           equ	14	;# 
   487     000F                     TMR1H           equ	15	;# 
   488     0010                     T1CON           equ	16	;# 
   489     0011                     TMR2            equ	17	;# 
   490     0012                     T2CON           equ	18	;# 
   491     0013                     SSPBUF          equ	19	;# 
   492     0014                     SSPCON          equ	20	;# 
   493     0015                     CCPR1           equ	21	;# 
   494     0015                     CCPR1L          equ	21	;# 
   495     0016                     CCPR1H          equ	22	;# 
   496     0017                     CCP1CON         equ	23	;# 
   497     0018                     RCSTA           equ	24	;# 
   498     0019                     TXREG           equ	25	;# 
   499     001A                     RCREG           equ	26	;# 
   500     001B                     CCPR2           equ	27	;# 
   501     001B                     CCPR2L          equ	27	;# 
   502     001C                     CCPR2H          equ	28	;# 
   503     001D                     CCP2CON         equ	29	;# 
   504     001E                     ADRESH          equ	30	;# 
   505     001F                     ADCON0          equ	31	;# 
   506     0081                     OPTION_REG      equ	129	;# 
   507     0085                     TRISA           equ	133	;# 
   508     0086                     TRISB           equ	134	;# 
   509     0087                     TRISC           equ	135	;# 
   510     0088                     TRISD           equ	136	;# 
   511     0089                     TRISE           equ	137	;# 
   512     008C                     PIE1            equ	140	;# 
   513     008D                     PIE2            equ	141	;# 
   514     008E                     PCON            equ	142	;# 
   515     0091                     SSPCON2         equ	145	;# 
   516     0092                     PR2             equ	146	;# 
   517     0093                     SSPADD          equ	147	;# 
   518     0094                     SSPSTAT         equ	148	;# 
   519     0098                     TXSTA           equ	152	;# 
   520     0099                     SPBRG           equ	153	;# 
   521     009C                     CMCON           equ	156	;# 
   522     009D                     CVRCON          equ	157	;# 
   523     009E                     ADRESL          equ	158	;# 
   524     009F                     ADCON1          equ	159	;# 
   525     010C                     EEDATA          equ	268	;# 
   526     010D                     EEADR           equ	269	;# 
   527     010E                     EEDATH          equ	270	;# 
   528     010F                     EEADRH          equ	271	;# 
   529     018C                     EECON1          equ	396	;# 
   530     018D                     EECON2          equ	397	;# 
   531     0000                     INDF            equ	0	;# 
   532     0001                     TMR0            equ	1	;# 
   533     0002                     PCL             equ	2	;# 
   534     0003                     STATUS          equ	3	;# 
   535     0004                     FSR             equ	4	;# 
   536     0005                     PORTA           equ	5	;# 
   537     0006                     PORTB           equ	6	;# 
   538     0007                     PORTC           equ	7	;# 
   539     0008                     PORTD           equ	8	;# 
   540     0009                     PORTE           equ	9	;# 
   541     000A                     PCLATH          equ	10	;# 
   542     000B                     INTCON          equ	11	;# 
   543     000C                     PIR1            equ	12	;# 
   544     000D                     PIR2            equ	13	;# 
   545     000E                     TMR1            equ	14	;# 
   546     000E                     TMR1L           equ	14	;# 
   547     000F                     TMR1H           equ	15	;# 
   548     0010                     T1CON           equ	16	;# 
   549     0011                     TMR2            equ	17	;# 
   550     0012                     T2CON           equ	18	;# 
   551     0013                     SSPBUF          equ	19	;# 
   552     0014                     SSPCON          equ	20	;# 
   553     0015                     CCPR1           equ	21	;# 
   554     0015                     CCPR1L          equ	21	;# 
   555     0016                     CCPR1H          equ	22	;# 
   556     0017                     CCP1CON         equ	23	;# 
   557     0018                     RCSTA           equ	24	;# 
   558     0019                     TXREG           equ	25	;# 
   559     001A                     RCREG           equ	26	;# 
   560     001B                     CCPR2           equ	27	;# 
   561     001B                     CCPR2L          equ	27	;# 
   562     001C                     CCPR2H          equ	28	;# 
   563     001D                     CCP2CON         equ	29	;# 
   564     001E                     ADRESH          equ	30	;# 
   565     001F                     ADCON0          equ	31	;# 
   566     0081                     OPTION_REG      equ	129	;# 
   567     0085                     TRISA           equ	133	;# 
   568     0086                     TRISB           equ	134	;# 
   569     0087                     TRISC           equ	135	;# 
   570     0088                     TRISD           equ	136	;# 
   571     0089                     TRISE           equ	137	;# 
   572     008C                     PIE1            equ	140	;# 
   573     008D                     PIE2            equ	141	;# 
   574     008E                     PCON            equ	142	;# 
   575     0091                     SSPCON2         equ	145	;# 
   576     0092                     PR2             equ	146	;# 
   577     0093                     SSPADD          equ	147	;# 
   578     0094                     SSPSTAT         equ	148	;# 
   579     0098                     TXSTA           equ	152	;# 
   580     0099                     SPBRG           equ	153	;# 
   581     009C                     CMCON           equ	156	;# 
   582     009D                     CVRCON          equ	157	;# 
   583     009E                     ADRESL          equ	158	;# 
   584     009F                     ADCON1          equ	159	;# 
   585     010C                     EEDATA          equ	268	;# 
   586     010D                     EEADR           equ	269	;# 
   587     010E                     EEDATH          equ	270	;# 
   588     010F                     EEADRH          equ	271	;# 
   589     018C                     EECON1          equ	396	;# 
   590     018D                     EECON2          equ	397	;# 
   591     0000                     INDF            equ	0	;# 
   592     0001                     TMR0            equ	1	;# 
   593     0002                     PCL             equ	2	;# 
   594     0003                     STATUS          equ	3	;# 
   595     0004                     FSR             equ	4	;# 
   596     0005                     PORTA           equ	5	;# 
   597     0006                     PORTB           equ	6	;# 
   598     0007                     PORTC           equ	7	;# 
   599     0008                     PORTD           equ	8	;# 
   600     0009                     PORTE           equ	9	;# 
   601     000A                     PCLATH          equ	10	;# 
   602     000B                     INTCON          equ	11	;# 
   603     000C                     PIR1            equ	12	;# 
   604     000D                     PIR2            equ	13	;# 
   605     000E                     TMR1            equ	14	;# 
   606     000E                     TMR1L           equ	14	;# 
   607     000F                     TMR1H           equ	15	;# 
   608     0010                     T1CON           equ	16	;# 
   609     0011                     TMR2            equ	17	;# 
   610     0012                     T2CON           equ	18	;# 
   611     0013                     SSPBUF          equ	19	;# 
   612     0014                     SSPCON          equ	20	;# 
   613     0015                     CCPR1           equ	21	;# 
   614     0015                     CCPR1L          equ	21	;# 
   615     0016                     CCPR1H          equ	22	;# 
   616     0017                     CCP1CON         equ	23	;# 
   617     0018                     RCSTA           equ	24	;# 
   618     0019                     TXREG           equ	25	;# 
   619     001A                     RCREG           equ	26	;# 
   620     001B                     CCPR2           equ	27	;# 
   621     001B                     CCPR2L          equ	27	;# 
   622     001C                     CCPR2H          equ	28	;# 
   623     001D                     CCP2CON         equ	29	;# 
   624     001E                     ADRESH          equ	30	;# 
   625     001F                     ADCON0          equ	31	;# 
   626     0081                     OPTION_REG      equ	129	;# 
   627     0085                     TRISA           equ	133	;# 
   628     0086                     TRISB           equ	134	;# 
   629     0087                     TRISC           equ	135	;# 
   630     0088                     TRISD           equ	136	;# 
   631     0089                     TRISE           equ	137	;# 
   632     008C                     PIE1            equ	140	;# 
   633     008D                     PIE2            equ	141	;# 
   634     008E                     PCON            equ	142	;# 
   635     0091                     SSPCON2         equ	145	;# 
   636     0092                     PR2             equ	146	;# 
   637     0093                     SSPADD          equ	147	;# 
   638     0094                     SSPSTAT         equ	148	;# 
   639     0098                     TXSTA           equ	152	;# 
   640     0099                     SPBRG           equ	153	;# 
   641     009C                     CMCON           equ	156	;# 
   642     009D                     CVRCON          equ	157	;# 
   643     009E                     ADRESL          equ	158	;# 
   644     009F                     ADCON1          equ	159	;# 
   645     010C                     EEDATA          equ	268	;# 
   646     010D                     EEADR           equ	269	;# 
   647     010E                     EEDATH          equ	270	;# 
   648     010F                     EEADRH          equ	271	;# 
   649     018C                     EECON1          equ	396	;# 
   650     018D                     EECON2          equ	397	;# 
   651     0000                     INDF            equ	0	;# 
   652     0001                     TMR0            equ	1	;# 
   653     0002                     PCL             equ	2	;# 
   654     0003                     STATUS          equ	3	;# 
   655     0004                     FSR             equ	4	;# 
   656     0005                     PORTA           equ	5	;# 
   657     0006                     PORTB           equ	6	;# 
   658     0007                     PORTC           equ	7	;# 
   659     0008                     PORTD           equ	8	;# 
   660     0009                     PORTE           equ	9	;# 
   661     000A                     PCLATH          equ	10	;# 
   662     000B                     INTCON          equ	11	;# 
   663     000C                     PIR1            equ	12	;# 
   664     000D                     PIR2            equ	13	;# 
   665     000E                     TMR1            equ	14	;# 
   666     000E                     TMR1L           equ	14	;# 
   667     000F                     TMR1H           equ	15	;# 
   668     0010                     T1CON           equ	16	;# 
   669     0011                     TMR2            equ	17	;# 
   670     0012                     T2CON           equ	18	;# 
   671     0013                     SSPBUF          equ	19	;# 
   672     0014                     SSPCON          equ	20	;# 
   673     0015                     CCPR1           equ	21	;# 
   674     0015                     CCPR1L          equ	21	;# 
   675     0016                     CCPR1H          equ	22	;# 
   676     0017                     CCP1CON         equ	23	;# 
   677     0018                     RCSTA           equ	24	;# 
   678     0019                     TXREG           equ	25	;# 
   679     001A                     RCREG           equ	26	;# 
   680     001B                     CCPR2           equ	27	;# 
   681     001B                     CCPR2L          equ	27	;# 
   682     001C                     CCPR2H          equ	28	;# 
   683     001D                     CCP2CON         equ	29	;# 
   684     001E                     ADRESH          equ	30	;# 
   685     001F                     ADCON0          equ	31	;# 
   686     0081                     OPTION_REG      equ	129	;# 
   687     0085                     TRISA           equ	133	;# 
   688     0086                     TRISB           equ	134	;# 
   689     0087                     TRISC           equ	135	;# 
   690     0088                     TRISD           equ	136	;# 
   691     0089                     TRISE           equ	137	;# 
   692     008C                     PIE1            equ	140	;# 
   693     008D                     PIE2            equ	141	;# 
   694     008E                     PCON            equ	142	;# 
   695     0091                     SSPCON2         equ	145	;# 
   696     0092                     PR2             equ	146	;# 
   697     0093                     SSPADD          equ	147	;# 
   698     0094                     SSPSTAT         equ	148	;# 
   699     0098                     TXSTA           equ	152	;# 
   700     0099                     SPBRG           equ	153	;# 
   701     009C                     CMCON           equ	156	;# 
   702     009D                     CVRCON          equ	157	;# 
   703     009E                     ADRESL          equ	158	;# 
   704     009F                     ADCON1          equ	159	;# 
   705     010C                     EEDATA          equ	268	;# 
   706     010D                     EEADR           equ	269	;# 
   707     010E                     EEDATH          equ	270	;# 
   708     010F                     EEADRH          equ	271	;# 
   709     018C                     EECON1          equ	396	;# 
   710     018D                     EECON2          equ	397	;# 
   711     0000                     INDF            equ	0	;# 
   712     0001                     TMR0            equ	1	;# 
   713     0002                     PCL             equ	2	;# 
   714     0003                     STATUS          equ	3	;# 
   715     0004                     FSR             equ	4	;# 
   716     0005                     PORTA           equ	5	;# 
   717     0006                     PORTB           equ	6	;# 
   718     0007                     PORTC           equ	7	;# 
   719     0008                     PORTD           equ	8	;# 
   720     0009                     PORTE           equ	9	;# 
   721     000A                     PCLATH          equ	10	;# 
   722     000B                     INTCON          equ	11	;# 
   723     000C                     PIR1            equ	12	;# 
   724     000D                     PIR2            equ	13	;# 
   725     000E                     TMR1            equ	14	;# 
   726     000E                     TMR1L           equ	14	;# 
   727     000F                     TMR1H           equ	15	;# 
   728     0010                     T1CON           equ	16	;# 
   729     0011                     TMR2            equ	17	;# 
   730     0012                     T2CON           equ	18	;# 
   731     0013                     SSPBUF          equ	19	;# 
   732     0014                     SSPCON          equ	20	;# 
   733     0015                     CCPR1           equ	21	;# 
   734     0015                     CCPR1L          equ	21	;# 
   735     0016                     CCPR1H          equ	22	;# 
   736     0017                     CCP1CON         equ	23	;# 
   737     0018                     RCSTA           equ	24	;# 
   738     0019                     TXREG           equ	25	;# 
   739     001A                     RCREG           equ	26	;# 
   740     001B                     CCPR2           equ	27	;# 
   741     001B                     CCPR2L          equ	27	;# 
   742     001C                     CCPR2H          equ	28	;# 
   743     001D                     CCP2CON         equ	29	;# 
   744     001E                     ADRESH          equ	30	;# 
   745     001F                     ADCON0          equ	31	;# 
   746     0081                     OPTION_REG      equ	129	;# 
   747     0085                     TRISA           equ	133	;# 
   748     0086                     TRISB           equ	134	;# 
   749     0087                     TRISC           equ	135	;# 
   750     0088                     TRISD           equ	136	;# 
   751     0089                     TRISE           equ	137	;# 
   752     008C                     PIE1            equ	140	;# 
   753     008D                     PIE2            equ	141	;# 
   754     008E                     PCON            equ	142	;# 
   755     0091                     SSPCON2         equ	145	;# 
   756     0092                     PR2             equ	146	;# 
   757     0093                     SSPADD          equ	147	;# 
   758     0094                     SSPSTAT         equ	148	;# 
   759     0098                     TXSTA           equ	152	;# 
   760     0099                     SPBRG           equ	153	;# 
   761     009C                     CMCON           equ	156	;# 
   762     009D                     CVRCON          equ	157	;# 
   763     009E                     ADRESL          equ	158	;# 
   764     009F                     ADCON1          equ	159	;# 
   765     010C                     EEDATA          equ	268	;# 
   766     010D                     EEADR           equ	269	;# 
   767     010E                     EEDATH          equ	270	;# 
   768     010F                     EEADRH          equ	271	;# 
   769     018C                     EECON1          equ	396	;# 
   770     018D                     EECON2          equ	397	;# 
   771                           
   772                           	psect	idataBANK0
   773     1110                     __pidataBANK0:
   774                           
   775                           ;initializer for change_password@once
   776     1110  3401               	retlw	1
   777                           
   778                           ;initializer for set_time@visible
   779     1111  3401               	retlw	1
   780                           
   781                           ;initializer for set_time@once
   782     1112  3401               	retlw	1
   783                           
   784                           ;initializer for clear_log@once
   785     1113  3401               	retlw	1
   786                           
   787                           ;initializer for menu@redraw
   788     1114  3401               	retlw	1
   789                           
   790                           ;initializer for login@sec_left
   791     1115  341E               	retlw	30
   792                           
   793                           ;initializer for login@attempts
   794     1116  3403               	retlw	3
   795                           
   796                           ;initializer for login@once
   797     1117  3401               	retlw	1
   798                           
   799                           ;initializer for _old_menu_pos
   800     1118  34FF               	retlw	255
   801                           
   802                           ;initializer for read_digital_keypad@once
   803     1119  3401               	retlw	1
   804                           
   805                           	psect	idataBANK1
   806     11E6                     __pidataBANK1:
   807                           
   808                           ;initializer for _event
   809     11E6  34FD               	retlw	low (STR_3| (0+32768))
   810     11E7  3489               	retlw	high (STR_3| (0+32768))
   811     11E8  34FA               	retlw	low (STR_4| (0+32768))
   812     11E9  3489               	retlw	high (STR_4| (0+32768))
   813     11EA  34EE               	retlw	low (STR_5| (0+32768))
   814     11EB  3489               	retlw	high (STR_5| (0+32768))
   815     11EC  34F1               	retlw	low (STR_6| (0+32768))
   816     11ED  3489               	retlw	high (STR_6| (0+32768))
   817     11EE  34F4               	retlw	low (STR_7| (0+32768))
   818     11EF  3489               	retlw	high (STR_7| (0+32768))
   819     11F0  34F7               	retlw	low (STR_8| (0+32768))
   820     11F1  3489               	retlw	high (STR_8| (0+32768))
   821     11F2  3400               	retlw	low (STR_9| (0+32768))
   822     11F3  348A               	retlw	high (STR_9| (0+32768))
   823     11F4  34EB               	retlw	low (STR_10| (0+32768))
   824     11F5  3489               	retlw	high (STR_10| (0+32768))
   825                           
   826                           ;initializer for _str
   827     11F6  34E2               	retlw	low (STR_13| (0+32768))
   828     11F7  3489               	retlw	high (STR_13| (0+32768))
   829     11F8  34CF               	retlw	low (STR_14| (0+32768))
   830     11F9  3489               	retlw	high (STR_14| (0+32768))
   831     11FA  34AA               	retlw	low (STR_15| (0+32768))
   832     11FB  3489               	retlw	high (STR_15| (0+32768))
   833     11FC  34D9               	retlw	low (STR_16| (0+32768))
   834     11FD  3489               	retlw	high (STR_16| (0+32768))
   835     11FE  34C3               	retlw	low (STR_17| (0+32768))
   836     11FF  3489               	retlw	high (STR_17| (0+32768))
   837                           
   838                           ;initializer for _password
   839     1200  3431               	retlw	49
   840     1201  3431               	retlw	49
   841     1202  3431               	retlw	49
   842     1203  3431               	retlw	49
   843     1204  3400               	retlw	0
   844     0019                     _TXREG          set	25
   845     0013                     _SSPBUF         set	19
   846     0006                     _PORTB          set	6
   847     0008                     _PORTD          set	8
   848     001E                     _ADRESH         set	30
   849     001F                     _ADCON0         set	31
   850     0064                     _TXIF           set	100
   851     00C4                     _CREN           set	196
   852     00C7                     _SPEN           set	199
   853     00A5                     _SSPEN          set	165
   854     00A3                     _SSPM3          set	163
   855     0049                     _RE1            set	73
   856     004A                     _RE2            set	74
   857     00FA                     _nDONE          set	250
   858     00FA                     _GO             set	250
   859     00F8                     _ADON           set	248
   860     0099                     _SPBRG          set	153
   861     0091                     _SSPCON2        set	145
   862     0093                     _SSPADD         set	147
   863     0086                     _TRISB          set	134
   864     0088                     _TRISD          set	136
   865     009E                     _ADRESL         set	158
   866     04C5                     _TXEN           set	1221
   867     04C4                     _SYNC           set	1220
   868     04C2                     _BRGH           set	1218
   869     043F                     _TRISC7         set	1087
   870     043E                     _TRISC6         set	1086
   871     048E                     _ACKSTAT        set	1166
   872     048C                     _ACKEN          set	1164
   873     048D                     _ACKDT          set	1165
   874     048B                     _RCEN           set	1163
   875     048A                     _PEN            set	1162
   876     0488                     _SEN            set	1160
   877     04A2                     _R_nW           set	1186
   878     0449                     _TRISE1         set	1097
   879     044A                     _TRISE2         set	1098
   880     04FF                     _ADFM           set	1279
   881                           
   882                           	psect	strings
   883     1000                     __pstrings:
   884     1000                     stringtab:
   885     1000                     __stringtab:
   886                           
   887                           ;	String table - string pointers are 2 bytes each
   888     1000  1BFF               	btfsc	btemp+1,7
   889     1001  280A               	ljmp	stringcode
   890     1002  1383               	bcf	3,7
   891     1003  187F               	btfsc	btemp+1,0
   892     1004  1783               	bsf	3,7
   893     1005  0800               	movf	0,w
   894     1006  0A84               	incf	4,f
   895     1007  1903               	skipnz
   896     1008  0AFF               	incf	btemp+1,f
   897     1009  0008               	return
   898     100A                     stringcode:
   899     100A  087F               	movf	btemp+1,w
   900     100B  397F               	andlw	127
   901     100C  008A               	movwf	10
   902     100D  0804               	movf	4,w
   903     100E  0A84               	incf	4,f
   904     100F  1903               	skipnz
   905     1010  0AFF               	incf	btemp+1,f
   906     1011  0082               	movwf	2
   907     1012                     __stringbase:
   908     1012                     __end_of__stringtab:
   909                           
   910                           	psect	stringtext
   911     0800                     __pstringtext:
   912     0800                     STR_36:
   913     0800  3423               	retlw	35	;'#'
   914     0801  3420               	retlw	32	;' '
   915     0802  3420               	retlw	32	;' '
   916     0803  3454               	retlw	84	;'T'
   917     0804  3449               	retlw	73	;'I'
   918     0805  344D               	retlw	77	;'M'
   919     0806  3445               	retlw	69	;'E'
   920     0807  3420               	retlw	32	;' '
   921     0808  3420               	retlw	32	;' '
   922     0809  3420               	retlw	32	;' '
   923     080A  3420               	retlw	32	;' '
   924     080B  3445               	retlw	69	;'E'
   925     080C  3456               	retlw	86	;'V'
   926     080D  3420               	retlw	32	;' '
   927     080E  3453               	retlw	83	;'S'
   928     080F  3450               	retlw	80	;'P'
   929     0810  3420               	retlw	32	;' '
   930     0811  3420               	retlw	32	;' '
   931     0812  3420               	retlw	32	;' '
   932     0813  3400               	retlw	0
   933     0814                     STR_45:
   934     0814  342D               	retlw	45	;'-'
   935     0815  342D               	retlw	45	;'-'
   936     0816  342D               	retlw	45	;'-'
   937     0817  342D               	retlw	45	;'-'
   938     0818  342D               	retlw	45	;'-'
   939     0819  342D               	retlw	45	;'-'
   940     081A  342D               	retlw	45	;'-'
   941     081B  342D               	retlw	45	;'-'
   942     081C  342D               	retlw	45	;'-'
   943     081D  342D               	retlw	45	;'-'
   944     081E  342D               	retlw	45	;'-'
   945     081F  342D               	retlw	45	;'-'
   946     0820  342D               	retlw	45	;'-'
   947     0821  342D               	retlw	45	;'-'
   948     0822  342D               	retlw	45	;'-'
   949     0823  342D               	retlw	45	;'-'
   950     0824  340D               	retlw	13
   951     0825  340A               	retlw	10
   952     0826  3400               	retlw	0
   953     0827                     STR_44:
   954     0827  3454               	retlw	84	;'T'
   955     0828  3449               	retlw	73	;'I'
   956     0829  344D               	retlw	77	;'M'
   957     082A  3445               	retlw	69	;'E'
   958     082B  3420               	retlw	32	;' '
   959     082C  3420               	retlw	32	;' '
   960     082D  3420               	retlw	32	;' '
   961     082E  3420               	retlw	32	;' '
   962     082F  3420               	retlw	32	;' '
   963     0830  3445               	retlw	69	;'E'
   964     0831  3456               	retlw	86	;'V'
   965     0832  3420               	retlw	32	;' '
   966     0833  3453               	retlw	83	;'S'
   967     0834  3450               	retlw	80	;'P'
   968     0835  340D               	retlw	13
   969     0836  340A               	retlw	10
   970     0837  3400               	retlw	0
   971     0838                     STR_52:
   972     0838  3448               	retlw	72	;'H'
   973     0839  3448               	retlw	72	;'H'
   974     083A  343A               	retlw	58	;':'
   975     083B  344D               	retlw	77	;'M'
   976     083C  344D               	retlw	77	;'M'
   977     083D  343A               	retlw	58	;':'
   978     083E  3453               	retlw	83	;'S'
   979     083F  3453               	retlw	83	;'S'
   980     0840  3420               	retlw	32	;' '
   981     0841  3420               	retlw	32	;' '
   982     0842  3420               	retlw	32	;' '
   983     0843  3420               	retlw	32	;' '
   984     0844  3420               	retlw	32	;' '
   985     0845  3420               	retlw	32	;' '
   986     0846  3420               	retlw	32	;' '
   987     0847  3420               	retlw	32	;' '
   988     0848  3400               	retlw	0
   989     0849                     STR_18:
   990     0849  3455               	retlw	85	;'U'
   991     084A  3473               	retlw	115	;'s'
   992     084B  3465               	retlw	101	;'e'
   993     084C  3472               	retlw	114	;'r'
   994     084D  3420               	retlw	32	;' '
   995     084E  3442               	retlw	66	;'B'
   996     084F  346C               	retlw	108	;'l'
   997     0850  346F               	retlw	111	;'o'
   998     0851  3463               	retlw	99	;'c'
   999     0852  346B               	retlw	107	;'k'
  1000     0853  3465               	retlw	101	;'e'
  1001     0854  3464               	retlw	100	;'d'
  1002     0855  3420               	retlw	32	;' '
  1003     0856  3420               	retlw	32	;' '
  1004     0857  3420               	retlw	32	;' '
  1005     0858  3420               	retlw	32	;' '
  1006     0859  3400               	retlw	0
  1007     085A                     STR_11:
  1008     085A  3420               	retlw	32	;' '
  1009     085B  3454               	retlw	84	;'T'
  1010     085C  3449               	retlw	73	;'I'
  1011     085D  344D               	retlw	77	;'M'
  1012     085E  3445               	retlw	69	;'E'
  1013     085F  3420               	retlw	32	;' '
  1014     0860  3420               	retlw	32	;' '
  1015     0861  3420               	retlw	32	;' '
  1016     0862  3420               	retlw	32	;' '
  1017     0863  3420               	retlw	32	;' '
  1018     0864  3445               	retlw	69	;'E'
  1019     0865  3456               	retlw	86	;'V'
  1020     0866  3420               	retlw	32	;' '
  1021     0867  3420               	retlw	32	;' '
  1022     0868  3453               	retlw	83	;'S'
  1023     0869  3450               	retlw	80	;'P'
  1024     086A  3400               	retlw	0
  1025     086B                     STR_1:
  1026     086B  3420               	retlw	32	;' '
  1027     086C  3420               	retlw	32	;' '
  1028     086D  3420               	retlw	32	;' '
  1029     086E  3420               	retlw	32	;' '
  1030     086F  3420               	retlw	32	;' '
  1031     0870  3420               	retlw	32	;' '
  1032     0871  3420               	retlw	32	;' '
  1033     0872  3420               	retlw	32	;' '
  1034     0873  3420               	retlw	32	;' '
  1035     0874  3420               	retlw	32	;' '
  1036     0875  3420               	retlw	32	;' '
  1037     0876  3420               	retlw	32	;' '
  1038     0877  3420               	retlw	32	;' '
  1039     0878  3420               	retlw	32	;' '
  1040     0879  3420               	retlw	32	;' '
  1041     087A  3420               	retlw	32	;' '
  1042     087B  3400               	retlw	0
  1043     087C                     STR_46:
  1044     087C  344E               	retlw	78	;'N'
  1045     087D  344F               	retlw	79	;'O'
  1046     087E  3420               	retlw	32	;' '
  1047     087F  344C               	retlw	76	;'L'
  1048     0880  344F               	retlw	79	;'O'
  1049     0881  3447               	retlw	71	;'G'
  1050     0882  3453               	retlw	83	;'S'
  1051     0883  3420               	retlw	32	;' '
  1052     0884  3446               	retlw	70	;'F'
  1053     0885  344F               	retlw	79	;'O'
  1054     0886  3455               	retlw	85	;'U'
  1055     0887  344E               	retlw	78	;'N'
  1056     0888  3444               	retlw	68	;'D'
  1057     0889  340D               	retlw	13
  1058     088A  340A               	retlw	10
  1059     088B  3400               	retlw	0
  1060     088C                     STR_48:
  1061     088C  3446               	retlw	70	;'F'
  1062     088D  344F               	retlw	79	;'O'
  1063     088E  3455               	retlw	85	;'U'
  1064     088F  344E               	retlw	78	;'N'
  1065     0890  3444               	retlw	68	;'D'
  1066     0891  3420               	retlw	32	;' '
  1067     0892  3420               	retlw	32	;' '
  1068     0893  3420               	retlw	32	;' '
  1069     0894  3420               	retlw	32	;' '
  1070     0895  3420               	retlw	32	;' '
  1071     0896  3420               	retlw	32	;' '
  1072     0897  3420               	retlw	32	;' '
  1073     0898  3420               	retlw	32	;' '
  1074     0899  3420               	retlw	32	;' '
  1075     089A  3420               	retlw	32	;' '
  1076     089B  3400               	retlw	0
  1077     089C                     STR_62:
  1078     089C  3443               	retlw	67	;'C'
  1079     089D  3448               	retlw	72	;'H'
  1080     089E  3441               	retlw	65	;'A'
  1081     089F  344E               	retlw	78	;'N'
  1082     08A0  3447               	retlw	71	;'G'
  1083     08A1  3445               	retlw	69	;'E'
  1084     08A2  3444               	retlw	68	;'D'
  1085     08A3  3420               	retlw	32	;' '
  1086     08A4  3420               	retlw	32	;' '
  1087     08A5  3420               	retlw	32	;' '
  1088     08A6  3420               	retlw	32	;' '
  1089     08A7  3420               	retlw	32	;' '
  1090     08A8  3420               	retlw	32	;' '
  1091     08A9  3420               	retlw	32	;' '
  1092     08AA  3420               	retlw	32	;' '
  1093     08AB  3400               	retlw	0
  1094     08AC                     STR_47:
  1095     08AC  344E               	retlw	78	;'N'
  1096     08AD  344F               	retlw	79	;'O'
  1097     08AE  3420               	retlw	32	;' '
  1098     08AF  344C               	retlw	76	;'L'
  1099     08B0  344F               	retlw	79	;'O'
  1100     08B1  3447               	retlw	71	;'G'
  1101     08B2  3453               	retlw	83	;'S'
  1102     08B3  3420               	retlw	32	;' '
  1103     08B4  3420               	retlw	32	;' '
  1104     08B5  3420               	retlw	32	;' '
  1105     08B6  3420               	retlw	32	;' '
  1106     08B7  3420               	retlw	32	;' '
  1107     08B8  3420               	retlw	32	;' '
  1108     08B9  3420               	retlw	32	;' '
  1109     08BA  3420               	retlw	32	;' '
  1110     08BB  3400               	retlw	0
  1111     08BC                     STR_51:
  1112     08BC  3453               	retlw	83	;'S'
  1113     08BD  3455               	retlw	85	;'U'
  1114     08BE  3443               	retlw	67	;'C'
  1115     08BF  3443               	retlw	67	;'C'
  1116     08C0  3445               	retlw	69	;'E'
  1117     08C1  3453               	retlw	83	;'S'
  1118     08C2  3453               	retlw	83	;'S'
  1119     08C3  3420               	retlw	32	;' '
  1120     08C4  3420               	retlw	32	;' '
  1121     08C5  3420               	retlw	32	;' '
  1122     08C6  3420               	retlw	32	;' '
  1123     08C7  3420               	retlw	32	;' '
  1124     08C8  3420               	retlw	32	;' '
  1125     08C9  3420               	retlw	32	;' '
  1126     08CA  3420               	retlw	32	;' '
  1127     08CB  3400               	retlw	0
  1128     08CC                     STR_64:
  1129     08CC  3449               	retlw	73	;'I'
  1130     08CD  3453               	retlw	83	;'S'
  1131     08CE  3420               	retlw	32	;' '
  1132     08CF  3457               	retlw	87	;'W'
  1133     08D0  3452               	retlw	82	;'R'
  1134     08D1  344F               	retlw	79	;'O'
  1135     08D2  344E               	retlw	78	;'N'
  1136     08D3  3447               	retlw	71	;'G'
  1137     08D4  3420               	retlw	32	;' '
  1138     08D5  3420               	retlw	32	;' '
  1139     08D6  3420               	retlw	32	;' '
  1140     08D7  3420               	retlw	32	;' '
  1141     08D8  3420               	retlw	32	;' '
  1142     08D9  3420               	retlw	32	;' '
  1143     08DA  3420               	retlw	32	;' '
  1144     08DB  3400               	retlw	0
  1145     08DC                     STR_61:
  1146     08DC  3450               	retlw	80	;'P'
  1147     08DD  3441               	retlw	65	;'A'
  1148     08DE  3453               	retlw	83	;'S'
  1149     08DF  3453               	retlw	83	;'S'
  1150     08E0  3457               	retlw	87	;'W'
  1151     08E1  344F               	retlw	79	;'O'
  1152     08E2  3452               	retlw	82	;'R'
  1153     08E3  3444               	retlw	68	;'D'
  1154     08E4  3420               	retlw	32	;' '
  1155     08E5  3449               	retlw	73	;'I'
  1156     08E6  3453               	retlw	83	;'S'
  1157     08E7  3420               	retlw	32	;' '
  1158     08E8  3420               	retlw	32	;' '
  1159     08E9  3420               	retlw	32	;' '
  1160     08EA  3420               	retlw	32	;' '
  1161     08EB  3400               	retlw	0
  1162     08EC                     STR_42:
  1163     08EC  3450               	retlw	80	;'P'
  1164     08ED  344C               	retlw	76	;'L'
  1165     08EE  3445               	retlw	69	;'E'
  1166     08EF  3441               	retlw	65	;'A'
  1167     08F0  3453               	retlw	83	;'S'
  1168     08F1  3445               	retlw	69	;'E'
  1169     08F2  3420               	retlw	32	;' '
  1170     08F3  3457               	retlw	87	;'W'
  1171     08F4  3441               	retlw	65	;'A'
  1172     08F5  3449               	retlw	73	;'I'
  1173     08F6  3454               	retlw	84	;'T'
  1174     08F7  3420               	retlw	32	;' '
  1175     08F8  3420               	retlw	32	;' '
  1176     08F9  3420               	retlw	32	;' '
  1177     08FA  3420               	retlw	32	;' '
  1178     08FB  3400               	retlw	0
  1179     08FC                     STR_27:
  1180     08FC  3441               	retlw	65	;'A'
  1181     08FD  3474               	retlw	116	;'t'
  1182     08FE  3474               	retlw	116	;'t'
  1183     08FF  3465               	retlw	101	;'e'
  1184     0900  346D               	retlw	109	;'m'
  1185     0901  3470               	retlw	112	;'p'
  1186     0902  3474               	retlw	116	;'t'
  1187     0903  3420               	retlw	32	;' '
  1188     0904  344C               	retlw	76	;'L'
  1189     0905  3465               	retlw	101	;'e'
  1190     0906  3466               	retlw	102	;'f'
  1191     0907  3474               	retlw	116	;'t'
  1192     0908  343A               	retlw	58	;':'
  1193     0909  3420               	retlw	32	;' '
  1194     090A  3420               	retlw	32	;' '
  1195     090B  3400               	retlw	0
  1196     090C                     STR_50:
  1197     090C  3444               	retlw	68	;'D'
  1198     090D  344F               	retlw	79	;'O'
  1199     090E  3457               	retlw	87	;'W'
  1200     090F  344E               	retlw	78	;'N'
  1201     0910  344C               	retlw	76	;'L'
  1202     0911  344F               	retlw	79	;'O'
  1203     0912  3441               	retlw	65	;'A'
  1204     0913  3444               	retlw	68	;'D'
  1205     0914  3420               	retlw	32	;' '
  1206     0915  3444               	retlw	68	;'D'
  1207     0916  344F               	retlw	79	;'O'
  1208     0917  344E               	retlw	78	;'N'
  1209     0918  3445               	retlw	69	;'E'
  1210     0919  3420               	retlw	32	;' '
  1211     091A  3420               	retlw	32	;' '
  1212     091B  3400               	retlw	0
  1213     091C                     STR_58:
  1214     091C  3452               	retlw	82	;'R'
  1215     091D  3445               	retlw	69	;'E'
  1216     091E  342D               	retlw	45	;'-'
  1217     091F  3445               	retlw	69	;'E'
  1218     0920  344E               	retlw	78	;'N'
  1219     0921  3454               	retlw	84	;'T'
  1220     0922  3445               	retlw	69	;'E'
  1221     0923  3452               	retlw	82	;'R'
  1222     0924  3420               	retlw	32	;' '
  1223     0925  3450               	retlw	80	;'P'
  1224     0926  3441               	retlw	65	;'A'
  1225     0927  3453               	retlw	83	;'S'
  1226     0928  3453               	retlw	83	;'S'
  1227     0929  3420               	retlw	32	;' '
  1228     092A  3420               	retlw	32	;' '
  1229     092B  3400               	retlw	0
  1230     092C                     STR_41:
  1231     092C  3444               	retlw	68	;'D'
  1232     092D  344F               	retlw	79	;'O'
  1233     092E  3457               	retlw	87	;'W'
  1234     092F  344E               	retlw	78	;'N'
  1235     0930  344C               	retlw	76	;'L'
  1236     0931  344F               	retlw	79	;'O'
  1237     0932  3441               	retlw	65	;'A'
  1238     0933  3444               	retlw	68	;'D'
  1239     0934  3449               	retlw	73	;'I'
  1240     0935  344E               	retlw	78	;'N'
  1241     0936  3447               	retlw	71	;'G'
  1242     0937  342E               	retlw	46	;'.'
  1243     0938  342E               	retlw	46	;'.'
  1244     0939  342E               	retlw	46	;'.'
  1245     093A  3420               	retlw	32	;' '
  1246     093B  3400               	retlw	0
  1247     093C                     STR_34:
  1248     093C  3420               	retlw	32	;' '
  1249     093D  344E               	retlw	78	;'N'
  1250     093E  344F               	retlw	79	;'O'
  1251     093F  3420               	retlw	32	;' '
  1252     0940  344C               	retlw	76	;'L'
  1253     0941  344F               	retlw	79	;'O'
  1254     0942  3447               	retlw	71	;'G'
  1255     0943  3453               	retlw	83	;'S'
  1256     0944  3420               	retlw	32	;' '
  1257     0945  3446               	retlw	70	;'F'
  1258     0946  344F               	retlw	79	;'O'
  1259     0947  3455               	retlw	85	;'U'
  1260     0948  344E               	retlw	78	;'N'
  1261     0949  3444               	retlw	68	;'D'
  1262     094A  3420               	retlw	32	;' '
  1263     094B  3400               	retlw	0
  1264     094C                     STR_63:
  1265     094C  3452               	retlw	82	;'R'
  1266     094D  3445               	retlw	69	;'E'
  1267     094E  342D               	retlw	45	;'-'
  1268     094F  3445               	retlw	69	;'E'
  1269     0950  344E               	retlw	78	;'N'
  1270     0951  3454               	retlw	84	;'T'
  1271     0952  3445               	retlw	69	;'E'
  1272     0953  3452               	retlw	82	;'R'
  1273     0954  3445               	retlw	69	;'E'
  1274     0955  3444               	retlw	68	;'D'
  1275     0956  3420               	retlw	32	;' '
  1276     0957  3450               	retlw	80	;'P'
  1277     0958  3457               	retlw	87	;'W'
  1278     0959  3444               	retlw	68	;'D'
  1279     095A  3420               	retlw	32	;' '
  1280     095B  3400               	retlw	0
  1281     095C                     STR_55:
  1282     095C  3445               	retlw	69	;'E'
  1283     095D  344E               	retlw	78	;'N'
  1284     095E  3454               	retlw	84	;'T'
  1285     095F  3445               	retlw	69	;'E'
  1286     0960  3452               	retlw	82	;'R'
  1287     0961  3420               	retlw	32	;' '
  1288     0962  344E               	retlw	78	;'N'
  1289     0963  3445               	retlw	69	;'E'
  1290     0964  3457               	retlw	87	;'W'
  1291     0965  3420               	retlw	32	;' '
  1292     0966  3450               	retlw	80	;'P'
  1293     0967  3441               	retlw	65	;'A'
  1294     0968  3453               	retlw	83	;'S'
  1295     0969  3453               	retlw	83	;'S'
  1296     096A  3420               	retlw	32	;' '
  1297     096B  3400               	retlw	0
  1298     096C                     STR_26:
  1299     096C  3457               	retlw	87	;'W'
  1300     096D  3472               	retlw	114	;'r'
  1301     096E  346F               	retlw	111	;'o'
  1302     096F  346E               	retlw	110	;'n'
  1303     0970  3467               	retlw	103	;'g'
  1304     0971  3420               	retlw	32	;' '
  1305     0972  3450               	retlw	80	;'P'
  1306     0973  3461               	retlw	97	;'a'
  1307     0974  3473               	retlw	115	;'s'
  1308     0975  3473               	retlw	115	;'s'
  1309     0976  3477               	retlw	119	;'w'
  1310     0977  346F               	retlw	111	;'o'
  1311     0978  3472               	retlw	114	;'r'
  1312     0979  3464               	retlw	100	;'d'
  1313     097A  3420               	retlw	32	;' '
  1314     097B  3400               	retlw	0
  1315     097C                     STR_22:
  1316     097C  3445               	retlw	69	;'E'
  1317     097D  346E               	retlw	110	;'n'
  1318     097E  3474               	retlw	116	;'t'
  1319     097F  3465               	retlw	101	;'e'
  1320     0980  3472               	retlw	114	;'r'
  1321     0981  3420               	retlw	32	;' '
  1322     0982  3450               	retlw	80	;'P'
  1323     0983  3461               	retlw	97	;'a'
  1324     0984  3473               	retlw	115	;'s'
  1325     0985  3473               	retlw	115	;'s'
  1326     0986  3477               	retlw	119	;'w'
  1327     0987  346F               	retlw	111	;'o'
  1328     0988  3472               	retlw	114	;'r'
  1329     0989  3464               	retlw	100	;'d'
  1330     098A  3420               	retlw	32	;' '
  1331     098B  3400               	retlw	0
  1332     098C                     STR_37:
  1333     098C  344C               	retlw	76	;'L'
  1334     098D  346F               	retlw	111	;'o'
  1335     098E  3467               	retlw	103	;'g'
  1336     098F  3473               	retlw	115	;'s'
  1337     0990  3420               	retlw	32	;' '
  1338     0991  3461               	retlw	97	;'a'
  1339     0992  3472               	retlw	114	;'r'
  1340     0993  3465               	retlw	101	;'e'
  1341     0994  3420               	retlw	32	;' '
  1342     0995  3420               	retlw	32	;' '
  1343     0996  3420               	retlw	32	;' '
  1344     0997  3420               	retlw	32	;' '
  1345     0998  3420               	retlw	32	;' '
  1346     0999  3420               	retlw	32	;' '
  1347     099A  3400               	retlw	0
  1348     099B                     STR_38:
  1349     099B  3463               	retlw	99	;'c'
  1350     099C  346C               	retlw	108	;'l'
  1351     099D  3465               	retlw	101	;'e'
  1352     099E  3461               	retlw	97	;'a'
  1353     099F  3472               	retlw	114	;'r'
  1354     09A0  3469               	retlw	105	;'i'
  1355     09A1  346E               	retlw	110	;'n'
  1356     09A2  3467               	retlw	103	;'g'
  1357     09A3  3420               	retlw	32	;' '
  1358     09A4  3420               	retlw	32	;' '
  1359     09A5  3420               	retlw	32	;' '
  1360     09A6  3420               	retlw	32	;' '
  1361     09A7  3420               	retlw	32	;' '
  1362     09A8  3420               	retlw	32	;' '
  1363     09A9  3400               	retlw	0
  1364     09AA                     STR_15:
  1365     09AA  3444               	retlw	68	;'D'
  1366     09AB  346F               	retlw	111	;'o'
  1367     09AC  3477               	retlw	119	;'w'
  1368     09AD  346E               	retlw	110	;'n'
  1369     09AE  346C               	retlw	108	;'l'
  1370     09AF  346F               	retlw	111	;'o'
  1371     09B0  3461               	retlw	97	;'a'
  1372     09B1  3464               	retlw	100	;'d'
  1373     09B2  3420               	retlw	32	;' '
  1374     09B3  344C               	retlw	76	;'L'
  1375     09B4  346F               	retlw	111	;'o'
  1376     09B5  3467               	retlw	103	;'g'
  1377     09B6  3400               	retlw	0
  1378     09B7                     STR_19:
  1379     09B7  3453               	retlw	83	;'S'
  1380     09B8  3465               	retlw	101	;'e'
  1381     09B9  3463               	retlw	99	;'c'
  1382     09BA  3420               	retlw	32	;' '
  1383     09BB  344C               	retlw	76	;'L'
  1384     09BC  3465               	retlw	101	;'e'
  1385     09BD  3466               	retlw	102	;'f'
  1386     09BE  3474               	retlw	116	;'t'
  1387     09BF  3420               	retlw	32	;' '
  1388     09C0  343A               	retlw	58	;':'
  1389     09C1  3420               	retlw	32	;' '
  1390     09C2  3400               	retlw	0
  1391     09C3                     STR_17:
  1392     09C3  3443               	retlw	67	;'C'
  1393     09C4  3468               	retlw	104	;'h'
  1394     09C5  3461               	retlw	97	;'a'
  1395     09C6  346E               	retlw	110	;'n'
  1396     09C7  3467               	retlw	103	;'g'
  1397     09C8  3465               	retlw	101	;'e'
  1398     09C9  3420               	retlw	32	;' '
  1399     09CA  3450               	retlw	80	;'P'
  1400     09CB  3461               	retlw	97	;'a'
  1401     09CC  3473               	retlw	115	;'s'
  1402     09CD  3473               	retlw	115	;'s'
  1403     09CE  3400               	retlw	0
  1404     09CF                     STR_14:
  1405     09CF  3443               	retlw	67	;'C'
  1406     09D0  346C               	retlw	108	;'l'
  1407     09D1  3465               	retlw	101	;'e'
  1408     09D2  3461               	retlw	97	;'a'
  1409     09D3  3472               	retlw	114	;'r'
  1410     09D4  3420               	retlw	32	;' '
  1411     09D5  344C               	retlw	76	;'L'
  1412     09D6  346F               	retlw	111	;'o'
  1413     09D7  3467               	retlw	103	;'g'
  1414     09D8  3400               	retlw	0
  1415     09D9                     STR_16:
  1416     09D9  3453               	retlw	83	;'S'
  1417     09DA  3465               	retlw	101	;'e'
  1418     09DB  3474               	retlw	116	;'t'
  1419     09DC  3420               	retlw	32	;' '
  1420     09DD  3454               	retlw	84	;'T'
  1421     09DE  3469               	retlw	105	;'i'
  1422     09DF  346D               	retlw	109	;'m'
  1423     09E0  3465               	retlw	101	;'e'
  1424     09E1  3400               	retlw	0
  1425     09E2                     STR_13:
  1426     09E2  3456               	retlw	86	;'V'
  1427     09E3  3469               	retlw	105	;'i'
  1428     09E4  3465               	retlw	101	;'e'
  1429     09E5  3477               	retlw	119	;'w'
  1430     09E6  3420               	retlw	32	;' '
  1431     09E7  344C               	retlw	76	;'L'
  1432     09E8  346F               	retlw	111	;'o'
  1433     09E9  3467               	retlw	103	;'g'
  1434     09EA  3400               	retlw	0
  1435     09EB                     STR_10:
  1436     09EB  3443               	retlw	67	;'C'
  1437     09EC  3420               	retlw	32	;' '
  1438     09ED  3400               	retlw	0
  1439     09EE                     STR_5:
  1440     09EE  3447               	retlw	71	;'G'
  1441     09EF  3431               	retlw	49	;'1'
  1442     09F0  3400               	retlw	0
  1443     09F1                     STR_6:
  1444     09F1  3447               	retlw	71	;'G'
  1445     09F2  3432               	retlw	50	;'2'
  1446     09F3  3400               	retlw	0
  1447     09F4                     STR_7:
  1448     09F4  3447               	retlw	71	;'G'
  1449     09F5  3433               	retlw	51	;'3'
  1450     09F6  3400               	retlw	0
  1451     09F7                     STR_8:
  1452     09F7  3447               	retlw	71	;'G'
  1453     09F8  3434               	retlw	52	;'4'
  1454     09F9  3400               	retlw	0
  1455     09FA                     STR_4:
  1456     09FA  3447               	retlw	71	;'G'
  1457     09FB  344E               	retlw	78	;'N'
  1458     09FC  3400               	retlw	0
  1459     09FD                     STR_3:
  1460     09FD  344F               	retlw	79	;'O'
  1461     09FE  344E               	retlw	78	;'N'
  1462     09FF  3400               	retlw	0
  1463     0A00                     STR_9:
  1464     0A00  3447               	retlw	71	;'G'
  1465     0A01  3452               	retlw	82	;'R'
  1466     0A02  3400               	retlw	0
  1467     085A                     STR_12          equ	STR_11
  1468     086B                     STR_2           equ	STR_1
  1469     086B                     STR_20          equ	STR_1
  1470     086B                     STR_21          equ	STR_1
  1471     086B                     STR_23          equ	STR_1
  1472     086B                     STR_24          equ	STR_1
  1473     086B                     STR_25          equ	STR_1
  1474     086B                     STR_28          equ	STR_1
  1475     086B                     STR_29          equ	STR_1
  1476     086B                     STR_30          equ	STR_1
  1477     086B                     STR_31          equ	STR_1
  1478     086B                     STR_32          equ	STR_1
  1479     086B                     STR_33          equ	STR_1
  1480     086B                     STR_35          equ	STR_1
  1481     086B                     STR_39          equ	STR_1
  1482     086B                     STR_40          equ	STR_1
  1483     086B                     STR_53          equ	STR_1
  1484     086B                     STR_54          equ	STR_1
  1485     086B                     STR_56          equ	STR_1
  1486     086B                     STR_57          equ	STR_1
  1487     086B                     STR_59          equ	STR_1
  1488     086B                     STR_60          equ	STR_1
  1489     086B                     STR_65          equ	STR_1
  1490     086B                     STR_66          equ	STR_1
  1491     0824                     STR_43          equ	STR_45+16
  1492     0824                     STR_49          equ	STR_45+16
  1493                           
  1494                           	psect	cinit
  1495     07C7                     start_initialization:	
  1496                           ; #config settings
  1497                           
  1498     07C7                     __initialization:
  1499                           
  1500                           ; Initialize objects allocated to BANK1
  1501     07C7  1383               	bcf	3,7	;select IRP bank0
  1502     07C8  30E9               	movlw	low (__pdataBANK1+31)
  1503     07C9  00FD               	movwf	btemp+-1
  1504     07CA  3011               	movlw	high __pidataBANK1
  1505     07CB  00FE               	movwf	btemp
  1506     07CC  30E6               	movlw	low __pidataBANK1
  1507     07CD  00FF               	movwf	btemp+1
  1508     07CE  30CA               	movlw	low __pdataBANK1
  1509     07CF  0084               	movwf	4
  1510     07D0  160A  118A  219A  120A  118A  	fcall	init_ram0
  1511                           
  1512                           ; Initialize objects allocated to BANK0
  1513     07D5  3070               	movlw	low (__pdataBANK0+10)
  1514     07D6  00FD               	movwf	btemp+-1
  1515     07D7  3011               	movlw	high __pidataBANK0
  1516     07D8  00FE               	movwf	btemp
  1517     07D9  3010               	movlw	low __pidataBANK0
  1518     07DA  00FF               	movwf	btemp+1
  1519     07DB  3066               	movlw	low __pdataBANK0
  1520     07DC  0084               	movwf	4
  1521     07DD  160A  118A  219A  120A  118A  	fcall	init_ram0
  1522                           
  1523                           ; Clear objects allocated to BANK3
  1524     07E2  1783               	bsf	3,7	;select IRP bank2
  1525     07E3  3090               	movlw	low __pbssBANK3
  1526     07E4  0084               	movwf	4
  1527     07E5  30E5               	movlw	low (__pbssBANK3+85)
  1528     07E6  160A  118A  20EC  120A  118A  	fcall	clear_ram0
  1529                           
  1530                           ; Clear objects allocated to BANK1
  1531     07EB  1383               	bcf	3,7	;select IRP bank0
  1532     07EC  30A0               	movlw	low __pbssBANK1
  1533     07ED  0084               	movwf	4
  1534     07EE  30CA               	movlw	low (__pbssBANK1+42)
  1535     07EF  160A  118A  20EC  120A  118A  	fcall	clear_ram0
  1536                           
  1537                           ; Clear objects allocated to BANK0
  1538     07F4  3051               	movlw	low __pbssBANK0
  1539     07F5  0084               	movwf	4
  1540     07F6  3066               	movlw	low (__pbssBANK0+21)
  1541     07F7  160A  118A  20EC  120A  118A  	fcall	clear_ram0
  1542     07FC                     end_of_initialization:	
  1543                           ;End of C runtime variable initialization code
  1544                           
  1545     07FC                     __end_of__initialization:
  1546     07FC  0183               	clrf	3
  1547     07FD  160A  118A  2E6F   	ljmp	_main	;jump to C main() function
  1548                           
  1549                           	psect	bssBANK0
  1550     0051                     __pbssBANK0:
  1551     0051                     login@blink:
  1552     0051                     	ds	2
  1553     0053                     _adc_val:
  1554     0053                     	ds	2
  1555     0055                     _pos:
  1556     0055                     	ds	2
  1557     0057                     change_password@index:
  1558     0057                     	ds	1
  1559     0058                     change_password@state:
  1560     0058                     	ds	1
  1561     0059                     set_time@secs:
  1562     0059                     	ds	1
  1563     005A                     set_time@mins:
  1564     005A                     	ds	1
  1565     005B                     set_time@hours:
  1566     005B                     	ds	1
  1567     005C                     set_time@field:
  1568     005C                     	ds	1
  1569     005D                     menu@select:
  1570     005D                     	ds	1
  1571     005E                     menu@top:
  1572     005E                     	ds	1
  1573     005F                     login@blink_state:
  1574     005F                     	ds	1
  1575     0060                     login@blocked:
  1576     0060                     	ds	1
  1577     0061                     login@index:
  1578     0061                     	ds	1
  1579     0062                     store_event@address:
  1580     0062                     	ds	1
  1581     0063                     _event_count:
  1582     0063                     	ds	1
  1583     0064                     _operation:
  1584     0064                     	ds	1
  1585     0065                     view_log@log_pos:
  1586     0065                     	ds	1
  1587                           
  1588                           	psect	dataBANK0
  1589     0066                     __pdataBANK0:
  1590     0066                     change_password@once:
  1591     0066                     	ds	1
  1592     0067                     set_time@visible:
  1593     0067                     	ds	1
  1594     0068                     set_time@once:
  1595     0068                     	ds	1
  1596     0069                     clear_log@once:
  1597     0069                     	ds	1
  1598     006A                     menu@redraw:
  1599     006A                     	ds	1
  1600     006B                     login@sec_left:
  1601     006B                     	ds	1
  1602     006C                     login@attempts:
  1603     006C                     	ds	1
  1604     006D                     login@once:
  1605     006D                     	ds	1
  1606     006E                     _old_menu_pos:
  1607     006E                     	ds	1
  1608     006F                     read_digital_keypad@once:
  1609     006F                     	ds	1
  1610                           
  1611                           	psect	bssBANK1
  1612     00A0                     __pbssBANK1:
  1613     00A0                     change_password@delay:
  1614     00A0                     	ds	4
  1615     00A4                     login@delay:
  1616     00A4                     	ds	4
  1617     00A8                     set_time@blink:
  1618     00A8                     	ds	2
  1619     00AA                     clear_log@delay:
  1620     00AA                     	ds	2
  1621     00AC                     _time:
  1622     00AC                     	ds	9
  1623     00B5                     change_password@temp2:
  1624     00B5                     	ds	5
  1625     00BA                     change_password@temp:
  1626     00BA                     	ds	5
  1627     00BF                     login@entered:
  1628     00BF                     	ds	5
  1629     00C4                     _speed:
  1630     00C4                     	ds	3
  1631     00C7                     _clock_reg:
  1632     00C7                     	ds	3
  1633                           
  1634                           	psect	dataBANK1
  1635     00CA                     __pdataBANK1:
  1636     00CA                     _event:
  1637     00CA                     	ds	16
  1638     00DA                     _str:
  1639     00DA                     	ds	10
  1640     00E4                     _password:
  1641     00E4                     	ds	5
  1642                           
  1643                           	psect	bssBANK3
  1644     0190                     __pbssBANK3:
  1645     0190                     _data:
  1646     0190                     	ds	85
  1647                           
  1648                           	psect	inittext
  1649     1196                     init_fetch0:	
  1650                           ;	Called with low address in FSR and high address in W
  1651                           
  1652     1196  087E               	movf	btemp,w
  1653     1197  008A               	movwf	10
  1654     1198  087F               	movf	btemp+1,w
  1655     1199  0082               	movwf	2
  1656     119A                     init_ram0:	
  1657                           ;Called with:
  1658                           ;	high address of idata address in btemp 
  1659                           ;	low address of idata address in btemp+1 
  1660                           ;	low address of data in FSR
  1661                           ;	high address + 1 of data in btemp-1
  1662                           
  1663     119A  160A  118A  2196  160A  118A  	fcall	init_fetch0
  1664     119F  0080               	movwf	0
  1665     11A0  0A84               	incf	4,f
  1666     11A1  0804               	movf	4,w
  1667     11A2  067D               	xorwf	btemp+-1,w
  1668     11A3  1903               	btfsc	3,2
  1669     11A4  3400               	retlw	0
  1670     11A5  0AFF               	incf	btemp+1,f
  1671     11A6  1903               	btfsc	3,2
  1672     11A7  0AFE               	incf	btemp,f
  1673     11A8  299A               	goto	init_ram0
  1674                           
  1675                           	psect	clrtext
  1676     10EC                     clear_ram0:	
  1677                           ;	Called with FSR containing the base address, and
  1678                           ;	W with the last address+1
  1679                           
  1680     10EC  0064               	clrwdt	;clear the watchdog before getting into this loop
  1681     10ED                     clrloop0:
  1682     10ED  0180               	clrf	0	;clear RAM location pointed to by FSR
  1683     10EE  0A84               	incf	4,f	;increment pointer
  1684     10EF  0604               	xorwf	4,w	;XOR with final address
  1685     10F0  1903               	btfsc	3,2	;have we reached the end yet?
  1686     10F1  3400               	retlw	0	;all done for this memory range, return
  1687     10F2  0604               	xorwf	4,w	;XOR again to restore value
  1688     10F3  28ED               	goto	clrloop0	;do the next byte
  1689                           
  1690                           	psect	cstackCOMMON
  1691     0070                     __pcstackCOMMON:
  1692     0070                     ?_init_clcd:
  1693     0070                     ?_init_digital_keypad:	
  1694                           ; 1 bytes @ 0x0
  1695                           
  1696     0070                     ?_init_ds1307:	
  1697                           ; 1 bytes @ 0x0
  1698                           
  1699     0070                     ?_init_uart:	
  1700                           ; 1 bytes @ 0x0
  1701                           
  1702     0070                     ?_read_digital_keypad:	
  1703                           ; 1 bytes @ 0x0
  1704                           
  1705     0070                     ?_dashboard:	
  1706                           ; 1 bytes @ 0x0
  1707                           
  1708     0070                     ?_login:	
  1709                           ; 1 bytes @ 0x0
  1710                           
  1711     0070                     ?_menu:	
  1712                           ; 1 bytes @ 0x0
  1713                           
  1714     0070                     ?_i2c_start:	
  1715                           ; 1 bytes @ 0x0
  1716                           
  1717     0070                     ?_i2c_stop:	
  1718                           ; 1 bytes @ 0x0
  1719                           
  1720     0070                     ?_i2c_rep_start:	
  1721                           ; 1 bytes @ 0x0
  1722                           
  1723     0070                     ?_i2c_read:	
  1724                           ; 1 bytes @ 0x0
  1725                           
  1726     0070                     ?_read_ds1307:	
  1727                           ; 1 bytes @ 0x0
  1728                           
  1729     0070                     ?_store_event:	
  1730                           ; 1 bytes @ 0x0
  1731                           
  1732     0070                     ?_view_log:	
  1733                           ; 1 bytes @ 0x0
  1734                           
  1735     0070                     ?_clear_log:	
  1736                           ; 1 bytes @ 0x0
  1737                           
  1738     0070                     ?_download_log:	
  1739                           ; 1 bytes @ 0x0
  1740                           
  1741     0070                     ?_set_time:	
  1742                           ; 1 bytes @ 0x0
  1743                           
  1744     0070                     ?_strcpy:	
  1745                           ; 1 bytes @ 0x0
  1746                           
  1747     0070                     ?_init_adc:	
  1748                           ; 1 bytes @ 0x0
  1749                           
  1750     0070                     ?_init_config:	
  1751                           ; 1 bytes @ 0x0
  1752                           
  1753     0070                     ?_main:	
  1754                           ; 1 bytes @ 0x0
  1755                           
  1756     0070                     ?_clcd_write:	
  1757                           ; 1 bytes @ 0x0
  1758                           
  1759     0070                     ?_init_display_controller:	
  1760                           ; 1 bytes @ 0x0
  1761                           
  1762     0070                     ?_read_external_eeprom:	
  1763                           ; 1 bytes @ 0x0
  1764                           
  1765     0070                     ?_i2c_wait_for_idle:	
  1766                           ; 1 bytes @ 0x0
  1767                           
  1768     0070                     ?_uart_putch:	
  1769                           ; 1 bytes @ 0x0
  1770                           
  1771     0070                     ?___bmul:	
  1772                           ; 1 bytes @ 0x0
  1773                           
  1774     0070                     ?_i2c_write:	
  1775                           ; 1 bytes @ 0x0
  1776                           
  1777     0070                     ?_strcmp:	
  1778                           ; 2 bytes @ 0x0
  1779                           
  1780     0070                     ?_read_adc:	
  1781                           ; 2 bytes @ 0x0
  1782                           
  1783     0070                     ?___awdiv:	
  1784                           ; 2 bytes @ 0x0
  1785                           
  1786     0070                     ?___awmod:	
  1787                           ; 2 bytes @ 0x0
  1788                           
  1789     0070                     ?___lwdiv:	
  1790                           ; 2 bytes @ 0x0
  1791                           
  1792     0070                     ?___lwmod:	
  1793                           ; 2 bytes @ 0x0
  1794                           
  1795     0070                     ?___lldiv:	
  1796                           ; 2 bytes @ 0x0
  1797                           
  1798     0070                     clcd_write@mode:	
  1799                           ; 4 bytes @ 0x0
  1800                           
  1801     0070                     i2c_read@ack:	
  1802                           ; 1 bytes @ 0x0
  1803                           
  1804     0070                     i2c_write@data:	
  1805                           ; 1 bytes @ 0x0
  1806                           
  1807     0070                     ___bmul@multiplicand:	
  1808                           ; 1 bytes @ 0x0
  1809                           
  1810     0070                     strcmp@l:	
  1811                           ; 1 bytes @ 0x0
  1812                           
  1813     0070                     strcpy@dest:	
  1814                           ; 1 bytes @ 0x0
  1815                           
  1816     0070                     ___awdiv@divisor:	
  1817                           ; 1 bytes @ 0x0
  1818                           
  1819     0070                     ___awmod@divisor:	
  1820                           ; 2 bytes @ 0x0
  1821                           
  1822     0070                     ___lwdiv@divisor:	
  1823                           ; 2 bytes @ 0x0
  1824                           
  1825     0070                     ___lwmod@divisor:	
  1826                           ; 2 bytes @ 0x0
  1827                           
  1828     0070                     ___lldiv@divisor:	
  1829                           ; 2 bytes @ 0x0
  1830                           
  1831     0070                     ??_init_digital_keypad:	
  1832                           ; 4 bytes @ 0x0
  1833                           
  1834     0070                     ??_init_uart:	
  1835                           ; 1 bytes @ 0x0
  1836                           
  1837     0070                     ??_read_digital_keypad:	
  1838                           ; 1 bytes @ 0x0
  1839                           
  1840     0070                     ??_i2c_start:	
  1841                           ; 1 bytes @ 0x0
  1842                           
  1843     0070                     ??_i2c_write:	
  1844                           ; 1 bytes @ 0x0
  1845                           
  1846     0070                     ??_i2c_stop:	
  1847                           ; 1 bytes @ 0x0
  1848                           
  1849     0070                     ??_i2c_rep_start:	
  1850                           ; 1 bytes @ 0x0
  1851                           
  1852     0070                     ??_i2c_read:	
  1853                           ; 1 bytes @ 0x0
  1854                           
  1855     0070                     ??_init_adc:	
  1856                           ; 1 bytes @ 0x0
  1857                           
  1858     0070                     ??_i2c_wait_for_idle:	
  1859                           ; 1 bytes @ 0x0
  1860                           
  1861                           
  1862                           ; 1 bytes @ 0x0
  1863     0070                     	ds	1
  1864     0071                     ?_write_external_eeprom:
  1865     0071                     write_external_eeprom@data:	
  1866                           ; 1 bytes @ 0x1
  1867                           
  1868     0071                     read_digital_keypad@mode:	
  1869                           ; 1 bytes @ 0x1
  1870                           
  1871     0071                     i2c_read@data:	
  1872                           ; 1 bytes @ 0x1
  1873                           
  1874     0071                     ___bmul@product:	
  1875                           ; 1 bytes @ 0x1
  1876                           
  1877     0071                     strcmp@r:	
  1878                           ; 1 bytes @ 0x1
  1879                           
  1880     0071                     strcpy@src:	
  1881                           ; 1 bytes @ 0x1
  1882                           
  1883     0071                     ??_clcd_write:	
  1884                           ; 1 bytes @ 0x1
  1885                           
  1886     0071                     ??___bmul:	
  1887                           ; 1 bytes @ 0x1
  1888                           
  1889                           
  1890                           ; 1 bytes @ 0x1
  1891     0071                     	ds	1
  1892     0072                     read_external_eeprom@address:
  1893     0072                     read_ds1307@addr:	
  1894                           ; 1 bytes @ 0x2
  1895                           
  1896     0072                     ___bmul@multiplier:	
  1897                           ; 1 bytes @ 0x2
  1898                           
  1899     0072                     strcpy@d:	
  1900                           ; 1 bytes @ 0x2
  1901                           
  1902     0072                     write_external_eeprom@wait:	
  1903                           ; 1 bytes @ 0x2
  1904                           
  1905     0072                     ___awdiv@dividend:	
  1906                           ; 2 bytes @ 0x2
  1907                           
  1908     0072                     ___awmod@dividend:	
  1909                           ; 2 bytes @ 0x2
  1910                           
  1911     0072                     ___lwdiv@dividend:	
  1912                           ; 2 bytes @ 0x2
  1913                           
  1914     0072                     ___lwmod@dividend:	
  1915                           ; 2 bytes @ 0x2
  1916                           
  1917     0072                     ??_read_ds1307:	
  1918                           ; 2 bytes @ 0x2
  1919                           
  1920     0072                     ??_strcmp:	
  1921                           ; 1 bytes @ 0x2
  1922                           
  1923     0072                     ??_strcpy:	
  1924                           ; 1 bytes @ 0x2
  1925                           
  1926     0072                     ??_read_adc:	
  1927                           ; 1 bytes @ 0x2
  1928                           
  1929     0072                     ??_write_external_eeprom:	
  1930                           ; 1 bytes @ 0x2
  1931                           
  1932     0072                     ??_read_external_eeprom:	
  1933                           ; 1 bytes @ 0x2
  1934                           
  1935                           
  1936                           ; 1 bytes @ 0x2
  1937     0072                     	ds	1
  1938     0073                     clcd_write@byte:
  1939     0073                     read_external_eeprom@data:	
  1940                           ; 1 bytes @ 0x3
  1941                           
  1942     0073                     read_ds1307@data:	
  1943                           ; 1 bytes @ 0x3
  1944                           
  1945     0073                     read_adc@adc_reg_val:	
  1946                           ; 1 bytes @ 0x3
  1947                           
  1948                           
  1949                           ; 2 bytes @ 0x3
  1950     0073                     	ds	1
  1951     0074                     ?_clcd_print:
  1952     0074                     ?_get_time:	
  1953                           ; 1 bytes @ 0x4
  1954                           
  1955     0074                     write_external_eeprom@address:	
  1956                           ; 1 bytes @ 0x4
  1957                           
  1958     0074                     get_time@clock_reg:	
  1959                           ; 1 bytes @ 0x4
  1960                           
  1961     0074                     uart_putch@data:	
  1962                           ; 1 bytes @ 0x4
  1963                           
  1964     0074                     ___awdiv@counter:	
  1965                           ; 1 bytes @ 0x4
  1966                           
  1967     0074                     ___awmod@counter:	
  1968                           ; 1 bytes @ 0x4
  1969                           
  1970     0074                     ___lwmod@counter:	
  1971                           ; 1 bytes @ 0x4
  1972                           
  1973     0074                     clcd_print@str:	
  1974                           ; 1 bytes @ 0x4
  1975                           
  1976     0074                     ___lwdiv@quotient:	
  1977                           ; 2 bytes @ 0x4
  1978                           
  1979     0074                     ___lldiv@dividend:	
  1980                           ; 2 bytes @ 0x4
  1981                           
  1982     0074                     ??_init_display_controller:	
  1983                           ; 4 bytes @ 0x4
  1984                           
  1985     0074                     ??_uart_putch:	
  1986                           ; 1 bytes @ 0x4
  1987                           
  1988     0074                     ??___awdiv:	
  1989                           ; 1 bytes @ 0x4
  1990                           
  1991     0074                     ??___awmod:	
  1992                           ; 1 bytes @ 0x4
  1993                           
  1994     0074                     ??___lwdiv:	
  1995                           ; 1 bytes @ 0x4
  1996                           
  1997     0074                     ??___lwmod:	
  1998                           ; 1 bytes @ 0x4
  1999                           
  2000                           
  2001                           ; 1 bytes @ 0x4
  2002     0074                     	ds	1
  2003     0075                     ?_uart_puts:
  2004     0075                     read_adc@channel:	
  2005                           ; 1 bytes @ 0x5
  2006                           
  2007     0075                     ___awdiv@sign:	
  2008                           ; 1 bytes @ 0x5
  2009                           
  2010     0075                     ___awmod@sign:	
  2011                           ; 1 bytes @ 0x5
  2012                           
  2013     0075                     uart_puts@str:	
  2014                           ; 1 bytes @ 0x5
  2015                           
  2016     0075                     ??_store_event:	
  2017                           ; 2 bytes @ 0x5
  2018                           
  2019     0075                     ??_get_time:	
  2020                           ; 1 bytes @ 0x5
  2021                           
  2022                           
  2023                           ; 1 bytes @ 0x5
  2024     0075                     	ds	1
  2025     0076                     ?___xxtofl:
  2026     0076                     clcd_print@addr:	
  2027                           ; 4 bytes @ 0x6
  2028                           
  2029     0076                     ___lwdiv@counter:	
  2030                           ; 1 bytes @ 0x6
  2031                           
  2032     0076                     ___awdiv@quotient:	
  2033                           ; 1 bytes @ 0x6
  2034                           
  2035     0076                     ___xxtofl@val:	
  2036                           ; 2 bytes @ 0x6
  2037                           
  2038     0076                     ??_init_clcd:	
  2039                           ; 4 bytes @ 0x6
  2040                           
  2041                           
  2042                           ; 1 bytes @ 0x6
  2043     0076                     	ds	1
  2044     0077                     ?_display_time:
  2045     0077                     display_time@clock_reg:	
  2046                           ; 1 bytes @ 0x7
  2047                           
  2048     0077                     ??_clcd_print:	
  2049                           ; 1 bytes @ 0x7
  2050                           
  2051     0077                     ??_view_log:	
  2052                           ; 1 bytes @ 0x7
  2053                           
  2054     0077                     ??_clear_log:	
  2055                           ; 1 bytes @ 0x7
  2056                           
  2057     0077                     ??_download_log:	
  2058                           ; 1 bytes @ 0x7
  2059                           
  2060     0077                     ??_uart_puts:	
  2061                           ; 1 bytes @ 0x7
  2062                           
  2063                           
  2064                           ; 1 bytes @ 0x7
  2065     0077                     	ds	1
  2066     0078                     ?_write_ds1307:
  2067     0078                     ?_clcd_putch:	
  2068                           ; 1 bytes @ 0x8
  2069                           
  2070     0078                     clcd_putch@addr:	
  2071                           ; 1 bytes @ 0x8
  2072                           
  2073     0078                     write_ds1307@data:	
  2074                           ; 1 bytes @ 0x8
  2075                           
  2076     0078                     ??_display_time:	
  2077                           ; 1 bytes @ 0x8
  2078                           
  2079     0078                     ??___lldiv:	
  2080                           ; 1 bytes @ 0x8
  2081                           
  2082                           
  2083                           ; 1 bytes @ 0x8
  2084     0078                     	ds	1
  2085     0079                     clcd_putch@data:
  2086     0079                     write_ds1307@addr:	
  2087                           ; 1 bytes @ 0x9
  2088                           
  2089     0079                     display_time@hr:	
  2090                           ; 1 bytes @ 0x9
  2091                           
  2092     0079                     ___lldiv@quotient:	
  2093                           ; 1 bytes @ 0x9
  2094                           
  2095     0079                     ??_write_ds1307:	
  2096                           ; 4 bytes @ 0x9
  2097                           
  2098     0079                     ??_clcd_putch:	
  2099                           ; 1 bytes @ 0x9
  2100                           
  2101                           
  2102                           ; 1 bytes @ 0x9
  2103     0079                     	ds	1
  2104     007A                     ?_change_password:
  2105     007A                     init_ds1307@dummy:	
  2106                           ; 2 bytes @ 0xA
  2107                           
  2108     007A                     display_time@sec:	
  2109                           ; 1 bytes @ 0xA
  2110                           
  2111     007A                     download_log@i:	
  2112                           ; 1 bytes @ 0xA
  2113                           
  2114     007A                     ??_init_ds1307:	
  2115                           ; 1 bytes @ 0xA
  2116                           
  2117     007A                     ??_login:	
  2118                           ; 1 bytes @ 0xA
  2119                           
  2120     007A                     ??___xxtofl:	
  2121                           ; 1 bytes @ 0xA
  2122                           
  2123                           
  2124                           ; 1 bytes @ 0xA
  2125     007A                     	ds	1
  2126     007B                     download_log@addr:
  2127                           
  2128                           ; 1 bytes @ 0xB
  2129     007B                     	ds	1
  2130     007C                     change_password@key:
  2131     007C                     store_event@i:	
  2132                           ; 1 bytes @ 0xC
  2133                           
  2134                           
  2135                           ; 2 bytes @ 0xC
  2136     007C                     	ds	1
  2137     007D                     ___lldiv@counter:
  2138                           
  2139                           ; 1 bytes @ 0xD
  2140     007D                     	ds	1
  2141     007E                     ??_init_config:
  2142     007E                     ??_main:	
  2143                           ; 1 bytes @ 0xE
  2144                           
  2145                           
  2146                           	psect	cstackBANK0
  2147     0020                     __pcstackBANK0:	
  2148                           ; 1 bytes @ 0xE
  2149                           
  2150     0020                     ?_init_i2c:
  2151     0020                     login@key:	
  2152                           ; 1 bytes @ 0x0
  2153                           
  2154     0020                     ___xxtofl@sign:	
  2155                           ; 1 bytes @ 0x0
  2156                           
  2157     0020                     init_i2c@baud:	
  2158                           ; 1 bytes @ 0x0
  2159                           
  2160     0020                     view_log@log:	
  2161                           ; 4 bytes @ 0x0
  2162                           
  2163     0020                     ??_set_time:	
  2164                           ; 17 bytes @ 0x0
  2165                           
  2166     0020                     ??_change_password:	
  2167                           ; 1 bytes @ 0x0
  2168                           
  2169                           
  2170                           ; 1 bytes @ 0x0
  2171     0020                     	ds	1
  2172     0021                     ___xxtofl@exp:
  2173     0021                     login@i:	
  2174                           ; 1 bytes @ 0x1
  2175                           
  2176                           
  2177                           ; 4 bytes @ 0x1
  2178     0021                     	ds	1
  2179     0022                     ___xxtofl@arg:
  2180                           
  2181                           ; 4 bytes @ 0x2
  2182     0022                     	ds	2
  2183     0024                     ??_init_i2c:
  2184                           
  2185                           ; 1 bytes @ 0x4
  2186     0024                     	ds	2
  2187     0026                     ?___fldiv:
  2188     0026                     ___fldiv@a:	
  2189                           ; 4 bytes @ 0x6
  2190                           
  2191                           
  2192                           ; 4 bytes @ 0x6
  2193     0026                     	ds	1
  2194     0027                     set_time@temp:
  2195                           
  2196                           ; 9 bytes @ 0x7
  2197     0027                     	ds	3
  2198     002A                     ___fldiv@b:
  2199                           
  2200                           ; 4 bytes @ 0xA
  2201     002A                     	ds	4
  2202     002E                     ??___fldiv:
  2203                           
  2204                           ; 1 bytes @ 0xE
  2205     002E                     	ds	2
  2206     0030                     set_time@key:
  2207                           
  2208                           ; 1 bytes @ 0x10
  2209     0030                     	ds	1
  2210     0031                     view_log@key:
  2211                           
  2212                           ; 1 bytes @ 0x11
  2213     0031                     	ds	1
  2214     0032                     view_log@addr:
  2215                           
  2216                           ; 1 bytes @ 0x12
  2217     0032                     	ds	1
  2218     0033                     ___fldiv@rem:
  2219     0033                     ??_menu:	
  2220                           ; 4 bytes @ 0x13
  2221                           
  2222                           
  2223                           ; 1 bytes @ 0x13
  2224     0033                     	ds	2
  2225     0035                     menu@ret_355:
  2226                           
  2227                           ; 2 bytes @ 0x15
  2228     0035                     	ds	2
  2229     0037                     menu@menu_pos:
  2230     0037                     ___fldiv@sign:	
  2231                           ; 1 bytes @ 0x17
  2232                           
  2233                           
  2234                           ; 1 bytes @ 0x17
  2235     0037                     	ds	1
  2236     0038                     menu@ret:
  2237     0038                     ___fldiv@new_exp:	
  2238                           ; 2 bytes @ 0x18
  2239                           
  2240                           
  2241                           ; 2 bytes @ 0x18
  2242     0038                     	ds	2
  2243     003A                     menu@key:
  2244     003A                     ___fldiv@grs:	
  2245                           ; 1 bytes @ 0x1A
  2246                           
  2247                           
  2248                           ; 4 bytes @ 0x1A
  2249     003A                     	ds	4
  2250     003E                     ___fldiv@bexp:
  2251                           
  2252                           ; 1 bytes @ 0x1E
  2253     003E                     	ds	1
  2254     003F                     ___fldiv@aexp:
  2255                           
  2256                           ; 1 bytes @ 0x1F
  2257     003F                     	ds	1
  2258     0040                     ?___fltol:
  2259     0040                     ___fltol@f1:	
  2260                           ; 4 bytes @ 0x20
  2261                           
  2262                           
  2263                           ; 4 bytes @ 0x20
  2264     0040                     	ds	4
  2265     0044                     ??___fltol:
  2266                           
  2267                           ; 1 bytes @ 0x24
  2268     0044                     	ds	4
  2269     0048                     ___fltol@sign1:
  2270                           
  2271                           ; 1 bytes @ 0x28
  2272     0048                     	ds	1
  2273     0049                     ___fltol@exp1:
  2274                           
  2275                           ; 1 bytes @ 0x29
  2276     0049                     	ds	1
  2277     004A                     ??_dashboard:
  2278                           
  2279                           ; 1 bytes @ 0x2A
  2280     004A                     	ds	4
  2281     004E                     dashboard@key:
  2282                           
  2283                           ; 1 bytes @ 0x2E
  2284     004E                     	ds	1
  2285     004F                     main@ret:
  2286                           
  2287                           ; 1 bytes @ 0x2F
  2288     004F                     	ds	1
  2289     0050                     main@key:
  2290                           
  2291                           ; 1 bytes @ 0x30
  2292     0050                     	ds	1
  2293                           
  2294                           	psect	maintext
  2295     166F                     __pmaintext:	
  2296 ;;
  2297 ;;Main: autosize = 0, tempsize = 0, incstack = 0, save=0
  2298 ;;
  2299 ;; *************** function _main *****************
  2300 ;; Defined at:
  2301 ;;		line 24 in file "main.c"
  2302 ;; Parameters:    Size  Location     Type
  2303 ;;		None
  2304 ;; Auto vars:     Size  Location     Type
  2305 ;;  key             1   48[BANK0 ] unsigned char 
  2306 ;;  ret             1   47[BANK0 ] unsigned char 
  2307 ;; Return value:  Size  Location     Type
  2308 ;;                  1    wreg      void 
  2309 ;; Registers used:
  2310 ;;		wreg, fsr0l, fsr0h, status,2, status,0, pclath, btemp1, cstack
  2311 ;; Tracked objects:
  2312 ;;		On entry : B00/0
  2313 ;;		On exit  : 0/0
  2314 ;;		Unchanged: 0/0
  2315 ;; Data sizes:     COMMON   BANK0   BANK1   BANK3   BANK2
  2316 ;;      Params:         0       0       0       0       0
  2317 ;;      Locals:         0       2       0       0       0
  2318 ;;      Temps:          0       0       0       0       0
  2319 ;;      Totals:         0       2       0       0       0
  2320 ;;Total ram usage:        2 bytes
  2321 ;; Hardware stack levels required when called: 6
  2322 ;; This function calls:
  2323 ;;		_clcd_print
  2324 ;;		_dashboard
  2325 ;;		_init_config
  2326 ;;		_login
  2327 ;;		_menu
  2328 ;;		_read_digital_keypad
  2329 ;; This function is called by:
  2330 ;;		Startup code after reset
  2331 ;; This function uses a non-reentrant model
  2332 ;;
  2333                           
  2334     166F                     _main:	
  2335                           ;psect for function _main
  2336                           
  2337     166F                     l3884:	
  2338                           ;incstack = 0
  2339                           ; Regs used in _main: [wreg-fsr0h+status,2+status,0+pclath+btemp1+cstack]
  2340                           
  2341                           
  2342                           ;main.c: 25:     init_config();
  2343     166F  160A  118A  2294  160A  118A  	fcall	_init_config
  2344     1674                     l55:	
  2345                           ;main.c: 26:     unsigned char key;;main.c: 27:     unsigned char ret;;main.c: 29:     w
      +                          hile(1)
  2346                           
  2347                           
  2348                           ;main.c: 30:     {;main.c: 31:         key = read_digital_keypad(1);
  2349     1674  3001               	movlw	1
  2350     1675  160A  118A  22BD  160A  118A  	fcall	_read_digital_keypad
  2351     167A  1283               	bcf	3,5	;RP0=0, select bank0
  2352     167B  1303               	bcf	3,6	;RP1=0, select bank0
  2353     167C  00D0               	movwf	main@key
  2354     167D                     l3886:
  2355                           
  2356                           ;main.c: 33:         if(operation == 0)
  2357     167D  0864               	movf	_operation,w
  2358     167E  1D03               	btfss	3,2
  2359     167F  2E81               	goto	u4271
  2360     1680  2E82               	goto	u4270
  2361     1681                     u4271:
  2362     1681  2EC8               	goto	l3908
  2363     1682                     u4270:
  2364     1682                     l3888:
  2365                           
  2366                           ;main.c: 34:         {;main.c: 35:             dashboard(key);
  2367     1682  0850               	movf	main@key,w
  2368     1683  120A  158A  23F4  160A  118A  	fcall	_dashboard
  2369     1688                     l3890:
  2370                           
  2371                           ;main.c: 37:             if(key == 0x37)
  2372     1688  3037               	movlw	55
  2373     1689  1283               	bcf	3,5	;RP0=0, select bank0
  2374     168A  1303               	bcf	3,6	;RP1=0, select bank0
  2375     168B  0650               	xorwf	main@key,w
  2376     168C  1D03               	btfss	3,2
  2377     168D  2E8F               	goto	u4281
  2378     168E  2E90               	goto	u4280
  2379     168F                     u4281:
  2380     168F  2E74               	goto	l55
  2381     1690                     u4280:
  2382     1690                     l3892:
  2383                           
  2384                           ;main.c: 38:             {;main.c: 39:                 clcd_print("                ", (0
      +                          x80 + 0));
  2385     1690  306B               	movlw	low (STR_1| (0+32768))
  2386     1691  00F4               	movwf	clcd_print@str
  2387     1692  3088               	movlw	high (STR_1| (0+32768))
  2388     1693  00F5               	movwf	clcd_print@str+1
  2389     1694  3080               	movlw	128
  2390     1695  00F6               	movwf	clcd_print@addr
  2391     1696  160A  118A  233D  160A  118A  	fcall	_clcd_print
  2392                           
  2393                           ;main.c: 40:                 clcd_print("                ", (0xC0 + 0));
  2394     169B  306B               	movlw	low (STR_1| (0+32768))
  2395     169C  00F4               	movwf	clcd_print@str
  2396     169D  3088               	movlw	high (STR_1| (0+32768))
  2397     169E  00F5               	movwf	clcd_print@str+1
  2398     169F  30C0               	movlw	192
  2399     16A0  00F6               	movwf	clcd_print@addr
  2400     16A1  160A  118A  233D  160A  118A  	fcall	_clcd_print
  2401     16A6                     l3894:
  2402                           
  2403                           ;main.c: 43:                 {;main.c: 44:                     key = read_digital_keypad
      +                          (1);
  2404     16A6  3001               	movlw	1
  2405     16A7  160A  118A  22BD  160A  118A  	fcall	_read_digital_keypad
  2406     16AC  1283               	bcf	3,5	;RP0=0, select bank0
  2407     16AD  1303               	bcf	3,6	;RP1=0, select bank0
  2408     16AE  00D0               	movwf	main@key
  2409     16AF                     l3896:
  2410                           
  2411                           ;main.c: 46:                     ret = login(key);
  2412     16AF  0850               	movf	main@key,w
  2413     16B0  120A  118A  2342  160A  118A  	fcall	_login
  2414     16B5  1283               	bcf	3,5	;RP0=0, select bank0
  2415     16B6  1303               	bcf	3,6	;RP1=0, select bank0
  2416     16B7  00CF               	movwf	main@ret
  2417     16B8                     l3898:
  2418                           
  2419                           ;main.c: 48:                     if(ret == 1)
  2420     16B8  034F               	decf	main@ret,w
  2421     16B9  1D03               	btfss	3,2
  2422     16BA  2EBC               	goto	u4291
  2423     16BB  2EBD               	goto	u4290
  2424     16BC                     u4291:
  2425     16BC  2EC0               	goto	l3904
  2426     16BD                     u4290:
  2427     16BD                     l3900:
  2428                           
  2429                           ;main.c: 49:                     {;main.c: 50:                         operation = 1;
  2430     16BD  3001               	movlw	1
  2431     16BE  00E4               	movwf	_operation
  2432                           
  2433                           ;main.c: 51:                         break;
  2434     16BF  2E74               	goto	l55
  2435     16C0                     l3904:
  2436     16C0  3002               	movlw	2
  2437     16C1  064F               	xorwf	main@ret,w
  2438     16C2  1D03               	btfss	3,2
  2439     16C3  2EC5               	goto	u4301
  2440     16C4  2EC6               	goto	u4300
  2441     16C5                     u4301:
  2442     16C5  2EA6               	goto	l3894
  2443     16C6                     u4300:
  2444     16C6                     l3906:
  2445                           
  2446                           ;main.c: 58:                     {;main.c: 59:                         operation = 0;
  2447     16C6  01E4               	clrf	_operation
  2448                           
  2449                           ;main.c: 60:                         break;
  2450     16C7  2E74               	goto	l55
  2451     16C8                     l3908:
  2452     16C8  0364               	decf	_operation,w
  2453     16C9  1D03               	btfss	3,2
  2454     16CA  2ECC               	goto	u4311
  2455     16CB  2ECD               	goto	u4310
  2456     16CC                     u4311:
  2457     16CC  2E74               	goto	l55
  2458     16CD                     u4310:
  2459     16CD                     l3910:
  2460                           
  2461                           ;main.c: 66:         {;main.c: 67:             menu(key);
  2462     16CD  0850               	movf	main@key,w
  2463     16CE  120A  118A  2010  160A  118A  	fcall	_menu
  2464     16D3  2E74               	goto	l55
  2465     16D4  120A  118A  2800   	ljmp	start
  2466     16D7                     __end_of_main:
  2467                           
  2468                           	psect	text1
  2469     0010                     __ptext1:	
  2470 ;; *************** function _menu *****************
  2471 ;; Defined at:
  2472 ;;		line 180 in file "menu.c"
  2473 ;; Parameters:    Size  Location     Type
  2474 ;;  key             1    wreg     unsigned char 
  2475 ;; Auto vars:     Size  Location     Type
  2476 ;;  key             1   26[BANK0 ] unsigned char 
  2477 ;;  ret             2   21[BANK0 ] int 
  2478 ;;  ret             2   24[BANK0 ] int 
  2479 ;;  menu_pos        1   23[BANK0 ] unsigned char 
  2480 ;; Return value:  Size  Location     Type
  2481 ;;                  1    wreg      void 
  2482 ;; Registers used:
  2483 ;;		wreg, fsr0l, fsr0h, status,2, status,0, pclath, btemp1, cstack
  2484 ;; Tracked objects:
  2485 ;;		On entry : 0/0
  2486 ;;		On exit  : 0/0
  2487 ;;		Unchanged: 0/0
  2488 ;; Data sizes:     COMMON   BANK0   BANK1   BANK3   BANK2
  2489 ;;      Params:         0       0       0       0       0
  2490 ;;      Locals:         0       6       0       0       0
  2491 ;;      Temps:          0       2       0       0       0
  2492 ;;      Totals:         0       8       0       0       0
  2493 ;;Total ram usage:        8 bytes
  2494 ;; Hardware stack levels used: 1
  2495 ;; Hardware stack levels required when called: 3
  2496 ;; This function calls:
  2497 ;;		_change_password
  2498 ;;		_clcd_print
  2499 ;;		_clcd_putch
  2500 ;;		_clear_log
  2501 ;;		_download_log
  2502 ;;		_read_digital_keypad
  2503 ;;		_set_time
  2504 ;;		_view_log
  2505 ;; This function is called by:
  2506 ;;		_main
  2507 ;; This function uses a non-reentrant model
  2508 ;;
  2509                           
  2510     0010                     _menu:	
  2511                           ;psect for function _menu
  2512                           
  2513                           
  2514                           ;incstack = 0
  2515                           ; Regs used in _menu: [wreg-fsr0h+status,2+status,0+pclath+btemp1+cstack]
  2516                           ;menu@key stored from wreg
  2517     0010  1283               	bcf	3,5	;RP0=0, select bank0
  2518     0011  1303               	bcf	3,6	;RP1=0, select bank0
  2519     0012  00BA               	movwf	menu@key
  2520     0013                     l3782:
  2521                           
  2522                           ;menu.c: 180: void menu(unsigned char key);menu.c: 181: {;menu.c: 182:     static unsign
      +                          ed char top = 0;;menu.c: 183:     static unsigned char select = 0;;menu.c: 184:     stat
      +                          ic unsigned char redraw = 1;;menu.c: 187:     if(key == 0x3E)
  2523     0013  303E               	movlw	62
  2524     0014  063A               	xorwf	menu@key,w
  2525     0015  1D03               	btfss	3,2
  2526     0016  2818               	goto	u4111
  2527     0017  2819               	goto	u4110
  2528     0018                     u4111:
  2529     0018  282C               	goto	l3796
  2530     0019                     u4110:
  2531     0019                     l3784:
  2532                           
  2533                           ;menu.c: 188:     {;menu.c: 189:         if(select == 1)
  2534     0019  035D               	decf	menu@select,w
  2535     001A  1D03               	btfss	3,2
  2536     001B  281D               	goto	u4121
  2537     001C  281E               	goto	u4120
  2538     001D                     u4121:
  2539     001D  2824               	goto	l3790
  2540     001E                     u4120:
  2541     001E                     l3786:
  2542                           
  2543                           ;menu.c: 190:         {;menu.c: 191:             select = 0;
  2544     001E  01DD               	clrf	menu@select
  2545     001F                     l3788:
  2546                           
  2547                           ;menu.c: 192:             redraw = 1;
  2548     001F  3001               	movlw	1
  2549     0020  1283               	bcf	3,5	;RP0=0, select bank0
  2550     0021  1303               	bcf	3,6	;RP1=0, select bank0
  2551     0022  00EA               	movwf	menu@redraw
  2552                           
  2553                           ;menu.c: 193:         }
  2554     0023  28E4               	goto	l3858
  2555     0024                     l3790:
  2556                           
  2557                           ;menu.c: 195:         {;menu.c: 196:             if(top > 0)
  2558     0024  085E               	movf	menu@top,w
  2559     0025  1903               	btfsc	3,2
  2560     0026  2828               	goto	u4131
  2561     0027  2829               	goto	u4130
  2562     0028                     u4131:
  2563     0028  28E4               	goto	l3858
  2564     0029                     u4130:
  2565     0029                     l3792:
  2566                           
  2567                           ;menu.c: 197:             {;menu.c: 198:                 top--;
  2568     0029  3001               	movlw	1
  2569     002A  02DE               	subwf	menu@top,f
  2570     002B  281F               	goto	l3788
  2571     002C                     l3796:
  2572     002C  303D               	movlw	61
  2573     002D  063A               	xorwf	menu@key,w
  2574     002E  1D03               	btfss	3,2
  2575     002F  2831               	goto	u4141
  2576     0030  2832               	goto	u4140
  2577     0031                     u4141:
  2578     0031  2845               	goto	l3808
  2579     0032                     u4140:
  2580     0032                     l3798:
  2581                           
  2582                           ;menu.c: 206:     {;menu.c: 207:         if(select == 0)
  2583     0032  085D               	movf	menu@select,w
  2584     0033  1D03               	btfss	3,2
  2585     0034  2836               	goto	u4151
  2586     0035  2837               	goto	u4150
  2587     0036                     u4151:
  2588     0036  283C               	goto	l3802
  2589     0037                     u4150:
  2590     0037                     l3800:
  2591                           
  2592                           ;menu.c: 208:         {;menu.c: 209:             select = 1;
  2593     0037  3001               	movlw	1
  2594     0038  00DD               	movwf	menu@select
  2595                           
  2596                           ;menu.c: 210:             redraw = 1;
  2597     0039  3001               	movlw	1
  2598     003A  00EA               	movwf	menu@redraw
  2599                           
  2600                           ;menu.c: 211:         }
  2601     003B  28E4               	goto	l3858
  2602     003C                     l3802:
  2603                           
  2604                           ;menu.c: 213:         {;menu.c: 214:             if(top < 3)
  2605     003C  3003               	movlw	3
  2606     003D  025E               	subwf	menu@top,w
  2607     003E  1803               	skipnc
  2608     003F  2841               	goto	u4161
  2609     0040  2842               	goto	u4160
  2610     0041                     u4161:
  2611     0041  28E4               	goto	l3858
  2612     0042                     u4160:
  2613     0042                     l3804:
  2614                           
  2615                           ;menu.c: 215:             {;menu.c: 216:                 top++;
  2616     0042  3001               	movlw	1
  2617     0043  07DE               	addwf	menu@top,f
  2618     0044  281F               	goto	l3788
  2619     0045                     l3808:
  2620     0045  3037               	movlw	55
  2621     0046  063A               	xorwf	menu@key,w
  2622     0047  1D03               	btfss	3,2
  2623     0048  284A               	goto	u4171
  2624     0049  284B               	goto	u4170
  2625     004A                     u4171:
  2626     004A  28E4               	goto	l3858
  2627     004B                     u4170:
  2628     004B                     l3810:
  2629                           
  2630                           ;menu.c: 224:     {;menu.c: 225:         unsigned char menu_pos;;menu.c: 227:         me
      +                          nu_pos = top + select;
  2631     004B  085D               	movf	menu@select,w
  2632     004C  075E               	addwf	menu@top,w
  2633     004D  00B7               	movwf	menu@menu_pos
  2634                           
  2635                           ;menu.c: 229:         switch(menu_pos)
  2636     004E  28D3               	goto	l3856
  2637     004F                     l3812:
  2638                           
  2639                           ;menu.c: 233:                 {;menu.c: 234:                     key = read_digital_keyp
      +                          ad(1);
  2640     004F  3001               	movlw	1
  2641     0050  160A  118A  22BD  120A  118A  	fcall	_read_digital_keypad
  2642     0055  1283               	bcf	3,5	;RP0=0, select bank0
  2643     0056  1303               	bcf	3,6	;RP1=0, select bank0
  2644     0057  00BA               	movwf	menu@key
  2645     0058                     l3814:
  2646                           
  2647                           ;menu.c: 235:                     view_log(key);
  2648     0058  083A               	movf	menu@key,w
  2649     0059  120A  158A  22F8  120A  118A  	fcall	_view_log
  2650     005E                     l3816:
  2651                           
  2652                           ;menu.c: 237:                     if(key == 0x2F)
  2653     005E  302F               	movlw	47
  2654     005F  1283               	bcf	3,5	;RP0=0, select bank0
  2655     0060  1303               	bcf	3,6	;RP1=0, select bank0
  2656     0061  063A               	xorwf	menu@key,w
  2657     0062  1D03               	btfss	3,2
  2658     0063  2865               	goto	u4181
  2659     0064  2866               	goto	u4180
  2660     0065                     u4181:
  2661     0065  284F               	goto	l3812
  2662     0066                     u4180:
  2663     0066  281F               	goto	l3788
  2664     0067                     l3820:
  2665                           
  2666                           ;menu.c: 246:                 clear_log();
  2667     0067  160A  118A  2446  120A  118A  	fcall	_clear_log
  2668                           
  2669                           ;menu.c: 247:                 break;
  2670     006C  281F               	goto	l3788
  2671     006D                     l3822:
  2672                           
  2673                           ;menu.c: 251:                 download_log();
  2674     006D  120A  158A  2509  120A  118A  	fcall	_download_log
  2675                           
  2676                           ;menu.c: 252:                 break;
  2677     0072  281F               	goto	l3788
  2678     0073                     l3824:
  2679                           
  2680                           ;menu.c: 256:                 clcd_print("                ", (0x80 + 0));
  2681     0073  306B               	movlw	low (STR_1| (0+32768))
  2682     0074  00F4               	movwf	clcd_print@str
  2683     0075  3088               	movlw	high (STR_1| (0+32768))
  2684     0076  00F5               	movwf	clcd_print@str+1
  2685     0077  3080               	movlw	128
  2686     0078  00F6               	movwf	clcd_print@addr
  2687     0079  160A  118A  233D  120A  118A  	fcall	_clcd_print
  2688                           
  2689                           ;menu.c: 257:                 clcd_print("                ", (0xC0 + 0));
  2690     007E  306B               	movlw	low (STR_1| (0+32768))
  2691     007F  00F4               	movwf	clcd_print@str
  2692     0080  3088               	movlw	high (STR_1| (0+32768))
  2693     0081  00F5               	movwf	clcd_print@str+1
  2694     0082  30C0               	movlw	192
  2695     0083  00F6               	movwf	clcd_print@addr
  2696     0084  160A  118A  233D  120A  118A  	fcall	_clcd_print
  2697     0089                     l3826:
  2698                           
  2699                           ;menu.c: 259:                 {;menu.c: 260:                     key = read_digital_keyp
      +                          ad(1);
  2700     0089  3001               	movlw	1
  2701     008A  160A  118A  22BD  120A  118A  	fcall	_read_digital_keypad
  2702     008F  1283               	bcf	3,5	;RP0=0, select bank0
  2703     0090  1303               	bcf	3,6	;RP1=0, select bank0
  2704     0091  00BA               	movwf	menu@key
  2705     0092                     l3828:
  2706                           
  2707                           ;menu.c: 261:                     int ret = set_time(key);
  2708     0092  083A               	movf	menu@key,w
  2709     0093  120A  118A  2571  120A  118A  	fcall	_set_time
  2710     0098  1283               	bcf	3,5	;RP0=0, select bank0
  2711     0099  1303               	bcf	3,6	;RP1=0, select bank0
  2712     009A  00B3               	movwf	??_menu
  2713     009B  01B4               	clrf	??_menu+1
  2714     009C  0833               	movf	??_menu,w
  2715     009D  00B8               	movwf	menu@ret
  2716     009E  0834               	movf	??_menu+1,w
  2717     009F  00B9               	movwf	menu@ret+1
  2718     00A0                     l3830:
  2719                           
  2720                           ;menu.c: 263:                     if(ret == 1)
  2721     00A0  0338               	decf	menu@ret,w
  2722     00A1  0439               	iorwf	menu@ret+1,w
  2723     00A2  1D03               	btfss	3,2
  2724     00A3  28A5               	goto	u4191
  2725     00A4  28A6               	goto	u4190
  2726     00A5                     u4191:
  2727     00A5  28A8               	goto	l3838
  2728     00A6                     u4190:
  2729     00A6                     l3832:
  2730                           
  2731                           ;menu.c: 264:                     {;menu.c: 265:                         operation = 0;
  2732     00A6  01E4               	clrf	_operation
  2733     00A7  2976               	goto	l429
  2734     00A8                     l3838:
  2735     00A8  3002               	movlw	2
  2736     00A9  0638               	xorwf	menu@ret,w
  2737     00AA  0439               	iorwf	menu@ret+1,w
  2738     00AB  1D03               	btfss	3,2
  2739     00AC  28AE               	goto	u4201
  2740     00AD  28AF               	goto	u4200
  2741     00AE                     u4201:
  2742     00AE  2889               	goto	l3826
  2743     00AF                     u4200:
  2744     00AF  281F               	goto	l3788
  2745     00B0                     l3842:
  2746                           
  2747                           ;menu.c: 278:                 {;menu.c: 279:                     key = read_digital_keyp
      +                          ad(1);
  2748     00B0  3001               	movlw	1
  2749     00B1  160A  118A  22BD  120A  118A  	fcall	_read_digital_keypad
  2750     00B6  1283               	bcf	3,5	;RP0=0, select bank0
  2751     00B7  1303               	bcf	3,6	;RP1=0, select bank0
  2752     00B8  00BA               	movwf	menu@key
  2753     00B9                     l3844:
  2754                           
  2755                           ;menu.c: 280:                     int ret = change_password(key);
  2756     00B9  083A               	movf	menu@key,w
  2757     00BA  120A  118A  2177  120A  118A  	fcall	_change_password
  2758     00BF  087B               	movf	?_change_password+1,w
  2759     00C0  1283               	bcf	3,5	;RP0=0, select bank0
  2760     00C1  1303               	bcf	3,6	;RP1=0, select bank0
  2761     00C2  00B6               	movwf	menu@ret_355+1
  2762     00C3  087A               	movf	?_change_password,w
  2763     00C4  00B5               	movwf	menu@ret_355
  2764     00C5                     l3846:
  2765                           
  2766                           ;menu.c: 281:                     if(ret == 1)
  2767     00C5  0335               	decf	menu@ret_355,w
  2768     00C6  0436               	iorwf	menu@ret_355+1,w
  2769     00C7  1D03               	btfss	3,2
  2770     00C8  28CA               	goto	u4211
  2771     00C9  28CB               	goto	u4210
  2772     00CA                     u4211:
  2773     00CA  28CC               	goto	l3850
  2774     00CB                     u4210:
  2775     00CB  281F               	goto	l3788
  2776     00CC                     l3850:
  2777                           
  2778                           ;menu.c: 285:                     if(key == 0x2F)
  2779     00CC  302F               	movlw	47
  2780     00CD  063A               	xorwf	menu@key,w
  2781     00CE  1D03               	btfss	3,2
  2782     00CF  28D1               	goto	u4221
  2783     00D0  28D2               	goto	u4220
  2784     00D1                     u4221:
  2785     00D1  28B0               	goto	l3842
  2786     00D2                     u4220:
  2787     00D2  281F               	goto	l3788
  2788     00D3                     l3856:
  2789     00D3  0837               	movf	menu@menu_pos,w
  2790                           
  2791                           ; Switch size 1, requested type "simple"
  2792                           ; Number of cases is 5, Range of values is 0 to 4
  2793                           ; switch strategies available:
  2794                           ; Name         Instructions Cycles
  2795                           ; simple_byte           16     9 (average)
  2796                           ; direct_byte           23     8 (fixed)
  2797                           ; jumptable            260     6 (fixed)
  2798                           ;	Chosen strategy is simple_byte
  2799     00D4  3A00               	xorlw	0	; case 0
  2800     00D5  1903               	skipnz
  2801     00D6  284F               	goto	l3812
  2802     00D7  3A01               	xorlw	1	; case 1
  2803     00D8  1903               	skipnz
  2804     00D9  2867               	goto	l3820
  2805     00DA  3A03               	xorlw	3	; case 2
  2806     00DB  1903               	skipnz
  2807     00DC  286D               	goto	l3822
  2808     00DD  3A01               	xorlw	1	; case 3
  2809     00DE  1903               	skipnz
  2810     00DF  2873               	goto	l3824
  2811     00E0  3A07               	xorlw	7	; case 4
  2812     00E1  1903               	skipnz
  2813     00E2  28B0               	goto	l3842
  2814     00E3  281F               	goto	l3788
  2815     00E4                     l3858:
  2816                           
  2817                           ;menu.c: 296:     if(redraw)
  2818     00E4  086A               	movf	menu@redraw,w
  2819     00E5  1903               	btfsc	3,2
  2820     00E6  28E8               	goto	u4231
  2821     00E7  28E9               	goto	u4230
  2822     00E8                     u4231:
  2823     00E8  2976               	goto	l429
  2824     00E9                     u4230:
  2825     00E9                     l3860:
  2826                           
  2827                           ;menu.c: 297:     {;menu.c: 298:         redraw = 0;
  2828     00E9  01EA               	clrf	menu@redraw
  2829     00EA                     l3862:
  2830                           
  2831                           ;menu.c: 300:         clcd_print("                ", (0x80 + 0));
  2832     00EA  306B               	movlw	low (STR_1| (0+32768))
  2833     00EB  00F4               	movwf	clcd_print@str
  2834     00EC  3088               	movlw	high (STR_1| (0+32768))
  2835     00ED  00F5               	movwf	clcd_print@str+1
  2836     00EE  3080               	movlw	128
  2837     00EF  00F6               	movwf	clcd_print@addr
  2838     00F0  160A  118A  233D  120A  118A  	fcall	_clcd_print
  2839     00F5                     l3864:
  2840                           
  2841                           ;menu.c: 301:         clcd_print("                ", (0xC0 + 0));
  2842     00F5  306B               	movlw	low (STR_1| (0+32768))
  2843     00F6  00F4               	movwf	clcd_print@str
  2844     00F7  3088               	movlw	high (STR_1| (0+32768))
  2845     00F8  00F5               	movwf	clcd_print@str+1
  2846     00F9  30C0               	movlw	192
  2847     00FA  00F6               	movwf	clcd_print@addr
  2848     00FB  160A  118A  233D  120A  118A  	fcall	_clcd_print
  2849     0100                     l3866:
  2850                           
  2851                           ;menu.c: 303:         if(select == 0)
  2852     0100  1283               	bcf	3,5	;RP0=0, select bank0
  2853     0101  1303               	bcf	3,6	;RP1=0, select bank0
  2854     0102  085D               	movf	menu@select,w
  2855     0103  1D03               	btfss	3,2
  2856     0104  2906               	goto	u4241
  2857     0105  2907               	goto	u4240
  2858     0106                     u4241:
  2859     0106  2940               	goto	l3876
  2860     0107                     u4240:
  2861     0107                     l3868:
  2862                           
  2863                           ;menu.c: 304:         {;menu.c: 305:             clcd_putch('*', (0x80 + 0));
  2864     0107  3080               	movlw	128
  2865     0108  00F8               	movwf	clcd_putch@addr
  2866     0109  302A               	movlw	42
  2867     010A  160A  118A  213B  120A  118A  	fcall	_clcd_putch
  2868     010F                     l3870:
  2869                           
  2870                           ;menu.c: 306:             clcd_print(str[top], (0x80 + 2));
  2871     010F  1283               	bcf	3,5	;RP0=0, select bank0
  2872     0110  1303               	bcf	3,6	;RP1=0, select bank0
  2873     0111  085E               	movf	menu@top,w
  2874     0112  00B3               	movwf	??_menu
  2875     0113  0733               	addwf	??_menu,w
  2876     0114  3EDA               	addlw	(low (_str| 0))& (0+255)
  2877     0115  0084               	movwf	4
  2878     0116  1383               	bcf	3,7	;select IRP bank1
  2879     0117  0800               	movf	0,w
  2880     0118  00F4               	movwf	clcd_print@str
  2881     0119  0A84               	incf	4,f
  2882     011A  0800               	movf	0,w
  2883     011B  0384               	decf	4,f
  2884     011C  00F5               	movwf	clcd_print@str+1
  2885     011D  3082               	movlw	130
  2886     011E  00F6               	movwf	clcd_print@addr
  2887     011F  160A  118A  233D  120A  118A  	fcall	_clcd_print
  2888     0124                     l3872:
  2889                           
  2890                           ;menu.c: 308:             if(top < 4)
  2891     0124  3004               	movlw	4
  2892     0125  1283               	bcf	3,5	;RP0=0, select bank0
  2893     0126  1303               	bcf	3,6	;RP1=0, select bank0
  2894     0127  025E               	subwf	menu@top,w
  2895     0128  1803               	skipnc
  2896     0129  292B               	goto	u4251
  2897     012A  292C               	goto	u4250
  2898     012B                     u4251:
  2899     012B  2976               	goto	l429
  2900     012C                     u4250:
  2901     012C                     l3874:
  2902                           
  2903                           ;menu.c: 309:                 clcd_print(str[top + 1], (0xC0 + 2));
  2904     012C  085E               	movf	menu@top,w
  2905     012D  00B3               	movwf	??_menu
  2906     012E  0733               	addwf	??_menu,w
  2907     012F  3EDC               	addlw	(low ((_str| 0+2)))& (0+255)
  2908     0130  0084               	movwf	4
  2909     0131  1383               	bcf	3,7	;select IRP bank1
  2910     0132  0800               	movf	0,w
  2911     0133  00F4               	movwf	clcd_print@str
  2912     0134  0A84               	incf	4,f
  2913     0135  0800               	movf	0,w
  2914     0136  0384               	decf	4,f
  2915     0137  00F5               	movwf	clcd_print@str+1
  2916     0138  30C2               	movlw	194
  2917     0139  00F6               	movwf	clcd_print@addr
  2918     013A  160A  118A  233D  120A  118A  	fcall	_clcd_print
  2919     013F  2976               	goto	l429
  2920     0140                     l3876:
  2921                           
  2922                           ;menu.c: 312:         {;menu.c: 313:             clcd_print(str[top], (0x80 + 2));
  2923     0140  085E               	movf	menu@top,w
  2924     0141  00B3               	movwf	??_menu
  2925     0142  0733               	addwf	??_menu,w
  2926     0143  3EDA               	addlw	(low (_str| 0))& (0+255)
  2927     0144  0084               	movwf	4
  2928     0145  1383               	bcf	3,7	;select IRP bank1
  2929     0146  0800               	movf	0,w
  2930     0147  00F4               	movwf	clcd_print@str
  2931     0148  0A84               	incf	4,f
  2932     0149  0800               	movf	0,w
  2933     014A  0384               	decf	4,f
  2934     014B  00F5               	movwf	clcd_print@str+1
  2935     014C  3082               	movlw	130
  2936     014D  00F6               	movwf	clcd_print@addr
  2937     014E  160A  118A  233D  120A  118A  	fcall	_clcd_print
  2938     0153                     l3878:
  2939                           
  2940                           ;menu.c: 315:             clcd_putch('*', (0xC0 + 0));
  2941     0153  30C0               	movlw	192
  2942     0154  00F8               	movwf	clcd_putch@addr
  2943     0155  302A               	movlw	42
  2944     0156  160A  118A  213B  120A  118A  	fcall	_clcd_putch
  2945     015B                     l3880:
  2946                           
  2947                           ;menu.c: 317:             if(top < 4)
  2948     015B  3004               	movlw	4
  2949     015C  1283               	bcf	3,5	;RP0=0, select bank0
  2950     015D  1303               	bcf	3,6	;RP1=0, select bank0
  2951     015E  025E               	subwf	menu@top,w
  2952     015F  1803               	skipnc
  2953     0160  2962               	goto	u4261
  2954     0161  2963               	goto	u4260
  2955     0162                     u4261:
  2956     0162  2976               	goto	l429
  2957     0163                     u4260:
  2958     0163                     l3882:
  2959                           
  2960                           ;menu.c: 318:                 clcd_print(str[top + 1], (0xC0 + 2));
  2961     0163  085E               	movf	menu@top,w
  2962     0164  00B3               	movwf	??_menu
  2963     0165  0733               	addwf	??_menu,w
  2964     0166  3EDC               	addlw	(low ((_str| 0+2)))& (0+255)
  2965     0167  0084               	movwf	4
  2966     0168  1383               	bcf	3,7	;select IRP bank1
  2967     0169  0800               	movf	0,w
  2968     016A  00F4               	movwf	clcd_print@str
  2969     016B  0A84               	incf	4,f
  2970     016C  0800               	movf	0,w
  2971     016D  0384               	decf	4,f
  2972     016E  00F5               	movwf	clcd_print@str+1
  2973     016F  30C2               	movlw	194
  2974     0170  00F6               	movwf	clcd_print@addr
  2975     0171  160A  118A  233D  120A  118A  	fcall	_clcd_print
  2976     0176                     l429:
  2977     0176  0008               	return
  2978     0177                     __end_of_menu:
  2979                           
  2980                           	psect	text2
  2981     0AF8                     __ptext2:	
  2982 ;; *************** function _view_log *****************
  2983 ;; Defined at:
  2984 ;;		line 323 in file "menu.c"
  2985 ;; Parameters:    Size  Location     Type
  2986 ;;  key             1    wreg     unsigned char 
  2987 ;; Auto vars:     Size  Location     Type
  2988 ;;  key             1   17[BANK0 ] unsigned char 
  2989 ;;  log            17    0[BANK0 ] unsigned char [17]
  2990 ;;  addr            1   18[BANK0 ] unsigned char 
  2991 ;; Return value:  Size  Location     Type
  2992 ;;                  1    wreg      void 
  2993 ;; Registers used:
  2994 ;;		wreg, fsr0l, fsr0h, status,2, status,0, pclath, btemp1, cstack
  2995 ;; Tracked objects:
  2996 ;;		On entry : 0/0
  2997 ;;		On exit  : 0/0
  2998 ;;		Unchanged: 0/0
  2999 ;; Data sizes:     COMMON   BANK0   BANK1   BANK3   BANK2
  3000 ;;      Params:         0       0       0       0       0
  3001 ;;      Locals:         0      19       0       0       0
  3002 ;;      Temps:          2       0       0       0       0
  3003 ;;      Totals:         2      19       0       0       0
  3004 ;;Total ram usage:       21 bytes
  3005 ;; Hardware stack levels used: 1
  3006 ;; Hardware stack levels required when called: 1
  3007 ;; This function calls:
  3008 ;;		___bmul
  3009 ;;		_clcd_print
  3010 ;;		_read_external_eeprom
  3011 ;; This function is called by:
  3012 ;;		_menu
  3013 ;; This function uses a non-reentrant model
  3014 ;;
  3015                           
  3016     0AF8                     _view_log:	
  3017                           ;psect for function _view_log
  3018                           
  3019                           
  3020                           ;incstack = 0
  3021                           ; Regs used in _view_log: [wreg-fsr0h+status,2+status,0+pclath+btemp1+cstack]
  3022                           ;view_log@key stored from wreg
  3023     0AF8  1283               	bcf	3,5	;RP0=0, select bank0
  3024     0AF9  1303               	bcf	3,6	;RP1=0, select bank0
  3025     0AFA  00B1               	movwf	view_log@key
  3026     0AFB                     l2902:
  3027                           
  3028                           ;menu.c: 323: void view_log(unsigned char key);menu.c: 324: {;menu.c: 326:     static un
      +                          signed char log_pos = 0;;menu.c: 327:     unsigned char log[17];;menu.c: 330:     if(eve
      +                          nt_count == 0)
  3029     0AFB  0863               	movf	_event_count,w
  3030     0AFC  1D03               	btfss	3,2
  3031     0AFD  2AFF               	goto	u2701
  3032     0AFE  2B00               	goto	u2700
  3033     0AFF                     u2701:
  3034     0AFF  2B20               	goto	l2912
  3035     0B00                     u2700:
  3036     0B00                     l2904:
  3037                           
  3038                           ;menu.c: 331:     {;menu.c: 332:         clcd_print(" NO LOGS FOUND ", (0x80 + 0));
  3039     0B00  303C               	movlw	low (STR_34| (0+32768))
  3040     0B01  00F4               	movwf	clcd_print@str
  3041     0B02  3089               	movlw	high (STR_34| (0+32768))
  3042     0B03  00F5               	movwf	clcd_print@str+1
  3043     0B04  3080               	movlw	128
  3044     0B05  00F6               	movwf	clcd_print@addr
  3045     0B06  160A  118A  233D  120A  158A  	fcall	_clcd_print
  3046                           
  3047                           ;menu.c: 333:         clcd_print("                ", (0xC0 + 0));
  3048     0B0B  306B               	movlw	low (STR_1| (0+32768))
  3049     0B0C  00F4               	movwf	clcd_print@str
  3050     0B0D  3088               	movlw	high (STR_1| (0+32768))
  3051     0B0E  00F5               	movwf	clcd_print@str+1
  3052     0B0F  30C0               	movlw	192
  3053     0B10  00F6               	movwf	clcd_print@addr
  3054     0B11  160A  118A  233D  120A  158A  	fcall	_clcd_print
  3055     0B16                     l2906:
  3056                           
  3057                           ;menu.c: 335:         if(key == 0x2F)
  3058     0B16  302F               	movlw	47
  3059     0B17  1283               	bcf	3,5	;RP0=0, select bank0
  3060     0B18  1303               	bcf	3,6	;RP1=0, select bank0
  3061     0B19  0631               	xorwf	view_log@key,w
  3062     0B1A  1D03               	btfss	3,2
  3063     0B1B  2B1D               	goto	u2711
  3064     0B1C  2B1E               	goto	u2710
  3065     0B1D                     u2711:
  3066     0B1D  2BF3               	goto	l451
  3067     0B1E                     u2710:
  3068     0B1E                     l2908:
  3069                           
  3070                           ;menu.c: 336:         {;menu.c: 337:             log_pos = 0;
  3071     0B1E  01E5               	clrf	view_log@log_pos
  3072     0B1F  2BF3               	goto	l451
  3073     0B20                     l2912:
  3074                           
  3075                           ;menu.c: 343:     if(key == 0x3E)
  3076     0B20  303E               	movlw	62
  3077     0B21  0631               	xorwf	view_log@key,w
  3078     0B22  1D03               	btfss	3,2
  3079     0B23  2B25               	goto	u2721
  3080     0B24  2B26               	goto	u2720
  3081     0B25                     u2721:
  3082     0B25  2B2E               	goto	l2918
  3083     0B26                     u2720:
  3084     0B26                     l2914:
  3085                           
  3086                           ;menu.c: 344:     {;menu.c: 346:         if(log_pos > 0)
  3087     0B26  0865               	movf	view_log@log_pos,w
  3088     0B27  1903               	btfsc	3,2
  3089     0B28  2B2A               	goto	u2731
  3090     0B29  2B2B               	goto	u2730
  3091     0B2A                     u2731:
  3092     0B2A  2B52               	goto	l2930
  3093     0B2B                     u2730:
  3094     0B2B                     l2916:
  3095                           
  3096                           ;menu.c: 347:         {;menu.c: 348:             log_pos--;
  3097     0B2B  3001               	movlw	1
  3098     0B2C  02E5               	subwf	view_log@log_pos,f
  3099     0B2D  2B52               	goto	l2930
  3100     0B2E                     l2918:
  3101     0B2E  303D               	movlw	61
  3102     0B2F  0631               	xorwf	view_log@key,w
  3103     0B30  1D03               	btfss	3,2
  3104     0B31  2B33               	goto	u2741
  3105     0B32  2B34               	goto	u2740
  3106     0B33                     u2741:
  3107     0B33  2B4B               	goto	l2924
  3108     0B34                     u2740:
  3109     0B34                     l2920:
  3110                           
  3111                           ;menu.c: 354:     {;menu.c: 356:         if(log_pos < (event_count - 1))
  3112     0B34  0863               	movf	_event_count,w
  3113     0B35  3EFF               	addlw	255
  3114     0B36  00F7               	movwf	??_view_log
  3115     0B37  30FF               	movlw	255
  3116     0B38  1803               	skipnc
  3117     0B39  3000               	movlw	0
  3118     0B3A  00F8               	movwf	??_view_log+1
  3119     0B3B  0878               	movf	??_view_log+1,w
  3120     0B3C  3A80               	xorlw	128
  3121     0B3D  3C80               	sublw	128
  3122     0B3E  1D03               	skipz
  3123     0B3F  2B42               	goto	u2755
  3124     0B40  0877               	movf	??_view_log,w
  3125     0B41  0265               	subwf	view_log@log_pos,w
  3126     0B42                     u2755:
  3127     0B42  1803               	skipnc
  3128     0B43  2B45               	goto	u2751
  3129     0B44  2B46               	goto	u2750
  3130     0B45                     u2751:
  3131     0B45  2B52               	goto	l2930
  3132     0B46                     u2750:
  3133     0B46                     l2922:
  3134                           
  3135                           ;menu.c: 357:         {;menu.c: 358:             log_pos++;
  3136     0B46  3001               	movlw	1
  3137     0B47  1283               	bcf	3,5	;RP0=0, select bank0
  3138     0B48  1303               	bcf	3,6	;RP1=0, select bank0
  3139     0B49  07E5               	addwf	view_log@log_pos,f
  3140     0B4A  2B52               	goto	l2930
  3141     0B4B                     l2924:
  3142     0B4B  302F               	movlw	47
  3143     0B4C  0631               	xorwf	view_log@key,w
  3144     0B4D  1D03               	btfss	3,2
  3145     0B4E  2B50               	goto	u2761
  3146     0B4F  2B51               	goto	u2760
  3147     0B50                     u2761:
  3148     0B50  2B52               	goto	l2930
  3149     0B51                     u2760:
  3150     0B51  2B1E               	goto	l2908
  3151     0B52                     l2930:
  3152                           
  3153                           ;menu.c: 369:     unsigned char addr = log_pos * 10;
  3154     0B52  300A               	movlw	10
  3155     0B53  00F0               	movwf	___bmul@multiplicand
  3156     0B54  1283               	bcf	3,5	;RP0=0, select bank0
  3157     0B55  1303               	bcf	3,6	;RP1=0, select bank0
  3158     0B56  0865               	movf	view_log@log_pos,w
  3159     0B57  160A  118A  2183  120A  158A  	fcall	___bmul
  3160     0B5C  1283               	bcf	3,5	;RP0=0, select bank0
  3161     0B5D  1303               	bcf	3,6	;RP1=0, select bank0
  3162     0B5E  00B2               	movwf	view_log@addr
  3163     0B5F                     l2932:
  3164                           
  3165                           ;menu.c: 371:     clcd_print("#  TIME    EV SP   ", (0x80 + 0));
  3166     0B5F  3000               	movlw	low (STR_36| (0+32768))
  3167     0B60  00F4               	movwf	clcd_print@str
  3168     0B61  3088               	movlw	high (STR_36| (0+32768))
  3169     0B62  00F5               	movwf	clcd_print@str+1
  3170     0B63  3080               	movlw	128
  3171     0B64  00F6               	movwf	clcd_print@addr
  3172     0B65  160A  118A  233D  120A  158A  	fcall	_clcd_print
  3173     0B6A                     l2934:
  3174                           
  3175                           ;menu.c: 373:     log[0] = log_pos + '0';
  3176     0B6A  1283               	bcf	3,5	;RP0=0, select bank0
  3177     0B6B  1303               	bcf	3,6	;RP1=0, select bank0
  3178     0B6C  0865               	movf	view_log@log_pos,w
  3179     0B6D  3E30               	addlw	48
  3180     0B6E  00A0               	movwf	view_log@log
  3181     0B6F                     l2936:
  3182                           
  3183                           ;menu.c: 374:     log[1] = ' ';
  3184     0B6F  3020               	movlw	32
  3185     0B70  00A1               	movwf	view_log@log+1
  3186     0B71                     l2938:
  3187                           
  3188                           ;menu.c: 375:     log[2] = read_external_eeprom(addr++);
  3189     0B71  0832               	movf	view_log@addr,w
  3190     0B72  160A  118A  2312  120A  158A  	fcall	_read_external_eeprom
  3191     0B77  1283               	bcf	3,5	;RP0=0, select bank0
  3192     0B78  1303               	bcf	3,6	;RP1=0, select bank0
  3193     0B79  00A2               	movwf	view_log@log+2
  3194     0B7A                     l2940:
  3195     0B7A  3001               	movlw	1
  3196     0B7B  07B2               	addwf	view_log@addr,f
  3197     0B7C                     l2942:
  3198                           
  3199                           ;menu.c: 376:     log[3] = read_external_eeprom(addr++);
  3200     0B7C  0832               	movf	view_log@addr,w
  3201     0B7D  160A  118A  2312  120A  158A  	fcall	_read_external_eeprom
  3202     0B82  1283               	bcf	3,5	;RP0=0, select bank0
  3203     0B83  1303               	bcf	3,6	;RP1=0, select bank0
  3204     0B84  00A3               	movwf	view_log@log+3
  3205     0B85                     l2944:
  3206     0B85  3001               	movlw	1
  3207     0B86  07B2               	addwf	view_log@addr,f
  3208     0B87                     l2946:
  3209                           
  3210                           ;menu.c: 377:     log[4] = ':';
  3211     0B87  303A               	movlw	58
  3212     0B88  00A4               	movwf	view_log@log+4
  3213     0B89                     l2948:
  3214                           
  3215                           ;menu.c: 378:     log[5] = read_external_eeprom(addr++);
  3216     0B89  0832               	movf	view_log@addr,w
  3217     0B8A  160A  118A  2312  120A  158A  	fcall	_read_external_eeprom
  3218     0B8F  1283               	bcf	3,5	;RP0=0, select bank0
  3219     0B90  1303               	bcf	3,6	;RP1=0, select bank0
  3220     0B91  00A5               	movwf	view_log@log+5
  3221     0B92                     l2950:
  3222     0B92  3001               	movlw	1
  3223     0B93  07B2               	addwf	view_log@addr,f
  3224     0B94                     l2952:
  3225                           
  3226                           ;menu.c: 379:     log[6] = read_external_eeprom(addr++);
  3227     0B94  0832               	movf	view_log@addr,w
  3228     0B95  160A  118A  2312  120A  158A  	fcall	_read_external_eeprom
  3229     0B9A  1283               	bcf	3,5	;RP0=0, select bank0
  3230     0B9B  1303               	bcf	3,6	;RP1=0, select bank0
  3231     0B9C  00A6               	movwf	view_log@log+6
  3232     0B9D                     l2954:
  3233     0B9D  3001               	movlw	1
  3234     0B9E  07B2               	addwf	view_log@addr,f
  3235     0B9F                     l2956:
  3236                           
  3237                           ;menu.c: 380:     log[7] = ':';
  3238     0B9F  303A               	movlw	58
  3239     0BA0  00A7               	movwf	view_log@log+7
  3240     0BA1                     l2958:
  3241                           
  3242                           ;menu.c: 381:     log[8] = read_external_eeprom(addr++);
  3243     0BA1  0832               	movf	view_log@addr,w
  3244     0BA2  160A  118A  2312  120A  158A  	fcall	_read_external_eeprom
  3245     0BA7  1283               	bcf	3,5	;RP0=0, select bank0
  3246     0BA8  1303               	bcf	3,6	;RP1=0, select bank0
  3247     0BA9  00A8               	movwf	view_log@log+8
  3248     0BAA                     l2960:
  3249     0BAA  3001               	movlw	1
  3250     0BAB  07B2               	addwf	view_log@addr,f
  3251     0BAC                     l2962:
  3252                           
  3253                           ;menu.c: 382:     log[9] = read_external_eeprom(addr++);
  3254     0BAC  0832               	movf	view_log@addr,w
  3255     0BAD  160A  118A  2312  120A  158A  	fcall	_read_external_eeprom
  3256     0BB2  1283               	bcf	3,5	;RP0=0, select bank0
  3257     0BB3  1303               	bcf	3,6	;RP1=0, select bank0
  3258     0BB4  00A9               	movwf	view_log@log+9
  3259     0BB5                     l2964:
  3260     0BB5  3001               	movlw	1
  3261     0BB6  07B2               	addwf	view_log@addr,f
  3262     0BB7                     l2966:
  3263                           
  3264                           ;menu.c: 383:     log[10] = ' ';
  3265     0BB7  3020               	movlw	32
  3266     0BB8  00AA               	movwf	view_log@log+10
  3267     0BB9                     l2968:
  3268                           
  3269                           ;menu.c: 384:     log[11] = read_external_eeprom(addr++);
  3270     0BB9  0832               	movf	view_log@addr,w
  3271     0BBA  160A  118A  2312  120A  158A  	fcall	_read_external_eeprom
  3272     0BBF  1283               	bcf	3,5	;RP0=0, select bank0
  3273     0BC0  1303               	bcf	3,6	;RP1=0, select bank0
  3274     0BC1  00AB               	movwf	view_log@log+11
  3275     0BC2                     l2970:
  3276     0BC2  3001               	movlw	1
  3277     0BC3  07B2               	addwf	view_log@addr,f
  3278     0BC4                     l2972:
  3279                           
  3280                           ;menu.c: 385:     log[12] = read_external_eeprom(addr++);
  3281     0BC4  0832               	movf	view_log@addr,w
  3282     0BC5  160A  118A  2312  120A  158A  	fcall	_read_external_eeprom
  3283     0BCA  1283               	bcf	3,5	;RP0=0, select bank0
  3284     0BCB  1303               	bcf	3,6	;RP1=0, select bank0
  3285     0BCC  00AC               	movwf	view_log@log+12
  3286     0BCD                     l2974:
  3287     0BCD  3001               	movlw	1
  3288     0BCE  07B2               	addwf	view_log@addr,f
  3289     0BCF                     l2976:
  3290                           
  3291                           ;menu.c: 386:     log[13] = ' ';
  3292     0BCF  3020               	movlw	32
  3293     0BD0  00AD               	movwf	view_log@log+13
  3294     0BD1                     l2978:
  3295                           
  3296                           ;menu.c: 387:     log[14] = read_external_eeprom(addr++);
  3297     0BD1  0832               	movf	view_log@addr,w
  3298     0BD2  160A  118A  2312  120A  158A  	fcall	_read_external_eeprom
  3299     0BD7  1283               	bcf	3,5	;RP0=0, select bank0
  3300     0BD8  1303               	bcf	3,6	;RP1=0, select bank0
  3301     0BD9  00AE               	movwf	view_log@log+14
  3302     0BDA                     l2980:
  3303     0BDA  3001               	movlw	1
  3304     0BDB  07B2               	addwf	view_log@addr,f
  3305     0BDC                     l2982:
  3306                           
  3307                           ;menu.c: 388:     log[15] = read_external_eeprom(addr++);
  3308     0BDC  0832               	movf	view_log@addr,w
  3309     0BDD  160A  118A  2312  120A  158A  	fcall	_read_external_eeprom
  3310     0BE2  1283               	bcf	3,5	;RP0=0, select bank0
  3311     0BE3  1303               	bcf	3,6	;RP1=0, select bank0
  3312     0BE4  00AF               	movwf	view_log@log+15
  3313     0BE5                     l2984:
  3314     0BE5  3001               	movlw	1
  3315     0BE6  07B2               	addwf	view_log@addr,f
  3316     0BE7                     l2986:
  3317                           
  3318                           ;menu.c: 389:     log[16] = '\0';
  3319     0BE7  01B0               	clrf	view_log@log+16
  3320     0BE8                     l2988:
  3321                           
  3322                           ;menu.c: 391:     clcd_print((char *)log, (0xC0 + 0));
  3323     0BE8  3020               	movlw	(low (view_log@log| 0))& (0+255)
  3324     0BE9  00F4               	movwf	clcd_print@str
  3325     0BEA  3000               	movlw	0
  3326     0BEB  00F5               	movwf	clcd_print@str+1
  3327     0BEC  30C0               	movlw	192
  3328     0BED  00F6               	movwf	clcd_print@addr
  3329     0BEE  160A  118A  233D  120A  158A  	fcall	_clcd_print
  3330     0BF3                     l451:
  3331     0BF3  0008               	return
  3332     0BF4                     __end_of_view_log:
  3333                           
  3334                           	psect	text3
  3335     0571                     __ptext3:	
  3336 ;; *************** function _set_time *****************
  3337 ;; Defined at:
  3338 ;;		line 520 in file "menu.c"
  3339 ;; Parameters:    Size  Location     Type
  3340 ;;  key             1    wreg     unsigned char 
  3341 ;; Auto vars:     Size  Location     Type
  3342 ;;  key             1   16[BANK0 ] unsigned char 
  3343 ;;  temp            9    7[BANK0 ] unsigned char [9]
  3344 ;; Return value:  Size  Location     Type
  3345 ;;                  1    wreg      unsigned char 
  3346 ;; Registers used:
  3347 ;;		wreg, fsr0l, fsr0h, status,2, status,0, pclath, btemp1, cstack
  3348 ;; Tracked objects:
  3349 ;;		On entry : 0/0
  3350 ;;		On exit  : 0/0
  3351 ;;		Unchanged: 0/0
  3352 ;; Data sizes:     COMMON   BANK0   BANK1   BANK3   BANK2
  3353 ;;      Params:         0       0       0       0       0
  3354 ;;      Locals:         0      10       0       0       0
  3355 ;;      Temps:          0       7       0       0       0
  3356 ;;      Totals:         0      17       0       0       0
  3357 ;;Total ram usage:       17 bytes
  3358 ;; Hardware stack levels used: 1
  3359 ;; Hardware stack levels required when called: 1
  3360 ;; This function calls:
  3361 ;;		___awdiv
  3362 ;;		___awmod
  3363 ;;		___bmul
  3364 ;;		_clcd_print
  3365 ;;		_get_time
  3366 ;;		_write_ds1307
  3367 ;; This function is called by:
  3368 ;;		_menu
  3369 ;; This function uses a non-reentrant model
  3370 ;;
  3371                           
  3372     0571                     _set_time:	
  3373                           ;psect for function _set_time
  3374                           
  3375                           
  3376                           ;incstack = 0
  3377                           ; Regs used in _set_time: [wreg-fsr0h+status,2+status,0+pclath+btemp1+cstack]
  3378                           ;set_time@key stored from wreg
  3379     0571  1283               	bcf	3,5	;RP0=0, select bank0
  3380     0572  1303               	bcf	3,6	;RP1=0, select bank0
  3381     0573  00B0               	movwf	set_time@key
  3382     0574                     l3066:
  3383                           
  3384                           ;menu.c: 520: unsigned char set_time(unsigned char key);menu.c: 521: {;menu.c: 522:     
      +                          static unsigned char once = 1;;menu.c: 523:     static unsigned char field = 0;;menu.c: 
      +                          524:     static unsigned int blink = 0;;menu.c: 525:     static unsigned char visible = 
      +                          1;;menu.c: 530:     static unsigned char hours;;menu.c: 531:     static unsigned char mi
      +                          ns;;menu.c: 532:     static unsigned char secs;;menu.c: 534:     char temp[9];;menu.c: 5
      +                          36:     if(once)
  3385     0574  0868               	movf	set_time@once,w
  3386     0575  1903               	btfsc	3,2
  3387     0576  2D78               	goto	u2811
  3388     0577  2D79               	goto	u2810
  3389     0578                     u2811:
  3390     0578  2DB4               	goto	l3078
  3391     0579                     u2810:
  3392     0579                     l3068:
  3393                           
  3394                           ;menu.c: 537:     {;menu.c: 538:         get_time(clock_reg);
  3395     0579  30C7               	movlw	(low (_clock_reg| 0))& (0+255)
  3396     057A  00F4               	movwf	get_time@clock_reg
  3397     057B  160A  118A  2205  120A  118A  	fcall	_get_time
  3398     0580                     l3070:
  3399                           
  3400                           ;menu.c: 540:         hours = (time[0] - '0') * 10 + (time[1] - '0');
  3401     0580  300A               	movlw	10
  3402     0581  00F0               	movwf	___bmul@multiplicand
  3403     0582  1683               	bsf	3,5	;RP0=1, select bank1
  3404     0583  1303               	bcf	3,6	;RP1=0, select bank1
  3405     0584  082C               	movf	_time^(0+128),w
  3406     0585  160A  118A  2183  120A  118A  	fcall	___bmul
  3407     058A  1683               	bsf	3,5	;RP0=1, select bank1
  3408     058B  1303               	bcf	3,6	;RP1=0, select bank1
  3409     058C  072D               	addwf	(_time^(0+128)+1),w
  3410     058D  3EF0               	addlw	240
  3411     058E  1283               	bcf	3,5	;RP0=0, select bank0
  3412     058F  1303               	bcf	3,6	;RP1=0, select bank0
  3413     0590  00DB               	movwf	set_time@hours
  3414     0591                     l3072:
  3415                           
  3416                           ;menu.c: 541:         mins = (time[3] - '0') * 10 + (time[4] - '0');
  3417     0591  300A               	movlw	10
  3418     0592  00F0               	movwf	___bmul@multiplicand
  3419     0593  1683               	bsf	3,5	;RP0=1, select bank1
  3420     0594  1303               	bcf	3,6	;RP1=0, select bank1
  3421     0595  082F               	movf	(_time^(0+128)+3),w
  3422     0596  160A  118A  2183  120A  118A  	fcall	___bmul
  3423     059B  1683               	bsf	3,5	;RP0=1, select bank1
  3424     059C  1303               	bcf	3,6	;RP1=0, select bank1
  3425     059D  0730               	addwf	(_time^(0+128)+4),w
  3426     059E  3EF0               	addlw	240
  3427     059F  1283               	bcf	3,5	;RP0=0, select bank0
  3428     05A0  1303               	bcf	3,6	;RP1=0, select bank0
  3429     05A1  00DA               	movwf	set_time@mins
  3430     05A2                     l3074:
  3431                           
  3432                           ;menu.c: 542:         secs = (time[6] - '0') * 10 + (time[7] - '0');
  3433     05A2  300A               	movlw	10
  3434     05A3  00F0               	movwf	___bmul@multiplicand
  3435     05A4  1683               	bsf	3,5	;RP0=1, select bank1
  3436     05A5  1303               	bcf	3,6	;RP1=0, select bank1
  3437     05A6  0832               	movf	(_time^(0+128)+6),w
  3438     05A7  160A  118A  2183  120A  118A  	fcall	___bmul
  3439     05AC  1683               	bsf	3,5	;RP0=1, select bank1
  3440     05AD  1303               	bcf	3,6	;RP1=0, select bank1
  3441     05AE  0733               	addwf	(_time^(0+128)+7),w
  3442     05AF  3EF0               	addlw	240
  3443     05B0  1283               	bcf	3,5	;RP0=0, select bank0
  3444     05B1  1303               	bcf	3,6	;RP1=0, select bank0
  3445     05B2  00D9               	movwf	set_time@secs
  3446     05B3                     l3076:
  3447                           
  3448                           ;menu.c: 544:         once = 0;
  3449     05B3  01E8               	clrf	set_time@once
  3450     05B4                     l3078:
  3451                           
  3452                           ;menu.c: 548:     if(key == 0x3E)
  3453     05B4  303E               	movlw	62
  3454     05B5  0630               	xorwf	set_time@key,w
  3455     05B6  1D03               	btfss	3,2
  3456     05B7  2DB9               	goto	u2821
  3457     05B8  2DBA               	goto	u2820
  3458     05B9                     u2821:
  3459     05B9  2DE1               	goto	l3102
  3460     05BA                     u2820:
  3461     05BA                     l3080:
  3462                           
  3463                           ;menu.c: 549:     {;menu.c: 550:         if(field == 0)
  3464     05BA  085C               	movf	set_time@field,w
  3465     05BB  1D03               	btfss	3,2
  3466     05BC  2DBE               	goto	u2831
  3467     05BD  2DBF               	goto	u2830
  3468     05BE                     u2831:
  3469     05BE  2DC9               	goto	l3088
  3470     05BF                     u2830:
  3471     05BF                     l3082:
  3472                           
  3473                           ;menu.c: 551:         {;menu.c: 552:             hours++;
  3474     05BF  3001               	movlw	1
  3475     05C0  07DB               	addwf	set_time@hours,f
  3476     05C1                     l3084:
  3477                           
  3478                           ;menu.c: 553:             if(hours > 23)
  3479     05C1  3018               	movlw	24
  3480     05C2  025B               	subwf	set_time@hours,w
  3481     05C3  1C03               	skipc
  3482     05C4  2DC6               	goto	u2841
  3483     05C5  2DC7               	goto	u2840
  3484     05C6                     u2841:
  3485     05C6  2DE1               	goto	l3102
  3486     05C7                     u2840:
  3487     05C7                     l3086:
  3488                           
  3489                           ;menu.c: 554:             {;menu.c: 555:                 hours = 0;
  3490     05C7  01DB               	clrf	set_time@hours
  3491     05C8  2DE1               	goto	l3102
  3492     05C9                     l3088:
  3493     05C9  035C               	decf	set_time@field,w
  3494     05CA  1D03               	btfss	3,2
  3495     05CB  2DCD               	goto	u2851
  3496     05CC  2DCE               	goto	u2850
  3497     05CD                     u2851:
  3498     05CD  2DD8               	goto	l3096
  3499     05CE                     u2850:
  3500     05CE                     l3090:
  3501                           
  3502                           ;menu.c: 559:         {;menu.c: 560:             mins++;
  3503     05CE  3001               	movlw	1
  3504     05CF  07DA               	addwf	set_time@mins,f
  3505     05D0                     l3092:
  3506                           
  3507                           ;menu.c: 561:             if(mins > 59)
  3508     05D0  303C               	movlw	60
  3509     05D1  025A               	subwf	set_time@mins,w
  3510     05D2  1C03               	skipc
  3511     05D3  2DD5               	goto	u2861
  3512     05D4  2DD6               	goto	u2860
  3513     05D5                     u2861:
  3514     05D5  2DE1               	goto	l3102
  3515     05D6                     u2860:
  3516     05D6                     l3094:
  3517                           
  3518                           ;menu.c: 562:             {;menu.c: 563:                 mins = 0;
  3519     05D6  01DA               	clrf	set_time@mins
  3520     05D7  2DE1               	goto	l3102
  3521     05D8                     l3096:
  3522                           
  3523                           ;menu.c: 567:         {;menu.c: 568:             secs++;
  3524     05D8  3001               	movlw	1
  3525     05D9  07D9               	addwf	set_time@secs,f
  3526     05DA                     l3098:
  3527                           
  3528                           ;menu.c: 569:             if(secs > 59)
  3529     05DA  303C               	movlw	60
  3530     05DB  0259               	subwf	set_time@secs,w
  3531     05DC  1C03               	skipc
  3532     05DD  2DDF               	goto	u2871
  3533     05DE  2DE0               	goto	u2870
  3534     05DF                     u2871:
  3535     05DF  2DE1               	goto	l3102
  3536     05E0                     u2870:
  3537     05E0                     l3100:
  3538                           
  3539                           ;menu.c: 570:             {;menu.c: 571:                 secs = 0;
  3540     05E0  01D9               	clrf	set_time@secs
  3541     05E1                     l3102:
  3542                           
  3543                           ;menu.c: 577:     if(key == 0x3B)
  3544     05E1  303B               	movlw	59
  3545     05E2  0630               	xorwf	set_time@key,w
  3546     05E3  1D03               	btfss	3,2
  3547     05E4  2DE6               	goto	u2881
  3548     05E5  2DE7               	goto	u2880
  3549     05E6                     u2881:
  3550     05E6  2DF0               	goto	l3110
  3551     05E7                     u2880:
  3552     05E7                     l3104:
  3553                           
  3554                           ;menu.c: 578:     {;menu.c: 579:         field++;
  3555     05E7  3001               	movlw	1
  3556     05E8  07DC               	addwf	set_time@field,f
  3557     05E9                     l3106:
  3558                           
  3559                           ;menu.c: 581:         if(field > 2)
  3560     05E9  3003               	movlw	3
  3561     05EA  025C               	subwf	set_time@field,w
  3562     05EB  1C03               	skipc
  3563     05EC  2DEE               	goto	u2891
  3564     05ED  2DEF               	goto	u2890
  3565     05EE                     u2891:
  3566     05EE  2DF0               	goto	l3110
  3567     05EF                     u2890:
  3568     05EF                     l3108:
  3569                           
  3570                           ;menu.c: 582:         {;menu.c: 583:             field = 0;
  3571     05EF  01DC               	clrf	set_time@field
  3572     05F0                     l3110:
  3573                           
  3574                           ;menu.c: 588:     if(key == 0x3D)
  3575     05F0  303D               	movlw	61
  3576     05F1  0630               	xorwf	set_time@key,w
  3577     05F2  1D03               	btfss	3,2
  3578     05F3  2DF5               	goto	u2901
  3579     05F4  2DF6               	goto	u2900
  3580     05F5                     u2901:
  3581     05F5  2E20               	goto	l3134
  3582     05F6                     u2900:
  3583     05F6                     l3112:
  3584                           
  3585                           ;menu.c: 589:     {;menu.c: 590:         if(field == 0)
  3586     05F6  085C               	movf	set_time@field,w
  3587     05F7  1D03               	btfss	3,2
  3588     05F8  2DFA               	goto	u2911
  3589     05F9  2DFB               	goto	u2910
  3590     05FA                     u2911:
  3591     05FA  2E06               	goto	l3120
  3592     05FB                     u2910:
  3593     05FB                     l3114:
  3594                           
  3595                           ;menu.c: 591:         {;menu.c: 592:             if(hours == 0)
  3596     05FB  085B               	movf	set_time@hours,w
  3597     05FC  1D03               	btfss	3,2
  3598     05FD  2DFF               	goto	u2921
  3599     05FE  2E00               	goto	u2920
  3600     05FF                     u2921:
  3601     05FF  2E03               	goto	l3118
  3602     0600                     u2920:
  3603     0600                     l3116:
  3604                           
  3605                           ;menu.c: 593:                 hours = 23;
  3606     0600  3017               	movlw	23
  3607     0601  00DB               	movwf	set_time@hours
  3608     0602  2E20               	goto	l3134
  3609     0603                     l3118:
  3610                           
  3611                           ;menu.c: 595:                 hours--;
  3612     0603  3001               	movlw	1
  3613     0604  02DB               	subwf	set_time@hours,f
  3614     0605  2E20               	goto	l3134
  3615     0606                     l3120:
  3616     0606  035C               	decf	set_time@field,w
  3617     0607  1D03               	btfss	3,2
  3618     0608  2E0A               	goto	u2931
  3619     0609  2E0B               	goto	u2930
  3620     060A                     u2931:
  3621     060A  2E16               	goto	l3128
  3622     060B                     u2930:
  3623     060B                     l3122:
  3624                           
  3625                           ;menu.c: 598:         {;menu.c: 599:             if(mins == 0)
  3626     060B  085A               	movf	set_time@mins,w
  3627     060C  1D03               	btfss	3,2
  3628     060D  2E0F               	goto	u2941
  3629     060E  2E10               	goto	u2940
  3630     060F                     u2941:
  3631     060F  2E13               	goto	l3126
  3632     0610                     u2940:
  3633     0610                     l3124:
  3634                           
  3635                           ;menu.c: 600:                 mins = 59;
  3636     0610  303B               	movlw	59
  3637     0611  00DA               	movwf	set_time@mins
  3638     0612  2E20               	goto	l3134
  3639     0613                     l3126:
  3640                           
  3641                           ;menu.c: 602:                 mins--;
  3642     0613  3001               	movlw	1
  3643     0614  02DA               	subwf	set_time@mins,f
  3644     0615  2E20               	goto	l3134
  3645     0616                     l3128:
  3646                           
  3647                           ;menu.c: 605:         {;menu.c: 606:             if(secs == 0)
  3648     0616  0859               	movf	set_time@secs,w
  3649     0617  1D03               	btfss	3,2
  3650     0618  2E1A               	goto	u2951
  3651     0619  2E1B               	goto	u2950
  3652     061A                     u2951:
  3653     061A  2E1E               	goto	l3132
  3654     061B                     u2950:
  3655     061B                     l3130:
  3656                           
  3657                           ;menu.c: 607:                 secs = 59;
  3658     061B  303B               	movlw	59
  3659     061C  00D9               	movwf	set_time@secs
  3660     061D  2E20               	goto	l3134
  3661     061E                     l3132:
  3662                           
  3663                           ;menu.c: 609:                 secs--;
  3664     061E  3001               	movlw	1
  3665     061F  02D9               	subwf	set_time@secs,f
  3666     0620                     l3134:
  3667                           
  3668                           ;menu.c: 613:     temp[0] = (hours / 10) + '0';
  3669     0620  300A               	movlw	10
  3670     0621  00F0               	movwf	___awdiv@divisor
  3671     0622  3000               	movlw	0
  3672     0623  00F1               	movwf	___awdiv@divisor+1
  3673     0624  085B               	movf	set_time@hours,w
  3674     0625  00A0               	movwf	??_set_time
  3675     0626  01A1               	clrf	??_set_time+1
  3676     0627  0820               	movf	??_set_time,w
  3677     0628  00F2               	movwf	___awdiv@dividend
  3678     0629  0821               	movf	??_set_time+1,w
  3679     062A  00F3               	movwf	___awdiv@dividend+1
  3680     062B  160A  118A  25A8  120A  118A  	fcall	___awdiv
  3681     0630  0870               	movf	?___awdiv,w
  3682     0631  3E30               	addlw	48
  3683     0632  1283               	bcf	3,5	;RP0=0, select bank0
  3684     0633  1303               	bcf	3,6	;RP1=0, select bank0
  3685     0634  00A7               	movwf	set_time@temp
  3686     0635                     l3136:
  3687                           
  3688                           ;menu.c: 614:     temp[1] = (hours % 10) + '0';
  3689     0635  300A               	movlw	10
  3690     0636  00F0               	movwf	___awmod@divisor
  3691     0637  3000               	movlw	0
  3692     0638  00F1               	movwf	___awmod@divisor+1
  3693     0639  085B               	movf	set_time@hours,w
  3694     063A  00A0               	movwf	??_set_time
  3695     063B  01A1               	clrf	??_set_time+1
  3696     063C  0820               	movf	??_set_time,w
  3697     063D  00F2               	movwf	___awmod@dividend
  3698     063E  0821               	movf	??_set_time+1,w
  3699     063F  00F3               	movwf	___awmod@dividend+1
  3700     0640  160A  118A  24EE  120A  118A  	fcall	___awmod
  3701     0645  0870               	movf	?___awmod,w
  3702     0646  3E30               	addlw	48
  3703     0647  1283               	bcf	3,5	;RP0=0, select bank0
  3704     0648  1303               	bcf	3,6	;RP1=0, select bank0
  3705     0649  00A8               	movwf	set_time@temp+1
  3706     064A                     l3138:
  3707                           
  3708                           ;menu.c: 615:     temp[2] = ':';
  3709     064A  303A               	movlw	58
  3710     064B  00A9               	movwf	set_time@temp+2
  3711     064C                     l3140:
  3712                           
  3713                           ;menu.c: 617:     temp[3] = (mins / 10) + '0';
  3714     064C  300A               	movlw	10
  3715     064D  00F0               	movwf	___awdiv@divisor
  3716     064E  3000               	movlw	0
  3717     064F  00F1               	movwf	___awdiv@divisor+1
  3718     0650  085A               	movf	set_time@mins,w
  3719     0651  00A0               	movwf	??_set_time
  3720     0652  01A1               	clrf	??_set_time+1
  3721     0653  0820               	movf	??_set_time,w
  3722     0654  00F2               	movwf	___awdiv@dividend
  3723     0655  0821               	movf	??_set_time+1,w
  3724     0656  00F3               	movwf	___awdiv@dividend+1
  3725     0657  160A  118A  25A8  120A  118A  	fcall	___awdiv
  3726     065C  0870               	movf	?___awdiv,w
  3727     065D  3E30               	addlw	48
  3728     065E  1283               	bcf	3,5	;RP0=0, select bank0
  3729     065F  1303               	bcf	3,6	;RP1=0, select bank0
  3730     0660  00AA               	movwf	set_time@temp+3
  3731     0661                     l3142:
  3732                           
  3733                           ;menu.c: 618:     temp[4] = (mins % 10) + '0';
  3734     0661  300A               	movlw	10
  3735     0662  00F0               	movwf	___awmod@divisor
  3736     0663  3000               	movlw	0
  3737     0664  00F1               	movwf	___awmod@divisor+1
  3738     0665  085A               	movf	set_time@mins,w
  3739     0666  00A0               	movwf	??_set_time
  3740     0667  01A1               	clrf	??_set_time+1
  3741     0668  0820               	movf	??_set_time,w
  3742     0669  00F2               	movwf	___awmod@dividend
  3743     066A  0821               	movf	??_set_time+1,w
  3744     066B  00F3               	movwf	___awmod@dividend+1
  3745     066C  160A  118A  24EE  120A  118A  	fcall	___awmod
  3746     0671  0870               	movf	?___awmod,w
  3747     0672  3E30               	addlw	48
  3748     0673  1283               	bcf	3,5	;RP0=0, select bank0
  3749     0674  1303               	bcf	3,6	;RP1=0, select bank0
  3750     0675  00AB               	movwf	set_time@temp+4
  3751     0676                     l3144:
  3752                           
  3753                           ;menu.c: 619:     temp[5] = ':';
  3754     0676  303A               	movlw	58
  3755     0677  00AC               	movwf	set_time@temp+5
  3756     0678                     l3146:
  3757                           
  3758                           ;menu.c: 621:     temp[6] = (secs / 10) + '0';
  3759     0678  300A               	movlw	10
  3760     0679  00F0               	movwf	___awdiv@divisor
  3761     067A  3000               	movlw	0
  3762     067B  00F1               	movwf	___awdiv@divisor+1
  3763     067C  0859               	movf	set_time@secs,w
  3764     067D  00A0               	movwf	??_set_time
  3765     067E  01A1               	clrf	??_set_time+1
  3766     067F  0820               	movf	??_set_time,w
  3767     0680  00F2               	movwf	___awdiv@dividend
  3768     0681  0821               	movf	??_set_time+1,w
  3769     0682  00F3               	movwf	___awdiv@dividend+1
  3770     0683  160A  118A  25A8  120A  118A  	fcall	___awdiv
  3771     0688  0870               	movf	?___awdiv,w
  3772     0689  3E30               	addlw	48
  3773     068A  1283               	bcf	3,5	;RP0=0, select bank0
  3774     068B  1303               	bcf	3,6	;RP1=0, select bank0
  3775     068C  00AD               	movwf	set_time@temp+6
  3776     068D                     l3148:
  3777                           
  3778                           ;menu.c: 622:     temp[7] = (secs % 10) + '0';
  3779     068D  300A               	movlw	10
  3780     068E  00F0               	movwf	___awmod@divisor
  3781     068F  3000               	movlw	0
  3782     0690  00F1               	movwf	___awmod@divisor+1
  3783     0691  0859               	movf	set_time@secs,w
  3784     0692  00A0               	movwf	??_set_time
  3785     0693  01A1               	clrf	??_set_time+1
  3786     0694  0820               	movf	??_set_time,w
  3787     0695  00F2               	movwf	___awmod@dividend
  3788     0696  0821               	movf	??_set_time+1,w
  3789     0697  00F3               	movwf	___awmod@dividend+1
  3790     0698  160A  118A  24EE  120A  118A  	fcall	___awmod
  3791     069D  0870               	movf	?___awmod,w
  3792     069E  3E30               	addlw	48
  3793     069F  1283               	bcf	3,5	;RP0=0, select bank0
  3794     06A0  1303               	bcf	3,6	;RP1=0, select bank0
  3795     06A1  00AE               	movwf	set_time@temp+7
  3796     06A2                     l3150:
  3797                           
  3798                           ;menu.c: 623:     temp[8] = '\0';
  3799     06A2  01AF               	clrf	set_time@temp+8
  3800     06A3                     l3152:
  3801                           
  3802                           ;menu.c: 625:     clcd_print("HH:MM:SS        ", (0x80 + 4));
  3803     06A3  3038               	movlw	low (STR_52| (0+32768))
  3804     06A4  00F4               	movwf	clcd_print@str
  3805     06A5  3088               	movlw	high (STR_52| (0+32768))
  3806     06A6  00F5               	movwf	clcd_print@str+1
  3807     06A7  3084               	movlw	132
  3808     06A8  00F6               	movwf	clcd_print@addr
  3809     06A9  160A  118A  233D  120A  118A  	fcall	_clcd_print
  3810     06AE                     l3154:
  3811                           
  3812                           ;menu.c: 627:     blink++;
  3813     06AE  3001               	movlw	1
  3814     06AF  1683               	bsf	3,5	;RP0=1, select bank1
  3815     06B0  1303               	bcf	3,6	;RP1=0, select bank1
  3816     06B1  07A8               	addwf	set_time@blink^(0+128),f
  3817     06B2  1803               	skipnc
  3818     06B3  0AA9               	incf	(set_time@blink+1)^(0+128),f
  3819     06B4  3000               	movlw	0
  3820     06B5  07A9               	addwf	(set_time@blink+1)^(0+128),f
  3821     06B6                     l3156:
  3822                           
  3823                           ;menu.c: 629:     if(blink >= 5000)
  3824     06B6  3013               	movlw	19
  3825     06B7  0229               	subwf	(set_time@blink+1)^(0+128),w
  3826     06B8  3088               	movlw	136
  3827     06B9  1903               	skipnz
  3828     06BA  0228               	subwf	set_time@blink^(0+128),w
  3829     06BB  1C03               	skipc
  3830     06BC  2EBE               	goto	u2961
  3831     06BD  2EBF               	goto	u2960
  3832     06BE                     u2961:
  3833     06BE  2ECB               	goto	l3162
  3834     06BF                     u2960:
  3835     06BF                     l3158:
  3836                           
  3837                           ;menu.c: 630:     {;menu.c: 631:         blink = 0;
  3838     06BF  01A8               	clrf	set_time@blink^(0+128)
  3839     06C0  01A9               	clrf	(set_time@blink+1)^(0+128)
  3840     06C1                     l3160:
  3841                           
  3842                           ;menu.c: 632:         visible = !visible;
  3843     06C1  1283               	bcf	3,5	;RP0=0, select bank0
  3844     06C2  1303               	bcf	3,6	;RP1=0, select bank0
  3845     06C3  0867               	movf	set_time@visible,w
  3846     06C4  1903               	btfsc	3,2
  3847     06C5  2EC7               	goto	u2971
  3848     06C6  2EC9               	goto	u2970
  3849     06C7                     u2971:
  3850     06C7  3001               	movlw	1
  3851     06C8  2ECA               	goto	u2980
  3852     06C9                     u2970:
  3853     06C9  3000               	movlw	0
  3854     06CA                     u2980:
  3855     06CA  00E7               	movwf	set_time@visible
  3856     06CB                     l3162:
  3857                           
  3858                           ;menu.c: 635:     if(visible)
  3859     06CB  1283               	bcf	3,5	;RP0=0, select bank0
  3860     06CC  0867               	movf	set_time@visible,w
  3861     06CD  1903               	btfsc	3,2
  3862     06CE  2ED0               	goto	u2991
  3863     06CF  2ED1               	goto	u2990
  3864     06D0                     u2991:
  3865     06D0  2EEC               	goto	l3168
  3866     06D1                     u2990:
  3867     06D1                     l3164:
  3868                           
  3869                           ;menu.c: 636:     {;menu.c: 637:         clcd_print(temp, (0xC0 + 4));
  3870     06D1  3027               	movlw	(low (set_time@temp| 0))& (0+255)
  3871     06D2  00F4               	movwf	clcd_print@str
  3872     06D3  3000               	movlw	0
  3873     06D4  00F5               	movwf	clcd_print@str+1
  3874     06D5  30C4               	movlw	196
  3875     06D6  00F6               	movwf	clcd_print@addr
  3876     06D7  160A  118A  233D  120A  118A  	fcall	_clcd_print
  3877                           
  3878                           ;menu.c: 638:     }
  3879     06DC  2EF7               	goto	l3172
  3880     06DD                     l517:	
  3881                           ;menu.c: 642:         {;menu.c: 643:             case 0:
  3882                           
  3883                           
  3884                           ;menu.c: 644:                 temp[0] = ' ';
  3885     06DD  3020               	movlw	32
  3886     06DE  00A7               	movwf	set_time@temp
  3887                           
  3888                           ;menu.c: 645:                 temp[1] = ' ';
  3889     06DF  3020               	movlw	32
  3890     06E0  00A8               	movwf	set_time@temp+1
  3891                           
  3892                           ;menu.c: 646:                 break;
  3893     06E1  2ED1               	goto	l3164
  3894     06E2                     l519:	
  3895                           ;menu.c: 648:             case 1:
  3896                           
  3897                           
  3898                           ;menu.c: 649:                 temp[3] = ' ';
  3899     06E2  3020               	movlw	32
  3900     06E3  00AA               	movwf	set_time@temp+3
  3901                           
  3902                           ;menu.c: 650:                 temp[4] = ' ';
  3903     06E4  3020               	movlw	32
  3904     06E5  00AB               	movwf	set_time@temp+4
  3905                           
  3906                           ;menu.c: 651:                 break;
  3907     06E6  2ED1               	goto	l3164
  3908     06E7                     l520:	
  3909                           ;menu.c: 653:             case 2:
  3910                           
  3911                           
  3912                           ;menu.c: 654:                 temp[6] = ' ';
  3913     06E7  3020               	movlw	32
  3914     06E8  00AD               	movwf	set_time@temp+6
  3915                           
  3916                           ;menu.c: 655:                 temp[7] = ' ';
  3917     06E9  3020               	movlw	32
  3918     06EA  00AE               	movwf	set_time@temp+7
  3919                           
  3920                           ;menu.c: 656:                 break;
  3921     06EB  2ED1               	goto	l3164
  3922     06EC                     l3168:
  3923     06EC  085C               	movf	set_time@field,w
  3924                           
  3925                           ; Switch size 1, requested type "simple"
  3926                           ; Number of cases is 3, Range of values is 0 to 2
  3927                           ; switch strategies available:
  3928                           ; Name         Instructions Cycles
  3929                           ; simple_byte           10     6 (average)
  3930                           ; direct_byte           17     8 (fixed)
  3931                           ; jumptable            260     6 (fixed)
  3932                           ;	Chosen strategy is simple_byte
  3933     06ED  3A00               	xorlw	0	; case 0
  3934     06EE  1903               	skipnz
  3935     06EF  2EDD               	goto	l517
  3936     06F0  3A01               	xorlw	1	; case 1
  3937     06F1  1903               	skipnz
  3938     06F2  2EE2               	goto	l519
  3939     06F3  3A03               	xorlw	3	; case 2
  3940     06F4  1903               	skipnz
  3941     06F5  2EE7               	goto	l520
  3942     06F6  2ED1               	goto	l3164
  3943     06F7                     l3172:
  3944                           
  3945                           ;menu.c: 663:     if(key == 0x37)
  3946     06F7  3037               	movlw	55
  3947     06F8  1283               	bcf	3,5	;RP0=0, select bank0
  3948     06F9  1303               	bcf	3,6	;RP1=0, select bank0
  3949     06FA  0630               	xorwf	set_time@key,w
  3950     06FB  1D03               	btfss	3,2
  3951     06FC  2EFE               	goto	u3001
  3952     06FD  2EFF               	goto	u3000
  3953     06FE                     u3001:
  3954     06FE  2FBA               	goto	l3184
  3955     06FF                     u3000:
  3956     06FF                     l3174:
  3957                           
  3958                           ;menu.c: 664:     {;menu.c: 665:         write_ds1307(0x02,
  3959     06FF  300A               	movlw	10
  3960     0700  00F0               	movwf	___awmod@divisor
  3961     0701  3000               	movlw	0
  3962     0702  00F1               	movwf	___awmod@divisor+1
  3963     0703  085B               	movf	set_time@hours,w
  3964     0704  00A0               	movwf	??_set_time
  3965     0705  01A1               	clrf	??_set_time+1
  3966     0706  0820               	movf	??_set_time,w
  3967     0707  00F2               	movwf	___awmod@dividend
  3968     0708  0821               	movf	??_set_time+1,w
  3969     0709  00F3               	movwf	___awmod@dividend+1
  3970     070A  160A  118A  24EE  120A  118A  	fcall	___awmod
  3971     070F  0870               	movf	?___awmod,w
  3972     0710  1283               	bcf	3,5	;RP0=0, select bank0
  3973     0711  1303               	bcf	3,6	;RP1=0, select bank0
  3974     0712  00A2               	movwf	??_set_time+2
  3975     0713  0871               	movf	?___awmod+1,w
  3976     0714  00A3               	movwf	??_set_time+3
  3977     0715  300A               	movlw	10
  3978     0716  00F0               	movwf	___awdiv@divisor
  3979     0717  3000               	movlw	0
  3980     0718  00F1               	movwf	___awdiv@divisor+1
  3981     0719  085B               	movf	set_time@hours,w
  3982     071A  00A4               	movwf	??_set_time+4
  3983     071B  01A5               	clrf	??_set_time+5
  3984     071C  0824               	movf	??_set_time+4,w
  3985     071D  00F2               	movwf	___awdiv@dividend
  3986     071E  0825               	movf	??_set_time+5,w
  3987     071F  00F3               	movwf	___awdiv@dividend+1
  3988     0720  160A  118A  25A8  120A  118A  	fcall	___awdiv
  3989     0725  0870               	movf	?___awdiv,w
  3990     0726  1283               	bcf	3,5	;RP0=0, select bank0
  3991     0727  1303               	bcf	3,6	;RP1=0, select bank0
  3992     0728  00A6               	movwf	??_set_time+6
  3993     0729  3003               	movlw	3
  3994     072A                     u3015:
  3995     072A  1003               	clrc
  3996     072B  0DA6               	rlf	??_set_time+6,f
  3997     072C  3EFF               	addlw	-1
  3998     072D  1D03               	skipz
  3999     072E  2F2A               	goto	u3015
  4000     072F  1003               	clrc
  4001     0730  0D26               	rlf	??_set_time+6,w
  4002     0731  0422               	iorwf	??_set_time+2,w
  4003     0732  00F8               	movwf	write_ds1307@data
  4004     0733  3002               	movlw	2
  4005     0734  160A  118A  21A9  120A  118A  	fcall	_write_ds1307
  4006                           
  4007                           ;menu.c: 668:         write_ds1307(0x01,
  4008     0739  300A               	movlw	10
  4009     073A  00F0               	movwf	___awmod@divisor
  4010     073B  3000               	movlw	0
  4011     073C  00F1               	movwf	___awmod@divisor+1
  4012     073D  1283               	bcf	3,5	;RP0=0, select bank0
  4013     073E  1303               	bcf	3,6	;RP1=0, select bank0
  4014     073F  085A               	movf	set_time@mins,w
  4015     0740  00A0               	movwf	??_set_time
  4016     0741  01A1               	clrf	??_set_time+1
  4017     0742  0820               	movf	??_set_time,w
  4018     0743  00F2               	movwf	___awmod@dividend
  4019     0744  0821               	movf	??_set_time+1,w
  4020     0745  00F3               	movwf	___awmod@dividend+1
  4021     0746  160A  118A  24EE  120A  118A  	fcall	___awmod
  4022     074B  0870               	movf	?___awmod,w
  4023     074C  1283               	bcf	3,5	;RP0=0, select bank0
  4024     074D  1303               	bcf	3,6	;RP1=0, select bank0
  4025     074E  00A2               	movwf	??_set_time+2
  4026     074F  0871               	movf	?___awmod+1,w
  4027     0750  00A3               	movwf	??_set_time+3
  4028     0751  300A               	movlw	10
  4029     0752  00F0               	movwf	___awdiv@divisor
  4030     0753  3000               	movlw	0
  4031     0754  00F1               	movwf	___awdiv@divisor+1
  4032     0755  085A               	movf	set_time@mins,w
  4033     0756  00A4               	movwf	??_set_time+4
  4034     0757  01A5               	clrf	??_set_time+5
  4035     0758  0824               	movf	??_set_time+4,w
  4036     0759  00F2               	movwf	___awdiv@dividend
  4037     075A  0825               	movf	??_set_time+5,w
  4038     075B  00F3               	movwf	___awdiv@dividend+1
  4039     075C  160A  118A  25A8  120A  118A  	fcall	___awdiv
  4040     0761  0870               	movf	?___awdiv,w
  4041     0762  1283               	bcf	3,5	;RP0=0, select bank0
  4042     0763  1303               	bcf	3,6	;RP1=0, select bank0
  4043     0764  00A6               	movwf	??_set_time+6
  4044     0765  3003               	movlw	3
  4045     0766                     u3025:
  4046     0766  1003               	clrc
  4047     0767  0DA6               	rlf	??_set_time+6,f
  4048     0768  3EFF               	addlw	-1
  4049     0769  1D03               	skipz
  4050     076A  2F66               	goto	u3025
  4051     076B  1003               	clrc
  4052     076C  0D26               	rlf	??_set_time+6,w
  4053     076D  0422               	iorwf	??_set_time+2,w
  4054     076E  00F8               	movwf	write_ds1307@data
  4055     076F  3001               	movlw	1
  4056     0770  160A  118A  21A9  120A  118A  	fcall	_write_ds1307
  4057                           
  4058                           ;menu.c: 673:         write_ds1307(0x00,
  4059     0775  1283               	bcf	3,5	;RP0=0, select bank0
  4060     0776  1303               	bcf	3,6	;RP1=0, select bank0
  4061     0777  0859               	movf	set_time@secs,w
  4062     0778  00A0               	movwf	??_set_time
  4063     0779  01A1               	clrf	??_set_time+1
  4064     077A  0820               	movf	??_set_time,w
  4065     077B  00F2               	movwf	___awmod@dividend
  4066     077C  0821               	movf	??_set_time+1,w
  4067     077D  00F3               	movwf	___awmod@dividend+1
  4068     077E  300A               	movlw	10
  4069     077F  00F0               	movwf	___awmod@divisor
  4070     0780  3000               	movlw	0
  4071     0781  00F1               	movwf	___awmod@divisor+1
  4072     0782  160A  118A  24EE  120A  118A  	fcall	___awmod
  4073     0787  0870               	movf	?___awmod,w
  4074     0788  1283               	bcf	3,5	;RP0=0, select bank0
  4075     0789  1303               	bcf	3,6	;RP1=0, select bank0
  4076     078A  00A2               	movwf	??_set_time+2
  4077     078B  0871               	movf	?___awmod+1,w
  4078     078C  00A3               	movwf	??_set_time+3
  4079     078D  0859               	movf	set_time@secs,w
  4080     078E  00A4               	movwf	??_set_time+4
  4081     078F  01A5               	clrf	??_set_time+5
  4082     0790  0824               	movf	??_set_time+4,w
  4083     0791  00F2               	movwf	___awdiv@dividend
  4084     0792  0825               	movf	??_set_time+5,w
  4085     0793  00F3               	movwf	___awdiv@dividend+1
  4086     0794  300A               	movlw	10
  4087     0795  00F0               	movwf	___awdiv@divisor
  4088     0796  3000               	movlw	0
  4089     0797  00F1               	movwf	___awdiv@divisor+1
  4090     0798  160A  118A  25A8  120A  118A  	fcall	___awdiv
  4091     079D  0870               	movf	?___awdiv,w
  4092     079E  1283               	bcf	3,5	;RP0=0, select bank0
  4093     079F  1303               	bcf	3,6	;RP1=0, select bank0
  4094     07A0  00A6               	movwf	??_set_time+6
  4095     07A1  3003               	movlw	3
  4096     07A2                     u3035:
  4097     07A2  1003               	clrc
  4098     07A3  0DA6               	rlf	??_set_time+6,f
  4099     07A4  3EFF               	addlw	-1
  4100     07A5  1D03               	skipz
  4101     07A6  2FA2               	goto	u3035
  4102     07A7  1003               	clrc
  4103     07A8  0D26               	rlf	??_set_time+6,w
  4104     07A9  0422               	iorwf	??_set_time+2,w
  4105     07AA  00F8               	movwf	write_ds1307@data
  4106     07AB  307F               	movlw	127
  4107     07AC  05F8               	andwf	write_ds1307@data,f
  4108     07AD  3000               	movlw	0
  4109     07AE  160A  118A  21A9  120A  118A  	fcall	_write_ds1307
  4110     07B3                     l3176:
  4111                           
  4112                           ;menu.c: 676:         once = 1;
  4113     07B3  3001               	movlw	1
  4114     07B4  1283               	bcf	3,5	;RP0=0, select bank0
  4115     07B5  1303               	bcf	3,6	;RP1=0, select bank0
  4116     07B6  00E8               	movwf	set_time@once
  4117     07B7                     l3178:
  4118                           
  4119                           ;menu.c: 677:         field = 0;
  4120     07B7  01DC               	clrf	set_time@field
  4121     07B8                     l3180:
  4122                           
  4123                           ;menu.c: 679:         return 1;
  4124     07B8  3001               	movlw	1
  4125     07B9  2FC6               	goto	l522
  4126     07BA                     l3184:
  4127                           
  4128                           ;menu.c: 683:     if(key == 0x2F)
  4129     07BA  302F               	movlw	47
  4130     07BB  0630               	xorwf	set_time@key,w
  4131     07BC  1D03               	btfss	3,2
  4132     07BD  2FBF               	goto	u3041
  4133     07BE  2FC0               	goto	u3040
  4134     07BF                     u3041:
  4135     07BF  2FC5               	goto	l3194
  4136     07C0                     u3040:
  4137     07C0                     l3186:
  4138                           
  4139                           ;menu.c: 684:     {;menu.c: 685:         once = 1;
  4140     07C0  3001               	movlw	1
  4141     07C1  00E8               	movwf	set_time@once
  4142     07C2                     l3188:
  4143                           
  4144                           ;menu.c: 686:         field = 0;
  4145     07C2  01DC               	clrf	set_time@field
  4146     07C3                     l3190:
  4147                           
  4148                           ;menu.c: 688:         return 2;
  4149     07C3  3002               	movlw	2
  4150     07C4  2FC6               	goto	l522
  4151     07C5                     l3194:
  4152                           
  4153                           ;menu.c: 691:     return 0;
  4154     07C5  3000               	movlw	0
  4155     07C6                     l522:
  4156     07C6  0008               	return
  4157     07C7                     __end_of_set_time:
  4158                           
  4159                           	psect	text4
  4160     1183                     __ptext4:	
  4161 ;; *************** function ___bmul *****************
  4162 ;; Defined at:
  4163 ;;		line 4 in file "C:\Program Files\Microchip\xc8\v3.10\pic\sources\c99\common\Umul8.c"
  4164 ;; Parameters:    Size  Location     Type
  4165 ;;  multiplier      1    wreg     unsigned char 
  4166 ;;  multiplicand    1    0[COMMON] unsigned char 
  4167 ;; Auto vars:     Size  Location     Type
  4168 ;;  multiplier      1    2[COMMON] unsigned char 
  4169 ;;  product         1    1[COMMON] unsigned char 
  4170 ;; Return value:  Size  Location     Type
  4171 ;;                  1    wreg      unsigned char 
  4172 ;; Registers used:
  4173 ;;		wreg, status,2, status,0
  4174 ;; Tracked objects:
  4175 ;;		On entry : 0/0
  4176 ;;		On exit  : 0/0
  4177 ;;		Unchanged: 0/0
  4178 ;; Data sizes:     COMMON   BANK0   BANK1   BANK3   BANK2
  4179 ;;      Params:         1       0       0       0       0
  4180 ;;      Locals:         2       0       0       0       0
  4181 ;;      Temps:          0       0       0       0       0
  4182 ;;      Totals:         3       0       0       0       0
  4183 ;;Total ram usage:        3 bytes
  4184 ;; Hardware stack levels used: 1
  4185 ;; This function calls:
  4186 ;;		Nothing
  4187 ;; This function is called by:
  4188 ;;		_view_log
  4189 ;;		_set_time
  4190 ;; This function uses a non-reentrant model
  4191 ;;
  4192                           
  4193     1183                     ___bmul:	
  4194                           ;psect for function ___bmul
  4195                           
  4196                           
  4197                           ;incstack = 0
  4198                           ; Regs used in ___bmul: [wreg+status,2+status,0]
  4199                           ;___bmul@multiplier stored from wreg
  4200     1183  00F2               	movwf	___bmul@multiplier
  4201     1184                     l2654:
  4202     1184  01F1               	clrf	___bmul@product
  4203     1185                     l2656:
  4204     1185  1C72               	btfss	___bmul@multiplier,0
  4205     1186  2988               	goto	u2271
  4206     1187  2989               	goto	u2270
  4207     1188                     u2271:
  4208     1188  298B               	goto	l2660
  4209     1189                     u2270:
  4210     1189                     l2658:
  4211     1189  0870               	movf	___bmul@multiplicand,w
  4212     118A  07F1               	addwf	___bmul@product,f
  4213     118B                     l2660:
  4214     118B  1003               	clrc
  4215     118C  0DF0               	rlf	___bmul@multiplicand,f
  4216     118D                     l2662:
  4217     118D  1003               	clrc
  4218     118E  0CF2               	rrf	___bmul@multiplier,f
  4219     118F  0872               	movf	___bmul@multiplier,w
  4220     1190  1D03               	btfss	3,2
  4221     1191  2993               	goto	u2281
  4222     1192  2994               	goto	u2280
  4223     1193                     u2281:
  4224     1193  2985               	goto	l2656
  4225     1194                     u2280:
  4226     1194                     l2664:
  4227     1194  0871               	movf	___bmul@product,w
  4228     1195                     l668:
  4229     1195  0008               	return
  4230     1196                     __end_of___bmul:
  4231                           
  4232                           	psect	text5
  4233     12BD                     __ptext5:	
  4234 ;; *************** function _read_digital_keypad *****************
  4235 ;; Defined at:
  4236 ;;		line 10 in file "digital_keypad.c"
  4237 ;; Parameters:    Size  Location     Type
  4238 ;;  mode            1    wreg     unsigned char 
  4239 ;; Auto vars:     Size  Location     Type
  4240 ;;  mode            1    1[COMMON] unsigned char 
  4241 ;; Return value:  Size  Location     Type
  4242 ;;                  1    wreg      unsigned char 
  4243 ;; Registers used:
  4244 ;;		wreg, status,2, status,0
  4245 ;; Tracked objects:
  4246 ;;		On entry : 0/0
  4247 ;;		On exit  : 0/0
  4248 ;;		Unchanged: 0/0
  4249 ;; Data sizes:     COMMON   BANK0   BANK1   BANK3   BANK2
  4250 ;;      Params:         0       0       0       0       0
  4251 ;;      Locals:         1       0       0       0       0
  4252 ;;      Temps:          1       0       0       0       0
  4253 ;;      Totals:         2       0       0       0       0
  4254 ;;Total ram usage:        2 bytes
  4255 ;; Hardware stack levels used: 1
  4256 ;; This function calls:
  4257 ;;		Nothing
  4258 ;; This function is called by:
  4259 ;;		_main
  4260 ;;		_menu
  4261 ;; This function uses a non-reentrant model
  4262 ;;
  4263                           
  4264     12BD                     _read_digital_keypad:	
  4265                           ;psect for function _read_digital_keypad
  4266                           
  4267                           
  4268                           ;incstack = 0
  4269                           ; Regs used in _read_digital_keypad: [wreg+status,2+status,0]
  4270                           ;read_digital_keypad@mode stored from wreg
  4271     12BD  00F1               	movwf	read_digital_keypad@mode
  4272     12BE                     l2808:
  4273                           
  4274                           ;digital_keypad.c: 10: unsigned char read_digital_keypad(unsigned char mode);digital_key
      +                          pad.c: 11: {;digital_keypad.c: 12:     static unsigned char once = 1;;digital_keypad.c: 
      +                          14:     if (mode == 0)
  4275     12BE  0871               	movf	read_digital_keypad@mode,w
  4276     12BF  1D03               	btfss	3,2
  4277     12C0  2AC2               	goto	u2581
  4278     12C1  2AC3               	goto	u2580
  4279     12C2                     u2581:
  4280     12C2  2AC8               	goto	l2816
  4281     12C3                     u2580:
  4282     12C3                     l2810:
  4283                           
  4284                           ;digital_keypad.c: 15:     {;digital_keypad.c: 16:         return PORTB & 0x3F;
  4285     12C3  1283               	bcf	3,5	;RP0=0, select bank0
  4286     12C4  1303               	bcf	3,6	;RP1=0, select bank0
  4287     12C5  0806               	movf	6,w	;volatile
  4288     12C6  393F               	andlw	63
  4289     12C7  2AE6               	goto	l165
  4290     12C8                     l2816:
  4291                           
  4292                           ;digital_keypad.c: 19:     {;digital_keypad.c: 20:         if (((PORTB & 0x3F) != 0x3F) 
      +                          && once)
  4293     12C8  303F               	movlw	63
  4294     12C9  1283               	bcf	3,5	;RP0=0, select bank0
  4295     12CA  1303               	bcf	3,6	;RP1=0, select bank0
  4296     12CB  0506               	andwf	6,w	;volatile
  4297     12CC  00F0               	movwf	??_read_digital_keypad
  4298     12CD  303F               	movlw	63
  4299     12CE  0670               	xorwf	??_read_digital_keypad,w
  4300     12CF  1903               	btfsc	3,2
  4301     12D0  2AD2               	goto	u2591
  4302     12D1  2AD3               	goto	u2590
  4303     12D2                     u2591:
  4304     12D2  2ADA               	goto	l2828
  4305     12D3                     u2590:
  4306     12D3                     l2818:
  4307     12D3  086F               	movf	read_digital_keypad@once,w
  4308     12D4  1903               	btfsc	3,2
  4309     12D5  2AD7               	goto	u2601
  4310     12D6  2AD8               	goto	u2600
  4311     12D7                     u2601:
  4312     12D7  2ADA               	goto	l2828
  4313     12D8                     u2600:
  4314     12D8                     l2820:
  4315                           
  4316                           ;digital_keypad.c: 21:         {;digital_keypad.c: 22:             once = 0;
  4317     12D8  01EF               	clrf	read_digital_keypad@once
  4318     12D9  2AC3               	goto	l2810
  4319     12DA                     l2828:
  4320     12DA  303F               	movlw	63
  4321     12DB  0506               	andwf	6,w	;volatile
  4322     12DC  00F0               	movwf	??_read_digital_keypad
  4323     12DD  303F               	movlw	63
  4324     12DE  0670               	xorwf	??_read_digital_keypad,w
  4325     12DF  1D03               	btfss	3,2
  4326     12E0  2AE2               	goto	u2611
  4327     12E1  2AE3               	goto	u2610
  4328     12E2                     u2611:
  4329     12E2  2AE5               	goto	l2832
  4330     12E3                     u2610:
  4331     12E3                     l2830:
  4332                           
  4333                           ;digital_keypad.c: 27:         {;digital_keypad.c: 28:             once = 1;
  4334     12E3  3001               	movlw	1
  4335     12E4  00EF               	movwf	read_digital_keypad@once
  4336     12E5                     l2832:
  4337                           
  4338                           ;digital_keypad.c: 32:     return 0x3F;
  4339     12E5  303F               	movlw	63
  4340     12E6                     l165:
  4341     12E6  0008               	return
  4342     12E7                     __end_of_read_digital_keypad:
  4343                           
  4344                           	psect	text6
  4345     0D09                     __ptext6:	
  4346 ;; *************** function _download_log *****************
  4347 ;; Defined at:
  4348 ;;		line 462 in file "menu.c"
  4349 ;; Parameters:    Size  Location     Type
  4350 ;;		None
  4351 ;; Auto vars:     Size  Location     Type
  4352 ;;  addr            1   11[COMMON] unsigned char 
  4353 ;;  i               1   10[COMMON] unsigned char 
  4354 ;; Return value:  Size  Location     Type
  4355 ;;                  1    wreg      void 
  4356 ;; Registers used:
  4357 ;;		wreg, fsr0l, fsr0h, status,2, status,0, pclath, btemp1, cstack
  4358 ;; Tracked objects:
  4359 ;;		On entry : 0/0
  4360 ;;		On exit  : 0/0
  4361 ;;		Unchanged: 0/0
  4362 ;; Data sizes:     COMMON   BANK0   BANK1   BANK3   BANK2
  4363 ;;      Params:         0       0       0       0       0
  4364 ;;      Locals:         2       0       0       0       0
  4365 ;;      Temps:          3       0       0       0       0
  4366 ;;      Totals:         5       0       0       0       0
  4367 ;;Total ram usage:        5 bytes
  4368 ;; Hardware stack levels used: 1
  4369 ;; Hardware stack levels required when called: 2
  4370 ;; This function calls:
  4371 ;;		_clcd_print
  4372 ;;		_read_external_eeprom
  4373 ;;		_uart_putch
  4374 ;;		_uart_puts
  4375 ;; This function is called by:
  4376 ;;		_menu
  4377 ;; This function uses a non-reentrant model
  4378 ;;
  4379                           
  4380     0D09                     _download_log:	
  4381                           ;psect for function _download_log
  4382                           
  4383     0D09                     l3004:	
  4384                           ;incstack = 0
  4385                           ; Regs used in _download_log: [wreg-fsr0h+status,2+status,0+pclath+btemp1+cstack]
  4386                           
  4387                           
  4388                           ;menu.c: 464:     unsigned char i;;menu.c: 465:     unsigned char addr = 0;
  4389     0D09  01FB               	clrf	download_log@addr
  4390     0D0A                     l3006:
  4391                           
  4392                           ;menu.c: 467:     clcd_print("DOWNLOADING... ", (0x80 + 0));
  4393     0D0A  302C               	movlw	low (STR_41| (0+32768))
  4394     0D0B  00F4               	movwf	clcd_print@str
  4395     0D0C  3089               	movlw	high (STR_41| (0+32768))
  4396     0D0D  00F5               	movwf	clcd_print@str+1
  4397     0D0E  3080               	movlw	128
  4398     0D0F  00F6               	movwf	clcd_print@addr
  4399     0D10  160A  118A  233D  120A  158A  	fcall	_clcd_print
  4400     0D15                     l3008:
  4401                           
  4402                           ;menu.c: 468:     clcd_print("PLEASE WAIT    ", (0xC0 + 0));
  4403     0D15  30EC               	movlw	low (STR_42| (0+32768))
  4404     0D16  00F4               	movwf	clcd_print@str
  4405     0D17  3088               	movlw	high (STR_42| (0+32768))
  4406     0D18  00F5               	movwf	clcd_print@str+1
  4407     0D19  30C0               	movlw	192
  4408     0D1A  00F6               	movwf	clcd_print@addr
  4409     0D1B  160A  118A  233D  120A  158A  	fcall	_clcd_print
  4410     0D20                     l3010:
  4411                           
  4412                           ;menu.c: 470:     uart_puts("\r\n");
  4413     0D20  3024               	movlw	low ((STR_45+16)| (0+32768))
  4414     0D21  00F5               	movwf	uart_puts@str
  4415     0D22  3088               	movlw	high ((STR_45+16)| (0+32768))
  4416     0D23  00F6               	movwf	uart_puts@str+1
  4417     0D24  160A  118A  2246  120A  158A  	fcall	_uart_puts
  4418     0D29                     l3012:
  4419                           
  4420                           ;menu.c: 471:     uart_puts("TIME     EV SP\r\n");
  4421     0D29  3027               	movlw	low (STR_44| (0+32768))
  4422     0D2A  00F5               	movwf	uart_puts@str
  4423     0D2B  3088               	movlw	high (STR_44| (0+32768))
  4424     0D2C  00F6               	movwf	uart_puts@str+1
  4425     0D2D  160A  118A  2246  120A  158A  	fcall	_uart_puts
  4426     0D32                     l3014:
  4427                           
  4428                           ;menu.c: 472:     uart_puts("----------------\r\n");
  4429     0D32  3014               	movlw	low (STR_45| (0+32768))
  4430     0D33  00F5               	movwf	uart_puts@str
  4431     0D34  3088               	movlw	high (STR_45| (0+32768))
  4432     0D35  00F6               	movwf	uart_puts@str+1
  4433     0D36  160A  118A  2246  120A  158A  	fcall	_uart_puts
  4434     0D3B                     l3016:
  4435                           
  4436                           ;menu.c: 474:     if(event_count == 0)
  4437     0D3B  1283               	bcf	3,5	;RP0=0, select bank0
  4438     0D3C  1303               	bcf	3,6	;RP1=0, select bank0
  4439     0D3D  0863               	movf	_event_count,w
  4440     0D3E  1D03               	btfss	3,2
  4441     0D3F  2D41               	goto	u2791
  4442     0D40  2D42               	goto	u2790
  4443     0D41                     u2791:
  4444     0D41  2D6F               	goto	l3024
  4445     0D42                     u2790:
  4446     0D42                     l3018:
  4447                           
  4448                           ;menu.c: 475:     {;menu.c: 476:         uart_puts("NO LOGS FOUND\r\n");
  4449     0D42  307C               	movlw	low (STR_46| (0+32768))
  4450     0D43  00F5               	movwf	uart_puts@str
  4451     0D44  3088               	movlw	high (STR_46| (0+32768))
  4452     0D45  00F6               	movwf	uart_puts@str+1
  4453     0D46  160A  118A  2246  120A  158A  	fcall	_uart_puts
  4454                           
  4455                           ;menu.c: 478:         clcd_print("NO LOGS        ", (0x80 + 0));
  4456     0D4B  30AC               	movlw	low (STR_47| (0+32768))
  4457     0D4C  00F4               	movwf	clcd_print@str
  4458     0D4D  3088               	movlw	high (STR_47| (0+32768))
  4459     0D4E  00F5               	movwf	clcd_print@str+1
  4460     0D4F  3080               	movlw	128
  4461     0D50  00F6               	movwf	clcd_print@addr
  4462     0D51  160A  118A  233D  120A  158A  	fcall	_clcd_print
  4463                           
  4464                           ;menu.c: 479:         clcd_print("FOUND          ", (0xC0 + 0));
  4465     0D56  308C               	movlw	low (STR_48| (0+32768))
  4466     0D57  00F4               	movwf	clcd_print@str
  4467     0D58  3088               	movlw	high (STR_48| (0+32768))
  4468     0D59  00F5               	movwf	clcd_print@str+1
  4469     0D5A  30C0               	movlw	192
  4470     0D5B  00F6               	movwf	clcd_print@addr
  4471     0D5C  160A  118A  233D  120A  158A  	fcall	_clcd_print
  4472     0D61                     l3020:
  4473                           
  4474                           ;menu.c: 481:         _delay((unsigned long)((1500)*(20000000/4000.0)));
  4475     0D61  3027               	movlw	39
  4476     0D62  00F9               	movwf	??_download_log+2
  4477     0D63  300D               	movlw	13
  4478     0D64  00F8               	movwf	??_download_log+1
  4479     0D65  3026               	movlw	38
  4480     0D66  00F7               	movwf	??_download_log
  4481     0D67                     u4327:
  4482     0D67  0BF7               	decfsz	??_download_log,f
  4483     0D68  2D67               	goto	u4327
  4484     0D69  0BF8               	decfsz	??_download_log+1,f
  4485     0D6A  2D67               	goto	u4327
  4486     0D6B  0BF9               	decfsz	??_download_log+2,f
  4487     0D6C  2D67               	goto	u4327
  4488     0D6D  0000               	nop
  4489     0D6E  2E35               	goto	l471
  4490     0D6F                     l3024:
  4491                           
  4492                           ;menu.c: 485:     for(i = 0; i < event_count; i++)
  4493     0D6F  01FA               	clrf	download_log@i
  4494     0D70  2E16               	goto	l3060
  4495     0D71                     l3026:
  4496                           
  4497                           ;menu.c: 486:     {;menu.c: 488:         uart_putch(read_external_eeprom(addr++));
  4498     0D71  087B               	movf	download_log@addr,w
  4499     0D72  160A  118A  2312  120A  158A  	fcall	_read_external_eeprom
  4500     0D77  160A  118A  2106  120A  158A  	fcall	_uart_putch
  4501     0D7C                     l3028:
  4502     0D7C  3001               	movlw	1
  4503     0D7D  07FB               	addwf	download_log@addr,f
  4504     0D7E                     l3030:
  4505                           
  4506                           ;menu.c: 489:         uart_putch(read_external_eeprom(addr++));
  4507     0D7E  087B               	movf	download_log@addr,w
  4508     0D7F  160A  118A  2312  120A  158A  	fcall	_read_external_eeprom
  4509     0D84  160A  118A  2106  120A  158A  	fcall	_uart_putch
  4510     0D89  3001               	movlw	1
  4511     0D8A  07FB               	addwf	download_log@addr,f
  4512     0D8B                     l3032:
  4513                           
  4514                           ;menu.c: 490:         uart_putch(':');
  4515     0D8B  303A               	movlw	58
  4516     0D8C  160A  118A  2106  120A  158A  	fcall	_uart_putch
  4517     0D91                     l3034:
  4518                           
  4519                           ;menu.c: 493:         uart_putch(read_external_eeprom(addr++));
  4520     0D91  087B               	movf	download_log@addr,w
  4521     0D92  160A  118A  2312  120A  158A  	fcall	_read_external_eeprom
  4522     0D97  160A  118A  2106  120A  158A  	fcall	_uart_putch
  4523     0D9C  3001               	movlw	1
  4524     0D9D  07FB               	addwf	download_log@addr,f
  4525     0D9E                     l3036:
  4526                           
  4527                           ;menu.c: 494:         uart_putch(read_external_eeprom(addr++));
  4528     0D9E  087B               	movf	download_log@addr,w
  4529     0D9F  160A  118A  2312  120A  158A  	fcall	_read_external_eeprom
  4530     0DA4  160A  118A  2106  120A  158A  	fcall	_uart_putch
  4531     0DA9                     l3038:
  4532     0DA9  3001               	movlw	1
  4533     0DAA  07FB               	addwf	download_log@addr,f
  4534                           
  4535                           ;menu.c: 495:         uart_putch(':');
  4536     0DAB  303A               	movlw	58
  4537     0DAC  160A  118A  2106  120A  158A  	fcall	_uart_putch
  4538                           
  4539                           ;menu.c: 498:         uart_putch(read_external_eeprom(addr++));
  4540     0DB1  087B               	movf	download_log@addr,w
  4541     0DB2  160A  118A  2312  120A  158A  	fcall	_read_external_eeprom
  4542     0DB7  160A  118A  2106  120A  158A  	fcall	_uart_putch
  4543     0DBC                     l3040:
  4544     0DBC  3001               	movlw	1
  4545     0DBD  07FB               	addwf	download_log@addr,f
  4546     0DBE                     l3042:
  4547                           
  4548                           ;menu.c: 499:         uart_putch(read_external_eeprom(addr++));
  4549     0DBE  087B               	movf	download_log@addr,w
  4550     0DBF  160A  118A  2312  120A  158A  	fcall	_read_external_eeprom
  4551     0DC4  160A  118A  2106  120A  158A  	fcall	_uart_putch
  4552     0DC9  3001               	movlw	1
  4553     0DCA  07FB               	addwf	download_log@addr,f
  4554     0DCB                     l3044:
  4555                           
  4556                           ;menu.c: 500:         uart_putch(' ');
  4557     0DCB  3020               	movlw	32
  4558     0DCC  160A  118A  2106  120A  158A  	fcall	_uart_putch
  4559     0DD1                     l3046:
  4560                           
  4561                           ;menu.c: 503:         uart_putch(read_external_eeprom(addr++));
  4562     0DD1  087B               	movf	download_log@addr,w
  4563     0DD2  160A  118A  2312  120A  158A  	fcall	_read_external_eeprom
  4564     0DD7  160A  118A  2106  120A  158A  	fcall	_uart_putch
  4565     0DDC  3001               	movlw	1
  4566     0DDD  07FB               	addwf	download_log@addr,f
  4567     0DDE                     l3048:
  4568                           
  4569                           ;menu.c: 504:         uart_putch(read_external_eeprom(addr++));
  4570     0DDE  087B               	movf	download_log@addr,w
  4571     0DDF  160A  118A  2312  120A  158A  	fcall	_read_external_eeprom
  4572     0DE4  160A  118A  2106  120A  158A  	fcall	_uart_putch
  4573     0DE9                     l3050:
  4574     0DE9  3001               	movlw	1
  4575     0DEA  07FB               	addwf	download_log@addr,f
  4576                           
  4577                           ;menu.c: 505:         uart_putch(' ');
  4578     0DEB  3020               	movlw	32
  4579     0DEC  160A  118A  2106  120A  158A  	fcall	_uart_putch
  4580                           
  4581                           ;menu.c: 508:         uart_putch(read_external_eeprom(addr++));
  4582     0DF1  087B               	movf	download_log@addr,w
  4583     0DF2  160A  118A  2312  120A  158A  	fcall	_read_external_eeprom
  4584     0DF7  160A  118A  2106  120A  158A  	fcall	_uart_putch
  4585     0DFC                     l3052:
  4586     0DFC  3001               	movlw	1
  4587     0DFD  07FB               	addwf	download_log@addr,f
  4588     0DFE                     l3054:
  4589                           
  4590                           ;menu.c: 509:         uart_putch(read_external_eeprom(addr++));
  4591     0DFE  087B               	movf	download_log@addr,w
  4592     0DFF  160A  118A  2312  120A  158A  	fcall	_read_external_eeprom
  4593     0E04  160A  118A  2106  120A  158A  	fcall	_uart_putch
  4594     0E09  3001               	movlw	1
  4595     0E0A  07FB               	addwf	download_log@addr,f
  4596     0E0B                     l3056:
  4597                           
  4598                           ;menu.c: 511:         uart_puts("\r\n");
  4599     0E0B  3024               	movlw	low ((STR_45+16)| (0+32768))
  4600     0E0C  00F5               	movwf	uart_puts@str
  4601     0E0D  3088               	movlw	high ((STR_45+16)| (0+32768))
  4602     0E0E  00F6               	movwf	uart_puts@str+1
  4603     0E0F  160A  118A  2246  120A  158A  	fcall	_uart_puts
  4604     0E14                     l3058:
  4605                           
  4606                           ;menu.c: 512:     }
  4607     0E14  3001               	movlw	1
  4608     0E15  07FA               	addwf	download_log@i,f
  4609     0E16                     l3060:
  4610     0E16  1283               	bcf	3,5	;RP0=0, select bank0
  4611     0E17  1303               	bcf	3,6	;RP1=0, select bank0
  4612     0E18  0863               	movf	_event_count,w
  4613     0E19  027A               	subwf	download_log@i,w
  4614     0E1A  1C03               	skipc
  4615     0E1B  2E1D               	goto	u2801
  4616     0E1C  2E1E               	goto	u2800
  4617     0E1D                     u2801:
  4618     0E1D  2D71               	goto	l3026
  4619     0E1E                     u2800:
  4620     0E1E                     l3062:
  4621                           
  4622                           ;menu.c: 514:     clcd_print("DOWNLOAD DONE  ", (0x80 + 0));
  4623     0E1E  300C               	movlw	low (STR_50| (0+32768))
  4624     0E1F  00F4               	movwf	clcd_print@str
  4625     0E20  3089               	movlw	high (STR_50| (0+32768))
  4626     0E21  00F5               	movwf	clcd_print@str+1
  4627     0E22  3080               	movlw	128
  4628     0E23  00F6               	movwf	clcd_print@addr
  4629     0E24  160A  118A  233D  120A  158A  	fcall	_clcd_print
  4630                           
  4631                           ;menu.c: 515:     clcd_print("SUCCESS        ", (0xC0 + 0));
  4632     0E29  30BC               	movlw	low (STR_51| (0+32768))
  4633     0E2A  00F4               	movwf	clcd_print@str
  4634     0E2B  3088               	movlw	high (STR_51| (0+32768))
  4635     0E2C  00F5               	movwf	clcd_print@str+1
  4636     0E2D  30C0               	movlw	192
  4637     0E2E  00F6               	movwf	clcd_print@addr
  4638     0E2F  160A  118A  233D  120A  158A  	fcall	_clcd_print
  4639     0E34  2D61               	goto	l3020
  4640     0E35                     l471:
  4641     0E35  0008               	return
  4642     0E36                     __end_of_download_log:
  4643                           
  4644                           	psect	text7
  4645     1246                     __ptext7:	
  4646 ;; *************** function _uart_puts *****************
  4647 ;; Defined at:
  4648 ;;		line 36 in file "uart.c"
  4649 ;; Parameters:    Size  Location     Type
  4650 ;;  str             2    5[COMMON] PTR const unsigned char 
  4651 ;;		 -> STR_49(3), STR_46(16), STR_45(19), STR_44(17), 
  4652 ;;		 -> STR_43(3), 
  4653 ;; Auto vars:     Size  Location     Type
  4654 ;;		None
  4655 ;; Return value:  Size  Location     Type
  4656 ;;                  1    wreg      void 
  4657 ;; Registers used:
  4658 ;;		wreg, fsr0l, fsr0h, status,2, status,0, pclath, btemp1, cstack
  4659 ;; Tracked objects:
  4660 ;;		On entry : 0/0
  4661 ;;		On exit  : 0/0
  4662 ;;		Unchanged: 0/0
  4663 ;; Data sizes:     COMMON   BANK0   BANK1   BANK3   BANK2
  4664 ;;      Params:         2       0       0       0       0
  4665 ;;      Locals:         0       0       0       0       0
  4666 ;;      Temps:          0       0       0       0       0
  4667 ;;      Totals:         2       0       0       0       0
  4668 ;;Total ram usage:        2 bytes
  4669 ;; Hardware stack levels used: 1
  4670 ;; Hardware stack levels required when called: 1
  4671 ;; This function calls:
  4672 ;;		_uart_putch
  4673 ;; This function is called by:
  4674 ;;		_download_log
  4675 ;; This function uses a non-reentrant model
  4676 ;;
  4677                           
  4678     1246                     _uart_puts:	
  4679                           ;psect for function _uart_puts
  4680                           
  4681     1246                     l2630:	
  4682                           ;incstack = 0
  4683                           ; Regs used in _uart_puts: [wreg-fsr0h+status,2+status,0+pclath+btemp1+cstack]
  4684                           
  4685                           
  4686                           ;uart.c: 36: void uart_puts(const char *str);uart.c: 37: {;uart.c: 38:     while(*str)
  4687     1246  2A5B               	goto	l2636
  4688     1247                     l2632:
  4689                           
  4690                           ;uart.c: 39:     {;uart.c: 40:         uart_putch(*str++);
  4691     1247  0876               	movf	uart_puts@str+1,w
  4692     1248  00FF               	movwf	btemp1
  4693     1249  0875               	movf	uart_puts@str,w
  4694     124A  0084               	movwf	4
  4695     124B  160A  118A  2000  160A  118A  	fcall	stringtab
  4696     1250  160A  118A  2106  160A  118A  	fcall	_uart_putch
  4697     1255                     l2634:
  4698     1255  3001               	movlw	1
  4699     1256  07F5               	addwf	uart_puts@str,f
  4700     1257  1803               	skipnc
  4701     1258  0AF6               	incf	uart_puts@str+1,f
  4702     1259  3000               	movlw	0
  4703     125A  07F6               	addwf	uart_puts@str+1,f
  4704     125B                     l2636:
  4705                           
  4706                           ;uart.c: 38:     while(*str)
  4707     125B  0876               	movf	uart_puts@str+1,w
  4708     125C  1283               	bcf	3,5	;RP0=0, select bank0
  4709     125D  1303               	bcf	3,6	;RP1=0, select bank0
  4710     125E  00FF               	movwf	btemp1
  4711     125F  0875               	movf	uart_puts@str,w
  4712     1260  0084               	movwf	4
  4713     1261  160A  118A  2000  160A  118A  	fcall	stringtab
  4714     1266  3A00               	xorlw	0
  4715     1267  1D03               	skipz
  4716     1268  2A6A               	goto	u2231
  4717     1269  2A6B               	goto	u2230
  4718     126A                     u2231:
  4719     126A  2A47               	goto	l2632
  4720     126B                     u2230:
  4721     126B                     l309:
  4722     126B  0008               	return
  4723     126C                     __end_of_uart_puts:
  4724                           
  4725                           	psect	text8
  4726     1106                     __ptext8:	
  4727 ;; *************** function _uart_putch *****************
  4728 ;; Defined at:
  4729 ;;		line 30 in file "uart.c"
  4730 ;; Parameters:    Size  Location     Type
  4731 ;;  data            1    wreg     unsigned char 
  4732 ;; Auto vars:     Size  Location     Type
  4733 ;;  data            1    4[COMMON] unsigned char 
  4734 ;; Return value:  Size  Location     Type
  4735 ;;                  1    wreg      void 
  4736 ;; Registers used:
  4737 ;;		wreg
  4738 ;; Tracked objects:
  4739 ;;		On entry : 0/0
  4740 ;;		On exit  : 0/0
  4741 ;;		Unchanged: 0/0
  4742 ;; Data sizes:     COMMON   BANK0   BANK1   BANK3   BANK2
  4743 ;;      Params:         0       0       0       0       0
  4744 ;;      Locals:         1       0       0       0       0
  4745 ;;      Temps:          0       0       0       0       0
  4746 ;;      Totals:         1       0       0       0       0
  4747 ;;Total ram usage:        1 bytes
  4748 ;; Hardware stack levels used: 1
  4749 ;; This function calls:
  4750 ;;		Nothing
  4751 ;; This function is called by:
  4752 ;;		_uart_puts
  4753 ;;		_download_log
  4754 ;; This function uses a non-reentrant model
  4755 ;;
  4756                           
  4757     1106                     _uart_putch:	
  4758                           ;psect for function _uart_putch
  4759                           
  4760                           
  4761                           ;incstack = 0
  4762                           ; Regs used in _uart_putch: [wreg]
  4763                           ;uart_putch@data stored from wreg
  4764     1106  00F4               	movwf	uart_putch@data
  4765     1107                     l2576:
  4766     1107                     l300:	
  4767                           ;uart.c: 30: void uart_putch(unsigned char data);uart.c: 31: {;uart.c: 32:     while(!TX
      +                          IF);
  4768                           
  4769     1107  1283               	bcf	3,5	;RP0=0, select bank0
  4770     1108  1303               	bcf	3,6	;RP1=0, select bank0
  4771     1109  1E0C               	btfss	12,4	;volatile
  4772     110A  290C               	goto	u2201
  4773     110B  290D               	goto	u2200
  4774     110C                     u2201:
  4775     110C  2907               	goto	l300
  4776     110D                     u2200:
  4777     110D                     l2578:
  4778                           
  4779                           ;uart.c: 33:     TXREG = data;
  4780     110D  0874               	movf	uart_putch@data,w
  4781     110E  0099               	movwf	25	;volatile
  4782     110F                     l303:
  4783     110F  0008               	return
  4784     1110                     __end_of_uart_putch:
  4785                           
  4786                           	psect	text9
  4787     1312                     __ptext9:	
  4788 ;; *************** function _read_external_eeprom *****************
  4789 ;; Defined at:
  4790 ;;		line 15 in file "external_eeprom.c"
  4791 ;; Parameters:    Size  Location     Type
  4792 ;;  address         1    wreg     unsigned char 
  4793 ;; Auto vars:     Size  Location     Type
  4794 ;;  address         1    2[COMMON] unsigned char 
  4795 ;;  data            1    3[COMMON] unsigned char 
  4796 ;; Return value:  Size  Location     Type
  4797 ;;                  1    wreg      unsigned char 
  4798 ;; Registers used:
  4799 ;;		wreg, status,2, status,0, pclath, cstack
  4800 ;; Tracked objects:
  4801 ;;		On entry : 0/0
  4802 ;;		On exit  : 0/0
  4803 ;;		Unchanged: 0/0
  4804 ;; Data sizes:     COMMON   BANK0   BANK1   BANK3   BANK2
  4805 ;;      Params:         0       0       0       0       0
  4806 ;;      Locals:         2       0       0       0       0
  4807 ;;      Temps:          0       0       0       0       0
  4808 ;;      Totals:         2       0       0       0       0
  4809 ;;Total ram usage:        2 bytes
  4810 ;; Hardware stack levels used: 1
  4811 ;; This function calls:
  4812 ;;		_i2c_read
  4813 ;;		_i2c_rep_start
  4814 ;;		_i2c_start
  4815 ;;		_i2c_stop
  4816 ;;		_i2c_write
  4817 ;; This function is called by:
  4818 ;;		_view_log
  4819 ;;		_download_log
  4820 ;; This function uses a non-reentrant model
  4821 ;;
  4822                           
  4823     1312                     _read_external_eeprom:	
  4824                           ;psect for function _read_external_eeprom
  4825                           
  4826                           
  4827                           ;incstack = 0
  4828                           ; Regs used in _read_external_eeprom: [wreg+status,2+status,0+pclath+cstack]
  4829                           ;read_external_eeprom@address stored from wreg
  4830     1312  00F2               	movwf	read_external_eeprom@address
  4831     1313                     l2620:
  4832                           
  4833                           ;external_eeprom.c: 15: unsigned char read_external_eeprom(unsigned char address);extern
      +                          al_eeprom.c: 16: {;external_eeprom.c: 17:     unsigned char data;;external_eeprom.c: 19:
      +                               i2c_start();
  4834     1313  160A  118A  20F4  160A  118A  	fcall	_i2c_start
  4835                           
  4836                           ;external_eeprom.c: 20:     i2c_write(0xA0);
  4837     1318  30A0               	movlw	160
  4838     1319  160A  118A  2125  160A  118A  	fcall	_i2c_write
  4839                           
  4840                           ;external_eeprom.c: 21:     i2c_write(address);
  4841     131E  0872               	movf	read_external_eeprom@address,w
  4842     131F  160A  118A  2125  160A  118A  	fcall	_i2c_write
  4843                           
  4844                           ;external_eeprom.c: 22:     i2c_rep_start();
  4845     1324  160A  118A  211A  160A  118A  	fcall	_i2c_rep_start
  4846                           
  4847                           ;external_eeprom.c: 23:     i2c_write(0xA1);
  4848     1329  30A1               	movlw	161
  4849     132A  160A  118A  2125  160A  118A  	fcall	_i2c_write
  4850                           
  4851                           ;external_eeprom.c: 24:     data = i2c_read(0);
  4852     132F  3000               	movlw	0
  4853     1330  160A  118A  2225  160A  118A  	fcall	_i2c_read
  4854     1335  00F3               	movwf	read_external_eeprom@data
  4855                           
  4856                           ;external_eeprom.c: 25:     i2c_stop();
  4857     1336  160A  118A  20FD  160A  118A  	fcall	_i2c_stop
  4858     133B                     l2622:
  4859                           
  4860                           ;external_eeprom.c: 27:     return data;
  4861     133B  0873               	movf	read_external_eeprom@data,w
  4862     133C                     l119:
  4863     133C  0008               	return
  4864     133D                     __end_of_read_external_eeprom:
  4865                           
  4866                           	psect	text10
  4867     1446                     __ptext10:	
  4868 ;; *************** function _clear_log *****************
  4869 ;; Defined at:
  4870 ;;		line 394 in file "menu.c"
  4871 ;; Parameters:    Size  Location     Type
  4872 ;;		None
  4873 ;; Auto vars:     Size  Location     Type
  4874 ;;		None
  4875 ;; Return value:  Size  Location     Type
  4876 ;;                  1    wreg      void 
  4877 ;; Registers used:
  4878 ;;		wreg, fsr0l, fsr0h, status,2, status,0, pclath, btemp1, cstack
  4879 ;; Tracked objects:
  4880 ;;		On entry : 0/0
  4881 ;;		On exit  : 0/0
  4882 ;;		Unchanged: 0/0
  4883 ;; Data sizes:     COMMON   BANK0   BANK1   BANK3   BANK2
  4884 ;;      Params:         0       0       0       0       0
  4885 ;;      Locals:         0       0       0       0       0
  4886 ;;      Temps:          2       0       0       0       0
  4887 ;;      Totals:         2       0       0       0       0
  4888 ;;Total ram usage:        2 bytes
  4889 ;; Hardware stack levels used: 1
  4890 ;; Hardware stack levels required when called: 1
  4891 ;; This function calls:
  4892 ;;		_clcd_print
  4893 ;; This function is called by:
  4894 ;;		_menu
  4895 ;; This function uses a non-reentrant model
  4896 ;;
  4897                           
  4898     1446                     _clear_log:	
  4899                           ;psect for function _clear_log
  4900                           
  4901     1446                     l2990:	
  4902                           ;incstack = 0
  4903                           ; Regs used in _clear_log: [wreg-fsr0h+status,2+status,0+pclath+btemp1+cstack]
  4904                           
  4905                           
  4906                           ;menu.c: 396:     static unsigned int delay = 0;;menu.c: 397:     static unsigned char o
      +                          nce = 1;;menu.c: 400:     if(once)
  4907     1446  1283               	bcf	3,5	;RP0=0, select bank0
  4908     1447  1303               	bcf	3,6	;RP1=0, select bank0
  4909     1448  0869               	movf	clear_log@once,w
  4910     1449  1903               	btfsc	3,2
  4911     144A  2C4C               	goto	u2771
  4912     144B  2C4D               	goto	u2770
  4913     144C                     u2771:
  4914     144C  2C6B               	goto	l2998
  4915     144D                     u2770:
  4916     144D                     l2992:
  4917                           
  4918                           ;menu.c: 401:     {;menu.c: 403:         event_count = 0;
  4919     144D  01E3               	clrf	_event_count
  4920     144E                     l2994:
  4921                           
  4922                           ;menu.c: 405:         clcd_print("Logs are      ", (0x80 + 0));
  4923     144E  308C               	movlw	low (STR_37| (0+32768))
  4924     144F  00F4               	movwf	clcd_print@str
  4925     1450  3089               	movlw	high (STR_37| (0+32768))
  4926     1451  00F5               	movwf	clcd_print@str+1
  4927     1452  3080               	movlw	128
  4928     1453  00F6               	movwf	clcd_print@addr
  4929     1454  160A  118A  233D  160A  118A  	fcall	_clcd_print
  4930     1459                     l2996:
  4931                           
  4932                           ;menu.c: 406:         clcd_print("clearing      ", (0xC0 + 0));
  4933     1459  309B               	movlw	low (STR_38| (0+32768))
  4934     145A  00F4               	movwf	clcd_print@str
  4935     145B  3089               	movlw	high (STR_38| (0+32768))
  4936     145C  00F5               	movwf	clcd_print@str+1
  4937     145D  30C0               	movlw	192
  4938     145E  00F6               	movwf	clcd_print@addr
  4939     145F  160A  118A  233D  160A  118A  	fcall	_clcd_print
  4940                           
  4941                           ;menu.c: 408:         once = 0;
  4942     1464  1283               	bcf	3,5	;RP0=0, select bank0
  4943     1465  1303               	bcf	3,6	;RP1=0, select bank0
  4944     1466  01E9               	clrf	clear_log@once
  4945                           
  4946                           ;menu.c: 409:         delay = 0;
  4947     1467  1683               	bsf	3,5	;RP0=1, select bank1
  4948     1468  1303               	bcf	3,6	;RP1=0, select bank1
  4949     1469  01AA               	clrf	clear_log@delay^(0+128)
  4950     146A  01AB               	clrf	(clear_log@delay+1)^(0+128)
  4951     146B                     l2998:
  4952                           
  4953                           ;menu.c: 413:     if(delay++ < 50000)
  4954     146B  1683               	bsf	3,5	;RP0=1, select bank1
  4955     146C  1303               	bcf	3,6	;RP1=0, select bank1
  4956     146D  082B               	movf	(clear_log@delay+1)^(0+128),w
  4957     146E  00F8               	movwf	??_clear_log+1
  4958     146F  082A               	movf	clear_log@delay^(0+128),w
  4959     1470  00F7               	movwf	??_clear_log
  4960     1471  0AAA               	incf	clear_log@delay^(0+128),f
  4961     1472  1903               	skipnz
  4962     1473  0AAB               	incf	(clear_log@delay+1)^(0+128),f
  4963     1474  30C3               	movlw	195
  4964     1475  0278               	subwf	??_clear_log+1,w
  4965     1476  3050               	movlw	80
  4966     1477  1903               	skipnz
  4967     1478  0277               	subwf	??_clear_log,w
  4968     1479  1803               	skipnc
  4969     147A  2C7C               	goto	u2781
  4970     147B  2C7D               	goto	u2780
  4971     147C                     u2781:
  4972     147C  2C7E               	goto	l466
  4973     147D                     u2780:
  4974     147D  2C98               	goto	l467
  4975     147E                     l466:	
  4976                           ;menu.c: 416:     }
  4977                           
  4978                           
  4979                           ;menu.c: 418:     once = 1;
  4980     147E  3001               	movlw	1
  4981     147F  1283               	bcf	3,5	;RP0=0, select bank0
  4982     1480  1303               	bcf	3,6	;RP1=0, select bank0
  4983     1481  00E9               	movwf	clear_log@once
  4984     1482                     l3002:
  4985                           
  4986                           ;menu.c: 421:     clcd_print("                ", (0x80 + 0));
  4987     1482  306B               	movlw	low (STR_1| (0+32768))
  4988     1483  00F4               	movwf	clcd_print@str
  4989     1484  3088               	movlw	high (STR_1| (0+32768))
  4990     1485  00F5               	movwf	clcd_print@str+1
  4991     1486  3080               	movlw	128
  4992     1487  00F6               	movwf	clcd_print@addr
  4993     1488  160A  118A  233D  160A  118A  	fcall	_clcd_print
  4994                           
  4995                           ;menu.c: 422:     clcd_print("                ", (0xC0 + 0));
  4996     148D  306B               	movlw	low (STR_1| (0+32768))
  4997     148E  00F4               	movwf	clcd_print@str
  4998     148F  3088               	movlw	high (STR_1| (0+32768))
  4999     1490  00F5               	movwf	clcd_print@str+1
  5000     1491  30C0               	movlw	192
  5001     1492  00F6               	movwf	clcd_print@addr
  5002     1493  160A  118A  233D  160A  118A  	fcall	_clcd_print
  5003     1498                     l467:
  5004     1498  0008               	return
  5005     1499                     __end_of_clear_log:
  5006                           
  5007                           	psect	text11
  5008     0177                     __ptext11:	
  5009 ;; *************** function _change_password *****************
  5010 ;; Defined at:
  5011 ;;		line 697 in file "menu.c"
  5012 ;; Parameters:    Size  Location     Type
  5013 ;;  key             1    wreg     unsigned char 
  5014 ;; Auto vars:     Size  Location     Type
  5015 ;;  key             1   12[COMMON] unsigned char 
  5016 ;; Return value:  Size  Location     Type
  5017 ;;                  2   10[COMMON] int 
  5018 ;; Registers used:
  5019 ;;		wreg, fsr0l, fsr0h, status,2, status,0, pclath, btemp1, cstack
  5020 ;; Tracked objects:
  5021 ;;		On entry : 0/0
  5022 ;;		On exit  : 0/0
  5023 ;;		Unchanged: 0/0
  5024 ;; Data sizes:     COMMON   BANK0   BANK1   BANK3   BANK2
  5025 ;;      Params:         2       0       0       0       0
  5026 ;;      Locals:         1       0       0       0       0
  5027 ;;      Temps:          0       4       0       0       0
  5028 ;;      Totals:         3       4       0       0       0
  5029 ;;Total ram usage:        7 bytes
  5030 ;; Hardware stack levels used: 1
  5031 ;; Hardware stack levels required when called: 1
  5032 ;; This function calls:
  5033 ;;		_clcd_print
  5034 ;;		_clcd_putch
  5035 ;;		_strcmp
  5036 ;;		_strcpy
  5037 ;; This function is called by:
  5038 ;;		_menu
  5039 ;; This function uses a non-reentrant model
  5040 ;;
  5041                           
  5042     0177                     _change_password:	
  5043                           ;psect for function _change_password
  5044                           
  5045                           
  5046                           ;incstack = 0
  5047                           ; Regs used in _change_password: [wreg-fsr0h+status,2+status,0+pclath+btemp1+cstack]
  5048                           ;change_password@key stored from wreg
  5049     0177  00FC               	movwf	change_password@key
  5050     0178                     l3198:
  5051                           
  5052                           ;menu.c: 697: int change_password(unsigned char key);menu.c: 698: {;menu.c: 699:     sta
      +                          tic unsigned char state = 0;;menu.c: 700:     static unsigned char index = 0;;menu.c: 70
      +                          1:     static unsigned char once = 1;;menu.c: 702:     static unsigned long int delay;;m
      +                          enu.c: 704:     static char temp[5];;menu.c: 705:     static char temp2[5];;menu.c: 707:
      +                               switch(state)
  5053     0178  2B32               	goto	l3300
  5054     0179                     l3200:
  5055                           
  5056                           ;menu.c: 712:             if(once)
  5057     0179  0866               	movf	change_password@once,w
  5058     017A  1903               	btfsc	3,2
  5059     017B  297D               	goto	u3051
  5060     017C  297E               	goto	u3050
  5061     017D                     u3051:
  5062     017D  29AB               	goto	l3210
  5063     017E                     u3050:
  5064     017E                     l3202:
  5065                           
  5066                           ;menu.c: 713:             {;menu.c: 714:                 clcd_print("                ", 
      +                          (0x80 + 0));clcd_print("                ", (0xC0 + 0));
  5067     017E  306B               	movlw	low (STR_1| (0+32768))
  5068     017F  00F4               	movwf	clcd_print@str
  5069     0180  3088               	movlw	high (STR_1| (0+32768))
  5070     0181  00F5               	movwf	clcd_print@str+1
  5071     0182  3080               	movlw	128
  5072     0183  00F6               	movwf	clcd_print@addr
  5073     0184  160A  118A  233D  120A  118A  	fcall	_clcd_print
  5074     0189  306B               	movlw	low (STR_1| (0+32768))
  5075     018A  00F4               	movwf	clcd_print@str
  5076     018B  3088               	movlw	high (STR_1| (0+32768))
  5077     018C  00F5               	movwf	clcd_print@str+1
  5078     018D  30C0               	movlw	192
  5079     018E  00F6               	movwf	clcd_print@addr
  5080     018F  160A  118A  233D  120A  118A  	fcall	_clcd_print
  5081                           
  5082                           ;menu.c: 716:                 clcd_print("ENTER NEW PASS ", (0x80 + 0));
  5083     0194  305C               	movlw	low (STR_55| (0+32768))
  5084     0195  00F4               	movwf	clcd_print@str
  5085     0196  3089               	movlw	high (STR_55| (0+32768))
  5086     0197  00F5               	movwf	clcd_print@str+1
  5087     0198  3080               	movlw	128
  5088     0199  00F6               	movwf	clcd_print@addr
  5089     019A  160A  118A  233D  120A  118A  	fcall	_clcd_print
  5090     019F                     l3204:
  5091                           
  5092                           ;menu.c: 717:                 clcd_putch('_', (0xC0 + 0));
  5093     019F  30C0               	movlw	192
  5094     01A0  00F8               	movwf	clcd_putch@addr
  5095     01A1  305F               	movlw	95
  5096     01A2  160A  118A  213B  120A  118A  	fcall	_clcd_putch
  5097     01A7                     l3206:
  5098                           
  5099                           ;menu.c: 719:                 index = 0;
  5100     01A7  1283               	bcf	3,5	;RP0=0, select bank0
  5101     01A8  1303               	bcf	3,6	;RP1=0, select bank0
  5102     01A9  01D7               	clrf	change_password@index
  5103     01AA                     l3208:
  5104                           
  5105                           ;menu.c: 720:                 once = 0;
  5106     01AA  01E6               	clrf	change_password@once
  5107     01AB                     l3210:
  5108                           
  5109                           ;menu.c: 723:             if(key == 0x3E && index < 4)
  5110     01AB  303E               	movlw	62
  5111     01AC  067C               	xorwf	change_password@key,w
  5112     01AD  1D03               	btfss	3,2
  5113     01AE  29B0               	goto	u3061
  5114     01AF  29B1               	goto	u3060
  5115     01B0                     u3061:
  5116     01B0  29C9               	goto	l3220
  5117     01B1                     u3060:
  5118     01B1                     l3212:
  5119     01B1  3004               	movlw	4
  5120     01B2  0257               	subwf	change_password@index,w
  5121     01B3  1803               	skipnc
  5122     01B4  29B6               	goto	u3071
  5123     01B5  29B7               	goto	u3070
  5124     01B6                     u3071:
  5125     01B6  29C9               	goto	l3220
  5126     01B7                     u3070:
  5127     01B7                     l3214:
  5128                           
  5129                           ;menu.c: 724:             {;menu.c: 725:                 temp[index++] = '1';
  5130     01B7  0857               	movf	change_password@index,w
  5131     01B8  3EBA               	addlw	(low (change_password@temp| 0))& (0+255)
  5132     01B9  0084               	movwf	4
  5133     01BA  3031               	movlw	49
  5134     01BB  1383               	bcf	3,7	;select IRP bank1
  5135     01BC  0080               	movwf	0
  5136     01BD                     l3216:
  5137     01BD  3001               	movlw	1
  5138     01BE  07D7               	addwf	change_password@index,f
  5139     01BF                     l3218:
  5140                           
  5141                           ;menu.c: 726:                 clcd_putch('*', (0xC0 + index - 1));
  5142     01BF  0857               	movf	change_password@index,w
  5143     01C0  3EBF               	addlw	191
  5144     01C1  00F8               	movwf	clcd_putch@addr
  5145     01C2  302A               	movlw	42
  5146     01C3  160A  118A  213B  120A  118A  	fcall	_clcd_putch
  5147                           
  5148                           ;menu.c: 727:             }
  5149     01C8  29E6               	goto	l3230
  5150     01C9                     l3220:
  5151     01C9  303D               	movlw	61
  5152     01CA  067C               	xorwf	change_password@key,w
  5153     01CB  1D03               	btfss	3,2
  5154     01CC  29CE               	goto	u3081
  5155     01CD  29CF               	goto	u3080
  5156     01CE                     u3081:
  5157     01CE  29E6               	goto	l3230
  5158     01CF                     u3080:
  5159     01CF                     l3222:
  5160     01CF  3004               	movlw	4
  5161     01D0  0257               	subwf	change_password@index,w
  5162     01D1  1803               	skipnc
  5163     01D2  29D4               	goto	u3091
  5164     01D3  29D5               	goto	u3090
  5165     01D4                     u3091:
  5166     01D4  29E6               	goto	l3230
  5167     01D5                     u3090:
  5168     01D5                     l3224:
  5169                           
  5170                           ;menu.c: 729:             {;menu.c: 730:                 temp[index++] = '0';
  5171     01D5  0857               	movf	change_password@index,w
  5172     01D6  3EBA               	addlw	(low (change_password@temp| 0))& (0+255)
  5173     01D7  0084               	movwf	4
  5174     01D8  3030               	movlw	48
  5175     01D9  1383               	bcf	3,7	;select IRP bank1
  5176     01DA  0080               	movwf	0
  5177     01DB                     l3226:
  5178     01DB  3001               	movlw	1
  5179     01DC  07D7               	addwf	change_password@index,f
  5180     01DD                     l3228:
  5181                           
  5182                           ;menu.c: 731:                 clcd_putch('*', (0xC0 + index - 1));
  5183     01DD  0857               	movf	change_password@index,w
  5184     01DE  3EBF               	addlw	191
  5185     01DF  00F8               	movwf	clcd_putch@addr
  5186     01E0  302A               	movlw	42
  5187     01E1  160A  118A  213B  120A  118A  	fcall	_clcd_putch
  5188     01E6                     l3230:
  5189                           
  5190                           ;menu.c: 734:             if(index == 4)
  5191     01E6  3004               	movlw	4
  5192     01E7  1283               	bcf	3,5	;RP0=0, select bank0
  5193     01E8  1303               	bcf	3,6	;RP1=0, select bank0
  5194     01E9  0657               	xorwf	change_password@index,w
  5195     01EA  1D03               	btfss	3,2
  5196     01EB  29ED               	goto	u3101
  5197     01EC  29EE               	goto	u3100
  5198     01ED                     u3101:
  5199     01ED  2B3F               	goto	l3302
  5200     01EE                     u3100:
  5201     01EE                     l3232:
  5202                           
  5203                           ;menu.c: 735:             {;menu.c: 736:                 temp[4] = '\0';
  5204     01EE  1683               	bsf	3,5	;RP0=1, select bank1
  5205     01EF  1303               	bcf	3,6	;RP1=0, select bank1
  5206     01F0  01BE               	clrf	(change_password@temp^(0+128)+4)
  5207     01F1                     l3234:
  5208                           
  5209                           ;menu.c: 738:                 state = 1;
  5210     01F1  3001               	movlw	1
  5211     01F2  1283               	bcf	3,5	;RP0=0, select bank0
  5212     01F3  1303               	bcf	3,6	;RP1=0, select bank0
  5213     01F4  00D8               	movwf	change_password@state
  5214                           
  5215                           ;menu.c: 739:                 index = 0;
  5216     01F5  01D7               	clrf	change_password@index
  5217     01F6                     l3236:
  5218                           
  5219                           ;menu.c: 740:                 once = 1;
  5220     01F6  3001               	movlw	1
  5221     01F7  00E6               	movwf	change_password@once
  5222     01F8  2B3F               	goto	l3302
  5223     01F9                     l3238:
  5224                           
  5225                           ;menu.c: 748:             if(once)
  5226     01F9  0866               	movf	change_password@once,w
  5227     01FA  1903               	btfsc	3,2
  5228     01FB  29FD               	goto	u3111
  5229     01FC  29FE               	goto	u3110
  5230     01FD                     u3111:
  5231     01FD  2A2A               	goto	l3246
  5232     01FE                     u3110:
  5233     01FE                     l3240:
  5234                           
  5235                           ;menu.c: 749:             {;menu.c: 750:                 clcd_print("                ", 
      +                          (0x80 + 0));clcd_print("                ", (0xC0 + 0));
  5236     01FE  306B               	movlw	low (STR_1| (0+32768))
  5237     01FF  00F4               	movwf	clcd_print@str
  5238     0200  3088               	movlw	high (STR_1| (0+32768))
  5239     0201  00F5               	movwf	clcd_print@str+1
  5240     0202  3080               	movlw	128
  5241     0203  00F6               	movwf	clcd_print@addr
  5242     0204  160A  118A  233D  120A  118A  	fcall	_clcd_print
  5243     0209  306B               	movlw	low (STR_1| (0+32768))
  5244     020A  00F4               	movwf	clcd_print@str
  5245     020B  3088               	movlw	high (STR_1| (0+32768))
  5246     020C  00F5               	movwf	clcd_print@str+1
  5247     020D  30C0               	movlw	192
  5248     020E  00F6               	movwf	clcd_print@addr
  5249     020F  160A  118A  233D  120A  118A  	fcall	_clcd_print
  5250                           
  5251                           ;menu.c: 752:                 clcd_print("RE-ENTER PASS  ", (0x80 + 0));
  5252     0214  301C               	movlw	low (STR_58| (0+32768))
  5253     0215  00F4               	movwf	clcd_print@str
  5254     0216  3089               	movlw	high (STR_58| (0+32768))
  5255     0217  00F5               	movwf	clcd_print@str+1
  5256     0218  3080               	movlw	128
  5257     0219  00F6               	movwf	clcd_print@addr
  5258     021A  160A  118A  233D  120A  118A  	fcall	_clcd_print
  5259     021F                     l3242:
  5260                           
  5261                           ;menu.c: 753:                 clcd_putch('_', (0xC0 + 0));
  5262     021F  30C0               	movlw	192
  5263     0220  00F8               	movwf	clcd_putch@addr
  5264     0221  305F               	movlw	95
  5265     0222  160A  118A  213B  120A  118A  	fcall	_clcd_putch
  5266     0227                     l3244:
  5267                           
  5268                           ;menu.c: 755:                 once = 0;
  5269     0227  1283               	bcf	3,5	;RP0=0, select bank0
  5270     0228  1303               	bcf	3,6	;RP1=0, select bank0
  5271     0229  01E6               	clrf	change_password@once
  5272     022A                     l3246:
  5273                           
  5274                           ;menu.c: 758:             if(key == 0x3E && index < 4)
  5275     022A  303E               	movlw	62
  5276     022B  067C               	xorwf	change_password@key,w
  5277     022C  1D03               	btfss	3,2
  5278     022D  2A2F               	goto	u3121
  5279     022E  2A30               	goto	u3120
  5280     022F                     u3121:
  5281     022F  2A48               	goto	l3256
  5282     0230                     u3120:
  5283     0230                     l3248:
  5284     0230  3004               	movlw	4
  5285     0231  0257               	subwf	change_password@index,w
  5286     0232  1803               	skipnc
  5287     0233  2A35               	goto	u3131
  5288     0234  2A36               	goto	u3130
  5289     0235                     u3131:
  5290     0235  2A48               	goto	l3256
  5291     0236                     u3130:
  5292     0236                     l3250:
  5293                           
  5294                           ;menu.c: 759:             {;menu.c: 760:                 temp2[index++] = '1';
  5295     0236  0857               	movf	change_password@index,w
  5296     0237  3EB5               	addlw	(low (change_password@temp2| 0))& (0+255)
  5297     0238  0084               	movwf	4
  5298     0239  3031               	movlw	49
  5299     023A  1383               	bcf	3,7	;select IRP bank1
  5300     023B  0080               	movwf	0
  5301     023C                     l3252:
  5302     023C  3001               	movlw	1
  5303     023D  07D7               	addwf	change_password@index,f
  5304     023E                     l3254:
  5305                           
  5306                           ;menu.c: 761:                 clcd_putch('*', (0xC0 + index - 1));
  5307     023E  0857               	movf	change_password@index,w
  5308     023F  3EBF               	addlw	191
  5309     0240  00F8               	movwf	clcd_putch@addr
  5310     0241  302A               	movlw	42
  5311     0242  160A  118A  213B  120A  118A  	fcall	_clcd_putch
  5312                           
  5313                           ;menu.c: 762:             }
  5314     0247  2A65               	goto	l3266
  5315     0248                     l3256:
  5316     0248  303D               	movlw	61
  5317     0249  067C               	xorwf	change_password@key,w
  5318     024A  1D03               	btfss	3,2
  5319     024B  2A4D               	goto	u3141
  5320     024C  2A4E               	goto	u3140
  5321     024D                     u3141:
  5322     024D  2A65               	goto	l3266
  5323     024E                     u3140:
  5324     024E                     l3258:
  5325     024E  3004               	movlw	4
  5326     024F  0257               	subwf	change_password@index,w
  5327     0250  1803               	skipnc
  5328     0251  2A53               	goto	u3151
  5329     0252  2A54               	goto	u3150
  5330     0253                     u3151:
  5331     0253  2A65               	goto	l3266
  5332     0254                     u3150:
  5333     0254                     l3260:
  5334                           
  5335                           ;menu.c: 764:             {;menu.c: 765:                 temp2[index++] = '0';
  5336     0254  0857               	movf	change_password@index,w
  5337     0255  3EB5               	addlw	(low (change_password@temp2| 0))& (0+255)
  5338     0256  0084               	movwf	4
  5339     0257  3030               	movlw	48
  5340     0258  1383               	bcf	3,7	;select IRP bank1
  5341     0259  0080               	movwf	0
  5342     025A                     l3262:
  5343     025A  3001               	movlw	1
  5344     025B  07D7               	addwf	change_password@index,f
  5345     025C                     l3264:
  5346                           
  5347                           ;menu.c: 766:                 clcd_putch('*', (0xC0 + index - 1));
  5348     025C  0857               	movf	change_password@index,w
  5349     025D  3EBF               	addlw	191
  5350     025E  00F8               	movwf	clcd_putch@addr
  5351     025F  302A               	movlw	42
  5352     0260  160A  118A  213B  120A  118A  	fcall	_clcd_putch
  5353     0265                     l3266:
  5354                           
  5355                           ;menu.c: 769:             if(index == 4)
  5356     0265  3004               	movlw	4
  5357     0266  1283               	bcf	3,5	;RP0=0, select bank0
  5358     0267  1303               	bcf	3,6	;RP1=0, select bank0
  5359     0268  0657               	xorwf	change_password@index,w
  5360     0269  1D03               	btfss	3,2
  5361     026A  2A6C               	goto	u3161
  5362     026B  2A6D               	goto	u3160
  5363     026C                     u3161:
  5364     026C  2B3F               	goto	l3302
  5365     026D                     u3160:
  5366     026D                     l3268:
  5367                           
  5368                           ;menu.c: 770:             {;menu.c: 771:                 temp2[4] = '\0';
  5369     026D  1683               	bsf	3,5	;RP0=1, select bank1
  5370     026E  1303               	bcf	3,6	;RP1=0, select bank1
  5371     026F  01B9               	clrf	(change_password@temp2^(0+128)+4)
  5372     0270                     l3270:
  5373                           
  5374                           ;menu.c: 773:                 clcd_print("                ", (0x80 + 0));clcd_print("   
      +                                       ", (0xC0 + 0));
  5375     0270  306B               	movlw	low (STR_1| (0+32768))
  5376     0271  00F4               	movwf	clcd_print@str
  5377     0272  3088               	movlw	high (STR_1| (0+32768))
  5378     0273  00F5               	movwf	clcd_print@str+1
  5379     0274  3080               	movlw	128
  5380     0275  00F6               	movwf	clcd_print@addr
  5381     0276  160A  118A  233D  120A  118A  	fcall	_clcd_print
  5382     027B                     l3272:
  5383     027B  306B               	movlw	low (STR_1| (0+32768))
  5384     027C  00F4               	movwf	clcd_print@str
  5385     027D  3088               	movlw	high (STR_1| (0+32768))
  5386     027E  00F5               	movwf	clcd_print@str+1
  5387     027F  30C0               	movlw	192
  5388     0280  00F6               	movwf	clcd_print@addr
  5389     0281  160A  118A  233D  120A  118A  	fcall	_clcd_print
  5390     0286                     l3274:
  5391                           
  5392                           ;menu.c: 775:                 if(strcmp(temp, temp2) == 0)
  5393     0286  30BA               	movlw	(low (change_password@temp| 0))& (0+255)
  5394     0287  00F0               	movwf	strcmp@l
  5395     0288  30B5               	movlw	(low (change_password@temp2| 0))& (0+255)
  5396     0289  00F1               	movwf	strcmp@r
  5397     028A  160A  118A  226C  120A  118A  	fcall	_strcmp
  5398     028F  0870               	movf	?_strcmp,w
  5399     0290  0471               	iorwf	?_strcmp+1,w
  5400     0291  1D03               	btfss	3,2
  5401     0292  2A94               	goto	u3171
  5402     0293  2A95               	goto	u3170
  5403     0294                     u3171:
  5404     0294  2AB5               	goto	l3278
  5405     0295                     u3170:
  5406     0295                     l3276:
  5407                           
  5408                           ;menu.c: 776:                 {;menu.c: 777:                     strcpy(password, temp);
  5409     0295  30E4               	movlw	(low (_password| 0))& (0+255)
  5410     0296  00F0               	movwf	strcpy@dest
  5411     0297  30BA               	movlw	(low (change_password@temp| 0))& (0+255)
  5412     0298  00F1               	movwf	strcpy@src
  5413     0299  160A  118A  2170  120A  118A  	fcall	_strcpy
  5414                           
  5415                           ;menu.c: 779:                     clcd_print("PASSWORD IS    ", (0x80 + 0));
  5416     029E  30DC               	movlw	low (STR_61| (0+32768))
  5417     029F  00F4               	movwf	clcd_print@str
  5418     02A0  3088               	movlw	high (STR_61| (0+32768))
  5419     02A1  00F5               	movwf	clcd_print@str+1
  5420     02A2  3080               	movlw	128
  5421     02A3  00F6               	movwf	clcd_print@addr
  5422     02A4  160A  118A  233D  120A  118A  	fcall	_clcd_print
  5423                           
  5424                           ;menu.c: 780:                     clcd_print("CHANGED        ", (0xC0 + 0));
  5425     02A9  309C               	movlw	low (STR_62| (0+32768))
  5426     02AA  00F4               	movwf	clcd_print@str
  5427     02AB  3088               	movlw	high (STR_62| (0+32768))
  5428     02AC  00F5               	movwf	clcd_print@str+1
  5429     02AD  30C0               	movlw	192
  5430     02AE  00F6               	movwf	clcd_print@addr
  5431     02AF  160A  118A  233D  120A  118A  	fcall	_clcd_print
  5432                           
  5433                           ;menu.c: 781:                 }
  5434     02B4  2ACB               	goto	l3280
  5435     02B5                     l3278:
  5436                           
  5437                           ;menu.c: 783:                 {;menu.c: 784:                     clcd_print("RE-ENTERED 
      +                          PWD ", (0x80 + 0));
  5438     02B5  304C               	movlw	low (STR_63| (0+32768))
  5439     02B6  00F4               	movwf	clcd_print@str
  5440     02B7  3089               	movlw	high (STR_63| (0+32768))
  5441     02B8  00F5               	movwf	clcd_print@str+1
  5442     02B9  3080               	movlw	128
  5443     02BA  00F6               	movwf	clcd_print@addr
  5444     02BB  160A  118A  233D  120A  118A  	fcall	_clcd_print
  5445                           
  5446                           ;menu.c: 785:                     clcd_print("IS WRONG       ", (0xC0 + 0));
  5447     02C0  30CC               	movlw	low (STR_64| (0+32768))
  5448     02C1  00F4               	movwf	clcd_print@str
  5449     02C2  3088               	movlw	high (STR_64| (0+32768))
  5450     02C3  00F5               	movwf	clcd_print@str+1
  5451     02C4  30C0               	movlw	192
  5452     02C5  00F6               	movwf	clcd_print@addr
  5453     02C6  160A  118A  233D  120A  118A  	fcall	_clcd_print
  5454     02CB                     l3280:
  5455                           
  5456                           ;menu.c: 788:                 delay = 0;
  5457     02CB  3000               	movlw	0
  5458     02CC  1683               	bsf	3,5	;RP0=1, select bank1
  5459     02CD  1303               	bcf	3,6	;RP1=0, select bank1
  5460     02CE  00A3               	movwf	(change_password@delay+3)^(0+128)
  5461     02CF  3000               	movlw	0
  5462     02D0  00A2               	movwf	(change_password@delay+2)^(0+128)
  5463     02D1  3000               	movlw	0
  5464     02D2  00A1               	movwf	(change_password@delay+1)^(0+128)
  5465     02D3  3000               	movlw	0
  5466     02D4  00A0               	movwf	change_password@delay^(0+128)
  5467     02D5                     l3282:
  5468                           
  5469                           ;menu.c: 789:                 state = 2;
  5470     02D5  3002               	movlw	2
  5471     02D6  1283               	bcf	3,5	;RP0=0, select bank0
  5472     02D7  1303               	bcf	3,6	;RP1=0, select bank0
  5473     02D8  00D8               	movwf	change_password@state
  5474     02D9  2B3F               	goto	l3302
  5475     02DA                     l3284:
  5476                           
  5477                           ;menu.c: 797:             if(delay++ > 100)
  5478     02DA  1683               	bsf	3,5	;RP0=1, select bank1
  5479     02DB  1303               	bcf	3,6	;RP1=0, select bank1
  5480     02DC  0823               	movf	(change_password@delay+3)^(0+128),w
  5481     02DD  1283               	bcf	3,5	;RP0=0, select bank0
  5482     02DE  1303               	bcf	3,6	;RP1=0, select bank0
  5483     02DF  00A3               	movwf	??_change_password+3
  5484     02E0  1683               	bsf	3,5	;RP0=1, select bank1
  5485     02E1  1303               	bcf	3,6	;RP1=0, select bank1
  5486     02E2  0822               	movf	(change_password@delay+2)^(0+128),w
  5487     02E3  1283               	bcf	3,5	;RP0=0, select bank0
  5488     02E4  1303               	bcf	3,6	;RP1=0, select bank0
  5489     02E5  00A2               	movwf	??_change_password+2
  5490     02E6  1683               	bsf	3,5	;RP0=1, select bank1
  5491     02E7  1303               	bcf	3,6	;RP1=0, select bank1
  5492     02E8  0821               	movf	(change_password@delay+1)^(0+128),w
  5493     02E9  1283               	bcf	3,5	;RP0=0, select bank0
  5494     02EA  1303               	bcf	3,6	;RP1=0, select bank0
  5495     02EB  00A1               	movwf	??_change_password+1
  5496     02EC  1683               	bsf	3,5	;RP0=1, select bank1
  5497     02ED  1303               	bcf	3,6	;RP1=0, select bank1
  5498     02EE  0820               	movf	change_password@delay^(0+128),w
  5499     02EF  1283               	bcf	3,5	;RP0=0, select bank0
  5500     02F0  1303               	bcf	3,6	;RP1=0, select bank0
  5501     02F1  00A0               	movwf	??_change_password
  5502     02F2  3001               	movlw	1
  5503     02F3  1683               	bsf	3,5	;RP0=1, select bank1
  5504     02F4  1303               	bcf	3,6	;RP1=0, select bank1
  5505     02F5  07A0               	addwf	change_password@delay^(0+128),f
  5506     02F6  3000               	movlw	0
  5507     02F7  07A1               	addwf	(change_password@delay+1)^(0+128),f
  5508     02F8  1803               	skipnc
  5509     02F9  0AA2               	incf	(change_password@delay+2)^(0+128),f
  5510     02FA  07A2               	addwf	(change_password@delay+2)^(0+128),f
  5511     02FB  1803               	skipnc
  5512     02FC  0AA3               	incf	(change_password@delay+3)^(0+128),f
  5513     02FD  07A3               	addwf	(change_password@delay+3)^(0+128),f
  5514     02FE  1283               	bcf	3,5	;RP0=0, select bank0
  5515     02FF  1303               	bcf	3,6	;RP1=0, select bank0
  5516     0300  0823               	movf	??_change_password+3,w
  5517     0301  1D03               	btfss	3,2
  5518     0302  2B11               	goto	u3180
  5519     0303  0822               	movf	??_change_password+2,w
  5520     0304  1D03               	btfss	3,2
  5521     0305  2B11               	goto	u3180
  5522     0306  0821               	movf	??_change_password+1,w
  5523     0307  1D03               	btfss	3,2
  5524     0308  2B11               	goto	u3180
  5525     0309  3065               	movlw	101
  5526     030A  0220               	subwf	??_change_password,w
  5527     030B  1D03               	skipz
  5528     030C  2B0D               	goto	u3183
  5529     030D                     u3183:
  5530     030D  1C03               	btfss	3,0
  5531     030E  2B10               	goto	u3181
  5532     030F  2B11               	goto	u3180
  5533     0310                     u3181:
  5534     0310  2B3F               	goto	l3302
  5535     0311                     u3180:
  5536     0311                     l3286:
  5537                           
  5538                           ;menu.c: 798:             {;menu.c: 799:                 clcd_print("                ", 
      +                          (0x80 + 0));clcd_print("                ", (0xC0 + 0));
  5539     0311  306B               	movlw	low (STR_1| (0+32768))
  5540     0312  00F4               	movwf	clcd_print@str
  5541     0313  3088               	movlw	high (STR_1| (0+32768))
  5542     0314  00F5               	movwf	clcd_print@str+1
  5543     0315  3080               	movlw	128
  5544     0316  00F6               	movwf	clcd_print@addr
  5545     0317  160A  118A  233D  120A  118A  	fcall	_clcd_print
  5546     031C  306B               	movlw	low (STR_1| (0+32768))
  5547     031D  00F4               	movwf	clcd_print@str
  5548     031E  3088               	movlw	high (STR_1| (0+32768))
  5549     031F  00F5               	movwf	clcd_print@str+1
  5550     0320  30C0               	movlw	192
  5551     0321  00F6               	movwf	clcd_print@addr
  5552     0322  160A  118A  233D  120A  118A  	fcall	_clcd_print
  5553     0327                     l3288:
  5554                           
  5555                           ;menu.c: 801:                 state = 0;
  5556     0327  1283               	bcf	3,5	;RP0=0, select bank0
  5557     0328  1303               	bcf	3,6	;RP1=0, select bank0
  5558     0329  01D8               	clrf	change_password@state
  5559     032A                     l3290:
  5560                           
  5561                           ;menu.c: 802:                 once = 1;
  5562     032A  3001               	movlw	1
  5563     032B  00E6               	movwf	change_password@once
  5564     032C                     l3292:
  5565                           
  5566                           ;menu.c: 803:                 index = 0;
  5567     032C  01D7               	clrf	change_password@index
  5568     032D                     l3294:
  5569                           
  5570                           ;menu.c: 804:                 return 1;
  5571     032D  3001               	movlw	1
  5572     032E  00FA               	movwf	?_change_password
  5573     032F  3000               	movlw	0
  5574     0330  00FB               	movwf	?_change_password+1
  5575     0331  2B41               	goto	l556
  5576     0332                     l3300:
  5577     0332  1283               	bcf	3,5	;RP0=0, select bank0
  5578     0333  1303               	bcf	3,6	;RP1=0, select bank0
  5579     0334  0858               	movf	change_password@state,w
  5580                           
  5581                           ; Switch size 1, requested type "simple"
  5582                           ; Number of cases is 3, Range of values is 0 to 2
  5583                           ; switch strategies available:
  5584                           ; Name         Instructions Cycles
  5585                           ; simple_byte           10     6 (average)
  5586                           ; direct_byte           17     8 (fixed)
  5587                           ; jumptable            260     6 (fixed)
  5588                           ;	Chosen strategy is simple_byte
  5589     0335  3A00               	xorlw	0	; case 0
  5590     0336  1903               	skipnz
  5591     0337  2979               	goto	l3200
  5592     0338  3A01               	xorlw	1	; case 1
  5593     0339  1903               	skipnz
  5594     033A  29F9               	goto	l3238
  5595     033B  3A03               	xorlw	3	; case 2
  5596     033C  1903               	skipnz
  5597     033D  2ADA               	goto	l3284
  5598     033E  2B3F               	goto	l3302
  5599     033F                     l3302:
  5600                           
  5601                           ;menu.c: 809:     return 0;
  5602     033F  01FA               	clrf	?_change_password
  5603     0340  01FB               	clrf	?_change_password+1
  5604     0341                     l556:
  5605     0341  0008               	return
  5606     0342                     __end_of_change_password:
  5607                           
  5608                           	psect	text12
  5609     1170                     __ptext12:	
  5610 ;; *************** function _strcpy *****************
  5611 ;; Defined at:
  5612 ;;		line 3 in file "C:\Program Files\Microchip\xc8\v3.10\pic\sources\c99\common\strcpy.c"
  5613 ;; Parameters:    Size  Location     Type
  5614 ;;  dest            1    0[COMMON] PTR unsigned char 
  5615 ;;		 -> password(5), 
  5616 ;;  src             1    1[COMMON] PTR const unsigned char 
  5617 ;;		 -> change_password@temp(5), 
  5618 ;; Auto vars:     Size  Location     Type
  5619 ;;  d               1    2[COMMON] PTR unsigned char 
  5620 ;;		 -> password(5), 
  5621 ;; Return value:  Size  Location     Type
  5622 ;;                  1    0[COMMON] PTR unsigned char 
  5623 ;; Registers used:
  5624 ;;		wreg, fsr0l, fsr0h, status,2, status,0, btemp1
  5625 ;; Tracked objects:
  5626 ;;		On entry : 0/0
  5627 ;;		On exit  : 0/0
  5628 ;;		Unchanged: 0/0
  5629 ;; Data sizes:     COMMON   BANK0   BANK1   BANK3   BANK2
  5630 ;;      Params:         2       0       0       0       0
  5631 ;;      Locals:         1       0       0       0       0
  5632 ;;      Temps:          0       0       0       0       0
  5633 ;;      Totals:         3       0       0       0       0
  5634 ;;Total ram usage:        3 bytes
  5635 ;; Hardware stack levels used: 1
  5636 ;; This function calls:
  5637 ;;		Nothing
  5638 ;; This function is called by:
  5639 ;;		_change_password
  5640 ;; This function uses a non-reentrant model
  5641 ;;
  5642                           
  5643     1170                     _strcpy:	
  5644                           ;psect for function _strcpy
  5645                           
  5646     1170                     l2650:	
  5647                           ;incstack = 0
  5648                           ; Regs used in _strcpy: [wreg-fsr0h+status,2+status,0+btemp1]
  5649                           
  5650     1170  0870               	movf	strcpy@dest,w
  5651     1171  00F2               	movwf	strcpy@d
  5652     1172                     l2652:
  5653     1172  0871               	movf	strcpy@src,w
  5654     1173  0AF1               	incf	strcpy@src,f
  5655     1174  0084               	movwf	4
  5656     1175  1383               	bcf	3,7	;select IRP bank0
  5657     1176  0800               	movf	0,w
  5658     1177  00FF               	movwf	btemp1
  5659     1178  0872               	movf	strcpy@d,w
  5660     1179  0AF2               	incf	strcpy@d,f
  5661     117A  0084               	movwf	4
  5662     117B  087F               	movf	btemp1,w
  5663     117C  0080               	movwf	0
  5664     117D  0800               	movf	0,w
  5665     117E  1D03               	btfss	3,2
  5666     117F  2981               	goto	u2261
  5667     1180  2982               	goto	u2260
  5668     1181                     u2261:
  5669     1181  2972               	goto	l2652
  5670     1182                     u2260:
  5671     1182                     l1112:
  5672     1182  0008               	return
  5673     1183                     __end_of_strcpy:
  5674                           
  5675                           	psect	text13
  5676     0342                     __ptext13:	
  5677 ;; *************** function _login *****************
  5678 ;; Defined at:
  5679 ;;		line 19 in file "menu.c"
  5680 ;; Parameters:    Size  Location     Type
  5681 ;;  key             1    wreg     unsigned char 
  5682 ;; Auto vars:     Size  Location     Type
  5683 ;;  key             1    0[BANK0 ] unsigned char 
  5684 ;;  i               4    1[BANK0 ] unsigned long 
  5685 ;; Return value:  Size  Location     Type
  5686 ;;                  1    wreg      unsigned char 
  5687 ;; Registers used:
  5688 ;;		wreg, fsr0l, fsr0h, status,2, status,0, pclath, btemp1, cstack
  5689 ;; Tracked objects:
  5690 ;;		On entry : 0/0
  5691 ;;		On exit  : 0/0
  5692 ;;		Unchanged: 0/0
  5693 ;; Data sizes:     COMMON   BANK0   BANK1   BANK3   BANK2
  5694 ;;      Params:         0       0       0       0       0
  5695 ;;      Locals:         0       5       0       0       0
  5696 ;;      Temps:          4       0       0       0       0
  5697 ;;      Totals:         4       5       0       0       0
  5698 ;;Total ram usage:        9 bytes
  5699 ;; Hardware stack levels used: 1
  5700 ;; Hardware stack levels required when called: 2
  5701 ;; This function calls:
  5702 ;;		___awdiv
  5703 ;;		___awmod
  5704 ;;		_clcd_print
  5705 ;;		_clcd_putch
  5706 ;;		_strcmp
  5707 ;; This function is called by:
  5708 ;;		_main
  5709 ;; This function uses a non-reentrant model
  5710 ;;
  5711                           
  5712     0342                     _login:	
  5713                           ;psect for function _login
  5714                           
  5715                           
  5716                           ;incstack = 0
  5717                           ; Regs used in _login: [wreg-fsr0h+status,2+status,0+pclath+btemp1+cstack]
  5718                           ;login@key stored from wreg
  5719     0342  1283               	bcf	3,5	;RP0=0, select bank0
  5720     0343  1303               	bcf	3,6	;RP1=0, select bank0
  5721     0344  00A0               	movwf	login@key
  5722     0345                     l3636:
  5723                           
  5724                           ;menu.c: 19: unsigned char login(unsigned char key);menu.c: 20: {;menu.c: 21:     static
      +                           unsigned char once = 1;;menu.c: 22:     static unsigned char index = 0;;menu.c: 23:    
      +                           static unsigned char attempts = 3;;menu.c: 25:     static unsigned char blocked = 0;;me
      +                          nu.c: 26:     static unsigned char sec_left = 30;;menu.c: 28:     static unsigned long i
      +                          nt delay = 0;;menu.c: 30:     static unsigned int blink = 0;;menu.c: 31:     static unsi
      +                          gned char blink_state = 0;;menu.c: 33:     static char entered[5];;menu.c: 36:     if(bl
      +                          ocked)
  5725     0345  0860               	movf	login@blocked,w
  5726     0346  1903               	btfsc	3,2
  5727     0347  2B49               	goto	u3921
  5728     0348  2B4A               	goto	u3920
  5729     0349                     u3921:
  5730     0349  2BF1               	goto	l3672
  5731     034A                     u3920:
  5732     034A                     l3638:
  5733                           
  5734                           ;menu.c: 37:     {;menu.c: 38:         clcd_print("User Blocked    ", (0x80 + 0));
  5735     034A  3049               	movlw	low (STR_18| (0+32768))
  5736     034B  00F4               	movwf	clcd_print@str
  5737     034C  3088               	movlw	high (STR_18| (0+32768))
  5738     034D  00F5               	movwf	clcd_print@str+1
  5739     034E  3080               	movlw	128
  5740     034F  00F6               	movwf	clcd_print@addr
  5741     0350  160A  118A  233D  120A  118A  	fcall	_clcd_print
  5742                           
  5743                           ;menu.c: 39:         clcd_print("Sec Left : ", (0xC0 + 0));
  5744     0355  30B7               	movlw	low (STR_19| (0+32768))
  5745     0356  00F4               	movwf	clcd_print@str
  5746     0357  3089               	movlw	high (STR_19| (0+32768))
  5747     0358  00F5               	movwf	clcd_print@str+1
  5748     0359  30C0               	movlw	192
  5749     035A  00F6               	movwf	clcd_print@addr
  5750     035B  160A  118A  233D  120A  118A  	fcall	_clcd_print
  5751     0360                     l3640:
  5752                           
  5753                           ;menu.c: 40:         clcd_putch((sec_left / 10) + '0', (0xC0 + 11));
  5754     0360  30CB               	movlw	203
  5755     0361  00F8               	movwf	clcd_putch@addr
  5756     0362  300A               	movlw	10
  5757     0363  00F0               	movwf	___awdiv@divisor
  5758     0364  3000               	movlw	0
  5759     0365  00F1               	movwf	___awdiv@divisor+1
  5760     0366  1283               	bcf	3,5	;RP0=0, select bank0
  5761     0367  1303               	bcf	3,6	;RP1=0, select bank0
  5762     0368  086B               	movf	login@sec_left,w
  5763     0369  00FA               	movwf	??_login
  5764     036A  01FB               	clrf	??_login+1
  5765     036B  087A               	movf	??_login,w
  5766     036C  00F2               	movwf	___awdiv@dividend
  5767     036D  087B               	movf	??_login+1,w
  5768     036E  00F3               	movwf	___awdiv@dividend+1
  5769     036F  160A  118A  25A8  120A  118A  	fcall	___awdiv
  5770     0374  0870               	movf	?___awdiv,w
  5771     0375  3E30               	addlw	48
  5772     0376  160A  118A  213B  120A  118A  	fcall	_clcd_putch
  5773     037B                     l3642:
  5774                           
  5775                           ;menu.c: 41:         clcd_putch((sec_left % 10) + '0', (0xC0 + 12));
  5776     037B  30CC               	movlw	204
  5777     037C  00F8               	movwf	clcd_putch@addr
  5778     037D  300A               	movlw	10
  5779     037E  00F0               	movwf	___awmod@divisor
  5780     037F  3000               	movlw	0
  5781     0380  00F1               	movwf	___awmod@divisor+1
  5782     0381  1283               	bcf	3,5	;RP0=0, select bank0
  5783     0382  1303               	bcf	3,6	;RP1=0, select bank0
  5784     0383  086B               	movf	login@sec_left,w
  5785     0384  00FA               	movwf	??_login
  5786     0385  01FB               	clrf	??_login+1
  5787     0386  087A               	movf	??_login,w
  5788     0387  00F2               	movwf	___awmod@dividend
  5789     0388  087B               	movf	??_login+1,w
  5790     0389  00F3               	movwf	___awmod@dividend+1
  5791     038A  160A  118A  24EE  120A  118A  	fcall	___awmod
  5792     038F  0870               	movf	?___awmod,w
  5793     0390  3E30               	addlw	48
  5794     0391  160A  118A  213B  120A  118A  	fcall	_clcd_putch
  5795     0396                     l3644:
  5796                           
  5797                           ;menu.c: 45:         if(delay++ >= 5)
  5798     0396  1683               	bsf	3,5	;RP0=1, select bank1
  5799     0397  1303               	bcf	3,6	;RP1=0, select bank1
  5800     0398  0827               	movf	(login@delay+3)^(0+128),w
  5801     0399  00FD               	movwf	??_login+3
  5802     039A  0826               	movf	(login@delay+2)^(0+128),w
  5803     039B  00FC               	movwf	??_login+2
  5804     039C  0825               	movf	(login@delay+1)^(0+128),w
  5805     039D  00FB               	movwf	??_login+1
  5806     039E  0824               	movf	login@delay^(0+128),w
  5807     039F  00FA               	movwf	??_login
  5808     03A0  3001               	movlw	1
  5809     03A1  07A4               	addwf	login@delay^(0+128),f
  5810     03A2  3000               	movlw	0
  5811     03A3  07A5               	addwf	(login@delay+1)^(0+128),f
  5812     03A4  1803               	skipnc
  5813     03A5  0AA6               	incf	(login@delay+2)^(0+128),f
  5814     03A6  07A6               	addwf	(login@delay+2)^(0+128),f
  5815     03A7  1803               	skipnc
  5816     03A8  0AA7               	incf	(login@delay+3)^(0+128),f
  5817     03A9  07A7               	addwf	(login@delay+3)^(0+128),f
  5818     03AA  087D               	movf	??_login+3,w
  5819     03AB  1D03               	btfss	3,2
  5820     03AC  2BBB               	goto	u3930
  5821     03AD  087C               	movf	??_login+2,w
  5822     03AE  1D03               	btfss	3,2
  5823     03AF  2BBB               	goto	u3930
  5824     03B0  087B               	movf	??_login+1,w
  5825     03B1  1D03               	btfss	3,2
  5826     03B2  2BBB               	goto	u3930
  5827     03B3  3005               	movlw	5
  5828     03B4  027A               	subwf	??_login,w
  5829     03B5  1D03               	skipz
  5830     03B6  2BB7               	goto	u3933
  5831     03B7                     u3933:
  5832     03B7  1C03               	btfss	3,0
  5833     03B8  2BBA               	goto	u3931
  5834     03B9  2BBB               	goto	u3930
  5835     03BA                     u3931:
  5836     03BA  2BEF               	goto	l3668
  5837     03BB                     u3930:
  5838     03BB                     l3646:
  5839                           
  5840                           ;menu.c: 46:         {;menu.c: 47:             delay = 0;
  5841     03BB  3000               	movlw	0
  5842     03BC  1683               	bsf	3,5	;RP0=1, select bank1
  5843     03BD  1303               	bcf	3,6	;RP1=0, select bank1
  5844     03BE  00A7               	movwf	(login@delay+3)^(0+128)
  5845     03BF  3000               	movlw	0
  5846     03C0  00A6               	movwf	(login@delay+2)^(0+128)
  5847     03C1  3000               	movlw	0
  5848     03C2  00A5               	movwf	(login@delay+1)^(0+128)
  5849     03C3  3000               	movlw	0
  5850     03C4  00A4               	movwf	login@delay^(0+128)
  5851     03C5                     l3648:
  5852                           
  5853                           ;menu.c: 51:                 sec_left--;
  5854     03C5  3001               	movlw	1
  5855     03C6  1283               	bcf	3,5	;RP0=0, select bank0
  5856     03C7  1303               	bcf	3,6	;RP1=0, select bank0
  5857     03C8  02EB               	subwf	login@sec_left,f
  5858     03C9                     l3650:
  5859                           
  5860                           ;menu.c: 53:             if(sec_left == 0)
  5861     03C9  086B               	movf	login@sec_left,w
  5862     03CA  1D03               	btfss	3,2
  5863     03CB  2BCD               	goto	u3941
  5864     03CC  2BCE               	goto	u3940
  5865     03CD                     u3941:
  5866     03CD  2BEF               	goto	l3668
  5867     03CE                     u3940:
  5868     03CE                     l3652:
  5869                           
  5870                           ;menu.c: 55:             {;menu.c: 56:                 blocked = 0;
  5871     03CE  01E0               	clrf	login@blocked
  5872     03CF                     l3654:
  5873                           
  5874                           ;menu.c: 57:                 sec_left = 30;
  5875     03CF  301E               	movlw	30
  5876     03D0  00EB               	movwf	login@sec_left
  5877     03D1                     l3656:
  5878                           
  5879                           ;menu.c: 58:                 attempts = 3;
  5880     03D1  3003               	movlw	3
  5881     03D2  00EC               	movwf	login@attempts
  5882     03D3                     l3658:
  5883                           
  5884                           ;menu.c: 60:                 once = 1;
  5885     03D3  3001               	movlw	1
  5886     03D4  00ED               	movwf	login@once
  5887                           
  5888                           ;menu.c: 61:                 index = 0;
  5889     03D5  01E1               	clrf	login@index
  5890                           
  5891                           ;menu.c: 63:                 operation = 0;
  5892     03D6  01E4               	clrf	_operation
  5893     03D7                     l3660:
  5894                           
  5895                           ;menu.c: 65:                 clcd_print("                ", (0x80 + 0));
  5896     03D7  306B               	movlw	low (STR_1| (0+32768))
  5897     03D8  00F4               	movwf	clcd_print@str
  5898     03D9  3088               	movlw	high (STR_1| (0+32768))
  5899     03DA  00F5               	movwf	clcd_print@str+1
  5900     03DB  3080               	movlw	128
  5901     03DC  00F6               	movwf	clcd_print@addr
  5902     03DD  160A  118A  233D  120A  118A  	fcall	_clcd_print
  5903     03E2                     l3662:
  5904                           
  5905                           ;menu.c: 66:                 clcd_print("                ", (0xC0 + 0));
  5906     03E2  306B               	movlw	low (STR_1| (0+32768))
  5907     03E3  00F4               	movwf	clcd_print@str
  5908     03E4  3088               	movlw	high (STR_1| (0+32768))
  5909     03E5  00F5               	movwf	clcd_print@str+1
  5910     03E6  30C0               	movlw	192
  5911     03E7  00F6               	movwf	clcd_print@addr
  5912     03E8  160A  118A  233D  120A  118A  	fcall	_clcd_print
  5913     03ED                     l3664:
  5914                           
  5915                           ;menu.c: 67:                 return 2;
  5916     03ED  3002               	movlw	2
  5917     03EE  2D70               	goto	l381
  5918     03EF                     l3668:
  5919                           
  5920                           ;menu.c: 71:         return 0;
  5921     03EF  3000               	movlw	0
  5922     03F0  2D70               	goto	l381
  5923     03F1                     l3672:
  5924                           
  5925                           ;menu.c: 75:     if(once)
  5926     03F1  086D               	movf	login@once,w
  5927     03F2  1903               	btfsc	3,2
  5928     03F3  2BF5               	goto	u3951
  5929     03F4  2BF6               	goto	u3950
  5930     03F5                     u3951:
  5931     03F5  2C1D               	goto	l3686
  5932     03F6                     u3950:
  5933     03F6                     l3674:
  5934                           
  5935                           ;menu.c: 76:     {;menu.c: 77:         clcd_print("Enter Password ", (0x80 + 0));
  5936     03F6  307C               	movlw	low (STR_22| (0+32768))
  5937     03F7  00F4               	movwf	clcd_print@str
  5938     03F8  3089               	movlw	high (STR_22| (0+32768))
  5939     03F9  00F5               	movwf	clcd_print@str+1
  5940     03FA  3080               	movlw	128
  5941     03FB  00F6               	movwf	clcd_print@addr
  5942     03FC  160A  118A  233D  120A  118A  	fcall	_clcd_print
  5943                           
  5944                           ;menu.c: 78:         clcd_print("                ", (0xC0 + 0));
  5945     0401  306B               	movlw	low (STR_1| (0+32768))
  5946     0402  00F4               	movwf	clcd_print@str
  5947     0403  3088               	movlw	high (STR_1| (0+32768))
  5948     0404  00F5               	movwf	clcd_print@str+1
  5949     0405  30C0               	movlw	192
  5950     0406  00F6               	movwf	clcd_print@addr
  5951     0407  160A  118A  233D  120A  118A  	fcall	_clcd_print
  5952     040C                     l3676:
  5953                           
  5954                           ;menu.c: 80:         index = 0;
  5955     040C  1283               	bcf	3,5	;RP0=0, select bank0
  5956     040D  1303               	bcf	3,6	;RP1=0, select bank0
  5957     040E  01E1               	clrf	login@index
  5958     040F                     l3678:
  5959                           
  5960                           ;menu.c: 81:         blink = 0;
  5961     040F  01D1               	clrf	login@blink
  5962     0410  01D2               	clrf	login@blink+1
  5963     0411                     l3680:
  5964                           
  5965                           ;menu.c: 82:         blink_state = 0;
  5966     0411  01DF               	clrf	login@blink_state
  5967     0412                     l3682:
  5968                           
  5969                           ;menu.c: 84:         clcd_putch('_', (0xC0 + 0));
  5970     0412  30C0               	movlw	192
  5971     0413  00F8               	movwf	clcd_putch@addr
  5972     0414  305F               	movlw	95
  5973     0415  160A  118A  213B  120A  118A  	fcall	_clcd_putch
  5974     041A                     l3684:
  5975                           
  5976                           ;menu.c: 86:         once = 0;
  5977     041A  1283               	bcf	3,5	;RP0=0, select bank0
  5978     041B  1303               	bcf	3,6	;RP1=0, select bank0
  5979     041C  01ED               	clrf	login@once
  5980     041D                     l3686:
  5981                           
  5982                           ;menu.c: 90:     if(index < 4)
  5983     041D  3004               	movlw	4
  5984     041E  0261               	subwf	login@index,w
  5985     041F  1803               	skipnc
  5986     0420  2C22               	goto	u3961
  5987     0421  2C23               	goto	u3960
  5988     0422                     u3961:
  5989     0422  2C56               	goto	l3700
  5990     0423                     u3960:
  5991     0423                     l3688:
  5992                           
  5993                           ;menu.c: 91:     {;menu.c: 92:         if(++blink >= 200)
  5994     0423  3001               	movlw	1
  5995     0424  07D1               	addwf	login@blink,f
  5996     0425  1803               	skipnc
  5997     0426  0AD2               	incf	login@blink+1,f
  5998     0427  3000               	movlw	0
  5999     0428  07D2               	addwf	login@blink+1,f
  6000     0429  3000               	movlw	0
  6001     042A  0252               	subwf	login@blink+1,w
  6002     042B  30C8               	movlw	200
  6003     042C  1903               	skipnz
  6004     042D  0251               	subwf	login@blink,w
  6005     042E  1C03               	skipc
  6006     042F  2C31               	goto	u3971
  6007     0430  2C32               	goto	u3970
  6008     0431                     u3971:
  6009     0431  2C56               	goto	l3700
  6010     0432                     u3970:
  6011     0432                     l3690:
  6012                           
  6013                           ;menu.c: 93:         {;menu.c: 94:             blink = 0;
  6014     0432  01D1               	clrf	login@blink
  6015     0433  01D2               	clrf	login@blink+1
  6016     0434                     l3692:
  6017                           
  6018                           ;menu.c: 96:             if(blink_state)
  6019     0434  085F               	movf	login@blink_state,w
  6020     0435  1903               	btfsc	3,2
  6021     0436  2C38               	goto	u3981
  6022     0437  2C39               	goto	u3980
  6023     0438                     u3981:
  6024     0438  2C43               	goto	l3696
  6025     0439                     u3980:
  6026     0439                     l3694:
  6027                           
  6028                           ;menu.c: 97:                 clcd_putch('_', (0xC0 + index));
  6029     0439  0861               	movf	login@index,w
  6030     043A  3EC0               	addlw	192
  6031     043B  00F8               	movwf	clcd_putch@addr
  6032     043C  305F               	movlw	95
  6033     043D  160A  118A  213B  120A  118A  	fcall	_clcd_putch
  6034     0442  2C4C               	goto	l3698
  6035     0443                     l3696:
  6036                           
  6037                           ;menu.c: 99:                 clcd_putch(' ', (0xC0 + index));
  6038     0443  0861               	movf	login@index,w
  6039     0444  3EC0               	addlw	192
  6040     0445  00F8               	movwf	clcd_putch@addr
  6041     0446  3020               	movlw	32
  6042     0447  160A  118A  213B  120A  118A  	fcall	_clcd_putch
  6043     044C                     l3698:
  6044                           
  6045                           ;menu.c: 101:             blink_state = !blink_state;
  6046     044C  1283               	bcf	3,5	;RP0=0, select bank0
  6047     044D  1303               	bcf	3,6	;RP1=0, select bank0
  6048     044E  085F               	movf	login@blink_state,w
  6049     044F  1903               	btfsc	3,2
  6050     0450  2C52               	goto	u3991
  6051     0451  2C54               	goto	u3990
  6052     0452                     u3991:
  6053     0452  3001               	movlw	1
  6054     0453  2C55               	goto	u4000
  6055     0454                     u3990:
  6056     0454  3000               	movlw	0
  6057     0455                     u4000:
  6058     0455  00DF               	movwf	login@blink_state
  6059     0456                     l3700:
  6060                           
  6061                           ;menu.c: 106:     if(key == 0x3E && index < 4)
  6062     0456  303E               	movlw	62
  6063     0457  0620               	xorwf	login@key,w
  6064     0458  1D03               	btfss	3,2
  6065     0459  2C5B               	goto	u4011
  6066     045A  2C5C               	goto	u4010
  6067     045B                     u4011:
  6068     045B  2C85               	goto	l3714
  6069     045C                     u4010:
  6070     045C                     l3702:
  6071     045C  3004               	movlw	4
  6072     045D  0261               	subwf	login@index,w
  6073     045E  1803               	skipnc
  6074     045F  2C61               	goto	u4021
  6075     0460  2C62               	goto	u4020
  6076     0461                     u4021:
  6077     0461  2C85               	goto	l3714
  6078     0462                     u4020:
  6079     0462                     l3704:
  6080                           
  6081                           ;menu.c: 107:     {;menu.c: 108:         entered[index] = '1';
  6082     0462  0861               	movf	login@index,w
  6083     0463  3EBF               	addlw	(low (login@entered| 0))& (0+255)
  6084     0464  0084               	movwf	4
  6085     0465  3031               	movlw	49
  6086     0466  1383               	bcf	3,7	;select IRP bank1
  6087     0467  0080               	movwf	0
  6088     0468                     l3706:
  6089                           
  6090                           ;menu.c: 110:         clcd_putch('*', (0xC0 + index));
  6091     0468  0861               	movf	login@index,w
  6092     0469  3EC0               	addlw	192
  6093     046A  00F8               	movwf	clcd_putch@addr
  6094     046B  302A               	movlw	42
  6095     046C  160A  118A  213B  120A  118A  	fcall	_clcd_putch
  6096     0471                     l3708:
  6097                           
  6098                           ;menu.c: 112:         index++;
  6099     0471  3001               	movlw	1
  6100     0472  1283               	bcf	3,5	;RP0=0, select bank0
  6101     0473  1303               	bcf	3,6	;RP1=0, select bank0
  6102     0474  07E1               	addwf	login@index,f
  6103     0475                     l3710:
  6104                           
  6105                           ;menu.c: 114:         if(index < 4)
  6106     0475  3004               	movlw	4
  6107     0476  0261               	subwf	login@index,w
  6108     0477  1803               	skipnc
  6109     0478  2C7A               	goto	u4031
  6110     0479  2C7B               	goto	u4030
  6111     047A                     u4031:
  6112     047A  2CB3               	goto	l3728
  6113     047B                     u4030:
  6114     047B                     l3712:
  6115                           
  6116                           ;menu.c: 115:         {;menu.c: 116:             clcd_putch('_', (0xC0 + index));
  6117     047B  0861               	movf	login@index,w
  6118     047C  3EC0               	addlw	192
  6119     047D  00F8               	movwf	clcd_putch@addr
  6120     047E  305F               	movlw	95
  6121     047F  160A  118A  213B  120A  118A  	fcall	_clcd_putch
  6122     0484  2CB3               	goto	l3728
  6123     0485                     l3714:
  6124     0485  303D               	movlw	61
  6125     0486  0620               	xorwf	login@key,w
  6126     0487  1D03               	btfss	3,2
  6127     0488  2C8A               	goto	u4041
  6128     0489  2C8B               	goto	u4040
  6129     048A                     u4041:
  6130     048A  2CB3               	goto	l3728
  6131     048B                     u4040:
  6132     048B                     l3716:
  6133     048B  3004               	movlw	4
  6134     048C  0261               	subwf	login@index,w
  6135     048D  1803               	skipnc
  6136     048E  2C90               	goto	u4051
  6137     048F  2C91               	goto	u4050
  6138     0490                     u4051:
  6139     0490  2CB3               	goto	l3728
  6140     0491                     u4050:
  6141     0491                     l3718:
  6142                           
  6143                           ;menu.c: 122:     {;menu.c: 123:         entered[index] = '0';
  6144     0491  0861               	movf	login@index,w
  6145     0492  3EBF               	addlw	(low (login@entered| 0))& (0+255)
  6146     0493  0084               	movwf	4
  6147     0494  3030               	movlw	48
  6148     0495  1383               	bcf	3,7	;select IRP bank1
  6149     0496  0080               	movwf	0
  6150     0497                     l3720:
  6151                           
  6152                           ;menu.c: 125:         clcd_putch('*', (0xC0 + index));
  6153     0497  0861               	movf	login@index,w
  6154     0498  3EC0               	addlw	192
  6155     0499  00F8               	movwf	clcd_putch@addr
  6156     049A  302A               	movlw	42
  6157     049B  160A  118A  213B  120A  118A  	fcall	_clcd_putch
  6158     04A0                     l3722:
  6159                           
  6160                           ;menu.c: 127:         index++;
  6161     04A0  3001               	movlw	1
  6162     04A1  1283               	bcf	3,5	;RP0=0, select bank0
  6163     04A2  1303               	bcf	3,6	;RP1=0, select bank0
  6164     04A3  07E1               	addwf	login@index,f
  6165     04A4                     l3724:
  6166                           
  6167                           ;menu.c: 129:         if(index < 4)
  6168     04A4  3004               	movlw	4
  6169     04A5  0261               	subwf	login@index,w
  6170     04A6  1803               	skipnc
  6171     04A7  2CA9               	goto	u4061
  6172     04A8  2CAA               	goto	u4060
  6173     04A9                     u4061:
  6174     04A9  2CB3               	goto	l3728
  6175     04AA                     u4060:
  6176     04AA                     l3726:
  6177                           
  6178                           ;menu.c: 130:         {;menu.c: 131:             clcd_putch('_', (0xC0 + index));
  6179     04AA  0861               	movf	login@index,w
  6180     04AB  3EC0               	addlw	192
  6181     04AC  00F8               	movwf	clcd_putch@addr
  6182     04AD  305F               	movlw	95
  6183     04AE  160A  118A  213B  120A  118A  	fcall	_clcd_putch
  6184     04B3                     l3728:
  6185                           
  6186                           ;menu.c: 136:     if(index == 4)
  6187     04B3  3004               	movlw	4
  6188     04B4  1283               	bcf	3,5	;RP0=0, select bank0
  6189     04B5  1303               	bcf	3,6	;RP1=0, select bank0
  6190     04B6  0661               	xorwf	login@index,w
  6191     04B7  1D03               	btfss	3,2
  6192     04B8  2CBA               	goto	u4071
  6193     04B9  2CBB               	goto	u4070
  6194     04BA                     u4071:
  6195     04BA  2BEF               	goto	l3668
  6196     04BB                     u4070:
  6197     04BB                     l3730:
  6198                           
  6199                           ;menu.c: 137:     {;menu.c: 138:         entered[4] = '\0';
  6200     04BB  1683               	bsf	3,5	;RP0=1, select bank1
  6201     04BC  1303               	bcf	3,6	;RP1=0, select bank1
  6202     04BD  01C3               	clrf	(login@entered^(0+128)+4)
  6203     04BE                     l3732:
  6204                           
  6205                           ;menu.c: 140:         if(strcmp(entered, password) == 0)
  6206     04BE  30BF               	movlw	(low (login@entered| 0))& (0+255)
  6207     04BF  00F0               	movwf	strcmp@l
  6208     04C0  30E4               	movlw	(low (_password| 0))& (0+255)
  6209     04C1  00F1               	movwf	strcmp@r
  6210     04C2  160A  118A  226C  120A  118A  	fcall	_strcmp
  6211     04C7  0870               	movf	?_strcmp,w
  6212     04C8  0471               	iorwf	?_strcmp+1,w
  6213     04C9  1D03               	btfss	3,2
  6214     04CA  2CCC               	goto	u4081
  6215     04CB  2CCD               	goto	u4080
  6216     04CC                     u4081:
  6217     04CC  2CEE               	goto	l3748
  6218     04CD                     u4080:
  6219     04CD                     l3734:
  6220                           
  6221                           ;menu.c: 141:         {;menu.c: 142:             attempts = 3;
  6222     04CD  3003               	movlw	3
  6223     04CE  1283               	bcf	3,5	;RP0=0, select bank0
  6224     04CF  1303               	bcf	3,6	;RP1=0, select bank0
  6225     04D0  00EC               	movwf	login@attempts
  6226     04D1                     l3736:
  6227                           
  6228                           ;menu.c: 144:             clcd_print("                ", (0x80 + 0));
  6229     04D1  306B               	movlw	low (STR_1| (0+32768))
  6230     04D2  00F4               	movwf	clcd_print@str
  6231     04D3  3088               	movlw	high (STR_1| (0+32768))
  6232     04D4  00F5               	movwf	clcd_print@str+1
  6233     04D5  3080               	movlw	128
  6234     04D6  00F6               	movwf	clcd_print@addr
  6235     04D7  160A  118A  233D  120A  118A  	fcall	_clcd_print
  6236                           
  6237                           ;menu.c: 145:             clcd_print("                ", (0xC0 + 0));
  6238     04DC  306B               	movlw	low (STR_1| (0+32768))
  6239     04DD  00F4               	movwf	clcd_print@str
  6240     04DE  3088               	movlw	high (STR_1| (0+32768))
  6241     04DF  00F5               	movwf	clcd_print@str+1
  6242     04E0  30C0               	movlw	192
  6243     04E1  00F6               	movwf	clcd_print@addr
  6244     04E2  160A  118A  233D  120A  118A  	fcall	_clcd_print
  6245     04E7                     l3738:
  6246                           
  6247                           ;menu.c: 147:             once = 1;
  6248     04E7  3001               	movlw	1
  6249     04E8  1283               	bcf	3,5	;RP0=0, select bank0
  6250     04E9  1303               	bcf	3,6	;RP1=0, select bank0
  6251     04EA  00ED               	movwf	login@once
  6252     04EB                     l3740:
  6253                           
  6254                           ;menu.c: 148:             index = 0;
  6255     04EB  01E1               	clrf	login@index
  6256     04EC                     l3742:
  6257                           
  6258                           ;menu.c: 150:             return 1;
  6259     04EC  3001               	movlw	1
  6260     04ED  2D70               	goto	l381
  6261     04EE                     l3748:
  6262                           
  6263                           ;menu.c: 153:         {;menu.c: 154:             attempts--;
  6264     04EE  3001               	movlw	1
  6265     04EF  1283               	bcf	3,5	;RP0=0, select bank0
  6266     04F0  1303               	bcf	3,6	;RP1=0, select bank0
  6267     04F1  02EC               	subwf	login@attempts,f
  6268     04F2                     l3750:
  6269                           
  6270                           ;menu.c: 156:             clcd_print("Wrong Password ", (0x80 + 0));
  6271     04F2  306C               	movlw	low (STR_26| (0+32768))
  6272     04F3  00F4               	movwf	clcd_print@str
  6273     04F4  3089               	movlw	high (STR_26| (0+32768))
  6274     04F5  00F5               	movwf	clcd_print@str+1
  6275     04F6  3080               	movlw	128
  6276     04F7  00F6               	movwf	clcd_print@addr
  6277     04F8  160A  118A  233D  120A  118A  	fcall	_clcd_print
  6278     04FD                     l3752:
  6279                           
  6280                           ;menu.c: 157:             clcd_print("Attempt Left:  ", (0xC0 + 0));
  6281     04FD  30FC               	movlw	low (STR_27| (0+32768))
  6282     04FE  00F4               	movwf	clcd_print@str
  6283     04FF  3088               	movlw	high (STR_27| (0+32768))
  6284     0500  00F5               	movwf	clcd_print@str+1
  6285     0501  30C0               	movlw	192
  6286     0502  00F6               	movwf	clcd_print@addr
  6287     0503  160A  118A  233D  120A  118A  	fcall	_clcd_print
  6288     0508                     l3754:
  6289                           
  6290                           ;menu.c: 158:             clcd_putch(attempts + '0', (0xC0 + 14));
  6291     0508  30CE               	movlw	206
  6292     0509  00F8               	movwf	clcd_putch@addr
  6293     050A  1283               	bcf	3,5	;RP0=0, select bank0
  6294     050B  1303               	bcf	3,6	;RP1=0, select bank0
  6295     050C  086C               	movf	login@attempts,w
  6296     050D  3E30               	addlw	48
  6297     050E  160A  118A  213B  120A  118A  	fcall	_clcd_putch
  6298     0513                     l3756:
  6299                           
  6300                           ;menu.c: 160:             for(unsigned long int i = 0; i < 100000; i++);
  6301     0513  3000               	movlw	0
  6302     0514  1283               	bcf	3,5	;RP0=0, select bank0
  6303     0515  1303               	bcf	3,6	;RP1=0, select bank0
  6304     0516  00A4               	movwf	login@i+3
  6305     0517  3000               	movlw	0
  6306     0518  00A3               	movwf	login@i+2
  6307     0519  3000               	movlw	0
  6308     051A  00A2               	movwf	login@i+1
  6309     051B  3000               	movlw	0
  6310     051C  00A1               	movwf	login@i
  6311     051D                     l3762:
  6312     051D  3001               	movlw	1
  6313     051E  1283               	bcf	3,5	;RP0=0, select bank0
  6314     051F  1303               	bcf	3,6	;RP1=0, select bank0
  6315     0520  07A1               	addwf	login@i,f
  6316     0521  3000               	movlw	0
  6317     0522  1803               	skipnc
  6318     0523  3001               	movlw	1
  6319     0524  07A2               	addwf	login@i+1,f
  6320     0525  3000               	movlw	0
  6321     0526  1803               	skipnc
  6322     0527  3001               	movlw	1
  6323     0528  07A3               	addwf	login@i+2,f
  6324     0529  3000               	movlw	0
  6325     052A  1803               	skipnc
  6326     052B  3001               	movlw	1
  6327     052C  07A4               	addwf	login@i+3,f
  6328     052D                     l3764:
  6329     052D  0824               	movf	login@i+3,w
  6330     052E  1D03               	btfss	3,2
  6331     052F  2D40               	goto	u4090
  6332     0530  3001               	movlw	1
  6333     0531  0223               	subwf	login@i+2,w
  6334     0532  1D03               	skipz
  6335     0533  2D3C               	goto	u4093
  6336     0534  3086               	movlw	134
  6337     0535  0222               	subwf	login@i+1,w
  6338     0536  1D03               	skipz
  6339     0537  2D3C               	goto	u4093
  6340     0538  30A0               	movlw	160
  6341     0539  0221               	subwf	login@i,w
  6342     053A  1D03               	skipz
  6343     053B  2D3C               	goto	u4093
  6344     053C                     u4093:
  6345     053C  1C03               	btfss	3,0
  6346     053D  2D3F               	goto	u4091
  6347     053E  2D40               	goto	u4090
  6348     053F                     u4091:
  6349     053F  2D1D               	goto	l3762
  6350     0540                     u4090:
  6351     0540                     l3766:
  6352                           
  6353                           ;menu.c: 162:             clcd_print("                ", (0x80 + 0));
  6354     0540  306B               	movlw	low (STR_1| (0+32768))
  6355     0541  00F4               	movwf	clcd_print@str
  6356     0542  3088               	movlw	high (STR_1| (0+32768))
  6357     0543  00F5               	movwf	clcd_print@str+1
  6358     0544  3080               	movlw	128
  6359     0545  00F6               	movwf	clcd_print@addr
  6360     0546  160A  118A  233D  120A  118A  	fcall	_clcd_print
  6361                           
  6362                           ;menu.c: 163:             clcd_print("                ", (0xC0 + 0));
  6363     054B  306B               	movlw	low (STR_1| (0+32768))
  6364     054C  00F4               	movwf	clcd_print@str
  6365     054D  3088               	movlw	high (STR_1| (0+32768))
  6366     054E  00F5               	movwf	clcd_print@str+1
  6367     054F  30C0               	movlw	192
  6368     0550  00F6               	movwf	clcd_print@addr
  6369     0551  160A  118A  233D  120A  118A  	fcall	_clcd_print
  6370     0556                     l3768:
  6371                           
  6372                           ;menu.c: 165:             if(attempts == 0)
  6373     0556  1283               	bcf	3,5	;RP0=0, select bank0
  6374     0557  1303               	bcf	3,6	;RP1=0, select bank0
  6375     0558  086C               	movf	login@attempts,w
  6376     0559  1D03               	btfss	3,2
  6377     055A  2D5C               	goto	u4101
  6378     055B  2D5D               	goto	u4100
  6379     055C                     u4101:
  6380     055C  2D6B               	goto	l3774
  6381     055D                     u4100:
  6382     055D                     l3770:
  6383                           
  6384                           ;menu.c: 166:             {;menu.c: 167:                 blocked = 1;
  6385     055D  3001               	movlw	1
  6386     055E  00E0               	movwf	login@blocked
  6387                           
  6388                           ;menu.c: 168:                 sec_left = 30;
  6389     055F  301E               	movlw	30
  6390     0560  00EB               	movwf	login@sec_left
  6391     0561                     l3772:
  6392                           
  6393                           ;menu.c: 169:                 delay = 0;
  6394     0561  3000               	movlw	0
  6395     0562  1683               	bsf	3,5	;RP0=1, select bank1
  6396     0563  1303               	bcf	3,6	;RP1=0, select bank1
  6397     0564  00A7               	movwf	(login@delay+3)^(0+128)
  6398     0565  3000               	movlw	0
  6399     0566  00A6               	movwf	(login@delay+2)^(0+128)
  6400     0567  3000               	movlw	0
  6401     0568  00A5               	movwf	(login@delay+1)^(0+128)
  6402     0569  3000               	movlw	0
  6403     056A  00A4               	movwf	login@delay^(0+128)
  6404     056B                     l3774:
  6405                           
  6406                           ;menu.c: 172:             index = 0;
  6407     056B  1283               	bcf	3,5	;RP0=0, select bank0
  6408     056C  01E1               	clrf	login@index
  6409     056D                     l3776:
  6410                           
  6411                           ;menu.c: 173:             once = 1;
  6412     056D  3001               	movlw	1
  6413     056E  00ED               	movwf	login@once
  6414     056F  2BEF               	goto	l3668
  6415     0570                     l381:
  6416     0570  0008               	return
  6417     0571                     __end_of_login:
  6418                           
  6419                           	psect	text14
  6420     126C                     __ptext14:	
  6421 ;; *************** function _strcmp *****************
  6422 ;; Defined at:
  6423 ;;		line 3 in file "C:\Program Files\Microchip\xc8\v3.10\pic\sources\c99\common\strcmp.c"
  6424 ;; Parameters:    Size  Location     Type
  6425 ;;  l               1    0[COMMON] PTR const unsigned char 
  6426 ;;		 -> change_password@temp(5), login@entered(5), 
  6427 ;;  r               1    1[COMMON] PTR const unsigned char 
  6428 ;;		 -> change_password@temp2(5), password(5), 
  6429 ;; Auto vars:     Size  Location     Type
  6430 ;;		None
  6431 ;; Return value:  Size  Location     Type
  6432 ;;                  2    0[COMMON] int 
  6433 ;; Registers used:
  6434 ;;		wreg, fsr0l, fsr0h, status,2, status,0
  6435 ;; Tracked objects:
  6436 ;;		On entry : 0/0
  6437 ;;		On exit  : 0/0
  6438 ;;		Unchanged: 0/0
  6439 ;; Data sizes:     COMMON   BANK0   BANK1   BANK3   BANK2
  6440 ;;      Params:         2       0       0       0       0
  6441 ;;      Locals:         0       0       0       0       0
  6442 ;;      Temps:          2       0       0       0       0
  6443 ;;      Totals:         4       0       0       0       0
  6444 ;;Total ram usage:        4 bytes
  6445 ;; Hardware stack levels used: 1
  6446 ;; This function calls:
  6447 ;;		Nothing
  6448 ;; This function is called by:
  6449 ;;		_login
  6450 ;;		_change_password
  6451 ;; This function uses a non-reentrant model
  6452 ;;
  6453                           
  6454     126C                     _strcmp:	
  6455                           ;psect for function _strcmp
  6456                           
  6457     126C                     l2638:	
  6458                           ;incstack = 0
  6459                           ; Regs used in _strcmp: [wreg-fsr0h+status,2+status,0]
  6460                           
  6461     126C  2A71               	goto	l2642
  6462     126D                     l2640:
  6463     126D  3001               	movlw	1
  6464     126E  07F0               	addwf	strcmp@l,f
  6465     126F  3001               	movlw	1
  6466     1270  07F1               	addwf	strcmp@r,f
  6467     1271                     l2642:
  6468     1271  0871               	movf	strcmp@r,w
  6469     1272  0084               	movwf	4
  6470     1273  1383               	bcf	3,7	;select IRP bank0
  6471     1274  0800               	movf	0,w
  6472     1275  00F2               	movwf	??_strcmp
  6473     1276  0870               	movf	strcmp@l,w
  6474     1277  0084               	movwf	4
  6475     1278  0800               	movf	0,w
  6476     1279  0672               	xorwf	??_strcmp,w
  6477     127A  1D03               	skipz
  6478     127B  2A7D               	goto	u2241
  6479     127C  2A7E               	goto	u2240
  6480     127D                     u2241:
  6481     127D  2A85               	goto	l2646
  6482     127E                     u2240:
  6483     127E                     l2644:
  6484     127E  0870               	movf	strcmp@l,w
  6485     127F  0084               	movwf	4
  6486     1280  0800               	movf	0,w
  6487     1281  1D03               	btfss	3,2
  6488     1282  2A84               	goto	u2251
  6489     1283  2A85               	goto	u2250
  6490     1284                     u2251:
  6491     1284  2A6D               	goto	l2640
  6492     1285                     u2250:
  6493     1285                     l2646:
  6494     1285  0871               	movf	strcmp@r,w
  6495     1286  0084               	movwf	4
  6496     1287  0800               	movf	0,w
  6497     1288  00F2               	movwf	??_strcmp
  6498     1289  0870               	movf	strcmp@l,w
  6499     128A  0084               	movwf	4
  6500     128B  0800               	movf	0,w
  6501     128C  00F3               	movwf	??_strcmp+1
  6502     128D  0872               	movf	??_strcmp,w
  6503     128E  0273               	subwf	??_strcmp+1,w
  6504     128F  00F0               	movwf	?_strcmp
  6505     1290  01F1               	clrf	?_strcmp+1
  6506     1291  1C03               	skipc
  6507     1292  03F1               	decf	?_strcmp+1,f
  6508     1293                     l1106:
  6509     1293  0008               	return
  6510     1294                     __end_of_strcmp:
  6511                           
  6512                           	psect	text15
  6513     113B                     __ptext15:	
  6514 ;; *************** function _clcd_putch *****************
  6515 ;; Defined at:
  6516 ;;		line 56 in file "clcd.c"
  6517 ;; Parameters:    Size  Location     Type
  6518 ;;  data            1    wreg     const unsigned char 
  6519 ;;  addr            1    8[COMMON] unsigned char 
  6520 ;; Auto vars:     Size  Location     Type
  6521 ;;  data            1    9[COMMON] const unsigned char 
  6522 ;; Return value:  Size  Location     Type
  6523 ;;                  1    wreg      void 
  6524 ;; Registers used:
  6525 ;;		wreg, status,2, status,0, pclath, cstack
  6526 ;; Tracked objects:
  6527 ;;		On entry : 0/0
  6528 ;;		On exit  : 0/0
  6529 ;;		Unchanged: 0/0
  6530 ;; Data sizes:     COMMON   BANK0   BANK1   BANK3   BANK2
  6531 ;;      Params:         1       0       0       0       0
  6532 ;;      Locals:         1       0       0       0       0
  6533 ;;      Temps:          0       0       0       0       0
  6534 ;;      Totals:         2       0       0       0       0
  6535 ;;Total ram usage:        2 bytes
  6536 ;; Hardware stack levels used: 1
  6537 ;; This function calls:
  6538 ;;		_clcd_write
  6539 ;; This function is called by:
  6540 ;;		_login
  6541 ;;		_menu
  6542 ;;		_change_password
  6543 ;; This function uses a non-reentrant model
  6544 ;;
  6545                           
  6546     113B                     _clcd_putch:	
  6547                           ;psect for function _clcd_putch
  6548                           
  6549                           
  6550                           ;incstack = 0
  6551                           ; Regs used in _clcd_putch: [wreg+status,2+status,0+pclath+cstack]
  6552                           ;clcd_putch@data stored from wreg
  6553     113B  00F9               	movwf	clcd_putch@data
  6554     113C                     l2612:
  6555                           
  6556                           ;clcd.c: 56: void clcd_putch(const char data, unsigned char addr);clcd.c: 57: {;clcd.c: 
      +                          58:     clcd_write(addr, 0);
  6557     113C  01F0               	clrf	clcd_write@mode
  6558     113D  0878               	movf	clcd_putch@addr,w
  6559     113E  160A  118A  23CE  160A  118A  	fcall	_clcd_write
  6560                           
  6561                           ;clcd.c: 59:     clcd_write(data, 1);
  6562     1143  01F0               	clrf	clcd_write@mode
  6563     1144  0AF0               	incf	clcd_write@mode,f
  6564     1145  0879               	movf	clcd_putch@data,w
  6565     1146  160A  118A  23CE  160A  118A  	fcall	_clcd_write
  6566     114B                     l94:
  6567     114B  0008               	return
  6568     114C                     __end_of_clcd_putch:
  6569                           
  6570                           	psect	text16
  6571     14EE                     __ptext16:	
  6572 ;; *************** function ___awmod *****************
  6573 ;; Defined at:
  6574 ;;		line 5 in file "C:\Program Files\Microchip\xc8\v3.10\pic\sources\c99\common\awmod.c"
  6575 ;; Parameters:    Size  Location     Type
  6576 ;;  divisor         2    0[COMMON] int 
  6577 ;;  dividend        2    2[COMMON] int 
  6578 ;; Auto vars:     Size  Location     Type
  6579 ;;  sign            1    5[COMMON] unsigned char 
  6580 ;;  counter         1    4[COMMON] unsigned char 
  6581 ;; Return value:  Size  Location     Type
  6582 ;;                  2    0[COMMON] int 
  6583 ;; Registers used:
  6584 ;;		wreg, status,2, status,0
  6585 ;; Tracked objects:
  6586 ;;		On entry : 0/0
  6587 ;;		On exit  : 0/0
  6588 ;;		Unchanged: 0/0
  6589 ;; Data sizes:     COMMON   BANK0   BANK1   BANK3   BANK2
  6590 ;;      Params:         4       0       0       0       0
  6591 ;;      Locals:         2       0       0       0       0
  6592 ;;      Temps:          0       0       0       0       0
  6593 ;;      Totals:         6       0       0       0       0
  6594 ;;Total ram usage:        6 bytes
  6595 ;; Hardware stack levels used: 1
  6596 ;; This function calls:
  6597 ;;		Nothing
  6598 ;; This function is called by:
  6599 ;;		_login
  6600 ;;		_set_time
  6601 ;; This function uses a non-reentrant model
  6602 ;;
  6603                           
  6604     14EE                     ___awmod:	
  6605                           ;psect for function ___awmod
  6606                           
  6607     14EE                     l2736:	
  6608                           ;incstack = 0
  6609                           ; Regs used in ___awmod: [wreg+status,2+status,0]
  6610                           
  6611     14EE  01F5               	clrf	___awmod@sign
  6612     14EF                     l2738:
  6613     14EF  1FF3               	btfss	___awmod@dividend+1,7
  6614     14F0  2CF2               	goto	u2461
  6615     14F1  2CF3               	goto	u2460
  6616     14F2                     u2461:
  6617     14F2  2CFA               	goto	l2744
  6618     14F3                     u2460:
  6619     14F3                     l2740:
  6620     14F3  09F2               	comf	___awmod@dividend,f
  6621     14F4  09F3               	comf	___awmod@dividend+1,f
  6622     14F5  0AF2               	incf	___awmod@dividend,f
  6623     14F6  1903               	skipnz
  6624     14F7  0AF3               	incf	___awmod@dividend+1,f
  6625     14F8                     l2742:
  6626     14F8  3001               	movlw	1
  6627     14F9  00F5               	movwf	___awmod@sign
  6628     14FA                     l2744:
  6629     14FA  1FF1               	btfss	___awmod@divisor+1,7
  6630     14FB  2CFD               	goto	u2471
  6631     14FC  2CFE               	goto	u2470
  6632     14FD                     u2471:
  6633     14FD  2D03               	goto	l2748
  6634     14FE                     u2470:
  6635     14FE                     l2746:
  6636     14FE  09F0               	comf	___awmod@divisor,f
  6637     14FF  09F1               	comf	___awmod@divisor+1,f
  6638     1500  0AF0               	incf	___awmod@divisor,f
  6639     1501  1903               	skipnz
  6640     1502  0AF1               	incf	___awmod@divisor+1,f
  6641     1503                     l2748:
  6642     1503  0870               	movf	___awmod@divisor,w
  6643     1504  0471               	iorwf	___awmod@divisor+1,w
  6644     1505  1903               	btfsc	3,2
  6645     1506  2D08               	goto	u2481
  6646     1507  2D09               	goto	u2480
  6647     1508                     u2481:
  6648     1508  2D36               	goto	l2766
  6649     1509                     u2480:
  6650     1509                     l2750:
  6651     1509  3001               	movlw	1
  6652     150A  00F4               	movwf	___awmod@counter
  6653     150B  2D15               	goto	l2756
  6654     150C                     l2752:
  6655     150C  3001               	movlw	1
  6656     150D                     u2495:
  6657     150D  1003               	clrc
  6658     150E  0DF0               	rlf	___awmod@divisor,f
  6659     150F  0DF1               	rlf	___awmod@divisor+1,f
  6660     1510  3EFF               	addlw	-1
  6661     1511  1D03               	skipz
  6662     1512  2D0D               	goto	u2495
  6663     1513                     l2754:
  6664     1513  3001               	movlw	1
  6665     1514  07F4               	addwf	___awmod@counter,f
  6666     1515                     l2756:
  6667     1515  1FF1               	btfss	___awmod@divisor+1,7
  6668     1516  2D18               	goto	u2501
  6669     1517  2D19               	goto	u2500
  6670     1518                     u2501:
  6671     1518  2D0C               	goto	l2752
  6672     1519                     u2500:
  6673     1519                     l2758:
  6674     1519  0871               	movf	___awmod@divisor+1,w
  6675     151A  0273               	subwf	___awmod@dividend+1,w
  6676     151B  1D03               	skipz
  6677     151C  2D1F               	goto	u2515
  6678     151D  0870               	movf	___awmod@divisor,w
  6679     151E  0272               	subwf	___awmod@dividend,w
  6680     151F                     u2515:
  6681     151F  1C03               	skipc
  6682     1520  2D22               	goto	u2511
  6683     1521  2D23               	goto	u2510
  6684     1522                     u2511:
  6685     1522  2D29               	goto	l2762
  6686     1523                     u2510:
  6687     1523                     l2760:
  6688     1523  0870               	movf	___awmod@divisor,w
  6689     1524  02F2               	subwf	___awmod@dividend,f
  6690     1525  0871               	movf	___awmod@divisor+1,w
  6691     1526  1C03               	skipc
  6692     1527  03F3               	decf	___awmod@dividend+1,f
  6693     1528  02F3               	subwf	___awmod@dividend+1,f
  6694     1529                     l2762:
  6695     1529  3001               	movlw	1
  6696     152A                     u2525:
  6697     152A  1003               	clrc
  6698     152B  0CF1               	rrf	___awmod@divisor+1,f
  6699     152C  0CF0               	rrf	___awmod@divisor,f
  6700     152D  3EFF               	addlw	-1
  6701     152E  1D03               	skipz
  6702     152F  2D2A               	goto	u2525
  6703     1530                     l2764:
  6704     1530  3001               	movlw	1
  6705     1531  02F4               	subwf	___awmod@counter,f
  6706     1532  1D03               	btfss	3,2
  6707     1533  2D35               	goto	u2531
  6708     1534  2D36               	goto	u2530
  6709     1535                     u2531:
  6710     1535  2D19               	goto	l2758
  6711     1536                     u2530:
  6712     1536                     l2766:
  6713     1536  0875               	movf	___awmod@sign,w
  6714     1537  1903               	btfsc	3,2
  6715     1538  2D3A               	goto	u2541
  6716     1539  2D3B               	goto	u2540
  6717     153A                     u2541:
  6718     153A  2D40               	goto	l2770
  6719     153B                     u2540:
  6720     153B                     l2768:
  6721     153B  09F2               	comf	___awmod@dividend,f
  6722     153C  09F3               	comf	___awmod@dividend+1,f
  6723     153D  0AF2               	incf	___awmod@dividend,f
  6724     153E  1903               	skipnz
  6725     153F  0AF3               	incf	___awmod@dividend+1,f
  6726     1540                     l2770:
  6727     1540  0873               	movf	___awmod@dividend+1,w
  6728     1541  00F1               	movwf	?___awmod+1
  6729     1542  0872               	movf	___awmod@dividend,w
  6730     1543  00F0               	movwf	?___awmod
  6731     1544                     l808:
  6732     1544  0008               	return
  6733     1545                     __end_of___awmod:
  6734                           
  6735                           	psect	text17
  6736     15A8                     __ptext17:	
  6737 ;; *************** function ___awdiv *****************
  6738 ;; Defined at:
  6739 ;;		line 5 in file "C:\Program Files\Microchip\xc8\v3.10\pic\sources\c99\common\awdiv.c"
  6740 ;; Parameters:    Size  Location     Type
  6741 ;;  divisor         2    0[COMMON] int 
  6742 ;;  dividend        2    2[COMMON] int 
  6743 ;; Auto vars:     Size  Location     Type
  6744 ;;  quotient        2    6[COMMON] int 
  6745 ;;  sign            1    5[COMMON] unsigned char 
  6746 ;;  counter         1    4[COMMON] unsigned char 
  6747 ;; Return value:  Size  Location     Type
  6748 ;;                  2    0[COMMON] int 
  6749 ;; Registers used:
  6750 ;;		wreg, status,2, status,0
  6751 ;; Tracked objects:
  6752 ;;		On entry : 0/0
  6753 ;;		On exit  : 0/0
  6754 ;;		Unchanged: 0/0
  6755 ;; Data sizes:     COMMON   BANK0   BANK1   BANK3   BANK2
  6756 ;;      Params:         4       0       0       0       0
  6757 ;;      Locals:         4       0       0       0       0
  6758 ;;      Temps:          0       0       0       0       0
  6759 ;;      Totals:         8       0       0       0       0
  6760 ;;Total ram usage:        8 bytes
  6761 ;; Hardware stack levels used: 1
  6762 ;; This function calls:
  6763 ;;		Nothing
  6764 ;; This function is called by:
  6765 ;;		_login
  6766 ;;		_set_time
  6767 ;; This function uses a non-reentrant model
  6768 ;;
  6769                           
  6770     15A8                     ___awdiv:	
  6771                           ;psect for function ___awdiv
  6772                           
  6773     15A8                     l2692:	
  6774                           ;incstack = 0
  6775                           ; Regs used in ___awdiv: [wreg+status,2+status,0]
  6776                           
  6777     15A8  01F5               	clrf	___awdiv@sign
  6778     15A9                     l2694:
  6779     15A9  1FF1               	btfss	___awdiv@divisor+1,7
  6780     15AA  2DAC               	goto	u2361
  6781     15AB  2DAD               	goto	u2360
  6782     15AC                     u2361:
  6783     15AC  2DB4               	goto	l2700
  6784     15AD                     u2360:
  6785     15AD                     l2696:
  6786     15AD  09F0               	comf	___awdiv@divisor,f
  6787     15AE  09F1               	comf	___awdiv@divisor+1,f
  6788     15AF  0AF0               	incf	___awdiv@divisor,f
  6789     15B0  1903               	skipnz
  6790     15B1  0AF1               	incf	___awdiv@divisor+1,f
  6791     15B2                     l2698:
  6792     15B2  3001               	movlw	1
  6793     15B3  00F5               	movwf	___awdiv@sign
  6794     15B4                     l2700:
  6795     15B4  1FF3               	btfss	___awdiv@dividend+1,7
  6796     15B5  2DB7               	goto	u2371
  6797     15B6  2DB8               	goto	u2370
  6798     15B7                     u2371:
  6799     15B7  2DBF               	goto	l2706
  6800     15B8                     u2370:
  6801     15B8                     l2702:
  6802     15B8  09F2               	comf	___awdiv@dividend,f
  6803     15B9  09F3               	comf	___awdiv@dividend+1,f
  6804     15BA  0AF2               	incf	___awdiv@dividend,f
  6805     15BB  1903               	skipnz
  6806     15BC  0AF3               	incf	___awdiv@dividend+1,f
  6807     15BD                     l2704:
  6808     15BD  3001               	movlw	1
  6809     15BE  06F5               	xorwf	___awdiv@sign,f
  6810     15BF                     l2706:
  6811     15BF  01F6               	clrf	___awdiv@quotient
  6812     15C0  01F7               	clrf	___awdiv@quotient+1
  6813     15C1                     l2708:
  6814     15C1  0870               	movf	___awdiv@divisor,w
  6815     15C2  0471               	iorwf	___awdiv@divisor+1,w
  6816     15C3  1903               	btfsc	3,2
  6817     15C4  2DC6               	goto	u2381
  6818     15C5  2DC7               	goto	u2380
  6819     15C6                     u2381:
  6820     15C6  2DFC               	goto	l2728
  6821     15C7                     u2380:
  6822     15C7                     l2710:
  6823     15C7  3001               	movlw	1
  6824     15C8  00F4               	movwf	___awdiv@counter
  6825     15C9  2DD3               	goto	l2716
  6826     15CA                     l2712:
  6827     15CA  3001               	movlw	1
  6828     15CB                     u2395:
  6829     15CB  1003               	clrc
  6830     15CC  0DF0               	rlf	___awdiv@divisor,f
  6831     15CD  0DF1               	rlf	___awdiv@divisor+1,f
  6832     15CE  3EFF               	addlw	-1
  6833     15CF  1D03               	skipz
  6834     15D0  2DCB               	goto	u2395
  6835     15D1                     l2714:
  6836     15D1  3001               	movlw	1
  6837     15D2  07F4               	addwf	___awdiv@counter,f
  6838     15D3                     l2716:
  6839     15D3  1FF1               	btfss	___awdiv@divisor+1,7
  6840     15D4  2DD6               	goto	u2401
  6841     15D5  2DD7               	goto	u2400
  6842     15D6                     u2401:
  6843     15D6  2DCA               	goto	l2712
  6844     15D7                     u2400:
  6845     15D7                     l2718:
  6846     15D7  3001               	movlw	1
  6847     15D8                     u2415:
  6848     15D8  1003               	clrc
  6849     15D9  0DF6               	rlf	___awdiv@quotient,f
  6850     15DA  0DF7               	rlf	___awdiv@quotient+1,f
  6851     15DB  3EFF               	addlw	-1
  6852     15DC  1D03               	skipz
  6853     15DD  2DD8               	goto	u2415
  6854     15DE  0871               	movf	___awdiv@divisor+1,w
  6855     15DF  0273               	subwf	___awdiv@dividend+1,w
  6856     15E0  1D03               	skipz
  6857     15E1  2DE4               	goto	u2425
  6858     15E2  0870               	movf	___awdiv@divisor,w
  6859     15E3  0272               	subwf	___awdiv@dividend,w
  6860     15E4                     u2425:
  6861     15E4  1C03               	skipc
  6862     15E5  2DE7               	goto	u2421
  6863     15E6  2DE8               	goto	u2420
  6864     15E7                     u2421:
  6865     15E7  2DEF               	goto	l2724
  6866     15E8                     u2420:
  6867     15E8                     l2720:
  6868     15E8  0870               	movf	___awdiv@divisor,w
  6869     15E9  02F2               	subwf	___awdiv@dividend,f
  6870     15EA  0871               	movf	___awdiv@divisor+1,w
  6871     15EB  1C03               	skipc
  6872     15EC  03F3               	decf	___awdiv@dividend+1,f
  6873     15ED  02F3               	subwf	___awdiv@dividend+1,f
  6874     15EE                     l2722:
  6875     15EE  1476               	bsf	___awdiv@quotient,0
  6876     15EF                     l2724:
  6877     15EF  3001               	movlw	1
  6878     15F0                     u2435:
  6879     15F0  1003               	clrc
  6880     15F1  0CF1               	rrf	___awdiv@divisor+1,f
  6881     15F2  0CF0               	rrf	___awdiv@divisor,f
  6882     15F3  3EFF               	addlw	-1
  6883     15F4  1D03               	skipz
  6884     15F5  2DF0               	goto	u2435
  6885     15F6                     l2726:
  6886     15F6  3001               	movlw	1
  6887     15F7  02F4               	subwf	___awdiv@counter,f
  6888     15F8  1D03               	btfss	3,2
  6889     15F9  2DFB               	goto	u2441
  6890     15FA  2DFC               	goto	u2440
  6891     15FB                     u2441:
  6892     15FB  2DD7               	goto	l2718
  6893     15FC                     u2440:
  6894     15FC                     l2728:
  6895     15FC  0875               	movf	___awdiv@sign,w
  6896     15FD  1903               	btfsc	3,2
  6897     15FE  2E00               	goto	u2451
  6898     15FF  2E01               	goto	u2450
  6899     1600                     u2451:
  6900     1600  2E06               	goto	l2732
  6901     1601                     u2450:
  6902     1601                     l2730:
  6903     1601  09F6               	comf	___awdiv@quotient,f
  6904     1602  09F7               	comf	___awdiv@quotient+1,f
  6905     1603  0AF6               	incf	___awdiv@quotient,f
  6906     1604  1903               	skipnz
  6907     1605  0AF7               	incf	___awdiv@quotient+1,f
  6908     1606                     l2732:
  6909     1606  0877               	movf	___awdiv@quotient+1,w
  6910     1607  00F1               	movwf	?___awdiv+1
  6911     1608  0876               	movf	___awdiv@quotient,w
  6912     1609  00F0               	movwf	?___awdiv
  6913     160A                     l795:
  6914     160A  0008               	return
  6915     160B                     __end_of___awdiv:
  6916                           
  6917                           	psect	text18
  6918     1294                     __ptext18:	
  6919 ;; *************** function _init_config *****************
  6920 ;; Defined at:
  6921 ;;		line 14 in file "main.c"
  6922 ;; Parameters:    Size  Location     Type
  6923 ;;		None
  6924 ;; Auto vars:     Size  Location     Type
  6925 ;;		None
  6926 ;; Return value:  Size  Location     Type
  6927 ;;                  1    wreg      void 
  6928 ;; Registers used:
  6929 ;;		wreg, status,2, status,0, pclath, cstack
  6930 ;; Tracked objects:
  6931 ;;		On entry : 0/0
  6932 ;;		On exit  : 0/0
  6933 ;;		Unchanged: 0/0
  6934 ;; Data sizes:     COMMON   BANK0   BANK1   BANK3   BANK2
  6935 ;;      Params:         0       0       0       0       0
  6936 ;;      Locals:         0       0       0       0       0
  6937 ;;      Temps:          0       0       0       0       0
  6938 ;;      Totals:         0       0       0       0       0
  6939 ;;Total ram usage:        0 bytes
  6940 ;; Hardware stack levels used: 1
  6941 ;; Hardware stack levels required when called: 3
  6942 ;; This function calls:
  6943 ;;		_init_adc
  6944 ;;		_init_clcd
  6945 ;;		_init_digital_keypad
  6946 ;;		_init_ds1307
  6947 ;;		_init_i2c
  6948 ;;		_init_uart
  6949 ;; This function is called by:
  6950 ;;		_main
  6951 ;; This function uses a non-reentrant model
  6952 ;;
  6953                           
  6954     1294                     _init_config:	
  6955                           ;psect for function _init_config
  6956                           
  6957     1294                     l3576:	
  6958                           ;incstack = 0
  6959                           ; Regs used in _init_config: [wreg+status,2+status,0+pclath+cstack]
  6960                           
  6961                           
  6962                           ;main.c: 16:     init_adc();
  6963     1294  120A  158A  2203  160A  118A  	fcall	_init_adc
  6964     1299                     l3578:
  6965                           
  6966                           ;main.c: 17:     init_clcd();
  6967     1299  160A  118A  2130  160A  118A  	fcall	_init_clcd
  6968     129E                     l3580:
  6969                           
  6970                           ;main.c: 18:     init_digital_keypad();
  6971     129E  160A  118A  20E6  160A  118A  	fcall	_init_digital_keypad
  6972     12A3                     l3582:
  6973                           
  6974                           ;main.c: 19:     init_i2c(100000);
  6975     12A3  3000               	movlw	0
  6976     12A4  1283               	bcf	3,5	;RP0=0, select bank0
  6977     12A5  1303               	bcf	3,6	;RP1=0, select bank0
  6978     12A6  00A3               	movwf	init_i2c@baud+3
  6979     12A7  3001               	movlw	1
  6980     12A8  00A2               	movwf	init_i2c@baud+2
  6981     12A9  3086               	movlw	134
  6982     12AA  00A1               	movwf	init_i2c@baud+1
  6983     12AB  30A0               	movlw	160
  6984     12AC  00A0               	movwf	init_i2c@baud
  6985     12AD  160A  118A  239C  160A  118A  	fcall	_init_i2c
  6986     12B2                     l3584:
  6987                           
  6988                           ;main.c: 20:     init_ds1307();
  6989     12B2  160A  118A  214C  160A  118A  	fcall	_init_ds1307
  6990                           
  6991                           ;main.c: 21:     init_uart();
  6992     12B7  160A  118A  215E  160A  118A  	fcall	_init_uart
  6993     12BC                     l50:
  6994     12BC  0008               	return
  6995     12BD                     __end_of_init_config:
  6996                           
  6997                           	psect	text19
  6998     115E                     __ptext19:	
  6999 ;; *************** function _init_uart *****************
  7000 ;; Defined at:
  7001 ;;		line 15 in file "uart.c"
  7002 ;; Parameters:    Size  Location     Type
  7003 ;;		None
  7004 ;; Auto vars:     Size  Location     Type
  7005 ;;		None
  7006 ;; Return value:  Size  Location     Type
  7007 ;;                  1    wreg      void 
  7008 ;; Registers used:
  7009 ;;		None
  7010 ;; Tracked objects:
  7011 ;;		On entry : 0/0
  7012 ;;		On exit  : 0/0
  7013 ;;		Unchanged: 0/0
  7014 ;; Data sizes:     COMMON   BANK0   BANK1   BANK3   BANK2
  7015 ;;      Params:         0       0       0       0       0
  7016 ;;      Locals:         0       0       0       0       0
  7017 ;;      Temps:          0       0       0       0       0
  7018 ;;      Totals:         0       0       0       0       0
  7019 ;;Total ram usage:        0 bytes
  7020 ;; Hardware stack levels used: 1
  7021 ;; This function calls:
  7022 ;;		Nothing
  7023 ;; This function is called by:
  7024 ;;		_init_config
  7025 ;; This function uses a non-reentrant model
  7026 ;;
  7027                           
  7028     115E                     _init_uart:	
  7029                           ;psect for function _init_uart
  7030                           
  7031     115E                     l2806:	
  7032                           ;incstack = 0
  7033                           ; Regs used in _init_uart: []
  7034                           
  7035                           
  7036                           ;uart.c: 17:     TRISC6 = 0;
  7037     115E  1683               	bsf	3,5	;RP0=1, select bank1
  7038     115F  1303               	bcf	3,6	;RP1=0, select bank1
  7039     1160  1307               	bcf	7,6	;volatile
  7040                           
  7041                           ;uart.c: 18:     TRISC7 = 1;
  7042     1161  1787               	bsf	7,7	;volatile
  7043                           
  7044                           ;uart.c: 20:     BRGH = 1;
  7045     1162  1518               	bsf	24,2	;volatile
  7046                           
  7047                           ;uart.c: 21:     SPBRG = 129;
  7048     1163  3081               	movlw	129
  7049     1164  0099               	movwf	25	;volatile
  7050                           
  7051                           ;uart.c: 23:     SYNC = 0;
  7052     1165  1218               	bcf	24,4	;volatile
  7053                           
  7054                           ;uart.c: 24:     SPEN = 1;
  7055     1166  1283               	bcf	3,5	;RP0=0, select bank0
  7056     1167  1303               	bcf	3,6	;RP1=0, select bank0
  7057     1168  1798               	bsf	24,7	;volatile
  7058                           
  7059                           ;uart.c: 26:     TXEN = 1;
  7060     1169  1683               	bsf	3,5	;RP0=1, select bank1
  7061     116A  1303               	bcf	3,6	;RP1=0, select bank1
  7062     116B  1698               	bsf	24,5	;volatile
  7063                           
  7064                           ;uart.c: 27:     CREN = 1;
  7065     116C  1283               	bcf	3,5	;RP0=0, select bank0
  7066     116D  1303               	bcf	3,6	;RP1=0, select bank0
  7067     116E  1618               	bsf	24,4	;volatile
  7068     116F                     l297:
  7069     116F  0008               	return
  7070     1170                     __end_of_init_uart:
  7071                           
  7072                           	psect	text20
  7073     139C                     __ptext20:	
  7074 ;; *************** function _init_i2c *****************
  7075 ;; Defined at:
  7076 ;;		line 4 in file "i2c.c"
  7077 ;; Parameters:    Size  Location     Type
  7078 ;;  baud            4    0[BANK0 ] unsigned long 
  7079 ;; Auto vars:     Size  Location     Type
  7080 ;;		None
  7081 ;; Return value:  Size  Location     Type
  7082 ;;                  1    wreg      void 
  7083 ;; Registers used:
  7084 ;;		wreg, status,2, status,0, pclath, cstack
  7085 ;; Tracked objects:
  7086 ;;		On entry : 0/0
  7087 ;;		On exit  : 0/0
  7088 ;;		Unchanged: 0/0
  7089 ;; Data sizes:     COMMON   BANK0   BANK1   BANK3   BANK2
  7090 ;;      Params:         0       4       0       0       0
  7091 ;;      Locals:         0       0       0       0       0
  7092 ;;      Temps:          0       4       0       0       0
  7093 ;;      Totals:         0       8       0       0       0
  7094 ;;Total ram usage:        8 bytes
  7095 ;; Hardware stack levels used: 1
  7096 ;; Hardware stack levels required when called: 1
  7097 ;; This function calls:
  7098 ;;		___lldiv
  7099 ;; This function is called by:
  7100 ;;		_init_config
  7101 ;; This function uses a non-reentrant model
  7102 ;;
  7103                           
  7104     139C                     _init_i2c:	
  7105                           ;psect for function _init_i2c
  7106                           
  7107     139C                     l2794:	
  7108                           ;incstack = 0
  7109                           ; Regs used in _init_i2c: [wreg+status,2+status,0+pclath+cstack]
  7110                           
  7111                           
  7112                           ;i2c.c: 4: void init_i2c(unsigned long baud);i2c.c: 5: {;i2c.c: 7:     SSPM3 = 1;
  7113     139C  1283               	bcf	3,5	;RP0=0, select bank0
  7114     139D  1303               	bcf	3,6	;RP1=0, select bank0
  7115     139E  1594               	bsf	20,3	;volatile
  7116     139F                     l2796:
  7117                           
  7118                           ;i2c.c: 10:     SSPADD = (unsigned char)(20000000 / (4 * baud)) - 1;
  7119     139F  0820               	movf	init_i2c@baud,w
  7120     13A0  00A4               	movwf	??_init_i2c
  7121     13A1  0821               	movf	init_i2c@baud+1,w
  7122     13A2  00A5               	movwf	??_init_i2c+1
  7123     13A3  0822               	movf	init_i2c@baud+2,w
  7124     13A4  00A6               	movwf	??_init_i2c+2
  7125     13A5  0823               	movf	init_i2c@baud+3,w
  7126     13A6  00A7               	movwf	??_init_i2c+3
  7127     13A7  3002               	movlw	2
  7128     13A8                     u2575:
  7129     13A8  1003               	clrc
  7130     13A9  0DA4               	rlf	??_init_i2c,f
  7131     13AA  0DA5               	rlf	??_init_i2c+1,f
  7132     13AB  0DA6               	rlf	??_init_i2c+2,f
  7133     13AC  0DA7               	rlf	??_init_i2c+3,f
  7134     13AD                     u2570:
  7135     13AD  3EFF               	addlw	-1
  7136     13AE  1D03               	skipz
  7137     13AF  2BA8               	goto	u2575
  7138     13B0  0827               	movf	??_init_i2c+3,w
  7139     13B1  00F3               	movwf	___lldiv@divisor+3
  7140     13B2  0826               	movf	??_init_i2c+2,w
  7141     13B3  00F2               	movwf	___lldiv@divisor+2
  7142     13B4  0825               	movf	??_init_i2c+1,w
  7143     13B5  00F1               	movwf	___lldiv@divisor+1
  7144     13B6  0824               	movf	??_init_i2c,w
  7145     13B7  00F0               	movwf	___lldiv@divisor
  7146     13B8  3001               	movlw	1
  7147     13B9  00F7               	movwf	___lldiv@dividend+3
  7148     13BA  3031               	movlw	49
  7149     13BB  00F6               	movwf	___lldiv@dividend+2
  7150     13BC  302D               	movlw	45
  7151     13BD  00F5               	movwf	___lldiv@dividend+1
  7152     13BE  3000               	movlw	0
  7153     13BF  00F4               	movwf	___lldiv@dividend
  7154     13C0  160A  118A  260B  160A  118A  	fcall	___lldiv
  7155     13C5  0870               	movf	?___lldiv,w
  7156     13C6  3EFF               	addlw	255
  7157     13C7  1683               	bsf	3,5	;RP0=1, select bank1
  7158     13C8  1303               	bcf	3,6	;RP1=0, select bank1
  7159     13C9  0093               	movwf	19	;volatile
  7160     13CA                     l2798:
  7161                           
  7162                           ;i2c.c: 13:     SSPEN = 1;
  7163     13CA  1283               	bcf	3,5	;RP0=0, select bank0
  7164     13CB  1303               	bcf	3,6	;RP1=0, select bank0
  7165     13CC  1694               	bsf	20,5	;volatile
  7166     13CD                     l198:
  7167     13CD  0008               	return
  7168     13CE                     __end_of_init_i2c:
  7169                           
  7170                           	psect	text21
  7171     160B                     __ptext21:	
  7172 ;; *************** function ___lldiv *****************
  7173 ;; Defined at:
  7174 ;;		line 5 in file "C:\Program Files\Microchip\xc8\v3.10\pic\sources\c99\common\__lldiv.c"
  7175 ;; Parameters:    Size  Location     Type
  7176 ;;  divisor         4    0[COMMON] unsigned long 
  7177 ;;  dividend        4    4[COMMON] unsigned long 
  7178 ;; Auto vars:     Size  Location     Type
  7179 ;;  quotient        4    9[COMMON] unsigned long 
  7180 ;;  counter         1   13[COMMON] unsigned char 
  7181 ;; Return value:  Size  Location     Type
  7182 ;;                  4    0[COMMON] unsigned long 
  7183 ;; Registers used:
  7184 ;;		wreg, status,2, status,0
  7185 ;; Tracked objects:
  7186 ;;		On entry : 0/0
  7187 ;;		On exit  : 0/0
  7188 ;;		Unchanged: 0/0
  7189 ;; Data sizes:     COMMON   BANK0   BANK1   BANK3   BANK2
  7190 ;;      Params:         8       0       0       0       0
  7191 ;;      Locals:         5       0       0       0       0
  7192 ;;      Temps:          1       0       0       0       0
  7193 ;;      Totals:        14       0       0       0       0
  7194 ;;Total ram usage:       14 bytes
  7195 ;; Hardware stack levels used: 1
  7196 ;; This function calls:
  7197 ;;		Nothing
  7198 ;; This function is called by:
  7199 ;;		_init_i2c
  7200 ;; This function uses a non-reentrant model
  7201 ;;
  7202                           
  7203     160B                     ___lldiv:	
  7204                           ;psect for function ___lldiv
  7205                           
  7206     160B                     l2668:	
  7207                           ;incstack = 0
  7208                           ; Regs used in ___lldiv: [wreg+status,2+status,0]
  7209                           
  7210     160B  3000               	movlw	0
  7211     160C  00FC               	movwf	___lldiv@quotient+3
  7212     160D  3000               	movlw	0
  7213     160E  00FB               	movwf	___lldiv@quotient+2
  7214     160F  3000               	movlw	0
  7215     1610  00FA               	movwf	___lldiv@quotient+1
  7216     1611  3000               	movlw	0
  7217     1612  00F9               	movwf	___lldiv@quotient
  7218     1613  0873               	movf	___lldiv@divisor+3,w
  7219     1614  0472               	iorwf	___lldiv@divisor+2,w
  7220     1615  0471               	iorwf	___lldiv@divisor+1,w
  7221     1616  0470               	iorwf	___lldiv@divisor,w
  7222     1617  1903               	skipnz
  7223     1618  2E1A               	goto	u2291
  7224     1619  2E1B               	goto	u2290
  7225     161A                     u2291:
  7226     161A  2E66               	goto	l2688
  7227     161B                     u2290:
  7228     161B                     l2670:
  7229     161B  3001               	movlw	1
  7230     161C  00FD               	movwf	___lldiv@counter
  7231     161D  2E29               	goto	l2674
  7232     161E                     l2672:
  7233     161E  3001               	movlw	1
  7234     161F  00F8               	movwf	??___lldiv
  7235     1620                     u2305:
  7236     1620  1003               	clrc
  7237     1621  0DF0               	rlf	___lldiv@divisor,f
  7238     1622  0DF1               	rlf	___lldiv@divisor+1,f
  7239     1623  0DF2               	rlf	___lldiv@divisor+2,f
  7240     1624  0DF3               	rlf	___lldiv@divisor+3,f
  7241     1625  0BF8               	decfsz	??___lldiv,f
  7242     1626  2E20               	goto	u2305
  7243     1627  3001               	movlw	1
  7244     1628  07FD               	addwf	___lldiv@counter,f
  7245     1629                     l2674:
  7246     1629  1FF3               	btfss	___lldiv@divisor+3,7
  7247     162A  2E2C               	goto	u2311
  7248     162B  2E2D               	goto	u2310
  7249     162C                     u2311:
  7250     162C  2E1E               	goto	l2672
  7251     162D                     u2310:
  7252     162D                     l2676:
  7253     162D  3001               	movlw	1
  7254     162E  00F8               	movwf	??___lldiv
  7255     162F                     u2325:
  7256     162F  1003               	clrc
  7257     1630  0DF9               	rlf	___lldiv@quotient,f
  7258     1631  0DFA               	rlf	___lldiv@quotient+1,f
  7259     1632  0DFB               	rlf	___lldiv@quotient+2,f
  7260     1633  0DFC               	rlf	___lldiv@quotient+3,f
  7261     1634  0BF8               	decfsz	??___lldiv,f
  7262     1635  2E2F               	goto	u2325
  7263     1636                     l2678:
  7264     1636  0873               	movf	___lldiv@divisor+3,w
  7265     1637  0277               	subwf	___lldiv@dividend+3,w
  7266     1638  1D03               	skipz
  7267     1639  2E44               	goto	u2335
  7268     163A  0872               	movf	___lldiv@divisor+2,w
  7269     163B  0276               	subwf	___lldiv@dividend+2,w
  7270     163C  1D03               	skipz
  7271     163D  2E44               	goto	u2335
  7272     163E  0871               	movf	___lldiv@divisor+1,w
  7273     163F  0275               	subwf	___lldiv@dividend+1,w
  7274     1640  1D03               	skipz
  7275     1641  2E44               	goto	u2335
  7276     1642  0870               	movf	___lldiv@divisor,w
  7277     1643  0274               	subwf	___lldiv@dividend,w
  7278     1644                     u2335:
  7279     1644  1C03               	skipc
  7280     1645  2E47               	goto	u2331
  7281     1646  2E48               	goto	u2330
  7282     1647                     u2331:
  7283     1647  2E57               	goto	l2684
  7284     1648                     u2330:
  7285     1648                     l2680:
  7286     1648  0870               	movf	___lldiv@divisor,w
  7287     1649  02F4               	subwf	___lldiv@dividend,f
  7288     164A  0871               	movf	___lldiv@divisor+1,w
  7289     164B  1C03               	skipc
  7290     164C  0F71               	incfsz	___lldiv@divisor+1,w
  7291     164D  02F5               	subwf	___lldiv@dividend+1,f
  7292     164E  0872               	movf	___lldiv@divisor+2,w
  7293     164F  1C03               	skipc
  7294     1650  0F72               	incfsz	___lldiv@divisor+2,w
  7295     1651  02F6               	subwf	___lldiv@dividend+2,f
  7296     1652  0873               	movf	___lldiv@divisor+3,w
  7297     1653  1C03               	skipc
  7298     1654  0F73               	incfsz	___lldiv@divisor+3,w
  7299     1655  02F7               	subwf	___lldiv@dividend+3,f
  7300     1656                     l2682:
  7301     1656  1479               	bsf	___lldiv@quotient,0
  7302     1657                     l2684:
  7303     1657  3001               	movlw	1
  7304     1658                     u2345:
  7305     1658  1003               	clrc
  7306     1659  0CF3               	rrf	___lldiv@divisor+3,f
  7307     165A  0CF2               	rrf	___lldiv@divisor+2,f
  7308     165B  0CF1               	rrf	___lldiv@divisor+1,f
  7309     165C  0CF0               	rrf	___lldiv@divisor,f
  7310     165D  3EFF               	addlw	-1
  7311     165E  1D03               	skipz
  7312     165F  2E58               	goto	u2345
  7313     1660                     l2686:
  7314     1660  3001               	movlw	1
  7315     1661  02FD               	subwf	___lldiv@counter,f
  7316     1662  1D03               	btfss	3,2
  7317     1663  2E65               	goto	u2351
  7318     1664  2E66               	goto	u2350
  7319     1665                     u2351:
  7320     1665  2E2D               	goto	l2676
  7321     1666                     u2350:
  7322     1666                     l2688:
  7323     1666  087C               	movf	___lldiv@quotient+3,w
  7324     1667  00F3               	movwf	?___lldiv+3
  7325     1668  087B               	movf	___lldiv@quotient+2,w
  7326     1669  00F2               	movwf	?___lldiv+2
  7327     166A  087A               	movf	___lldiv@quotient+1,w
  7328     166B  00F1               	movwf	?___lldiv+1
  7329     166C  0879               	movf	___lldiv@quotient,w
  7330     166D  00F0               	movwf	?___lldiv
  7331     166E                     l678:
  7332     166E  0008               	return
  7333     166F                     __end_of___lldiv:
  7334                           
  7335                           	psect	text22
  7336     114C                     __ptext22:	
  7337 ;; *************** function _init_ds1307 *****************
  7338 ;; Defined at:
  7339 ;;		line 6 in file "ds1307.c"
  7340 ;; Parameters:    Size  Location     Type
  7341 ;;		None
  7342 ;; Auto vars:     Size  Location     Type
  7343 ;;  dummy           1   10[COMMON] unsigned char 
  7344 ;; Return value:  Size  Location     Type
  7345 ;;                  1    wreg      void 
  7346 ;; Registers used:
  7347 ;;		wreg, status,2, status,0, pclath, cstack
  7348 ;; Tracked objects:
  7349 ;;		On entry : 0/0
  7350 ;;		On exit  : 0/0
  7351 ;;		Unchanged: 0/0
  7352 ;; Data sizes:     COMMON   BANK0   BANK1   BANK3   BANK2
  7353 ;;      Params:         0       0       0       0       0
  7354 ;;      Locals:         1       0       0       0       0
  7355 ;;      Temps:          0       0       0       0       0
  7356 ;;      Totals:         1       0       0       0       0
  7357 ;;Total ram usage:        1 bytes
  7358 ;; Hardware stack levels used: 1
  7359 ;; Hardware stack levels required when called: 2
  7360 ;; This function calls:
  7361 ;;		_read_ds1307
  7362 ;;		_write_ds1307
  7363 ;; This function is called by:
  7364 ;;		_init_config
  7365 ;; This function uses a non-reentrant model
  7366 ;;
  7367                           
  7368     114C                     _init_ds1307:	
  7369                           ;psect for function _init_ds1307
  7370                           
  7371     114C                     l2800:	
  7372                           ;incstack = 0
  7373                           ; Regs used in _init_ds1307: [wreg+status,2+status,0+pclath+cstack]
  7374                           
  7375                           
  7376                           ;ds1307.c: 8:     unsigned char dummy;;ds1307.c: 10:     dummy = read_ds1307(0x00);
  7377     114C  3000               	movlw	0
  7378     114D  160A  118A  22E7  160A  118A  	fcall	_read_ds1307
  7379     1152  00FA               	movwf	init_ds1307@dummy
  7380     1153                     l2802:
  7381                           
  7382                           ;ds1307.c: 11:     dummy = dummy & 0x7F;
  7383     1153  307F               	movlw	127
  7384     1154  05FA               	andwf	init_ds1307@dummy,f
  7385     1155                     l2804:
  7386                           
  7387                           ;ds1307.c: 12:     write_ds1307(0x00, dummy);
  7388     1155  087A               	movf	init_ds1307@dummy,w
  7389     1156  00F8               	movwf	write_ds1307@data
  7390     1157  3000               	movlw	0
  7391     1158  160A  118A  21A9  160A  118A  	fcall	_write_ds1307
  7392     115D                     l140:
  7393     115D  0008               	return
  7394     115E                     __end_of_init_ds1307:
  7395                           
  7396                           	psect	text23
  7397     11A9                     __ptext23:	
  7398 ;; *************** function _write_ds1307 *****************
  7399 ;; Defined at:
  7400 ;;		line 30 in file "ds1307.c"
  7401 ;; Parameters:    Size  Location     Type
  7402 ;;  addr            1    wreg     unsigned char 
  7403 ;;  data            1    8[COMMON] unsigned char 
  7404 ;; Auto vars:     Size  Location     Type
  7405 ;;  addr            1    9[COMMON] unsigned char 
  7406 ;; Return value:  Size  Location     Type
  7407 ;;                  1    wreg      void 
  7408 ;; Registers used:
  7409 ;;		wreg, status,2, status,0, pclath, cstack
  7410 ;; Tracked objects:
  7411 ;;		On entry : 0/0
  7412 ;;		On exit  : 0/0
  7413 ;;		Unchanged: 0/0
  7414 ;; Data sizes:     COMMON   BANK0   BANK1   BANK3   BANK2
  7415 ;;      Params:         1       0       0       0       0
  7416 ;;      Locals:         1       0       0       0       0
  7417 ;;      Temps:          0       0       0       0       0
  7418 ;;      Totals:         2       0       0       0       0
  7419 ;;Total ram usage:        2 bytes
  7420 ;; Hardware stack levels used: 1
  7421 ;; This function calls:
  7422 ;;		_i2c_start
  7423 ;;		_i2c_stop
  7424 ;;		_i2c_write
  7425 ;; This function is called by:
  7426 ;;		_init_ds1307
  7427 ;;		_set_time
  7428 ;; This function uses a non-reentrant model
  7429 ;;
  7430                           
  7431     11A9                     _write_ds1307:	
  7432                           ;psect for function _write_ds1307
  7433                           
  7434                           
  7435                           ;incstack = 0
  7436                           ; Regs used in _write_ds1307: [wreg+status,2+status,0+pclath+cstack]
  7437                           ;write_ds1307@addr stored from wreg
  7438     11A9  00F9               	movwf	write_ds1307@addr
  7439     11AA                     l2626:
  7440                           
  7441                           ;ds1307.c: 30: void write_ds1307(unsigned char addr, unsigned char data);ds1307.c: 31: {
      +                          ;ds1307.c: 32:     i2c_start();
  7442     11AA  160A  118A  20F4  160A  118A  	fcall	_i2c_start
  7443                           
  7444                           ;ds1307.c: 33:     i2c_write(0b11010000);
  7445     11AF  30D0               	movlw	208
  7446     11B0  160A  118A  2125  160A  118A  	fcall	_i2c_write
  7447                           
  7448                           ;ds1307.c: 34:     i2c_write(addr);
  7449     11B5  0879               	movf	write_ds1307@addr,w
  7450     11B6  160A  118A  2125  160A  118A  	fcall	_i2c_write
  7451                           
  7452                           ;ds1307.c: 35:     i2c_write(data);
  7453     11BB  0878               	movf	write_ds1307@data,w
  7454     11BC  160A  118A  2125  160A  118A  	fcall	_i2c_write
  7455                           
  7456                           ;ds1307.c: 36:     i2c_stop();
  7457     11C1  160A  118A  20FD  160A  118A  	fcall	_i2c_stop
  7458     11C6                     l146:
  7459     11C6  0008               	return
  7460     11C7                     __end_of_write_ds1307:
  7461                           
  7462                           	psect	text24
  7463     10E6                     __ptext24:	
  7464 ;; *************** function _init_digital_keypad *****************
  7465 ;; Defined at:
  7466 ;;		line 4 in file "digital_keypad.c"
  7467 ;; Parameters:    Size  Location     Type
  7468 ;;		None
  7469 ;; Auto vars:     Size  Location     Type
  7470 ;;		None
  7471 ;; Return value:  Size  Location     Type
  7472 ;;                  1    wreg      void 
  7473 ;; Registers used:
  7474 ;;		wreg, status,2
  7475 ;; Tracked objects:
  7476 ;;		On entry : 0/0
  7477 ;;		On exit  : 0/0
  7478 ;;		Unchanged: 0/0
  7479 ;; Data sizes:     COMMON   BANK0   BANK1   BANK3   BANK2
  7480 ;;      Params:         0       0       0       0       0
  7481 ;;      Locals:         0       0       0       0       0
  7482 ;;      Temps:          0       0       0       0       0
  7483 ;;      Totals:         0       0       0       0       0
  7484 ;;Total ram usage:        0 bytes
  7485 ;; Hardware stack levels used: 1
  7486 ;; This function calls:
  7487 ;;		Nothing
  7488 ;; This function is called by:
  7489 ;;		_init_config
  7490 ;; This function uses a non-reentrant model
  7491 ;;
  7492                           
  7493     10E6                     _init_digital_keypad:	
  7494                           ;psect for function _init_digital_keypad
  7495                           
  7496     10E6                     l2792:	
  7497                           ;incstack = 0
  7498                           ; Regs used in _init_digital_keypad: [wreg+status,2]
  7499                           
  7500                           
  7501                           ;digital_keypad.c: 7:     TRISB = TRISB | 0x3F;
  7502     10E6  1683               	bsf	3,5	;RP0=1, select bank1
  7503     10E7  1303               	bcf	3,6	;RP1=0, select bank1
  7504     10E8  0806               	movf	6,w	;volatile
  7505     10E9  383F               	iorlw	63
  7506     10EA  0086               	movwf	6	;volatile
  7507     10EB                     l159:
  7508     10EB  0008               	return
  7509     10EC                     __end_of_init_digital_keypad:
  7510                           
  7511                           	psect	text25
  7512     1130                     __ptext25:	
  7513 ;; *************** function _init_clcd *****************
  7514 ;; Defined at:
  7515 ;;		line 44 in file "clcd.c"
  7516 ;; Parameters:    Size  Location     Type
  7517 ;;		None
  7518 ;; Auto vars:     Size  Location     Type
  7519 ;;		None
  7520 ;; Return value:  Size  Location     Type
  7521 ;;                  1    wreg      void 
  7522 ;; Registers used:
  7523 ;;		wreg, status,2, status,0, pclath, cstack
  7524 ;; Tracked objects:
  7525 ;;		On entry : 0/0
  7526 ;;		On exit  : 0/0
  7527 ;;		Unchanged: 0/0
  7528 ;; Data sizes:     COMMON   BANK0   BANK1   BANK3   BANK2
  7529 ;;      Params:         0       0       0       0       0
  7530 ;;      Locals:         0       0       0       0       0
  7531 ;;      Temps:          0       0       0       0       0
  7532 ;;      Totals:         0       0       0       0       0
  7533 ;;Total ram usage:        0 bytes
  7534 ;; Hardware stack levels used: 1
  7535 ;; Hardware stack levels required when called: 2
  7536 ;; This function calls:
  7537 ;;		_init_display_controller
  7538 ;; This function is called by:
  7539 ;;		_init_config
  7540 ;; This function uses a non-reentrant model
  7541 ;;
  7542                           
  7543     1130                     _init_clcd:	
  7544                           ;psect for function _init_clcd
  7545                           
  7546     1130                     l2784:	
  7547                           ;incstack = 0
  7548                           ; Regs used in _init_clcd: [wreg+status,2+status,0+pclath+cstack]
  7549                           
  7550                           
  7551                           ;clcd.c: 47:     TRISD = 0x00;
  7552     1130  1683               	bsf	3,5	;RP0=1, select bank1
  7553     1131  1303               	bcf	3,6	;RP1=0, select bank1
  7554     1132  0188               	clrf	8	;volatile
  7555     1133                     l2786:
  7556                           
  7557                           ;clcd.c: 50:     TRISE2 = 0;
  7558     1133  1109               	bcf	9,2	;volatile
  7559     1134                     l2788:
  7560                           
  7561                           ;clcd.c: 51:     TRISE1 = 0;
  7562     1134  1089               	bcf	9,1	;volatile
  7563     1135                     l2790:
  7564                           
  7565                           ;clcd.c: 53:     init_display_controller();
  7566     1135  160A  118A  2545  160A  118A  	fcall	_init_display_controller
  7567     113A                     l91:
  7568     113A  0008               	return
  7569     113B                     __end_of_init_clcd:
  7570                           
  7571                           	psect	text26
  7572     1545                     __ptext26:	
  7573 ;; *************** function _init_display_controller *****************
  7574 ;; Defined at:
  7575 ;;		line 21 in file "clcd.c"
  7576 ;; Parameters:    Size  Location     Type
  7577 ;;		None
  7578 ;; Auto vars:     Size  Location     Type
  7579 ;;		None
  7580 ;; Return value:  Size  Location     Type
  7581 ;;                  1    wreg      void 
  7582 ;; Registers used:
  7583 ;;		wreg, status,2, status,0, pclath, cstack
  7584 ;; Tracked objects:
  7585 ;;		On entry : 0/0
  7586 ;;		On exit  : 0/0
  7587 ;;		Unchanged: 0/0
  7588 ;; Data sizes:     COMMON   BANK0   BANK1   BANK3   BANK2
  7589 ;;      Params:         0       0       0       0       0
  7590 ;;      Locals:         0       0       0       0       0
  7591 ;;      Temps:          2       0       0       0       0
  7592 ;;      Totals:         2       0       0       0       0
  7593 ;;Total ram usage:        2 bytes
  7594 ;; Hardware stack levels used: 1
  7595 ;; Hardware stack levels required when called: 1
  7596 ;; This function calls:
  7597 ;;		_clcd_write
  7598 ;; This function is called by:
  7599 ;;		_init_clcd
  7600 ;; This function uses a non-reentrant model
  7601 ;;
  7602                           
  7603     1545                     _init_display_controller:	
  7604                           ;psect for function _init_display_controller
  7605                           
  7606     1545                     l2588:	
  7607                           ;incstack = 0
  7608                           ; Regs used in _init_display_controller: [wreg+status,2+status,0+pclath+cstack]
  7609                           
  7610                           
  7611                           ;clcd.c: 24:     _delay((unsigned long)((30)*(20000000/4000.0)));
  7612     1545  30C3               	movlw	195
  7613     1546  00F5               	movwf	??_init_display_controller+1
  7614     1547  30CD               	movlw	205
  7615     1548  00F4               	movwf	??_init_display_controller
  7616     1549                     u4337:
  7617     1549  0BF4               	decfsz	??_init_display_controller,f
  7618     154A  2D49               	goto	u4337
  7619     154B  0BF5               	decfsz	??_init_display_controller+1,f
  7620     154C  2D49               	goto	u4337
  7621     154D                     l2590:
  7622                           
  7623                           ;clcd.c: 27:     clcd_write(0x33, 0);
  7624     154D  01F0               	clrf	clcd_write@mode
  7625     154E  3033               	movlw	51
  7626     154F  160A  118A  23CE  160A  118A  	fcall	_clcd_write
  7627     1554                     l2592:
  7628                           
  7629                           ;clcd.c: 28:     _delay((unsigned long)((4100)*(20000000/4000000.0)));
  7630     1554  301B               	movlw	27
  7631     1555  00F5               	movwf	??_init_display_controller+1
  7632     1556  309E               	movlw	158
  7633     1557  00F4               	movwf	??_init_display_controller
  7634     1558                     u4347:
  7635     1558  0BF4               	decfsz	??_init_display_controller,f
  7636     1559  2D58               	goto	u4347
  7637     155A  0BF5               	decfsz	??_init_display_controller+1,f
  7638     155B  2D58               	goto	u4347
  7639     155C  0000               	nop
  7640                           
  7641                           ;clcd.c: 29:     clcd_write(0x33, 0);
  7642     155D  01F0               	clrf	clcd_write@mode
  7643     155E  3033               	movlw	51
  7644     155F  160A  118A  23CE  160A  118A  	fcall	_clcd_write
  7645     1564                     l2594:
  7646                           
  7647                           ;clcd.c: 30:     _delay((unsigned long)((100)*(20000000/4000000.0)));
  7648     1564  30A6               	movlw	166
  7649     1565  00F4               	movwf	??_init_display_controller
  7650     1566                     u4357:
  7651     1566  0BF4               	decfsz	??_init_display_controller,f
  7652     1567  2D66               	goto	u4357
  7653     1568  0000               	nop
  7654     1569                     l2596:
  7655                           
  7656                           ;clcd.c: 31:     clcd_write(0x33, 0);
  7657     1569  01F0               	clrf	clcd_write@mode
  7658     156A  3033               	movlw	51
  7659     156B  160A  118A  23CE  160A  118A  	fcall	_clcd_write
  7660     1570                     l2598:
  7661                           
  7662                           ;clcd.c: 32:     _delay((unsigned long)((1)*(20000000/4000000.0)));
  7663     1570  2D71               	nop2	;2 cycle nop
  7664     1571  2D72               	nop2	;2 cycle nop
  7665     1572  0000               	nop
  7666     1573                     l2600:
  7667                           
  7668                           ;clcd.c: 34:     clcd_write(0x02, 0);
  7669     1573  01F0               	clrf	clcd_write@mode
  7670     1574  3002               	movlw	2
  7671     1575  160A  118A  23CE  160A  118A  	fcall	_clcd_write
  7672     157A                     l2602:
  7673                           
  7674                           ;clcd.c: 35:     _delay((unsigned long)((100)*(20000000/4000000.0)));
  7675     157A  30A6               	movlw	166
  7676     157B  00F4               	movwf	??_init_display_controller
  7677     157C                     u4367:
  7678     157C  0BF4               	decfsz	??_init_display_controller,f
  7679     157D  2D7C               	goto	u4367
  7680     157E  0000               	nop
  7681                           
  7682                           ;clcd.c: 36:     clcd_write(0x28, 0);
  7683     157F  01F0               	clrf	clcd_write@mode
  7684     1580  3028               	movlw	40
  7685     1581  160A  118A  23CE  160A  118A  	fcall	_clcd_write
  7686     1586                     l2604:
  7687                           
  7688                           ;clcd.c: 37:     _delay((unsigned long)((100)*(20000000/4000000.0)));
  7689     1586  30A6               	movlw	166
  7690     1587  00F4               	movwf	??_init_display_controller
  7691     1588                     u4377:
  7692     1588  0BF4               	decfsz	??_init_display_controller,f
  7693     1589  2D88               	goto	u4377
  7694     158A  0000               	nop
  7695     158B                     l2606:
  7696                           
  7697                           ;clcd.c: 38:     clcd_write(0x01, 0);
  7698     158B  01F0               	clrf	clcd_write@mode
  7699     158C  3001               	movlw	1
  7700     158D  160A  118A  23CE  160A  118A  	fcall	_clcd_write
  7701                           
  7702                           ;clcd.c: 39:     _delay((unsigned long)((500)*(20000000/4000000.0)));
  7703     1592  3004               	movlw	4
  7704     1593  00F5               	movwf	??_init_display_controller+1
  7705     1594  303D               	movlw	61
  7706     1595  00F4               	movwf	??_init_display_controller
  7707     1596                     u4387:
  7708     1596  0BF4               	decfsz	??_init_display_controller,f
  7709     1597  2D96               	goto	u4387
  7710     1598  0BF5               	decfsz	??_init_display_controller+1,f
  7711     1599  2D96               	goto	u4387
  7712     159A  2D9B               	nop2
  7713     159B                     l2608:
  7714                           
  7715                           ;clcd.c: 40:     clcd_write(0x0C, 0);
  7716     159B  01F0               	clrf	clcd_write@mode
  7717     159C  300C               	movlw	12
  7718     159D  160A  118A  23CE  160A  118A  	fcall	_clcd_write
  7719     15A2                     l2610:
  7720                           
  7721                           ;clcd.c: 41:     _delay((unsigned long)((100)*(20000000/4000000.0)));
  7722     15A2  30A6               	movlw	166
  7723     15A3  00F4               	movwf	??_init_display_controller
  7724     15A4                     u4397:
  7725     15A4  0BF4               	decfsz	??_init_display_controller,f
  7726     15A5  2DA4               	goto	u4397
  7727     15A6  0000               	nop
  7728     15A7                     l88:
  7729     15A7  0008               	return
  7730     15A8                     __end_of_init_display_controller:
  7731                           
  7732                           	psect	text27
  7733     0A03                     __ptext27:	
  7734 ;; *************** function _init_adc *****************
  7735 ;; Defined at:
  7736 ;;		line 4 in file "adc.c"
  7737 ;; Parameters:    Size  Location     Type
  7738 ;;		None
  7739 ;; Auto vars:     Size  Location     Type
  7740 ;;		None
  7741 ;; Return value:  Size  Location     Type
  7742 ;;                  1    wreg      void 
  7743 ;; Registers used:
  7744 ;;		None
  7745 ;; Tracked objects:
  7746 ;;		On entry : 0/0
  7747 ;;		On exit  : 0/0
  7748 ;;		Unchanged: 0/0
  7749 ;; Data sizes:     COMMON   BANK0   BANK1   BANK3   BANK2
  7750 ;;      Params:         0       0       0       0       0
  7751 ;;      Locals:         0       0       0       0       0
  7752 ;;      Temps:          0       0       0       0       0
  7753 ;;      Totals:         0       0       0       0       0
  7754 ;;Total ram usage:        0 bytes
  7755 ;; Hardware stack levels used: 1
  7756 ;; This function calls:
  7757 ;;		Nothing
  7758 ;; This function is called by:
  7759 ;;		_init_config
  7760 ;; This function uses a non-reentrant model
  7761 ;;
  7762                           
  7763     0A03                     _init_adc:	
  7764                           ;psect for function _init_adc
  7765                           
  7766     0A03                     l2774:	
  7767                           ;incstack = 0
  7768                           ; Regs used in _init_adc: []
  7769                           
  7770                           
  7771                           ;adc.c: 7:     ADFM = 1;
  7772     0A03  1683               	bsf	3,5	;RP0=1, select bank1
  7773     0A04  1303               	bcf	3,6	;RP1=0, select bank1
  7774     0A05  179F               	bsf	31,7	;volatile
  7775                           
  7776                           ;adc.c: 10:     ADON = 1;
  7777     0A06  1283               	bcf	3,5	;RP0=0, select bank0
  7778     0A07  1303               	bcf	3,6	;RP1=0, select bank0
  7779     0A08  141F               	bsf	31,0	;volatile
  7780     0A09                     l17:
  7781     0A09  0008               	return
  7782     0A0A                     __end_of_init_adc:
  7783                           
  7784                           	psect	text28
  7785     0BF4                     __ptext28:	
  7786 ;; *************** function _dashboard *****************
  7787 ;; Defined at:
  7788 ;;		line 19 in file "dashboard.c"
  7789 ;; Parameters:    Size  Location     Type
  7790 ;;  key             1    wreg     unsigned char 
  7791 ;; Auto vars:     Size  Location     Type
  7792 ;;  key             1   46[BANK0 ] unsigned char 
  7793 ;; Return value:  Size  Location     Type
  7794 ;;                  1    wreg      void 
  7795 ;; Registers used:
  7796 ;;		wreg, fsr0l, fsr0h, status,2, status,0, pclath, btemp1, cstack
  7797 ;; Tracked objects:
  7798 ;;		On entry : 0/0
  7799 ;;		On exit  : 0/0
  7800 ;;		Unchanged: 0/0
  7801 ;; Data sizes:     COMMON   BANK0   BANK1   BANK3   BANK2
  7802 ;;      Params:         0       0       0       0       0
  7803 ;;      Locals:         0       1       0       0       0
  7804 ;;      Temps:          0       4       0       0       0
  7805 ;;      Totals:         0       5       0       0       0
  7806 ;;Total ram usage:        5 bytes
  7807 ;; Hardware stack levels used: 1
  7808 ;; Hardware stack levels required when called: 5
  7809 ;; This function calls:
  7810 ;;		___fldiv
  7811 ;;		___fltol
  7812 ;;		___lwdiv
  7813 ;;		___lwmod
  7814 ;;		___xxtofl
  7815 ;;		_clcd_print
  7816 ;;		_display_time
  7817 ;;		_get_time
  7818 ;;		_read_adc
  7819 ;;		_store_event
  7820 ;; This function is called by:
  7821 ;;		_main
  7822 ;; This function uses a non-reentrant model
  7823 ;;
  7824                           
  7825     0BF4                     _dashboard:	
  7826                           ;psect for function _dashboard
  7827                           
  7828                           
  7829                           ;incstack = 0
  7830                           ; Regs used in _dashboard: [wreg-fsr0h+status,2+status,0+pclath+btemp1+cstack]
  7831                           ;dashboard@key stored from wreg
  7832     0BF4  1283               	bcf	3,5	;RP0=0, select bank0
  7833     0BF5  1303               	bcf	3,6	;RP1=0, select bank0
  7834     0BF6  00CE               	movwf	dashboard@key
  7835     0BF7                     l3586:
  7836                           
  7837                           ;dashboard.c: 21:     clcd_print(" TIME     EV  SP", (0x80 + 0));
  7838     0BF7  305A               	movlw	low (STR_11| (0+32768))
  7839     0BF8  00F4               	movwf	clcd_print@str
  7840     0BF9  3088               	movlw	high (STR_11| (0+32768))
  7841     0BFA  00F5               	movwf	clcd_print@str+1
  7842     0BFB  3080               	movlw	128
  7843     0BFC  00F6               	movwf	clcd_print@addr
  7844     0BFD  160A  118A  233D  120A  158A  	fcall	_clcd_print
  7845     0C02                     l3588:
  7846                           
  7847                           ;dashboard.c: 24:     get_time(clock_reg);
  7848     0C02  30C7               	movlw	(low (_clock_reg| 0))& (0+255)
  7849     0C03  00F4               	movwf	get_time@clock_reg
  7850     0C04  160A  118A  2205  120A  158A  	fcall	_get_time
  7851     0C09                     l3590:
  7852                           
  7853                           ;dashboard.c: 25:     display_time(clock_reg);
  7854     0C09  30C7               	movlw	(low (_clock_reg| 0))& (0+255)
  7855     0C0A  00F7               	movwf	display_time@clock_reg
  7856     0C0B  160A  118A  2499  120A  158A  	fcall	_display_time
  7857     0C10                     l3592:
  7858                           
  7859                           ;dashboard.c: 26:     clcd_print(" TIME     EV  SP", (0x80 + 0));
  7860     0C10  305A               	movlw	low (STR_11| (0+32768))
  7861     0C11  00F4               	movwf	clcd_print@str
  7862     0C12  3088               	movlw	high (STR_11| (0+32768))
  7863     0C13  00F5               	movwf	clcd_print@str+1
  7864     0C14  3080               	movlw	128
  7865     0C15  00F6               	movwf	clcd_print@addr
  7866     0C16  160A  118A  233D  120A  158A  	fcall	_clcd_print
  7867     0C1B                     l3594:
  7868                           
  7869                           ;dashboard.c: 35:     if(key == 0x3E)
  7870     0C1B  303E               	movlw	62
  7871     0C1C  1283               	bcf	3,5	;RP0=0, select bank0
  7872     0C1D  1303               	bcf	3,6	;RP1=0, select bank0
  7873     0C1E  064E               	xorwf	dashboard@key,w
  7874     0C1F  1D03               	btfss	3,2
  7875     0C20  2C22               	goto	u3851
  7876     0C21  2C23               	goto	u3850
  7877     0C22                     u3851:
  7878     0C22  2C4A               	goto	l3606
  7879     0C23                     u3850:
  7880     0C23                     l3596:
  7881                           
  7882                           ;dashboard.c: 36:     {;dashboard.c: 38:         if(pos == 7)
  7883     0C23  3007               	movlw	7
  7884     0C24  0655               	xorwf	_pos,w
  7885     0C25  0456               	iorwf	_pos+1,w
  7886     0C26  1D03               	btfss	3,2
  7887     0C27  2C29               	goto	u3861
  7888     0C28  2C2A               	goto	u3860
  7889     0C29                     u3861:
  7890     0C29  2C2F               	goto	l3600
  7891     0C2A                     u3860:
  7892     0C2A                     l3598:
  7893                           
  7894                           ;dashboard.c: 39:         {;dashboard.c: 40:             pos = 1;
  7895     0C2A  3001               	movlw	1
  7896     0C2B  00D5               	movwf	_pos
  7897     0C2C  3000               	movlw	0
  7898     0C2D  00D6               	movwf	_pos+1
  7899                           
  7900                           ;dashboard.c: 41:         }
  7901     0C2E  2C44               	goto	l3604
  7902     0C2F                     l3600:
  7903     0C2F  0856               	movf	_pos+1,w
  7904     0C30  3A80               	xorlw	128
  7905     0C31  00FF               	movwf	btemp1
  7906     0C32  3080               	movlw	128
  7907     0C33  027F               	subwf	btemp1,w
  7908     0C34  1D03               	skipz
  7909     0C35  2C38               	goto	u3875
  7910     0C36  3006               	movlw	6
  7911     0C37  0255               	subwf	_pos,w
  7912     0C38                     u3875:
  7913     0C38  1803               	skipnc
  7914     0C39  2C3B               	goto	u3871
  7915     0C3A  2C3C               	goto	u3870
  7916     0C3B                     u3871:
  7917     0C3B  2C44               	goto	l3604
  7918     0C3C                     u3870:
  7919     0C3C                     l3602:
  7920                           
  7921                           ;dashboard.c: 44:         {;dashboard.c: 45:             pos++;
  7922     0C3C  3001               	movlw	1
  7923     0C3D  1283               	bcf	3,5	;RP0=0, select bank0
  7924     0C3E  1303               	bcf	3,6	;RP1=0, select bank0
  7925     0C3F  07D5               	addwf	_pos,f
  7926     0C40  1803               	skipnc
  7927     0C41  0AD6               	incf	_pos+1,f
  7928     0C42  3000               	movlw	0
  7929     0C43  07D6               	addwf	_pos+1,f
  7930     0C44                     l3604:
  7931                           
  7932                           ;dashboard.c: 48:         store_event();
  7933     0C44  160A  118A  274D  120A  158A  	fcall	_store_event
  7934                           
  7935                           ;dashboard.c: 49:     }
  7936     0C49  2C79               	goto	l3624
  7937     0C4A                     l3606:
  7938     0C4A  303D               	movlw	61
  7939     0C4B  064E               	xorwf	dashboard@key,w
  7940     0C4C  1D03               	btfss	3,2
  7941     0C4D  2C4F               	goto	u3881
  7942     0C4E  2C50               	goto	u3880
  7943     0C4F                     u3881:
  7944     0C4F  2C6E               	goto	l3618
  7945     0C50                     u3880:
  7946     0C50                     l3608:
  7947                           
  7948                           ;dashboard.c: 51:     {;dashboard.c: 53:         if(pos == 7)
  7949     0C50  3007               	movlw	7
  7950     0C51  0655               	xorwf	_pos,w
  7951     0C52  0456               	iorwf	_pos+1,w
  7952     0C53  1D03               	btfss	3,2
  7953     0C54  2C56               	goto	u3891
  7954     0C55  2C57               	goto	u3890
  7955     0C56                     u3891:
  7956     0C56  2C58               	goto	l3612
  7957     0C57                     u3890:
  7958     0C57  2C2A               	goto	l3598
  7959     0C58                     l3612:
  7960     0C58  0856               	movf	_pos+1,w
  7961     0C59  3A80               	xorlw	128
  7962     0C5A  00FF               	movwf	btemp1
  7963     0C5B  3080               	movlw	128
  7964     0C5C  027F               	subwf	btemp1,w
  7965     0C5D  1D03               	skipz
  7966     0C5E  2C61               	goto	u3905
  7967     0C5F  3001               	movlw	1
  7968     0C60  0255               	subwf	_pos,w
  7969     0C61                     u3905:
  7970     0C61  1C03               	skipc
  7971     0C62  2C64               	goto	u3901
  7972     0C63  2C65               	goto	u3900
  7973     0C64                     u3901:
  7974     0C64  2C44               	goto	l3604
  7975     0C65                     u3900:
  7976     0C65                     l3614:
  7977                           
  7978                           ;dashboard.c: 59:         {;dashboard.c: 60:             pos--;
  7979     0C65  30FF               	movlw	255
  7980     0C66  1283               	bcf	3,5	;RP0=0, select bank0
  7981     0C67  1303               	bcf	3,6	;RP1=0, select bank0
  7982     0C68  07D5               	addwf	_pos,f
  7983     0C69  1803               	skipnc
  7984     0C6A  0AD6               	incf	_pos+1,f
  7985     0C6B  30FF               	movlw	255
  7986     0C6C  07D6               	addwf	_pos+1,f
  7987     0C6D  2C44               	goto	l3604
  7988     0C6E                     l3618:
  7989     0C6E  303B               	movlw	59
  7990     0C6F  064E               	xorwf	dashboard@key,w
  7991     0C70  1D03               	btfss	3,2
  7992     0C71  2C73               	goto	u3911
  7993     0C72  2C74               	goto	u3910
  7994     0C73                     u3911:
  7995     0C73  2C79               	goto	l3624
  7996     0C74                     u3910:
  7997     0C74                     l3620:
  7998                           
  7999                           ;dashboard.c: 66:     {;dashboard.c: 67:         pos = 7;
  8000     0C74  3007               	movlw	7
  8001     0C75  00D5               	movwf	_pos
  8002     0C76  3000               	movlw	0
  8003     0C77  00D6               	movwf	_pos+1
  8004     0C78  2C44               	goto	l3604
  8005     0C79                     l3624:
  8006                           
  8007                           ;dashboard.c: 71:     clcd_print(event[pos], (0xC0 + 10));
  8008     0C79  1283               	bcf	3,5	;RP0=0, select bank0
  8009     0C7A  1303               	bcf	3,6	;RP1=0, select bank0
  8010     0C7B  0855               	movf	_pos,w
  8011     0C7C  00CA               	movwf	??_dashboard
  8012     0C7D  074A               	addwf	??_dashboard,w
  8013     0C7E  3ECA               	addlw	(low (_event| 0))& (0+255)
  8014     0C7F  0084               	movwf	4
  8015     0C80  1383               	bcf	3,7	;select IRP bank1
  8016     0C81  0800               	movf	0,w
  8017     0C82  00F4               	movwf	clcd_print@str
  8018     0C83  0A84               	incf	4,f
  8019     0C84  0800               	movf	0,w
  8020     0C85  0384               	decf	4,f
  8021     0C86  00F5               	movwf	clcd_print@str+1
  8022     0C87  30CA               	movlw	202
  8023     0C88  00F6               	movwf	clcd_print@addr
  8024     0C89  160A  118A  233D  120A  158A  	fcall	_clcd_print
  8025     0C8E                     l3626:
  8026                           
  8027                           ;dashboard.c: 74:     adc_val = read_adc(0x00) / 10.23;
  8028     0C8E  3000               	movlw	0
  8029     0C8F  160A  118A  21C7  120A  158A  	fcall	_read_adc
  8030     0C94  0870               	movf	?_read_adc,w
  8031     0C95  1283               	bcf	3,5	;RP0=0, select bank0
  8032     0C96  1303               	bcf	3,6	;RP1=0, select bank0
  8033     0C97  00CA               	movwf	??_dashboard
  8034     0C98  0871               	movf	?_read_adc+1,w
  8035     0C99  00CB               	movwf	??_dashboard+1
  8036     0C9A  01CC               	clrf	??_dashboard+2
  8037     0C9B  01CD               	clrf	??_dashboard+3
  8038     0C9C  084D               	movf	??_dashboard+3,w
  8039     0C9D  00F9               	movwf	___xxtofl@val+3
  8040     0C9E  084C               	movf	??_dashboard+2,w
  8041     0C9F  00F8               	movwf	___xxtofl@val+2
  8042     0CA0  084B               	movf	??_dashboard+1,w
  8043     0CA1  00F7               	movwf	___xxtofl@val+1
  8044     0CA2  084A               	movf	??_dashboard,w
  8045     0CA3  00F6               	movwf	___xxtofl@val
  8046     0CA4  3000               	movlw	0
  8047     0CA5  120A  158A  2242  120A  158A  	fcall	___xxtofl
  8048     0CAA  0879               	movf	?___xxtofl+3,w
  8049     0CAB  1283               	bcf	3,5	;RP0=0, select bank0
  8050     0CAC  1303               	bcf	3,6	;RP1=0, select bank0
  8051     0CAD  00AD               	movwf	___fldiv@b+3
  8052     0CAE  0878               	movf	?___xxtofl+2,w
  8053     0CAF  00AC               	movwf	___fldiv@b+2
  8054     0CB0  0877               	movf	?___xxtofl+1,w
  8055     0CB1  00AB               	movwf	___fldiv@b+1
  8056     0CB2  0876               	movf	?___xxtofl,w
  8057     0CB3  00AA               	movwf	___fldiv@b
  8058     0CB4  3041               	movlw	65
  8059     0CB5  00A9               	movwf	___fldiv@a+3
  8060     0CB6  3023               	movlw	35
  8061     0CB7  00A8               	movwf	___fldiv@a+2
  8062     0CB8  30AE               	movlw	174
  8063     0CB9  00A7               	movwf	___fldiv@a+1
  8064     0CBA  3014               	movlw	20
  8065     0CBB  00A6               	movwf	___fldiv@a
  8066     0CBC  120A  158A  2636  120A  158A  	fcall	___fldiv
  8067     0CC1  1283               	bcf	3,5	;RP0=0, select bank0
  8068     0CC2  1303               	bcf	3,6	;RP1=0, select bank0
  8069     0CC3  0829               	movf	?___fldiv+3,w
  8070     0CC4  00C3               	movwf	___fltol@f1+3
  8071     0CC5  0828               	movf	?___fldiv+2,w
  8072     0CC6  00C2               	movwf	___fltol@f1+2
  8073     0CC7  0827               	movf	?___fldiv+1,w
  8074     0CC8  00C1               	movwf	___fltol@f1+1
  8075     0CC9  0826               	movf	?___fldiv,w
  8076     0CCA  00C0               	movwf	___fltol@f1
  8077     0CCB  160A  118A  26D7  120A  158A  	fcall	___fltol
  8078     0CD0  1283               	bcf	3,5	;RP0=0, select bank0
  8079     0CD1  1303               	bcf	3,6	;RP1=0, select bank0
  8080     0CD2  0841               	movf	?___fltol+1,w
  8081     0CD3  00D4               	movwf	_adc_val+1
  8082     0CD4  0840               	movf	?___fltol,w
  8083     0CD5  00D3               	movwf	_adc_val
  8084     0CD6                     l3628:
  8085                           
  8086                           ;dashboard.c: 75:     speed[0] = ( adc_val / 10 ) + '0';
  8087     0CD6  300A               	movlw	10
  8088     0CD7  00F0               	movwf	___lwdiv@divisor
  8089     0CD8  3000               	movlw	0
  8090     0CD9  00F1               	movwf	___lwdiv@divisor+1
  8091     0CDA  0854               	movf	_adc_val+1,w
  8092     0CDB  00F3               	movwf	___lwdiv@dividend+1
  8093     0CDC  0853               	movf	_adc_val,w
  8094     0CDD  00F2               	movwf	___lwdiv@dividend
  8095     0CDE  160A  118A  2404  120A  158A  	fcall	___lwdiv
  8096     0CE3  0870               	movf	?___lwdiv,w
  8097     0CE4  3E30               	addlw	48
  8098     0CE5  1683               	bsf	3,5	;RP0=1, select bank1
  8099     0CE6  1303               	bcf	3,6	;RP1=0, select bank1
  8100     0CE7  00C4               	movwf	_speed^(0+128)
  8101     0CE8                     l3630:
  8102                           
  8103                           ;dashboard.c: 76:     speed[1] = ( adc_val % 10 ) + '0';
  8104     0CE8  300A               	movlw	10
  8105     0CE9  00F0               	movwf	___lwmod@divisor
  8106     0CEA  3000               	movlw	0
  8107     0CEB  00F1               	movwf	___lwmod@divisor+1
  8108     0CEC  1283               	bcf	3,5	;RP0=0, select bank0
  8109     0CED  1303               	bcf	3,6	;RP1=0, select bank0
  8110     0CEE  0854               	movf	_adc_val+1,w
  8111     0CEF  00F3               	movwf	___lwmod@dividend+1
  8112     0CF0  0853               	movf	_adc_val,w
  8113     0CF1  00F2               	movwf	___lwmod@dividend
  8114     0CF2  120A  158A  220A  120A  158A  	fcall	___lwmod
  8115     0CF7  0870               	movf	?___lwmod,w
  8116     0CF8  3E30               	addlw	48
  8117     0CF9  1683               	bsf	3,5	;RP0=1, select bank1
  8118     0CFA  1303               	bcf	3,6	;RP1=0, select bank1
  8119     0CFB  00C5               	movwf	(_speed^(0+128)+1)
  8120     0CFC                     l3632:
  8121                           
  8122                           ;dashboard.c: 77:     speed[2] = '\0';
  8123     0CFC  01C6               	clrf	(_speed^(0+128)+2)
  8124     0CFD                     l3634:
  8125                           
  8126                           ;dashboard.c: 80:     clcd_print(speed, (0xC0 + 14));
  8127     0CFD  30C4               	movlw	(low (_speed| 0))& (0+255)
  8128     0CFE  00F4               	movwf	clcd_print@str
  8129     0CFF  3000               	movlw	0
  8130     0D00  00F5               	movwf	clcd_print@str+1
  8131     0D01  30CE               	movlw	206
  8132     0D02  00F6               	movwf	clcd_print@addr
  8133     0D03  160A  118A  233D  120A  158A  	fcall	_clcd_print
  8134     0D08                     l261:
  8135     0D08  0008               	return
  8136     0D09                     __end_of_dashboard:
  8137                           
  8138                           	psect	text29
  8139     174D                     __ptext29:	
  8140 ;; *************** function _store_event *****************
  8141 ;; Defined at:
  8142 ;;		line 84 in file "dashboard.c"
  8143 ;; Parameters:    Size  Location     Type
  8144 ;;		None
  8145 ;; Auto vars:     Size  Location     Type
  8146 ;;  i               2   12[COMMON] int 
  8147 ;; Return value:  Size  Location     Type
  8148 ;;                  1    wreg      void 
  8149 ;; Registers used:
  8150 ;;		wreg, fsr0l, fsr0h, status,2, status,0, pclath, btemp1, cstack
  8151 ;; Tracked objects:
  8152 ;;		On entry : 0/0
  8153 ;;		On exit  : 0/0
  8154 ;;		Unchanged: 0/0
  8155 ;; Data sizes:     COMMON   BANK0   BANK1   BANK3   BANK2
  8156 ;;      Params:         0       0       0       0       0
  8157 ;;      Locals:         2       0       0       0       0
  8158 ;;      Temps:          7       0       0       0       0
  8159 ;;      Totals:         9       0       0       0       0
  8160 ;;Total ram usage:        9 bytes
  8161 ;; Hardware stack levels used: 1
  8162 ;; Hardware stack levels required when called: 2
  8163 ;; This function calls:
  8164 ;;		_write_external_eeprom
  8165 ;; This function is called by:
  8166 ;;		_dashboard
  8167 ;; This function uses a non-reentrant model
  8168 ;;
  8169                           
  8170     174D                     _store_event:	
  8171                           ;psect for function _store_event
  8172                           
  8173     174D                     l2864:	
  8174                           ;incstack = 0
  8175                           ; Regs used in _store_event: [wreg-fsr0h+status,2+status,0+pclath+btemp1+cstack]
  8176                           
  8177                           
  8178                           ;dashboard.c: 87:     static unsigned char address = 0;;dashboard.c: 88:     for(int i =
      +                           0; i < 8; i++)
  8179     174D  01FC               	clrf	store_event@i
  8180     174E  01FD               	clrf	store_event@i+1
  8181     174F                     l2870:
  8182                           
  8183                           ;dashboard.c: 89:     {;dashboard.c: 90:         if(i==2 || i == 5)
  8184     174F  3002               	movlw	2
  8185     1750  067C               	xorwf	store_event@i,w
  8186     1751  047D               	iorwf	store_event@i+1,w
  8187     1752  1903               	btfsc	3,2
  8188     1753  2F55               	goto	u2651
  8189     1754  2F56               	goto	u2650
  8190     1755                     u2651:
  8191     1755  2F70               	goto	l2878
  8192     1756                     u2650:
  8193     1756                     l2872:
  8194     1756  3005               	movlw	5
  8195     1757  067C               	xorwf	store_event@i,w
  8196     1758  047D               	iorwf	store_event@i+1,w
  8197     1759  1D03               	btfss	3,2
  8198     175A  2F5C               	goto	u2661
  8199     175B  2F5D               	goto	u2660
  8200     175C                     u2661:
  8201     175C  2F5E               	goto	l2874
  8202     175D                     u2660:
  8203     175D  2F70               	goto	l2878
  8204     175E                     l2874:
  8205                           
  8206                           ;dashboard.c: 94:         write_external_eeprom(address++,time[i]);
  8207     175E  087C               	movf	store_event@i,w
  8208     175F  3EAC               	addlw	(low (_time| 0))& (0+255)
  8209     1760  0084               	movwf	4
  8210     1761  1383               	bcf	3,7	;select IRP bank1
  8211     1762  0800               	movf	0,w
  8212     1763  00F1               	movwf	write_external_eeprom@data
  8213     1764  1283               	bcf	3,5	;RP0=0, select bank0
  8214     1765  1303               	bcf	3,6	;RP1=0, select bank0
  8215     1766  0862               	movf	store_event@address,w
  8216     1767  160A  118A  236C  160A  118A  	fcall	_write_external_eeprom
  8217     176C                     l2876:
  8218     176C  3001               	movlw	1
  8219     176D  1283               	bcf	3,5	;RP0=0, select bank0
  8220     176E  1303               	bcf	3,6	;RP1=0, select bank0
  8221     176F  07E2               	addwf	store_event@address,f
  8222     1770                     l2878:
  8223     1770  3001               	movlw	1
  8224     1771  07FC               	addwf	store_event@i,f
  8225     1772  1803               	skipnc
  8226     1773  0AFD               	incf	store_event@i+1,f
  8227     1774  3000               	movlw	0
  8228     1775  07FD               	addwf	store_event@i+1,f
  8229     1776                     l2880:
  8230     1776  087D               	movf	store_event@i+1,w
  8231     1777  3A80               	xorlw	128
  8232     1778  00FF               	movwf	btemp1
  8233     1779  3080               	movlw	128
  8234     177A  027F               	subwf	btemp1,w
  8235     177B  1D03               	skipz
  8236     177C  2F7F               	goto	u2675
  8237     177D  3008               	movlw	8
  8238     177E  027C               	subwf	store_event@i,w
  8239     177F                     u2675:
  8240     177F  1C03               	skipc
  8241     1780  2F82               	goto	u2671
  8242     1781  2F83               	goto	u2670
  8243     1782                     u2671:
  8244     1782  2F4F               	goto	l2870
  8245     1783                     u2670:
  8246     1783                     l2882:
  8247                           
  8248                           ;dashboard.c: 96:     write_external_eeprom(address++, event[pos][0]);
  8249     1783  1283               	bcf	3,5	;RP0=0, select bank0
  8250     1784  1303               	bcf	3,6	;RP1=0, select bank0
  8251     1785  0855               	movf	_pos,w
  8252     1786  00F5               	movwf	??_store_event
  8253     1787  0775               	addwf	??_store_event,w
  8254     1788  3ECA               	addlw	(low (_event| 0))& (0+255)
  8255     1789  0084               	movwf	4
  8256     178A  1383               	bcf	3,7	;select IRP bank1
  8257     178B  0800               	movf	0,w
  8258     178C  00F6               	movwf	??_store_event+1
  8259     178D  0A84               	incf	4,f
  8260     178E  0800               	movf	0,w
  8261     178F  00F7               	movwf	??_store_event+2
  8262     1790  0877               	movf	??_store_event+2,w
  8263     1791  00FF               	movwf	btemp1
  8264     1792  0876               	movf	??_store_event+1,w
  8265     1793  0084               	movwf	4
  8266     1794  160A  118A  2000  160A  118A  	fcall	stringtab
  8267     1799  00F1               	movwf	write_external_eeprom@data
  8268     179A  0862               	movf	store_event@address,w
  8269     179B  160A  118A  236C  160A  118A  	fcall	_write_external_eeprom
  8270     17A0                     l2884:
  8271     17A0  3001               	movlw	1
  8272     17A1  1283               	bcf	3,5	;RP0=0, select bank0
  8273     17A2  1303               	bcf	3,6	;RP1=0, select bank0
  8274     17A3  07E2               	addwf	store_event@address,f
  8275     17A4                     l2886:
  8276                           
  8277                           ;dashboard.c: 97:     write_external_eeprom(address++, event[pos][1]);
  8278     17A4  3001               	movlw	1
  8279     17A5  00F5               	movwf	??_store_event
  8280     17A6  0855               	movf	_pos,w
  8281     17A7  00F6               	movwf	??_store_event+1
  8282     17A8  0776               	addwf	??_store_event+1,w
  8283     17A9  3ECA               	addlw	(low (_event| 0))& (0+255)
  8284     17AA  0084               	movwf	4
  8285     17AB  1383               	bcf	3,7	;select IRP bank1
  8286     17AC  0800               	movf	0,w
  8287     17AD  00F7               	movwf	??_store_event+2
  8288     17AE  0A84               	incf	4,f
  8289     17AF  0800               	movf	0,w
  8290     17B0  00F8               	movwf	??_store_event+3
  8291     17B1  0875               	movf	??_store_event,w
  8292     17B2  0777               	addwf	??_store_event+2,w
  8293     17B3  00FA               	movwf	??_store_event+5
  8294     17B4  0878               	movf	??_store_event+3,w
  8295     17B5  00F9               	movwf	??_store_event+4
  8296     17B6  1803               	skipnc
  8297     17B7  0AF9               	incf	??_store_event+4,f
  8298     17B8  1BF5               	btfsc	??_store_event,7
  8299     17B9  03F9               	decf	??_store_event+4,f
  8300     17BA  0879               	movf	??_store_event+4,w
  8301     17BB  00FB               	movwf	??_store_event+6
  8302     17BC  087B               	movf	??_store_event+6,w
  8303     17BD  00FF               	movwf	btemp1
  8304     17BE  087A               	movf	??_store_event+5,w
  8305     17BF  0084               	movwf	4
  8306     17C0  160A  118A  2000  160A  118A  	fcall	stringtab
  8307     17C5  00F1               	movwf	write_external_eeprom@data
  8308     17C6  0862               	movf	store_event@address,w
  8309     17C7  160A  118A  236C  160A  118A  	fcall	_write_external_eeprom
  8310     17CC  3001               	movlw	1
  8311     17CD  1283               	bcf	3,5	;RP0=0, select bank0
  8312     17CE  1303               	bcf	3,6	;RP1=0, select bank0
  8313     17CF  07E2               	addwf	store_event@address,f
  8314     17D0                     l2888:
  8315                           
  8316                           ;dashboard.c: 99:     write_external_eeprom(address++, speed[0]);
  8317     17D0  1683               	bsf	3,5	;RP0=1, select bank1
  8318     17D1  1303               	bcf	3,6	;RP1=0, select bank1
  8319     17D2  0844               	movf	_speed^(0+128),w
  8320     17D3  00F1               	movwf	write_external_eeprom@data
  8321     17D4  1283               	bcf	3,5	;RP0=0, select bank0
  8322     17D5  1303               	bcf	3,6	;RP1=0, select bank0
  8323     17D6  0862               	movf	store_event@address,w
  8324     17D7  160A  118A  236C  160A  118A  	fcall	_write_external_eeprom
  8325     17DC                     l2890:
  8326     17DC  3001               	movlw	1
  8327     17DD  1283               	bcf	3,5	;RP0=0, select bank0
  8328     17DE  1303               	bcf	3,6	;RP1=0, select bank0
  8329     17DF  07E2               	addwf	store_event@address,f
  8330                           
  8331                           ;dashboard.c: 100:     write_external_eeprom(address++, speed[1]);
  8332     17E0  1683               	bsf	3,5	;RP0=1, select bank1
  8333     17E1  1303               	bcf	3,6	;RP1=0, select bank1
  8334     17E2  0845               	movf	(_speed^(0+128)+1),w
  8335     17E3  00F1               	movwf	write_external_eeprom@data
  8336     17E4  1283               	bcf	3,5	;RP0=0, select bank0
  8337     17E5  1303               	bcf	3,6	;RP1=0, select bank0
  8338     17E6  0862               	movf	store_event@address,w
  8339     17E7  160A  118A  236C  160A  118A  	fcall	_write_external_eeprom
  8340     17EC                     l2892:
  8341     17EC  3001               	movlw	1
  8342     17ED  1283               	bcf	3,5	;RP0=0, select bank0
  8343     17EE  1303               	bcf	3,6	;RP1=0, select bank0
  8344     17EF  07E2               	addwf	store_event@address,f
  8345     17F0                     l2894:
  8346                           
  8347                           ;dashboard.c: 101:     if(address > 99)
  8348     17F0  3064               	movlw	100
  8349     17F1  0262               	subwf	store_event@address,w
  8350     17F2  1C03               	skipc
  8351     17F3  2FF5               	goto	u2681
  8352     17F4  2FF6               	goto	u2680
  8353     17F5                     u2681:
  8354     17F5  2FF7               	goto	l2898
  8355     17F6                     u2680:
  8356     17F6                     l2896:
  8357                           
  8358                           ;dashboard.c: 102:     {;dashboard.c: 103:         address = 0;
  8359     17F6  01E2               	clrf	store_event@address
  8360     17F7                     l2898:
  8361                           
  8362                           ;dashboard.c: 105:     if(event_count < 10)
  8363     17F7  300A               	movlw	10
  8364     17F8  0263               	subwf	_event_count,w
  8365     17F9  1803               	skipnc
  8366     17FA  2FFC               	goto	u2691
  8367     17FB  2FFD               	goto	u2690
  8368     17FC                     u2691:
  8369     17FC  2FFF               	goto	l274
  8370     17FD                     u2690:
  8371     17FD                     l2900:
  8372                           
  8373                           ;dashboard.c: 106:     {;dashboard.c: 107:         event_count++;
  8374     17FD  3001               	movlw	1
  8375     17FE  07E3               	addwf	_event_count,f
  8376     17FF                     l274:
  8377     17FF  0008               	return
  8378     1800                     __end_of_store_event:
  8379                           
  8380                           	psect	text30
  8381     136C                     __ptext30:	
  8382 ;; *************** function _write_external_eeprom *****************
  8383 ;; Defined at:
  8384 ;;		line 5 in file "external_eeprom.c"
  8385 ;; Parameters:    Size  Location     Type
  8386 ;;  address         1    wreg     unsigned char 
  8387 ;;  data            1    1[COMMON] unsigned char 
  8388 ;; Auto vars:     Size  Location     Type
  8389 ;;  address         1    4[COMMON] unsigned char 
  8390 ;;  wait            2    2[COMMON] unsigned int 
  8391 ;; Return value:  Size  Location     Type
  8392 ;;                  1    wreg      void 
  8393 ;; Registers used:
  8394 ;;		wreg, status,2, status,0, pclath, cstack
  8395 ;; Tracked objects:
  8396 ;;		On entry : 0/0
  8397 ;;		On exit  : 0/0
  8398 ;;		Unchanged: 0/0
  8399 ;; Data sizes:     COMMON   BANK0   BANK1   BANK3   BANK2
  8400 ;;      Params:         1       0       0       0       0
  8401 ;;      Locals:         3       0       0       0       0
  8402 ;;      Temps:          0       0       0       0       0
  8403 ;;      Totals:         4       0       0       0       0
  8404 ;;Total ram usage:        4 bytes
  8405 ;; Hardware stack levels used: 1
  8406 ;; Hardware stack levels required when called: 1
  8407 ;; This function calls:
  8408 ;;		_i2c_start
  8409 ;;		_i2c_stop
  8410 ;;		_i2c_write
  8411 ;; This function is called by:
  8412 ;;		_store_event
  8413 ;; This function uses a non-reentrant model
  8414 ;;
  8415                           
  8416     136C                     _write_external_eeprom:	
  8417                           ;psect for function _write_external_eeprom
  8418                           
  8419                           
  8420                           ;incstack = 0
  8421                           ; Regs used in _write_external_eeprom: [wreg+status,2+status,0+pclath+cstack]
  8422                           ;write_external_eeprom@address stored from wreg
  8423     136C  00F4               	movwf	write_external_eeprom@address
  8424     136D                     l2614:
  8425                           
  8426                           ;external_eeprom.c: 5: void write_external_eeprom(unsigned char address, unsigned char d
      +                          ata);external_eeprom.c: 6: {;external_eeprom.c: 7:     i2c_start();
  8427     136D  160A  118A  20F4  160A  118A  	fcall	_i2c_start
  8428                           
  8429                           ;external_eeprom.c: 8:     i2c_write(0xA0);
  8430     1372  30A0               	movlw	160
  8431     1373  160A  118A  2125  160A  118A  	fcall	_i2c_write
  8432                           
  8433                           ;external_eeprom.c: 9:     i2c_write(address);
  8434     1378  0874               	movf	write_external_eeprom@address,w
  8435     1379  160A  118A  2125  160A  118A  	fcall	_i2c_write
  8436                           
  8437                           ;external_eeprom.c: 10:     i2c_write(data);
  8438     137E  0871               	movf	write_external_eeprom@data,w
  8439     137F  160A  118A  2125  160A  118A  	fcall	_i2c_write
  8440                           
  8441                           ;external_eeprom.c: 11:     i2c_stop();
  8442     1384  160A  118A  20FD  160A  118A  	fcall	_i2c_stop
  8443     1389                     l2616:
  8444                           
  8445                           ;external_eeprom.c: 12:     for (unsigned int wait = 3000;wait--;);
  8446     1389  30B8               	movlw	184
  8447     138A  00F2               	movwf	write_external_eeprom@wait
  8448     138B  300B               	movlw	11
  8449     138C  00F3               	movwf	write_external_eeprom@wait+1
  8450     138D                     l2618:
  8451     138D  3001               	movlw	1
  8452     138E  02F2               	subwf	write_external_eeprom@wait,f
  8453     138F  3000               	movlw	0
  8454     1390  1C03               	skipc
  8455     1391  03F3               	decf	write_external_eeprom@wait+1,f
  8456     1392  02F3               	subwf	write_external_eeprom@wait+1,f
  8457     1393  0A72               	incf	write_external_eeprom@wait,w
  8458     1394  1D03               	skipz
  8459     1395  2B9A               	goto	u2221
  8460     1396  0A73               	incf	write_external_eeprom@wait+1,w
  8461     1397  1D03               	btfss	3,2
  8462     1398  2B9A               	goto	u2221
  8463     1399  2B9B               	goto	u2220
  8464     139A                     u2221:
  8465     139A  2B8D               	goto	l2618
  8466     139B                     u2220:
  8467     139B                     l116:
  8468     139B  0008               	return
  8469     139C                     __end_of_write_external_eeprom:
  8470                           
  8471                           	psect	text31
  8472     11C7                     __ptext31:	
  8473 ;; *************** function _read_adc *****************
  8474 ;; Defined at:
  8475 ;;		line 13 in file "adc.c"
  8476 ;; Parameters:    Size  Location     Type
  8477 ;;  channel         1    wreg     unsigned char 
  8478 ;; Auto vars:     Size  Location     Type
  8479 ;;  channel         1    5[COMMON] unsigned char 
  8480 ;;  adc_reg_val     2    3[COMMON] unsigned short 
  8481 ;; Return value:  Size  Location     Type
  8482 ;;                  2    0[COMMON] unsigned short 
  8483 ;; Registers used:
  8484 ;;		wreg, status,2, status,0
  8485 ;; Tracked objects:
  8486 ;;		On entry : 0/0
  8487 ;;		On exit  : 0/0
  8488 ;;		Unchanged: 0/0
  8489 ;; Data sizes:     COMMON   BANK0   BANK1   BANK3   BANK2
  8490 ;;      Params:         2       0       0       0       0
  8491 ;;      Locals:         3       0       0       0       0
  8492 ;;      Temps:          1       0       0       0       0
  8493 ;;      Totals:         6       0       0       0       0
  8494 ;;Total ram usage:        6 bytes
  8495 ;; Hardware stack levels used: 1
  8496 ;; This function calls:
  8497 ;;		Nothing
  8498 ;; This function is called by:
  8499 ;;		_dashboard
  8500 ;; This function uses a non-reentrant model
  8501 ;;
  8502                           
  8503     11C7                     _read_adc:	
  8504                           ;psect for function _read_adc
  8505                           
  8506                           
  8507                           ;incstack = 0
  8508                           ; Regs used in _read_adc: [wreg+status,2+status,0]
  8509                           ;read_adc@channel stored from wreg
  8510     11C7  00F5               	movwf	read_adc@channel
  8511     11C8                     l2776:
  8512                           
  8513                           ;adc.c: 13: unsigned short read_adc(unsigned char channel);adc.c: 14: {;adc.c: 15:     u
      +                          nsigned short adc_reg_val;;adc.c: 18:     ADCON0 = (ADCON0 & 0xC7) | (channel << 3);
  8514     11C8  0875               	movf	read_adc@channel,w
  8515     11C9  00F2               	movwf	??_read_adc
  8516     11CA  3003               	movlw	3
  8517     11CB                     u2555:
  8518     11CB  1003               	clrc
  8519     11CC  0DF2               	rlf	??_read_adc,f
  8520     11CD  3EFF               	addlw	-1
  8521     11CE  1D03               	skipz
  8522     11CF  29CB               	goto	u2555
  8523     11D0  1283               	bcf	3,5	;RP0=0, select bank0
  8524     11D1  1303               	bcf	3,6	;RP1=0, select bank0
  8525     11D2  081F               	movf	31,w	;volatile
  8526     11D3  39C7               	andlw	199
  8527     11D4  0472               	iorwf	??_read_adc,w
  8528     11D5  009F               	movwf	31	;volatile
  8529     11D6                     l2778:
  8530                           
  8531                           ;adc.c: 21:     GO = 1;
  8532     11D6  151F               	bsf	31,2	;volatile
  8533     11D7                     l20:	
  8534                           ;adc.c: 23:     while (nDONE);
  8535                           
  8536     11D7  191F               	btfsc	31,2	;volatile
  8537     11D8  29DA               	goto	u2561
  8538     11D9  29DB               	goto	u2560
  8539     11DA                     u2561:
  8540     11DA  29D7               	goto	l20
  8541     11DB                     u2560:
  8542     11DB                     l2780:
  8543                           
  8544                           ;adc.c: 25:     adc_reg_val = (ADRESH << 8) | ADRESL;
  8545     11DB  081E               	movf	30,w	;volatile
  8546     11DC  00F4               	movwf	read_adc@adc_reg_val+1
  8547     11DD  1683               	bsf	3,5	;RP0=1, select bank1
  8548     11DE  1303               	bcf	3,6	;RP1=0, select bank1
  8549     11DF  081E               	movf	30,w	;volatile
  8550     11E0  00F3               	movwf	read_adc@adc_reg_val
  8551                           
  8552                           ;adc.c: 27:     return adc_reg_val;
  8553     11E1  0874               	movf	read_adc@adc_reg_val+1,w
  8554     11E2  00F1               	movwf	?_read_adc+1
  8555     11E3  0873               	movf	read_adc@adc_reg_val,w
  8556     11E4  00F0               	movwf	?_read_adc
  8557     11E5                     l23:
  8558     11E5  0008               	return
  8559     11E6                     __end_of_read_adc:
  8560                           
  8561                           	psect	text32
  8562     1205                     __ptext32:	
  8563 ;; *************** function _get_time *****************
  8564 ;; Defined at:
  8565 ;;		line 39 in file "ds1307.c"
  8566 ;; Parameters:    Size  Location     Type
  8567 ;;  clock_reg       1    4[COMMON] PTR unsigned char 
  8568 ;;		 -> clock_reg(3), 
  8569 ;; Auto vars:     Size  Location     Type
  8570 ;;		None
  8571 ;; Return value:  Size  Location     Type
  8572 ;;                  1    wreg      void 
  8573 ;; Registers used:
  8574 ;;		wreg, fsr0l, fsr0h, status,2, status,0, pclath, cstack
  8575 ;; Tracked objects:
  8576 ;;		On entry : 0/0
  8577 ;;		On exit  : 0/0
  8578 ;;		Unchanged: 0/0
  8579 ;; Data sizes:     COMMON   BANK0   BANK1   BANK3   BANK2
  8580 ;;      Params:         1       0       0       0       0
  8581 ;;      Locals:         0       0       0       0       0
  8582 ;;      Temps:          0       0       0       0       0
  8583 ;;      Totals:         1       0       0       0       0
  8584 ;;Total ram usage:        1 bytes
  8585 ;; Hardware stack levels used: 1
  8586 ;; This function calls:
  8587 ;;		_read_ds1307
  8588 ;; This function is called by:
  8589 ;;		_dashboard
  8590 ;;		_set_time
  8591 ;; This function uses a non-reentrant model
  8592 ;;
  8593                           
  8594     1205                     _get_time:	
  8595                           ;psect for function _get_time
  8596                           
  8597     1205                     l2628:	
  8598                           ;incstack = 0
  8599                           ; Regs used in _get_time: [wreg-fsr0h+status,2+status,0+pclath+cstack]
  8600                           
  8601                           
  8602                           ;ds1307.c: 39: void get_time(unsigned char *clock_reg);ds1307.c: 40: {;ds1307.c: 41:    
      +                           clock_reg[0] = read_ds1307(0x02);
  8603     1205  0874               	movf	get_time@clock_reg,w
  8604     1206  0084               	movwf	4
  8605     1207  3002               	movlw	2
  8606     1208  160A  118A  22E7  160A  118A  	fcall	_read_ds1307
  8607     120D  1383               	bcf	3,7	;select IRP bank0
  8608     120E  0080               	movwf	0
  8609                           
  8610                           ;ds1307.c: 42:     clock_reg[1] = read_ds1307(0x01);
  8611     120F  0A74               	incf	get_time@clock_reg,w
  8612     1210  0084               	movwf	4
  8613     1211  3001               	movlw	1
  8614     1212  160A  118A  22E7  160A  118A  	fcall	_read_ds1307
  8615     1217  1383               	bcf	3,7	;select IRP bank0
  8616     1218  0080               	movwf	0
  8617                           
  8618                           ;ds1307.c: 43:     clock_reg[2] = read_ds1307(0x00);
  8619     1219  0874               	movf	get_time@clock_reg,w
  8620     121A  3E02               	addlw	2
  8621     121B  0084               	movwf	4
  8622     121C  3000               	movlw	0
  8623     121D  160A  118A  22E7  160A  118A  	fcall	_read_ds1307
  8624     1222  1383               	bcf	3,7	;select IRP bank0
  8625     1223  0080               	movwf	0
  8626     1224                     l149:
  8627     1224  0008               	return
  8628     1225                     __end_of_get_time:
  8629                           
  8630                           	psect	text33
  8631     12E7                     __ptext33:	
  8632 ;; *************** function _read_ds1307 *****************
  8633 ;; Defined at:
  8634 ;;		line 15 in file "ds1307.c"
  8635 ;; Parameters:    Size  Location     Type
  8636 ;;  addr            1    wreg     unsigned char 
  8637 ;; Auto vars:     Size  Location     Type
  8638 ;;  addr            1    2[COMMON] unsigned char 
  8639 ;;  data            1    3[COMMON] unsigned char 
  8640 ;; Return value:  Size  Location     Type
  8641 ;;                  1    wreg      unsigned char 
  8642 ;; Registers used:
  8643 ;;		wreg, status,2, status,0, pclath, cstack
  8644 ;; Tracked objects:
  8645 ;;		On entry : 0/0
  8646 ;;		On exit  : 0/0
  8647 ;;		Unchanged: 0/0
  8648 ;; Data sizes:     COMMON   BANK0   BANK1   BANK3   BANK2
  8649 ;;      Params:         0       0       0       0       0
  8650 ;;      Locals:         2       0       0       0       0
  8651 ;;      Temps:          0       0       0       0       0
  8652 ;;      Totals:         2       0       0       0       0
  8653 ;;Total ram usage:        2 bytes
  8654 ;; Hardware stack levels used: 1
  8655 ;; This function calls:
  8656 ;;		_i2c_read
  8657 ;;		_i2c_rep_start
  8658 ;;		_i2c_start
  8659 ;;		_i2c_stop
  8660 ;;		_i2c_write
  8661 ;; This function is called by:
  8662 ;;		_init_ds1307
  8663 ;;		_get_time
  8664 ;; This function uses a non-reentrant model
  8665 ;;
  8666                           
  8667     12E7                     _read_ds1307:	
  8668                           ;psect for function _read_ds1307
  8669                           
  8670                           
  8671                           ;incstack = 0
  8672                           ; Regs used in _read_ds1307: [wreg+status,2+status,0+pclath+cstack]
  8673                           ;read_ds1307@addr stored from wreg
  8674     12E7  00F2               	movwf	read_ds1307@addr
  8675     12E8                     l2570:
  8676                           
  8677                           ;ds1307.c: 15: unsigned char read_ds1307(unsigned char addr);ds1307.c: 16: {;ds1307.c: 1
      +                          7:     unsigned char data;;ds1307.c: 19:     i2c_start();
  8678     12E8  160A  118A  20F4  160A  118A  	fcall	_i2c_start
  8679                           
  8680                           ;ds1307.c: 20:     i2c_write(0b11010000);
  8681     12ED  30D0               	movlw	208
  8682     12EE  160A  118A  2125  160A  118A  	fcall	_i2c_write
  8683                           
  8684                           ;ds1307.c: 21:     i2c_write(addr);
  8685     12F3  0872               	movf	read_ds1307@addr,w
  8686     12F4  160A  118A  2125  160A  118A  	fcall	_i2c_write
  8687                           
  8688                           ;ds1307.c: 22:     i2c_rep_start();
  8689     12F9  160A  118A  211A  160A  118A  	fcall	_i2c_rep_start
  8690                           
  8691                           ;ds1307.c: 23:     i2c_write(0b11010001);
  8692     12FE  30D1               	movlw	209
  8693     12FF  160A  118A  2125  160A  118A  	fcall	_i2c_write
  8694                           
  8695                           ;ds1307.c: 24:     data = i2c_read(0);
  8696     1304  3000               	movlw	0
  8697     1305  160A  118A  2225  160A  118A  	fcall	_i2c_read
  8698     130A  00F3               	movwf	read_ds1307@data
  8699                           
  8700                           ;ds1307.c: 25:     i2c_stop();
  8701     130B  160A  118A  20FD  160A  118A  	fcall	_i2c_stop
  8702     1310                     l2572:
  8703                           
  8704                           ;ds1307.c: 27:     return data;
  8705     1310  0873               	movf	read_ds1307@data,w
  8706     1311                     l143:
  8707     1311  0008               	return
  8708     1312                     __end_of_read_ds1307:
  8709                           
  8710                           	psect	text34
  8711     1125                     __ptext34:	
  8712 ;; *************** function _i2c_write *****************
  8713 ;; Defined at:
  8714 ;;		line 65 in file "i2c.c"
  8715 ;; Parameters:    Size  Location     Type
  8716 ;;  data            1    wreg     unsigned char 
  8717 ;; Auto vars:     Size  Location     Type
  8718 ;;  data            1    0[COMMON] unsigned char 
  8719 ;; Return value:  Size  Location     Type
  8720 ;;                  2  104[None  ] int 
  8721 ;; Registers used:
  8722 ;;		wreg, status,2, status,0, pclath, cstack
  8723 ;; Tracked objects:
  8724 ;;		On entry : 0/0
  8725 ;;		On exit  : 0/0
  8726 ;;		Unchanged: 0/0
  8727 ;; Data sizes:     COMMON   BANK0   BANK1   BANK3   BANK2
  8728 ;;      Params:         0       0       0       0       0
  8729 ;;      Locals:         1       0       0       0       0
  8730 ;;      Temps:          0       0       0       0       0
  8731 ;;      Totals:         1       0       0       0       0
  8732 ;;Total ram usage:        1 bytes
  8733 ;; Hardware stack levels used: 1
  8734 ;; This function calls:
  8735 ;;		_i2c_wait_for_idle
  8736 ;; This function is called by:
  8737 ;;		_write_external_eeprom
  8738 ;;		_read_external_eeprom
  8739 ;;		_read_ds1307
  8740 ;;		_write_ds1307
  8741 ;; This function uses a non-reentrant model
  8742 ;;
  8743                           
  8744     1125                     _i2c_write:	
  8745                           ;psect for function _i2c_write
  8746                           
  8747                           
  8748                           ;incstack = 0
  8749                           ; Regs used in _i2c_write: [wreg+status,2+status,0+pclath+cstack]
  8750                           ;i2c_write@data stored from wreg
  8751     1125  00F0               	movwf	i2c_write@data
  8752     1126                     l2526:
  8753                           
  8754                           ;i2c.c: 65: int i2c_write(unsigned char data);i2c.c: 66: {;i2c.c: 67:     i2c_wait_for_i
      +                          dle();
  8755     1126  120A  118A  2003  160A  118A  	fcall	_i2c_wait_for_idle
  8756     112B                     l2528:
  8757                           
  8758                           ;i2c.c: 68:     SSPBUF = data;
  8759     112B  0870               	movf	i2c_write@data,w
  8760     112C  1283               	bcf	3,5	;RP0=0, select bank0
  8761     112D  1303               	bcf	3,6	;RP1=0, select bank0
  8762     112E  0093               	movwf	19	;volatile
  8763     112F                     l2530:
  8764     112F                     l221:	
  8765                           ;i2c.c: 70:     return !ACKSTAT;;	Return value of _i2c_write is never used
  8766                           
  8767     112F  0008               	return
  8768     1130                     __end_of_i2c_write:
  8769                           
  8770                           	psect	text35
  8771     111A                     __ptext35:	
  8772 ;; *************** function _i2c_rep_start *****************
  8773 ;; Defined at:
  8774 ;;		line 28 in file "i2c.c"
  8775 ;; Parameters:    Size  Location     Type
  8776 ;;		None
  8777 ;; Auto vars:     Size  Location     Type
  8778 ;;		None
  8779 ;; Return value:  Size  Location     Type
  8780 ;;                  1    wreg      void 
  8781 ;; Registers used:
  8782 ;;		wreg, status,2, status,0, pclath, cstack
  8783 ;; Tracked objects:
  8784 ;;		On entry : 0/0
  8785 ;;		On exit  : 0/0
  8786 ;;		Unchanged: 0/0
  8787 ;; Data sizes:     COMMON   BANK0   BANK1   BANK3   BANK2
  8788 ;;      Params:         0       0       0       0       0
  8789 ;;      Locals:         0       0       0       0       0
  8790 ;;      Temps:          0       0       0       0       0
  8791 ;;      Totals:         0       0       0       0       0
  8792 ;;Total ram usage:        0 bytes
  8793 ;; Hardware stack levels used: 1
  8794 ;; This function calls:
  8795 ;;		_i2c_start
  8796 ;;		_i2c_stop
  8797 ;; This function is called by:
  8798 ;;		_read_external_eeprom
  8799 ;;		_read_ds1307
  8800 ;; This function uses a non-reentrant model
  8801 ;;
  8802                           
  8803     111A                     _i2c_rep_start:	
  8804                           ;psect for function _i2c_rep_start
  8805                           
  8806     111A                     l2534:	
  8807                           ;incstack = 0
  8808                           ; Regs used in _i2c_rep_start: [wreg+status,2+status,0+pclath+cstack]
  8809                           
  8810                           
  8811                           ;i2c.c: 30:     i2c_stop();
  8812     111A  160A  118A  20FD  160A  118A  	fcall	_i2c_stop
  8813                           
  8814                           ;i2c.c: 31:     i2c_start();
  8815     111F  160A  118A  20F4  160A  118A  	fcall	_i2c_start
  8816     1124                     l210:
  8817     1124  0008               	return
  8818     1125                     __end_of_i2c_rep_start:
  8819                           
  8820                           	psect	text36
  8821     10FD                     __ptext36:	
  8822 ;; *************** function _i2c_stop *****************
  8823 ;; Defined at:
  8824 ;;		line 35 in file "i2c.c"
  8825 ;; Parameters:    Size  Location     Type
  8826 ;;		None
  8827 ;; Auto vars:     Size  Location     Type
  8828 ;;		None
  8829 ;; Return value:  Size  Location     Type
  8830 ;;                  1    wreg      void 
  8831 ;; Registers used:
  8832 ;;		wreg, status,2, status,0, pclath, cstack
  8833 ;; Tracked objects:
  8834 ;;		On entry : 0/0
  8835 ;;		On exit  : 0/0
  8836 ;;		Unchanged: 0/0
  8837 ;; Data sizes:     COMMON   BANK0   BANK1   BANK3   BANK2
  8838 ;;      Params:         0       0       0       0       0
  8839 ;;      Locals:         0       0       0       0       0
  8840 ;;      Temps:          0       0       0       0       0
  8841 ;;      Totals:         0       0       0       0       0
  8842 ;;Total ram usage:        0 bytes
  8843 ;; Hardware stack levels used: 1
  8844 ;; This function calls:
  8845 ;;		_i2c_wait_for_idle
  8846 ;; This function is called by:
  8847 ;;		_write_external_eeprom
  8848 ;;		_read_external_eeprom
  8849 ;;		_read_ds1307
  8850 ;;		_write_ds1307
  8851 ;;		_i2c_rep_start
  8852 ;; This function uses a non-reentrant model
  8853 ;;
  8854                           
  8855     10FD                     _i2c_stop:	
  8856                           ;psect for function _i2c_stop
  8857                           
  8858     10FD                     l2522:	
  8859                           ;incstack = 0
  8860                           ; Regs used in _i2c_stop: [wreg+status,2+status,0+pclath+cstack]
  8861                           
  8862                           
  8863                           ;i2c.c: 37:     i2c_wait_for_idle();
  8864     10FD  120A  118A  2003  160A  118A  	fcall	_i2c_wait_for_idle
  8865     1102                     l2524:
  8866                           
  8867                           ;i2c.c: 38:     PEN = 1;
  8868     1102  1683               	bsf	3,5	;RP0=1, select bank1
  8869     1103  1303               	bcf	3,6	;RP1=0, select bank1
  8870     1104  1511               	bsf	17,2	;volatile
  8871     1105                     l213:
  8872     1105  0008               	return
  8873     1106                     __end_of_i2c_stop:
  8874                           
  8875                           	psect	text37
  8876     10F4                     __ptext37:	
  8877 ;; *************** function _i2c_start *****************
  8878 ;; Defined at:
  8879 ;;		line 22 in file "i2c.c"
  8880 ;; Parameters:    Size  Location     Type
  8881 ;;		None
  8882 ;; Auto vars:     Size  Location     Type
  8883 ;;		None
  8884 ;; Return value:  Size  Location     Type
  8885 ;;                  1    wreg      void 
  8886 ;; Registers used:
  8887 ;;		wreg, status,2, status,0, pclath, cstack
  8888 ;; Tracked objects:
  8889 ;;		On entry : 0/0
  8890 ;;		On exit  : 0/0
  8891 ;;		Unchanged: 0/0
  8892 ;; Data sizes:     COMMON   BANK0   BANK1   BANK3   BANK2
  8893 ;;      Params:         0       0       0       0       0
  8894 ;;      Locals:         0       0       0       0       0
  8895 ;;      Temps:          0       0       0       0       0
  8896 ;;      Totals:         0       0       0       0       0
  8897 ;;Total ram usage:        0 bytes
  8898 ;; Hardware stack levels used: 1
  8899 ;; This function calls:
  8900 ;;		_i2c_wait_for_idle
  8901 ;; This function is called by:
  8902 ;;		_write_external_eeprom
  8903 ;;		_read_external_eeprom
  8904 ;;		_read_ds1307
  8905 ;;		_write_ds1307
  8906 ;;		_i2c_rep_start
  8907 ;; This function uses a non-reentrant model
  8908 ;;
  8909                           
  8910     10F4                     _i2c_start:	
  8911                           ;psect for function _i2c_start
  8912                           
  8913     10F4                     l2518:	
  8914                           ;incstack = 0
  8915                           ; Regs used in _i2c_start: [wreg+status,2+status,0+pclath+cstack]
  8916                           
  8917                           
  8918                           ;i2c.c: 24:     i2c_wait_for_idle();
  8919     10F4  120A  118A  2003  160A  118A  	fcall	_i2c_wait_for_idle
  8920     10F9                     l2520:
  8921                           
  8922                           ;i2c.c: 25:     SEN = 1;
  8923     10F9  1683               	bsf	3,5	;RP0=1, select bank1
  8924     10FA  1303               	bcf	3,6	;RP1=0, select bank1
  8925     10FB  1411               	bsf	17,0	;volatile
  8926     10FC                     l207:
  8927     10FC  0008               	return
  8928     10FD                     __end_of_i2c_start:
  8929                           
  8930                           	psect	text38
  8931     1225                     __ptext38:	
  8932 ;; *************** function _i2c_read *****************
  8933 ;; Defined at:
  8934 ;;		line 41 in file "i2c.c"
  8935 ;; Parameters:    Size  Location     Type
  8936 ;;  ack             1    wreg     unsigned char 
  8937 ;; Auto vars:     Size  Location     Type
  8938 ;;  ack             1    0[COMMON] unsigned char 
  8939 ;;  data            1    1[COMMON] unsigned char 
  8940 ;; Return value:  Size  Location     Type
  8941 ;;                  1    wreg      unsigned char 
  8942 ;; Registers used:
  8943 ;;		wreg, status,2, status,0, pclath, cstack
  8944 ;; Tracked objects:
  8945 ;;		On entry : 0/0
  8946 ;;		On exit  : 0/0
  8947 ;;		Unchanged: 0/0
  8948 ;; Data sizes:     COMMON   BANK0   BANK1   BANK3   BANK2
  8949 ;;      Params:         0       0       0       0       0
  8950 ;;      Locals:         2       0       0       0       0
  8951 ;;      Temps:          0       0       0       0       0
  8952 ;;      Totals:         2       0       0       0       0
  8953 ;;Total ram usage:        2 bytes
  8954 ;; Hardware stack levels used: 1
  8955 ;; This function calls:
  8956 ;;		_i2c_wait_for_idle
  8957 ;; This function is called by:
  8958 ;;		_read_external_eeprom
  8959 ;;		_read_ds1307
  8960 ;; This function uses a non-reentrant model
  8961 ;;
  8962                           
  8963     1225                     _i2c_read:	
  8964                           ;psect for function _i2c_read
  8965                           
  8966                           
  8967                           ;incstack = 0
  8968                           ; Regs used in _i2c_read: [wreg+status,2+status,0+pclath+cstack]
  8969                           ;i2c_read@ack stored from wreg
  8970     1225  00F0               	movwf	i2c_read@ack
  8971     1226                     l2536:
  8972                           
  8973                           ;i2c.c: 41: unsigned char i2c_read(unsigned char ack);i2c.c: 42: {;i2c.c: 43:     unsign
      +                          ed char data;;i2c.c: 45:     i2c_wait_for_idle();
  8974     1226  120A  118A  2003  160A  118A  	fcall	_i2c_wait_for_idle
  8975     122B                     l2538:
  8976                           
  8977                           ;i2c.c: 46:     RCEN = 1;
  8978     122B  1683               	bsf	3,5	;RP0=1, select bank1
  8979     122C  1303               	bcf	3,6	;RP1=0, select bank1
  8980     122D  1591               	bsf	17,3	;volatile
  8981                           
  8982                           ;i2c.c: 48:     i2c_wait_for_idle();
  8983     122E  120A  118A  2003  160A  118A  	fcall	_i2c_wait_for_idle
  8984     1233                     l2540:
  8985                           
  8986                           ;i2c.c: 49:     data = SSPBUF;
  8987     1233  1283               	bcf	3,5	;RP0=0, select bank0
  8988     1234  1303               	bcf	3,6	;RP1=0, select bank0
  8989     1235  0813               	movf	19,w	;volatile
  8990     1236  00F1               	movwf	i2c_read@data
  8991     1237                     l2542:
  8992                           
  8993                           ;i2c.c: 51:     if (ack == 1)
  8994     1237  0370               	decf	i2c_read@ack,w
  8995     1238  1D03               	btfss	3,2
  8996     1239  2A3B               	goto	u2161
  8997     123A  2A3C               	goto	u2160
  8998     123B                     u2161:
  8999     123B  2A40               	goto	l216
  9000     123C                     u2160:
  9001     123C                     l2544:
  9002                           
  9003                           ;i2c.c: 52:     {;i2c.c: 53:         ACKDT = 1;
  9004     123C  1683               	bsf	3,5	;RP0=1, select bank1
  9005     123D  1303               	bcf	3,6	;RP1=0, select bank1
  9006     123E  1691               	bsf	17,5	;volatile
  9007                           
  9008                           ;i2c.c: 54:     }
  9009     123F  2A43               	goto	l217
  9010     1240                     l216:	
  9011                           ;i2c.c: 55:     else
  9012                           
  9013                           
  9014                           ;i2c.c: 56:     {;i2c.c: 57:         ACKDT = 0;
  9015     1240  1683               	bsf	3,5	;RP0=1, select bank1
  9016     1241  1303               	bcf	3,6	;RP1=0, select bank1
  9017     1242  1291               	bcf	17,5	;volatile
  9018     1243                     l217:	
  9019                           ;i2c.c: 58:     }
  9020                           
  9021                           
  9022                           ;i2c.c: 60:     ACKEN = 1;
  9023     1243  1611               	bsf	17,4	;volatile
  9024     1244                     l2546:
  9025                           
  9026                           ;i2c.c: 62:     return data;
  9027     1244  0871               	movf	i2c_read@data,w
  9028     1245                     l218:
  9029     1245  0008               	return
  9030     1246                     __end_of_i2c_read:
  9031                           
  9032                           	psect	text39
  9033     0003                     __ptext39:	
  9034 ;; *************** function _i2c_wait_for_idle *****************
  9035 ;; Defined at:
  9036 ;;		line 16 in file "i2c.c"
  9037 ;; Parameters:    Size  Location     Type
  9038 ;;		None
  9039 ;; Auto vars:     Size  Location     Type
  9040 ;;		None
  9041 ;; Return value:  Size  Location     Type
  9042 ;;                  1    wreg      void 
  9043 ;; Registers used:
  9044 ;;		wreg, status,2
  9045 ;; Tracked objects:
  9046 ;;		On entry : 0/0
  9047 ;;		On exit  : 0/0
  9048 ;;		Unchanged: 0/0
  9049 ;; Data sizes:     COMMON   BANK0   BANK1   BANK3   BANK2
  9050 ;;      Params:         0       0       0       0       0
  9051 ;;      Locals:         0       0       0       0       0
  9052 ;;      Temps:          0       0       0       0       0
  9053 ;;      Totals:         0       0       0       0       0
  9054 ;;Total ram usage:        0 bytes
  9055 ;; Hardware stack levels used: 1
  9056 ;; This function calls:
  9057 ;;		Nothing
  9058 ;; This function is called by:
  9059 ;;		_i2c_start
  9060 ;;		_i2c_stop
  9061 ;;		_i2c_read
  9062 ;;		_i2c_write
  9063 ;; This function uses a non-reentrant model
  9064 ;;
  9065                           
  9066     0003                     _i2c_wait_for_idle:	
  9067                           ;psect for function _i2c_wait_for_idle
  9068                           
  9069     0003                     l2514:	
  9070                           ;incstack = 0
  9071                           ; Regs used in _i2c_wait_for_idle: [wreg+status,2]
  9072                           
  9073     0003                     l201:	
  9074                           ;i2c.c: 19:     while (R_nW || (SSPCON2 & 0x1F));
  9075                           
  9076     0003  1683               	bsf	3,5	;RP0=1, select bank1
  9077     0004  1303               	bcf	3,6	;RP1=0, select bank1
  9078     0005  1914               	btfsc	20,2	;volatile
  9079     0006  2808               	goto	u2141
  9080     0007  2809               	goto	u2140
  9081     0008                     u2141:
  9082     0008  2803               	goto	l201
  9083     0009                     u2140:
  9084     0009                     l2516:
  9085     0009  0811               	movf	17,w	;volatile
  9086     000A  391F               	andlw	31
  9087     000B  1D03               	btfss	3,2
  9088     000C  280E               	goto	u2151
  9089     000D  280F               	goto	u2150
  9090     000E                     u2151:
  9091     000E  2803               	goto	l201
  9092     000F                     u2150:
  9093     000F                     l204:
  9094     000F  0008               	return
  9095     0010                     __end_of_i2c_wait_for_idle:
  9096                           
  9097                           	psect	text40
  9098     1499                     __ptext40:	
  9099 ;; *************** function _display_time *****************
  9100 ;; Defined at:
  9101 ;;		line 46 in file "ds1307.c"
  9102 ;; Parameters:    Size  Location     Type
  9103 ;;  clock_reg       1    7[COMMON] PTR unsigned char 
  9104 ;;		 -> clock_reg(3), 
  9105 ;; Auto vars:     Size  Location     Type
  9106 ;;  sec             1   10[COMMON] unsigned char 
  9107 ;;  hr              1    9[COMMON] unsigned char 
  9108 ;; Return value:  Size  Location     Type
  9109 ;;                  1    wreg      void 
  9110 ;; Registers used:
  9111 ;;		wreg, fsr0l, fsr0h, status,2, status,0, pclath, btemp1, cstack
  9112 ;; Tracked objects:
  9113 ;;		On entry : 0/0
  9114 ;;		On exit  : 0/0
  9115 ;;		Unchanged: 0/0
  9116 ;; Data sizes:     COMMON   BANK0   BANK1   BANK3   BANK2
  9117 ;;      Params:         1       0       0       0       0
  9118 ;;      Locals:         2       0       0       0       0
  9119 ;;      Temps:          1       0       0       0       0
  9120 ;;      Totals:         4       0       0       0       0
  9121 ;;Total ram usage:        4 bytes
  9122 ;; Hardware stack levels used: 1
  9123 ;; Hardware stack levels required when called: 1
  9124 ;; This function calls:
  9125 ;;		_clcd_print
  9126 ;; This function is called by:
  9127 ;;		_dashboard
  9128 ;; This function uses a non-reentrant model
  9129 ;;
  9130                           
  9131     1499                     _display_time:	
  9132                           ;psect for function _display_time
  9133                           
  9134     1499                     l2836:	
  9135                           ;incstack = 0
  9136                           ; Regs used in _display_time: [wreg-fsr0h+status,2+status,0+pclath+btemp1+cstack]
  9137                           
  9138                           
  9139                           ;ds1307.c: 46: void display_time(unsigned char *clock_reg);ds1307.c: 47: {;ds1307.c: 57:
      +                               unsigned char hr = clock_reg[0] & 0x3F;
  9140     1499  0877               	movf	display_time@clock_reg,w
  9141     149A  0084               	movwf	4
  9142     149B  1383               	bcf	3,7	;select IRP bank0
  9143     149C  0800               	movf	0,w
  9144     149D  00F9               	movwf	display_time@hr
  9145     149E                     l2838:
  9146     149E  303F               	movlw	63
  9147     149F  05F9               	andwf	display_time@hr,f
  9148     14A0                     l2840:
  9149                           
  9150                           ;ds1307.c: 59:     time[0] = ((hr >> 4) & 0x03) + '0';
  9151     14A0  0879               	movf	display_time@hr,w
  9152     14A1  00F8               	movwf	??_display_time
  9153     14A2  3004               	movlw	4
  9154     14A3                     u2625:
  9155     14A3  1003               	clrc
  9156     14A4  0CF8               	rrf	??_display_time,f
  9157     14A5  3EFF               	addlw	-1
  9158     14A6  1D03               	skipz
  9159     14A7  2CA3               	goto	u2625
  9160     14A8  0878               	movf	??_display_time,w
  9161     14A9  3903               	andlw	3
  9162     14AA  3E30               	addlw	48
  9163     14AB  1683               	bsf	3,5	;RP0=1, select bank1
  9164     14AC  1303               	bcf	3,6	;RP1=0, select bank1
  9165     14AD  00AC               	movwf	_time^(0+128)
  9166     14AE                     l2842:
  9167                           
  9168                           ;ds1307.c: 60:     time[1] = (hr & 0x0F) + '0';
  9169     14AE  0879               	movf	display_time@hr,w
  9170     14AF  390F               	andlw	15
  9171     14B0  3E30               	addlw	48
  9172     14B1  00AD               	movwf	(_time^(0+128)+1)
  9173     14B2                     l2844:
  9174                           
  9175                           ;ds1307.c: 62:     time[2] = ':';
  9176     14B2  303A               	movlw	58
  9177     14B3  00AE               	movwf	(_time^(0+128)+2)
  9178     14B4                     l2846:
  9179                           
  9180                           ;ds1307.c: 65:     time[3] = ((clock_reg[1] >> 4) & 0x0F) + '0';
  9181     14B4  0A77               	incf	display_time@clock_reg,w
  9182     14B5  0084               	movwf	4
  9183     14B6  0800               	movf	0,w
  9184     14B7  00F8               	movwf	??_display_time
  9185     14B8  3004               	movlw	4
  9186     14B9                     u2635:
  9187     14B9  1003               	clrc
  9188     14BA  0CF8               	rrf	??_display_time,f
  9189     14BB  3EFF               	addlw	-1
  9190     14BC  1D03               	skipz
  9191     14BD  2CB9               	goto	u2635
  9192     14BE  0878               	movf	??_display_time,w
  9193     14BF  390F               	andlw	15
  9194     14C0  3E30               	addlw	48
  9195     14C1  00AF               	movwf	(_time^(0+128)+3)
  9196     14C2                     l2848:
  9197                           
  9198                           ;ds1307.c: 66:     time[4] = (clock_reg[1] & 0x0F) + '0';
  9199     14C2  0A77               	incf	display_time@clock_reg,w
  9200     14C3  0084               	movwf	4
  9201     14C4  0800               	movf	0,w
  9202     14C5  390F               	andlw	15
  9203     14C6  3E30               	addlw	48
  9204     14C7  00B0               	movwf	(_time^(0+128)+4)
  9205     14C8                     l2850:
  9206                           
  9207                           ;ds1307.c: 68:     time[5] = ':';
  9208     14C8  303A               	movlw	58
  9209     14C9  00B1               	movwf	(_time^(0+128)+5)
  9210     14CA                     l2852:
  9211                           
  9212                           ;ds1307.c: 73:     unsigned char sec = clock_reg[2] & 0x7F;
  9213     14CA  0877               	movf	display_time@clock_reg,w
  9214     14CB  3E02               	addlw	2
  9215     14CC  0084               	movwf	4
  9216     14CD  0800               	movf	0,w
  9217     14CE  00FA               	movwf	display_time@sec
  9218     14CF                     l2854:
  9219     14CF  307F               	movlw	127
  9220     14D0  05FA               	andwf	display_time@sec,f
  9221     14D1                     l2856:
  9222                           
  9223                           ;ds1307.c: 74:     time[6] = ((sec >> 4) & 0x07) + '0';
  9224     14D1  087A               	movf	display_time@sec,w
  9225     14D2  00F8               	movwf	??_display_time
  9226     14D3  3004               	movlw	4
  9227     14D4                     u2645:
  9228     14D4  1003               	clrc
  9229     14D5  0CF8               	rrf	??_display_time,f
  9230     14D6  3EFF               	addlw	-1
  9231     14D7  1D03               	skipz
  9232     14D8  2CD4               	goto	u2645
  9233     14D9  0878               	movf	??_display_time,w
  9234     14DA  3907               	andlw	7
  9235     14DB  3E30               	addlw	48
  9236     14DC  00B2               	movwf	(_time^(0+128)+6)
  9237     14DD                     l2858:
  9238                           
  9239                           ;ds1307.c: 75:     time[7] = (sec & 0x0F) + '0';
  9240     14DD  087A               	movf	display_time@sec,w
  9241     14DE  390F               	andlw	15
  9242     14DF  3E30               	addlw	48
  9243     14E0  00B3               	movwf	(_time^(0+128)+7)
  9244     14E1                     l2860:
  9245                           
  9246                           ;ds1307.c: 76:     time[8] = '\0';
  9247     14E1  01B4               	clrf	(_time^(0+128)+8)
  9248     14E2                     l2862:
  9249                           
  9250                           ;ds1307.c: 78:     clcd_print(time, (0xC0 + 0));
  9251     14E2  30AC               	movlw	(low (_time| 0))& (0+255)
  9252     14E3  00F4               	movwf	clcd_print@str
  9253     14E4  3000               	movlw	0
  9254     14E5  00F5               	movwf	clcd_print@str+1
  9255     14E6  30C0               	movlw	192
  9256     14E7  00F6               	movwf	clcd_print@addr
  9257     14E8  160A  118A  233D  160A  118A  	fcall	_clcd_print
  9258     14ED                     l152:
  9259     14ED  0008               	return
  9260     14EE                     __end_of_display_time:
  9261                           
  9262                           	psect	text41
  9263     133D                     __ptext41:	
  9264 ;; *************** function _clcd_print *****************
  9265 ;; Defined at:
  9266 ;;		line 62 in file "clcd.c"
  9267 ;; Parameters:    Size  Location     Type
  9268 ;;  str             2    4[COMMON] PTR const unsigned char 
  9269 ;;		 -> STR_66(17), STR_65(17), STR_64(16), STR_63(16), 
  9270 ;;		 -> STR_62(16), STR_61(16), STR_60(17), STR_59(17), 
  9271 ;;		 -> STR_58(16), STR_57(17), STR_56(17), STR_55(16), 
  9272 ;;		 -> STR_54(17), STR_53(17), STR_52(17), set_time@temp(9), 
  9273 ;;		 -> STR_51(16), STR_50(16), STR_48(16), STR_47(16), 
  9274 ;;		 -> STR_42(16), STR_41(16), STR_40(17), STR_39(17), 
  9275 ;;		 -> STR_38(15), STR_37(15), view_log@log(17), STR_36(20), 
  9276 ;;		 -> STR_35(17), STR_34(16), STR_33(17), STR_32(17), 
  9277 ;;		 -> STR_31(17), STR_30(17), STR_29(17), STR_28(17), 
  9278 ;;		 -> STR_27(16), STR_26(16), STR_25(17), STR_24(17), 
  9279 ;;		 -> STR_23(17), STR_22(16), STR_21(17), STR_20(17), 
  9280 ;;		 -> STR_19(12), STR_18(17), STR_17(12), STR_16(9), 
  9281 ;;		 -> STR_15(13), STR_14(10), STR_13(9), speed(3), 
  9282 ;;		 -> STR_12(17), STR_11(17), STR_10(3), STR_9(3), 
  9283 ;;		 -> STR_8(3), STR_7(3), STR_6(3), STR_5(3), 
  9284 ;;		 -> STR_4(3), STR_3(3), time(9), STR_2(17), 
  9285 ;;		 -> STR_1(17), 
  9286 ;;  addr            1    6[COMMON] unsigned char 
  9287 ;; Auto vars:     Size  Location     Type
  9288 ;;		None
  9289 ;; Return value:  Size  Location     Type
  9290 ;;                  1    wreg      void 
  9291 ;; Registers used:
  9292 ;;		wreg, fsr0l, fsr0h, status,2, status,0, pclath, btemp1, cstack
  9293 ;; Tracked objects:
  9294 ;;		On entry : 0/0
  9295 ;;		On exit  : 0/0
  9296 ;;		Unchanged: 0/0
  9297 ;; Data sizes:     COMMON   BANK0   BANK1   BANK3   BANK2
  9298 ;;      Params:         3       0       0       0       0
  9299 ;;      Locals:         0       0       0       0       0
  9300 ;;      Temps:          0       0       0       0       0
  9301 ;;      Totals:         3       0       0       0       0
  9302 ;;Total ram usage:        3 bytes
  9303 ;; Hardware stack levels used: 1
  9304 ;; This function calls:
  9305 ;;		_clcd_write
  9306 ;; This function is called by:
  9307 ;;		_main
  9308 ;;		_display_time
  9309 ;;		_dashboard
  9310 ;;		_login
  9311 ;;		_menu
  9312 ;;		_view_log
  9313 ;;		_clear_log
  9314 ;;		_download_log
  9315 ;;		_set_time
  9316 ;;		_change_password
  9317 ;; This function uses a non-reentrant model
  9318 ;;
  9319                           
  9320     133D                     _clcd_print:	
  9321                           ;psect for function _clcd_print
  9322                           
  9323     133D                     l2580:	
  9324                           ;incstack = 0
  9325                           ; Regs used in _clcd_print: [wreg-fsr0h+status,2+status,0+pclath+btemp1+cstack]
  9326                           
  9327                           
  9328                           ;clcd.c: 62: void clcd_print(const char *str, unsigned char addr);clcd.c: 63: {;clcd.c: 
      +                          64:     clcd_write(addr, 0);
  9329     133D  01F0               	clrf	clcd_write@mode
  9330     133E  0876               	movf	clcd_print@addr,w
  9331     133F  160A  118A  23CE  160A  118A  	fcall	_clcd_write
  9332                           
  9333                           ;clcd.c: 66:     while (*str != '\0')
  9334     1344  2B5B               	goto	l2586
  9335     1345                     l2582:
  9336                           
  9337                           ;clcd.c: 67:     {;clcd.c: 68:         clcd_write(*str, 1);
  9338     1345  01F0               	clrf	clcd_write@mode
  9339     1346  0AF0               	incf	clcd_write@mode,f
  9340     1347  0875               	movf	clcd_print@str+1,w
  9341     1348  00FF               	movwf	btemp1
  9342     1349  0874               	movf	clcd_print@str,w
  9343     134A  0084               	movwf	4
  9344     134B  160A  118A  2000  160A  118A  	fcall	stringtab
  9345     1350  160A  118A  23CE  160A  118A  	fcall	_clcd_write
  9346     1355                     l2584:
  9347                           
  9348                           ;clcd.c: 69:         str++;
  9349     1355  3001               	movlw	1
  9350     1356  07F4               	addwf	clcd_print@str,f
  9351     1357  1803               	skipnc
  9352     1358  0AF5               	incf	clcd_print@str+1,f
  9353     1359  3000               	movlw	0
  9354     135A  07F5               	addwf	clcd_print@str+1,f
  9355     135B                     l2586:
  9356                           
  9357                           ;clcd.c: 66:     while (*str != '\0')
  9358     135B  0875               	movf	clcd_print@str+1,w
  9359     135C  1283               	bcf	3,5	;RP0=0, select bank0
  9360     135D  1303               	bcf	3,6	;RP1=0, select bank0
  9361     135E  00FF               	movwf	btemp1
  9362     135F  0874               	movf	clcd_print@str,w
  9363     1360  0084               	movwf	4
  9364     1361  160A  118A  2000  160A  118A  	fcall	stringtab
  9365     1366  3A00               	xorlw	0
  9366     1367  1D03               	skipz
  9367     1368  2B6A               	goto	u2211
  9368     1369  2B6B               	goto	u2210
  9369     136A                     u2211:
  9370     136A  2B45               	goto	l2582
  9371     136B                     u2210:
  9372     136B                     l100:
  9373     136B  0008               	return
  9374     136C                     __end_of_clcd_print:
  9375                           
  9376                           	psect	text42
  9377     13CE                     __ptext42:	
  9378 ;; *************** function _clcd_write *****************
  9379 ;; Defined at:
  9380 ;;		line 4 in file "clcd.c"
  9381 ;; Parameters:    Size  Location     Type
  9382 ;;  byte            1    wreg     unsigned char 
  9383 ;;  mode            1    0[COMMON] unsigned char 
  9384 ;; Auto vars:     Size  Location     Type
  9385 ;;  byte            1    3[COMMON] unsigned char 
  9386 ;; Return value:  Size  Location     Type
  9387 ;;                  1    wreg      void 
  9388 ;; Registers used:
  9389 ;;		wreg, status,2, status,0
  9390 ;; Tracked objects:
  9391 ;;		On entry : 0/0
  9392 ;;		On exit  : 0/0
  9393 ;;		Unchanged: 0/0
  9394 ;; Data sizes:     COMMON   BANK0   BANK1   BANK3   BANK2
  9395 ;;      Params:         1       0       0       0       0
  9396 ;;      Locals:         1       0       0       0       0
  9397 ;;      Temps:          2       0       0       0       0
  9398 ;;      Totals:         4       0       0       0       0
  9399 ;;Total ram usage:        4 bytes
  9400 ;; Hardware stack levels used: 1
  9401 ;; This function calls:
  9402 ;;		Nothing
  9403 ;; This function is called by:
  9404 ;;		_init_display_controller
  9405 ;;		_clcd_putch
  9406 ;;		_clcd_print
  9407 ;; This function uses a non-reentrant model
  9408 ;;
  9409                           
  9410     13CE                     _clcd_write:	
  9411                           ;psect for function _clcd_write
  9412                           
  9413                           
  9414                           ;incstack = 0
  9415                           ; Regs used in _clcd_write: [wreg+status,2+status,0]
  9416                           ;clcd_write@byte stored from wreg
  9417     13CE  00F3               	movwf	clcd_write@byte
  9418     13CF                     l2550:
  9419                           
  9420                           ;clcd.c: 4: static void clcd_write(unsigned char byte, unsigned char mode);clcd.c: 5: {;
      +                          clcd.c: 6:     RE2 = mode;
  9421     13CF  1870               	btfsc	clcd_write@mode,0
  9422     13D0  2BD2               	goto	u2171
  9423     13D1  2BD6               	goto	u2170
  9424     13D2                     u2171:
  9425     13D2  1283               	bcf	3,5	;RP0=0, select bank0
  9426     13D3  1303               	bcf	3,6	;RP1=0, select bank0
  9427     13D4  1509               	bsf	9,2	;volatile
  9428     13D5  2BD9               	goto	u2184
  9429     13D6                     u2170:
  9430     13D6  1283               	bcf	3,5	;RP0=0, select bank0
  9431     13D7  1303               	bcf	3,6	;RP1=0, select bank0
  9432     13D8  1109               	bcf	9,2	;volatile
  9433     13D9                     u2184:
  9434     13D9                     l2552:
  9435                           
  9436                           ;clcd.c: 8:     PORTD = byte & 0xF0;
  9437     13D9  0873               	movf	clcd_write@byte,w
  9438     13DA  39F0               	andlw	240
  9439     13DB  0088               	movwf	8	;volatile
  9440     13DC                     l2554:
  9441                           
  9442                           ;clcd.c: 9:     RE1 = 1;
  9443     13DC  1489               	bsf	9,1	;volatile
  9444     13DD                     l2556:
  9445                           
  9446                           ;clcd.c: 10:     _delay((unsigned long)((100)*(20000000/4000000.0)));
  9447     13DD  30A6               	movlw	166
  9448     13DE  00F1               	movwf	??_clcd_write
  9449     13DF                     u4407:
  9450     13DF  0BF1               	decfsz	??_clcd_write,f
  9451     13E0  2BDF               	goto	u4407
  9452     13E1  0000               	nop
  9453     13E2                     l2558:
  9454                           
  9455                           ;clcd.c: 11:     RE1 = 0;
  9456     13E2  1283               	bcf	3,5	;RP0=0, select bank0
  9457     13E3  1303               	bcf	3,6	;RP1=0, select bank0
  9458     13E4  1089               	bcf	9,1	;volatile
  9459     13E5                     l2560:
  9460                           
  9461                           ;clcd.c: 13:     PORTD = (byte & 0x0F) << 4;
  9462     13E5  0873               	movf	clcd_write@byte,w
  9463     13E6  390F               	andlw	15
  9464     13E7  00F1               	movwf	??_clcd_write
  9465     13E8  3003               	movlw	3
  9466     13E9                     u2195:
  9467     13E9  1003               	clrc
  9468     13EA  0DF1               	rlf	??_clcd_write,f
  9469     13EB  3EFF               	addlw	-1
  9470     13EC  1D03               	skipz
  9471     13ED  2BE9               	goto	u2195
  9472     13EE  1003               	clrc
  9473     13EF  0D71               	rlf	??_clcd_write,w
  9474     13F0  0088               	movwf	8	;volatile
  9475     13F1                     l2562:
  9476                           
  9477                           ;clcd.c: 14:     RE1 = 1;
  9478     13F1  1489               	bsf	9,1	;volatile
  9479     13F2                     l2564:
  9480                           
  9481                           ;clcd.c: 15:     _delay((unsigned long)((100)*(20000000/4000000.0)));
  9482     13F2  30A6               	movlw	166
  9483     13F3  00F1               	movwf	??_clcd_write
  9484     13F4                     u4417:
  9485     13F4  0BF1               	decfsz	??_clcd_write,f
  9486     13F5  2BF4               	goto	u4417
  9487     13F6  0000               	nop
  9488     13F7                     l2566:
  9489                           
  9490                           ;clcd.c: 16:     RE1 = 0;
  9491     13F7  1283               	bcf	3,5	;RP0=0, select bank0
  9492     13F8  1303               	bcf	3,6	;RP1=0, select bank0
  9493     13F9  1089               	bcf	9,1	;volatile
  9494     13FA                     l2568:
  9495                           
  9496                           ;clcd.c: 18:     _delay((unsigned long)((4100)*(20000000/4000000.0)));
  9497     13FA  301B               	movlw	27
  9498     13FB  00F2               	movwf	??_clcd_write+1
  9499     13FC  309E               	movlw	158
  9500     13FD  00F1               	movwf	??_clcd_write
  9501     13FE                     u4427:
  9502     13FE  0BF1               	decfsz	??_clcd_write,f
  9503     13FF  2BFE               	goto	u4427
  9504     1400  0BF2               	decfsz	??_clcd_write+1,f
  9505     1401  2BFE               	goto	u4427
  9506     1402  0000               	nop
  9507     1403                     l85:
  9508     1403  0008               	return
  9509     1404                     __end_of_clcd_write:
  9510                           
  9511                           	psect	text43
  9512     0A42                     __ptext43:	
  9513 ;; *************** function ___xxtofl *****************
  9514 ;; Defined at:
  9515 ;;		line 10 in file "C:\Program Files\Microchip\xc8\v3.10\pic\sources\c99\common\xxtofl.c"
  9516 ;; Parameters:    Size  Location     Type
  9517 ;;  sign            1    wreg     unsigned char 
  9518 ;;  val             4    6[COMMON] long 
  9519 ;; Auto vars:     Size  Location     Type
  9520 ;;  sign            1    0[BANK0 ] unsigned char 
  9521 ;;  arg             4    2[BANK0 ] unsigned long 
  9522 ;;  exp             1    1[BANK0 ] unsigned char 
  9523 ;; Return value:  Size  Location     Type
  9524 ;;                  4    6[COMMON] unsigned char 
  9525 ;; Registers used:
  9526 ;;		wreg, status,2, status,0
  9527 ;; Tracked objects:
  9528 ;;		On entry : 0/0
  9529 ;;		On exit  : 0/0
  9530 ;;		Unchanged: 0/0
  9531 ;; Data sizes:     COMMON   BANK0   BANK1   BANK3   BANK2
  9532 ;;      Params:         4       0       0       0       0
  9533 ;;      Locals:         0       6       0       0       0
  9534 ;;      Temps:          4       0       0       0       0
  9535 ;;      Totals:         8       6       0       0       0
  9536 ;;Total ram usage:       14 bytes
  9537 ;; Hardware stack levels used: 1
  9538 ;; This function calls:
  9539 ;;		Nothing
  9540 ;; This function is called by:
  9541 ;;		_dashboard
  9542 ;; This function uses a non-reentrant model
  9543 ;;
  9544                           
  9545     0A42                     ___xxtofl:	
  9546                           ;psect for function ___xxtofl
  9547                           
  9548                           
  9549                           ;incstack = 0
  9550                           ; Regs used in ___xxtofl: [wreg+status,2+status,0]
  9551                           ;___xxtofl@sign stored from wreg
  9552     0A42  1283               	bcf	3,5	;RP0=0, select bank0
  9553     0A43  1303               	bcf	3,6	;RP1=0, select bank0
  9554     0A44  00A0               	movwf	___xxtofl@sign
  9555     0A45                     l3534:
  9556     0A45  0820               	movf	___xxtofl@sign,w
  9557     0A46  1903               	btfsc	3,2
  9558     0A47  2A49               	goto	u3711
  9559     0A48  2A4A               	goto	u3710
  9560     0A49                     u3711:
  9561     0A49  2A5E               	goto	l3540
  9562     0A4A                     u3710:
  9563     0A4A                     l3536:
  9564     0A4A  1FF9               	btfss	___xxtofl@val+3,7
  9565     0A4B  2A4D               	goto	u3721
  9566     0A4C  2A4E               	goto	u3720
  9567     0A4D                     u3721:
  9568     0A4D  2A5E               	goto	l3540
  9569     0A4E                     u3720:
  9570     0A4E                     l3538:
  9571     0A4E  0976               	comf	___xxtofl@val,w
  9572     0A4F  00A2               	movwf	___xxtofl@arg
  9573     0A50  0977               	comf	___xxtofl@val+1,w
  9574     0A51  00A3               	movwf	___xxtofl@arg+1
  9575     0A52  0978               	comf	___xxtofl@val+2,w
  9576     0A53  00A4               	movwf	___xxtofl@arg+2
  9577     0A54  0979               	comf	___xxtofl@val+3,w
  9578     0A55  00A5               	movwf	___xxtofl@arg+3
  9579     0A56  0AA2               	incf	___xxtofl@arg,f
  9580     0A57  1903               	skipnz
  9581     0A58  0AA3               	incf	___xxtofl@arg+1,f
  9582     0A59  1903               	skipnz
  9583     0A5A  0AA4               	incf	___xxtofl@arg+2,f
  9584     0A5B  1903               	skipnz
  9585     0A5C  0AA5               	incf	___xxtofl@arg+3,f
  9586     0A5D  2A66               	goto	l1083
  9587     0A5E                     l3540:
  9588     0A5E  0879               	movf	___xxtofl@val+3,w
  9589     0A5F  00A5               	movwf	___xxtofl@arg+3
  9590     0A60  0878               	movf	___xxtofl@val+2,w
  9591     0A61  00A4               	movwf	___xxtofl@arg+2
  9592     0A62  0877               	movf	___xxtofl@val+1,w
  9593     0A63  00A3               	movwf	___xxtofl@arg+1
  9594     0A64  0876               	movf	___xxtofl@val,w
  9595     0A65  00A2               	movwf	___xxtofl@arg
  9596     0A66                     l1083:
  9597     0A66  0879               	movf	___xxtofl@val+3,w
  9598     0A67  0478               	iorwf	___xxtofl@val+2,w
  9599     0A68  0477               	iorwf	___xxtofl@val+1,w
  9600     0A69  0476               	iorwf	___xxtofl@val,w
  9601     0A6A  1D03               	skipz
  9602     0A6B  2A6D               	goto	u3731
  9603     0A6C  2A6E               	goto	u3730
  9604     0A6D                     u3731:
  9605     0A6D  2A77               	goto	l1084
  9606     0A6E                     u3730:
  9607     0A6E                     l3542:
  9608     0A6E  3000               	movlw	0
  9609     0A6F  00F9               	movwf	?___xxtofl+3
  9610     0A70  3000               	movlw	0
  9611     0A71  00F8               	movwf	?___xxtofl+2
  9612     0A72  3000               	movlw	0
  9613     0A73  00F7               	movwf	?___xxtofl+1
  9614     0A74  3000               	movlw	0
  9615     0A75  00F6               	movwf	?___xxtofl
  9616     0A76  2AF7               	goto	l1085
  9617     0A77                     l1084:
  9618     0A77  3096               	movlw	150
  9619     0A78  00A1               	movwf	___xxtofl@exp
  9620     0A79  2A85               	goto	l3548
  9621     0A7A                     l3546:
  9622     0A7A  3001               	movlw	1
  9623     0A7B  07A1               	addwf	___xxtofl@exp,f
  9624     0A7C  3001               	movlw	1
  9625     0A7D                     u3745:
  9626     0A7D  1003               	clrc
  9627     0A7E  0CA5               	rrf	___xxtofl@arg+3,f
  9628     0A7F  0CA4               	rrf	___xxtofl@arg+2,f
  9629     0A80  0CA3               	rrf	___xxtofl@arg+1,f
  9630     0A81  0CA2               	rrf	___xxtofl@arg,f
  9631     0A82  3EFF               	addlw	-1
  9632     0A83  1D03               	skipz
  9633     0A84  2A7D               	goto	u3745
  9634     0A85                     l3548:
  9635     0A85  30FE               	movlw	254
  9636     0A86  0525               	andwf	___xxtofl@arg+3,w
  9637     0A87  1D03               	btfss	3,2
  9638     0A88  2A8A               	goto	u3751
  9639     0A89  2A8B               	goto	u3750
  9640     0A8A                     u3751:
  9641     0A8A  2A7A               	goto	l3546
  9642     0A8B                     u3750:
  9643     0A8B  2AA5               	goto	l1089
  9644     0A8C                     l3550:
  9645     0A8C  3001               	movlw	1
  9646     0A8D  07A1               	addwf	___xxtofl@exp,f
  9647     0A8E                     l3552:
  9648     0A8E  3001               	movlw	1
  9649     0A8F  07A2               	addwf	___xxtofl@arg,f
  9650     0A90  3000               	movlw	0
  9651     0A91  1803               	skipnc
  9652     0A92  3001               	movlw	1
  9653     0A93  07A3               	addwf	___xxtofl@arg+1,f
  9654     0A94  3000               	movlw	0
  9655     0A95  1803               	skipnc
  9656     0A96  3001               	movlw	1
  9657     0A97  07A4               	addwf	___xxtofl@arg+2,f
  9658     0A98  3000               	movlw	0
  9659     0A99  1803               	skipnc
  9660     0A9A  3001               	movlw	1
  9661     0A9B  07A5               	addwf	___xxtofl@arg+3,f
  9662     0A9C                     l3554:
  9663     0A9C  3001               	movlw	1
  9664     0A9D                     u3765:
  9665     0A9D  1003               	clrc
  9666     0A9E  0CA5               	rrf	___xxtofl@arg+3,f
  9667     0A9F  0CA4               	rrf	___xxtofl@arg+2,f
  9668     0AA0  0CA3               	rrf	___xxtofl@arg+1,f
  9669     0AA1  0CA2               	rrf	___xxtofl@arg,f
  9670     0AA2  3EFF               	addlw	-1
  9671     0AA3  1D03               	skipz
  9672     0AA4  2A9D               	goto	u3765
  9673     0AA5                     l1089:
  9674     0AA5  30FF               	movlw	255
  9675     0AA6  0525               	andwf	___xxtofl@arg+3,w
  9676     0AA7  1D03               	btfss	3,2
  9677     0AA8  2AAA               	goto	u3771
  9678     0AA9  2AAB               	goto	u3770
  9679     0AAA                     u3771:
  9680     0AAA  2A8C               	goto	l3550
  9681     0AAB                     u3770:
  9682     0AAB  2AB7               	goto	l3558
  9683     0AAC                     l3556:
  9684     0AAC  3001               	movlw	1
  9685     0AAD  02A1               	subwf	___xxtofl@exp,f
  9686     0AAE  3001               	movlw	1
  9687     0AAF  00FA               	movwf	??___xxtofl
  9688     0AB0                     u3785:
  9689     0AB0  1003               	clrc
  9690     0AB1  0DA2               	rlf	___xxtofl@arg,f
  9691     0AB2  0DA3               	rlf	___xxtofl@arg+1,f
  9692     0AB3  0DA4               	rlf	___xxtofl@arg+2,f
  9693     0AB4  0DA5               	rlf	___xxtofl@arg+3,f
  9694     0AB5  0BFA               	decfsz	??___xxtofl,f
  9695     0AB6  2AB0               	goto	u3785
  9696     0AB7                     l3558:
  9697     0AB7  1BA4               	btfsc	___xxtofl@arg+2,7
  9698     0AB8  2ABA               	goto	u3791
  9699     0AB9  2ABB               	goto	u3790
  9700     0ABA                     u3791:
  9701     0ABA  2AC1               	goto	l1096
  9702     0ABB                     u3790:
  9703     0ABB                     l3560:
  9704     0ABB  3002               	movlw	2
  9705     0ABC  0221               	subwf	___xxtofl@exp,w
  9706     0ABD  1803               	skipnc
  9707     0ABE  2AC0               	goto	u3801
  9708     0ABF  2AC1               	goto	u3800
  9709     0AC0                     u3801:
  9710     0AC0  2AAC               	goto	l3556
  9711     0AC1                     u3800:
  9712     0AC1                     l1096:
  9713     0AC1  1821               	btfsc	___xxtofl@exp,0
  9714     0AC2  2AC4               	goto	u3811
  9715     0AC3  2AC5               	goto	u3810
  9716     0AC4                     u3811:
  9717     0AC4  2ACD               	goto	l1097
  9718     0AC5                     u3810:
  9719     0AC5                     l3562:
  9720     0AC5  30FF               	movlw	255
  9721     0AC6  05A2               	andwf	___xxtofl@arg,f
  9722     0AC7  30FF               	movlw	255
  9723     0AC8  05A3               	andwf	___xxtofl@arg+1,f
  9724     0AC9  307F               	movlw	127
  9725     0ACA  05A4               	andwf	___xxtofl@arg+2,f
  9726     0ACB  30FF               	movlw	255
  9727     0ACC  05A5               	andwf	___xxtofl@arg+3,f
  9728     0ACD                     l1097:
  9729     0ACD  1003               	clrc
  9730     0ACE  0CA1               	rrf	___xxtofl@exp,f
  9731     0ACF                     l3564:
  9732     0ACF  0821               	movf	___xxtofl@exp,w
  9733     0AD0  00FA               	movwf	??___xxtofl
  9734     0AD1  01FB               	clrf	??___xxtofl+1
  9735     0AD2  01FC               	clrf	??___xxtofl+2
  9736     0AD3  01FD               	clrf	??___xxtofl+3
  9737     0AD4  3018               	movlw	24
  9738     0AD5                     u3825:
  9739     0AD5  1003               	clrc
  9740     0AD6  0DFA               	rlf	??___xxtofl,f
  9741     0AD7  0DFB               	rlf	??___xxtofl+1,f
  9742     0AD8  0DFC               	rlf	??___xxtofl+2,f
  9743     0AD9  0DFD               	rlf	??___xxtofl+3,f
  9744     0ADA                     u3820:
  9745     0ADA  3EFF               	addlw	-1
  9746     0ADB  1D03               	skipz
  9747     0ADC  2AD5               	goto	u3825
  9748     0ADD  087A               	movf	??___xxtofl,w
  9749     0ADE  04A2               	iorwf	___xxtofl@arg,f
  9750     0ADF  087B               	movf	??___xxtofl+1,w
  9751     0AE0  04A3               	iorwf	___xxtofl@arg+1,f
  9752     0AE1  087C               	movf	??___xxtofl+2,w
  9753     0AE2  04A4               	iorwf	___xxtofl@arg+2,f
  9754     0AE3  087D               	movf	??___xxtofl+3,w
  9755     0AE4  04A5               	iorwf	___xxtofl@arg+3,f
  9756     0AE5                     l3566:
  9757     0AE5  0820               	movf	___xxtofl@sign,w
  9758     0AE6  1903               	btfsc	3,2
  9759     0AE7  2AE9               	goto	u3831
  9760     0AE8  2AEA               	goto	u3830
  9761     0AE9                     u3831:
  9762     0AE9  2AEF               	goto	l3572
  9763     0AEA                     u3830:
  9764     0AEA                     l3568:
  9765     0AEA  1FF9               	btfss	___xxtofl@val+3,7
  9766     0AEB  2AED               	goto	u3841
  9767     0AEC  2AEE               	goto	u3840
  9768     0AED                     u3841:
  9769     0AED  2AEF               	goto	l3572
  9770     0AEE                     u3840:
  9771     0AEE                     l3570:
  9772     0AEE  17A5               	bsf	___xxtofl@arg+3,7
  9773     0AEF                     l3572:
  9774     0AEF  0825               	movf	___xxtofl@arg+3,w
  9775     0AF0  00F9               	movwf	?___xxtofl+3
  9776     0AF1  0824               	movf	___xxtofl@arg+2,w
  9777     0AF2  00F8               	movwf	?___xxtofl+2
  9778     0AF3  0823               	movf	___xxtofl@arg+1,w
  9779     0AF4  00F7               	movwf	?___xxtofl+1
  9780     0AF5  0822               	movf	___xxtofl@arg,w
  9781     0AF6  00F6               	movwf	?___xxtofl
  9782     0AF7                     l1085:
  9783     0AF7  0008               	return
  9784     0AF8                     __end_of___xxtofl:
  9785                           
  9786                           	psect	text44
  9787     0A0A                     __ptext44:	
  9788 ;; *************** function ___lwmod *****************
  9789 ;; Defined at:
  9790 ;;		line 5 in file "C:\Program Files\Microchip\xc8\v3.10\pic\sources\c99\common\lwmod.c"
  9791 ;; Parameters:    Size  Location     Type
  9792 ;;  divisor         2    0[COMMON] unsigned int 
  9793 ;;  dividend        2    2[COMMON] unsigned int 
  9794 ;; Auto vars:     Size  Location     Type
  9795 ;;  counter         1    4[COMMON] unsigned char 
  9796 ;; Return value:  Size  Location     Type
  9797 ;;                  2    0[COMMON] unsigned int 
  9798 ;; Registers used:
  9799 ;;		wreg, status,2, status,0
  9800 ;; Tracked objects:
  9801 ;;		On entry : 0/0
  9802 ;;		On exit  : 0/0
  9803 ;;		Unchanged: 0/0
  9804 ;; Data sizes:     COMMON   BANK0   BANK1   BANK3   BANK2
  9805 ;;      Params:         4       0       0       0       0
  9806 ;;      Locals:         1       0       0       0       0
  9807 ;;      Temps:          0       0       0       0       0
  9808 ;;      Totals:         5       0       0       0       0
  9809 ;;Total ram usage:        5 bytes
  9810 ;; Hardware stack levels used: 1
  9811 ;; This function calls:
  9812 ;;		Nothing
  9813 ;; This function is called by:
  9814 ;;		_dashboard
  9815 ;; This function uses a non-reentrant model
  9816 ;;
  9817                           
  9818     0A0A                     ___lwmod:	
  9819                           ;psect for function ___lwmod
  9820                           
  9821     0A0A                     l3368:	
  9822                           ;incstack = 0
  9823                           ; Regs used in ___lwmod: [wreg+status,2+status,0]
  9824                           
  9825     0A0A  0870               	movf	___lwmod@divisor,w
  9826     0A0B  0471               	iorwf	___lwmod@divisor+1,w
  9827     0A0C  1903               	btfsc	3,2
  9828     0A0D  2A0F               	goto	u3361
  9829     0A0E  2A10               	goto	u3360
  9830     0A0F                     u3361:
  9831     0A0F  2A3D               	goto	l3386
  9832     0A10                     u3360:
  9833     0A10                     l3370:
  9834     0A10  3001               	movlw	1
  9835     0A11  00F4               	movwf	___lwmod@counter
  9836     0A12  2A1C               	goto	l3376
  9837     0A13                     l3372:
  9838     0A13  3001               	movlw	1
  9839     0A14                     u3375:
  9840     0A14  1003               	clrc
  9841     0A15  0DF0               	rlf	___lwmod@divisor,f
  9842     0A16  0DF1               	rlf	___lwmod@divisor+1,f
  9843     0A17  3EFF               	addlw	-1
  9844     0A18  1D03               	skipz
  9845     0A19  2A14               	goto	u3375
  9846     0A1A                     l3374:
  9847     0A1A  3001               	movlw	1
  9848     0A1B  07F4               	addwf	___lwmod@counter,f
  9849     0A1C                     l3376:
  9850     0A1C  1FF1               	btfss	___lwmod@divisor+1,7
  9851     0A1D  2A1F               	goto	u3381
  9852     0A1E  2A20               	goto	u3380
  9853     0A1F                     u3381:
  9854     0A1F  2A13               	goto	l3372
  9855     0A20                     u3380:
  9856     0A20                     l3378:
  9857     0A20  0871               	movf	___lwmod@divisor+1,w
  9858     0A21  0273               	subwf	___lwmod@dividend+1,w
  9859     0A22  1D03               	skipz
  9860     0A23  2A26               	goto	u3395
  9861     0A24  0870               	movf	___lwmod@divisor,w
  9862     0A25  0272               	subwf	___lwmod@dividend,w
  9863     0A26                     u3395:
  9864     0A26  1C03               	skipc
  9865     0A27  2A29               	goto	u3391
  9866     0A28  2A2A               	goto	u3390
  9867     0A29                     u3391:
  9868     0A29  2A30               	goto	l3382
  9869     0A2A                     u3390:
  9870     0A2A                     l3380:
  9871     0A2A  0870               	movf	___lwmod@divisor,w
  9872     0A2B  02F2               	subwf	___lwmod@dividend,f
  9873     0A2C  0871               	movf	___lwmod@divisor+1,w
  9874     0A2D  1C03               	skipc
  9875     0A2E  03F3               	decf	___lwmod@dividend+1,f
  9876     0A2F  02F3               	subwf	___lwmod@dividend+1,f
  9877     0A30                     l3382:
  9878     0A30  3001               	movlw	1
  9879     0A31                     u3405:
  9880     0A31  1003               	clrc
  9881     0A32  0CF1               	rrf	___lwmod@divisor+1,f
  9882     0A33  0CF0               	rrf	___lwmod@divisor,f
  9883     0A34  3EFF               	addlw	-1
  9884     0A35  1D03               	skipz
  9885     0A36  2A31               	goto	u3405
  9886     0A37                     l3384:
  9887     0A37  3001               	movlw	1
  9888     0A38  02F4               	subwf	___lwmod@counter,f
  9889     0A39  1D03               	btfss	3,2
  9890     0A3A  2A3C               	goto	u3411
  9891     0A3B  2A3D               	goto	u3410
  9892     0A3C                     u3411:
  9893     0A3C  2A20               	goto	l3378
  9894     0A3D                     u3410:
  9895     0A3D                     l3386:
  9896     0A3D  0873               	movf	___lwmod@dividend+1,w
  9897     0A3E  00F1               	movwf	?___lwmod+1
  9898     0A3F  0872               	movf	___lwmod@dividend,w
  9899     0A40  00F0               	movwf	?___lwmod
  9900     0A41                     l932:
  9901     0A41  0008               	return
  9902     0A42                     __end_of___lwmod:
  9903                           
  9904                           	psect	text45
  9905     1404                     __ptext45:	
  9906 ;; *************** function ___lwdiv *****************
  9907 ;; Defined at:
  9908 ;;		line 5 in file "C:\Program Files\Microchip\xc8\v3.10\pic\sources\c99\common\lwdiv.c"
  9909 ;; Parameters:    Size  Location     Type
  9910 ;;  divisor         2    0[COMMON] unsigned int 
  9911 ;;  dividend        2    2[COMMON] unsigned int 
  9912 ;; Auto vars:     Size  Location     Type
  9913 ;;  quotient        2    4[COMMON] unsigned int 
  9914 ;;  counter         1    6[COMMON] unsigned char 
  9915 ;; Return value:  Size  Location     Type
  9916 ;;                  2    0[COMMON] unsigned int 
  9917 ;; Registers used:
  9918 ;;		wreg, status,2, status,0
  9919 ;; Tracked objects:
  9920 ;;		On entry : 0/0
  9921 ;;		On exit  : 0/0
  9922 ;;		Unchanged: 0/0
  9923 ;; Data sizes:     COMMON   BANK0   BANK1   BANK3   BANK2
  9924 ;;      Params:         4       0       0       0       0
  9925 ;;      Locals:         3       0       0       0       0
  9926 ;;      Temps:          0       0       0       0       0
  9927 ;;      Totals:         7       0       0       0       0
  9928 ;;Total ram usage:        7 bytes
  9929 ;; Hardware stack levels used: 1
  9930 ;; This function calls:
  9931 ;;		Nothing
  9932 ;; This function is called by:
  9933 ;;		_dashboard
  9934 ;; This function uses a non-reentrant model
  9935 ;;
  9936                           
  9937     1404                     ___lwdiv:	
  9938                           ;psect for function ___lwdiv
  9939                           
  9940     1404                     l3342:	
  9941                           ;incstack = 0
  9942                           ; Regs used in ___lwdiv: [wreg+status,2+status,0]
  9943                           
  9944     1404  01F4               	clrf	___lwdiv@quotient
  9945     1405  01F5               	clrf	___lwdiv@quotient+1
  9946     1406                     l3344:
  9947     1406  0870               	movf	___lwdiv@divisor,w
  9948     1407  0471               	iorwf	___lwdiv@divisor+1,w
  9949     1408  1903               	btfsc	3,2
  9950     1409  2C0B               	goto	u3291
  9951     140A  2C0C               	goto	u3290
  9952     140B                     u3291:
  9953     140B  2C41               	goto	l3364
  9954     140C                     u3290:
  9955     140C                     l3346:
  9956     140C  3001               	movlw	1
  9957     140D  00F6               	movwf	___lwdiv@counter
  9958     140E  2C18               	goto	l3352
  9959     140F                     l3348:
  9960     140F  3001               	movlw	1
  9961     1410                     u3305:
  9962     1410  1003               	clrc
  9963     1411  0DF0               	rlf	___lwdiv@divisor,f
  9964     1412  0DF1               	rlf	___lwdiv@divisor+1,f
  9965     1413  3EFF               	addlw	-1
  9966     1414  1D03               	skipz
  9967     1415  2C10               	goto	u3305
  9968     1416                     l3350:
  9969     1416  3001               	movlw	1
  9970     1417  07F6               	addwf	___lwdiv@counter,f
  9971     1418                     l3352:
  9972     1418  1FF1               	btfss	___lwdiv@divisor+1,7
  9973     1419  2C1B               	goto	u3311
  9974     141A  2C1C               	goto	u3310
  9975     141B                     u3311:
  9976     141B  2C0F               	goto	l3348
  9977     141C                     u3310:
  9978     141C                     l3354:
  9979     141C  3001               	movlw	1
  9980     141D                     u3325:
  9981     141D  1003               	clrc
  9982     141E  0DF4               	rlf	___lwdiv@quotient,f
  9983     141F  0DF5               	rlf	___lwdiv@quotient+1,f
  9984     1420  3EFF               	addlw	-1
  9985     1421  1D03               	skipz
  9986     1422  2C1D               	goto	u3325
  9987     1423  0871               	movf	___lwdiv@divisor+1,w
  9988     1424  0273               	subwf	___lwdiv@dividend+1,w
  9989     1425  1D03               	skipz
  9990     1426  2C29               	goto	u3335
  9991     1427  0870               	movf	___lwdiv@divisor,w
  9992     1428  0272               	subwf	___lwdiv@dividend,w
  9993     1429                     u3335:
  9994     1429  1C03               	skipc
  9995     142A  2C2C               	goto	u3331
  9996     142B  2C2D               	goto	u3330
  9997     142C                     u3331:
  9998     142C  2C34               	goto	l3360
  9999     142D                     u3330:
 10000     142D                     l3356:
 10001     142D  0870               	movf	___lwdiv@divisor,w
 10002     142E  02F2               	subwf	___lwdiv@dividend,f
 10003     142F  0871               	movf	___lwdiv@divisor+1,w
 10004     1430  1C03               	skipc
 10005     1431  03F3               	decf	___lwdiv@dividend+1,f
 10006     1432  02F3               	subwf	___lwdiv@dividend+1,f
 10007     1433                     l3358:
 10008     1433  1474               	bsf	___lwdiv@quotient,0
 10009     1434                     l3360:
 10010     1434  3001               	movlw	1
 10011     1435                     u3345:
 10012     1435  1003               	clrc
 10013     1436  0CF1               	rrf	___lwdiv@divisor+1,f
 10014     1437  0CF0               	rrf	___lwdiv@divisor,f
 10015     1438  3EFF               	addlw	-1
 10016     1439  1D03               	skipz
 10017     143A  2C35               	goto	u3345
 10018     143B                     l3362:
 10019     143B  3001               	movlw	1
 10020     143C  02F6               	subwf	___lwdiv@counter,f
 10021     143D  1D03               	btfss	3,2
 10022     143E  2C40               	goto	u3351
 10023     143F  2C41               	goto	u3350
 10024     1440                     u3351:
 10025     1440  2C1C               	goto	l3354
 10026     1441                     u3350:
 10027     1441                     l3364:
 10028     1441  0875               	movf	___lwdiv@quotient+1,w
 10029     1442  00F1               	movwf	?___lwdiv+1
 10030     1443  0874               	movf	___lwdiv@quotient,w
 10031     1444  00F0               	movwf	?___lwdiv
 10032     1445                     l922:
 10033     1445  0008               	return
 10034     1446                     __end_of___lwdiv:
 10035                           
 10036                           	psect	text46
 10037     16D7                     __ptext46:	
 10038 ;; *************** function ___fltol *****************
 10039 ;; Defined at:
 10040 ;;		line 43 in file "C:\Program Files\Microchip\xc8\v3.10\pic\sources\c99\common\fltol.c"
 10041 ;; Parameters:    Size  Location     Type
 10042 ;;  f1              4   32[BANK0 ] unsigned int 
 10043 ;; Auto vars:     Size  Location     Type
 10044 ;;  exp1            1   41[BANK0 ] unsigned char 
 10045 ;;  sign1           1   40[BANK0 ] unsigned char 
 10046 ;; Return value:  Size  Location     Type
 10047 ;;                  4   32[BANK0 ] long 
 10048 ;; Registers used:
 10049 ;;		wreg, status,2, status,0
 10050 ;; Tracked objects:
 10051 ;;		On entry : 0/0
 10052 ;;		On exit  : 0/0
 10053 ;;		Unchanged: 0/0
 10054 ;; Data sizes:     COMMON   BANK0   BANK1   BANK3   BANK2
 10055 ;;      Params:         0       4       0       0       0
 10056 ;;      Locals:         0       2       0       0       0
 10057 ;;      Temps:          0       4       0       0       0
 10058 ;;      Totals:         0      10       0       0       0
 10059 ;;Total ram usage:       10 bytes
 10060 ;; Hardware stack levels used: 1
 10061 ;; This function calls:
 10062 ;;		Nothing
 10063 ;; This function is called by:
 10064 ;;		_dashboard
 10065 ;; This function uses a non-reentrant model
 10066 ;;
 10067                           
 10068     16D7                     ___fltol:	
 10069                           ;psect for function ___fltol
 10070                           
 10071     16D7                     l3306:	
 10072                           ;incstack = 0
 10073                           ; Regs used in ___fltol: [wreg+status,2+status,0]
 10074                           
 10075     16D7  1003               	clrc
 10076     16D8  1283               	bcf	3,5	;RP0=0, select bank0
 10077     16D9  1303               	bcf	3,6	;RP1=0, select bank0
 10078     16DA  0D42               	rlf	___fltol@f1+2,w
 10079     16DB  0D43               	rlf	___fltol@f1+3,w
 10080     16DC  00C9               	movwf	___fltol@exp1
 10081     16DD  0849               	movf	___fltol@exp1,w
 10082     16DE  1D03               	btfss	3,2
 10083     16DF  2EE1               	goto	u3191
 10084     16E0  2EE2               	goto	u3190
 10085     16E1                     u3191:
 10086     16E1  2EEB               	goto	l3312
 10087     16E2                     u3190:
 10088     16E2                     l3308:
 10089     16E2  3000               	movlw	0
 10090     16E3  00C3               	movwf	?___fltol+3
 10091     16E4  3000               	movlw	0
 10092     16E5  00C2               	movwf	?___fltol+2
 10093     16E6  3000               	movlw	0
 10094     16E7  00C1               	movwf	?___fltol+1
 10095     16E8  3000               	movlw	0
 10096     16E9  00C0               	movwf	?___fltol
 10097     16EA  2F4C               	goto	l836
 10098     16EB                     l3312:
 10099     16EB  0840               	movf	___fltol@f1,w
 10100     16EC  00C4               	movwf	??___fltol
 10101     16ED  0841               	movf	___fltol@f1+1,w
 10102     16EE  00C5               	movwf	??___fltol+1
 10103     16EF  0842               	movf	___fltol@f1+2,w
 10104     16F0  00C6               	movwf	??___fltol+2
 10105     16F1  0843               	movf	___fltol@f1+3,w
 10106     16F2  00C7               	movwf	??___fltol+3
 10107     16F3  301F               	movlw	31
 10108     16F4                     u3205:
 10109     16F4  1003               	clrc
 10110     16F5  0CC7               	rrf	??___fltol+3,f
 10111     16F6  0CC6               	rrf	??___fltol+2,f
 10112     16F7  0CC5               	rrf	??___fltol+1,f
 10113     16F8  0CC4               	rrf	??___fltol,f
 10114     16F9                     u3200:
 10115     16F9  3EFF               	addlw	-1
 10116     16FA  1D03               	skipz
 10117     16FB  2EF4               	goto	u3205
 10118     16FC  0844               	movf	??___fltol,w
 10119     16FD  00C8               	movwf	___fltol@sign1
 10120     16FE                     l3314:
 10121     16FE  17C2               	bsf	___fltol@f1+2,7
 10122     16FF                     l3316:
 10123     16FF  30FF               	movlw	255
 10124     1700  05C0               	andwf	___fltol@f1,f
 10125     1701  30FF               	movlw	255
 10126     1702  05C1               	andwf	___fltol@f1+1,f
 10127     1703  30FF               	movlw	255
 10128     1704  05C2               	andwf	___fltol@f1+2,f
 10129     1705  3000               	movlw	0
 10130     1706  05C3               	andwf	___fltol@f1+3,f
 10131     1707                     l3318:
 10132     1707  3096               	movlw	150
 10133     1708  02C9               	subwf	___fltol@exp1,f
 10134     1709                     l3320:
 10135     1709  1FC9               	btfss	___fltol@exp1,7
 10136     170A  2F0C               	goto	u3211
 10137     170B  2F0D               	goto	u3210
 10138     170C                     u3211:
 10139     170C  2F25               	goto	l3330
 10140     170D                     u3210:
 10141     170D                     l3322:
 10142     170D  0849               	movf	___fltol@exp1,w
 10143     170E  3A80               	xorlw	128
 10144     170F  3E97               	addlw	151
 10145     1710  1803               	skipnc
 10146     1711  2F13               	goto	u3221
 10147     1712  2F14               	goto	u3220
 10148     1713                     u3221:
 10149     1713  2F15               	goto	l3328
 10150     1714                     u3220:
 10151     1714  2EE2               	goto	l3308
 10152     1715                     l3328:
 10153     1715  3001               	movlw	1
 10154     1716                     u3235:
 10155     1716  1003               	clrc
 10156     1717  0CC3               	rrf	___fltol@f1+3,f
 10157     1718  0CC2               	rrf	___fltol@f1+2,f
 10158     1719  0CC1               	rrf	___fltol@f1+1,f
 10159     171A  0CC0               	rrf	___fltol@f1,f
 10160     171B  3EFF               	addlw	-1
 10161     171C  1D03               	skipz
 10162     171D  2F16               	goto	u3235
 10163     171E  3001               	movlw	1
 10164     171F  07C9               	addwf	___fltol@exp1,f
 10165     1720  1D03               	btfss	3,2
 10166     1721  2F23               	goto	u3241
 10167     1722  2F24               	goto	u3240
 10168     1723                     u3241:
 10169     1723  2F15               	goto	l3328
 10170     1724                     u3240:
 10171     1724  2F3C               	goto	l3338
 10172     1725                     l3330:
 10173     1725  3020               	movlw	32
 10174     1726  0249               	subwf	___fltol@exp1,w
 10175     1727  1C03               	skipc
 10176     1728  2F2A               	goto	u3251
 10177     1729  2F2B               	goto	u3250
 10178     172A                     u3251:
 10179     172A  2F37               	goto	l843
 10180     172B                     u3250:
 10181     172B  2EE2               	goto	l3308
 10182     172C                     l3336:
 10183     172C  3001               	movlw	1
 10184     172D  00C4               	movwf	??___fltol
 10185     172E                     u3265:
 10186     172E  1003               	clrc
 10187     172F  0DC0               	rlf	___fltol@f1,f
 10188     1730  0DC1               	rlf	___fltol@f1+1,f
 10189     1731  0DC2               	rlf	___fltol@f1+2,f
 10190     1732  0DC3               	rlf	___fltol@f1+3,f
 10191     1733  0BC4               	decfsz	??___fltol,f
 10192     1734  2F2E               	goto	u3265
 10193     1735  3001               	movlw	1
 10194     1736  02C9               	subwf	___fltol@exp1,f
 10195     1737                     l843:
 10196     1737  0849               	movf	___fltol@exp1,w
 10197     1738  1D03               	btfss	3,2
 10198     1739  2F3B               	goto	u3271
 10199     173A  2F3C               	goto	u3270
 10200     173B                     u3271:
 10201     173B  2F2C               	goto	l3336
 10202     173C                     u3270:
 10203     173C                     l3338:
 10204     173C  0848               	movf	___fltol@sign1,w
 10205     173D  1903               	btfsc	3,2
 10206     173E  2F40               	goto	u3281
 10207     173F  2F41               	goto	u3280
 10208     1740                     u3281:
 10209     1740  2F4C               	goto	l846
 10210     1741                     u3280:
 10211     1741                     l3340:
 10212     1741  09C0               	comf	___fltol@f1,f
 10213     1742  09C1               	comf	___fltol@f1+1,f
 10214     1743  09C2               	comf	___fltol@f1+2,f
 10215     1744  09C3               	comf	___fltol@f1+3,f
 10216     1745  0AC0               	incf	___fltol@f1,f
 10217     1746  1903               	skipnz
 10218     1747  0AC1               	incf	___fltol@f1+1,f
 10219     1748  1903               	skipnz
 10220     1749  0AC2               	incf	___fltol@f1+2,f
 10221     174A  1903               	skipnz
 10222     174B  0AC3               	incf	___fltol@f1+3,f
 10223     174C                     l846:
 10224     174C                     l836:
 10225     174C  0008               	return
 10226     174D                     __end_of___fltol:
 10227                           
 10228                           	psect	text47
 10229     0E36                     __ptext47:	
 10230 ;; *************** function ___fldiv *****************
 10231 ;; Defined at:
 10232 ;;		line 8 in file "C:\Program Files\Microchip\xc8\v3.10\pic\sources\c99\common\sprcdiv.c"
 10233 ;; Parameters:    Size  Location     Type
 10234 ;;  a               4    6[BANK0 ] long 
 10235 ;;  b               4   10[BANK0 ] long 
 10236 ;; Auto vars:     Size  Location     Type
 10237 ;;  grs             4   26[BANK0 ] unsigned long 
 10238 ;;  rem             4   19[BANK0 ] unsigned long 
 10239 ;;  new_exp         2   24[BANK0 ] short 
 10240 ;;  aexp            1   31[BANK0 ] unsigned char 
 10241 ;;  bexp            1   30[BANK0 ] unsigned char 
 10242 ;;  sign            1   23[BANK0 ] unsigned char 
 10243 ;; Return value:  Size  Location     Type
 10244 ;;                  4    6[BANK0 ] unsigned char 
 10245 ;; Registers used:
 10246 ;;		wreg, status,2, status,0, btemp1
 10247 ;; Tracked objects:
 10248 ;;		On entry : 0/0
 10249 ;;		On exit  : 0/0
 10250 ;;		Unchanged: 0/0
 10251 ;; Data sizes:     COMMON   BANK0   BANK1   BANK3   BANK2
 10252 ;;      Params:         0       8       0       0       0
 10253 ;;      Locals:         0      13       0       0       0
 10254 ;;      Temps:          0       5       0       0       0
 10255 ;;      Totals:         0      26       0       0       0
 10256 ;;Total ram usage:       26 bytes
 10257 ;; Hardware stack levels used: 1
 10258 ;; This function calls:
 10259 ;;		Nothing
 10260 ;; This function is called by:
 10261 ;;		_dashboard
 10262 ;; This function uses a non-reentrant model
 10263 ;;
 10264                           
 10265     0E36                     ___fldiv:	
 10266                           ;psect for function ___fldiv
 10267                           
 10268     0E36                     l3390:	
 10269                           ;incstack = 0
 10270                           ; Regs used in ___fldiv: [wreg+status,2+status,0+btemp1]
 10271                           
 10272     0E36  1283               	bcf	3,5	;RP0=0, select bank0
 10273     0E37  1303               	bcf	3,6	;RP1=0, select bank0
 10274     0E38  082D               	movf	___fldiv@b+3,w
 10275     0E39  00B7               	movwf	___fldiv@sign
 10276     0E3A                     l3392:
 10277     0E3A  3080               	movlw	128
 10278     0E3B  05B7               	andwf	___fldiv@sign,f
 10279     0E3C                     l3394:
 10280     0E3C  082D               	movf	___fldiv@b+3,w
 10281     0E3D  00AE               	movwf	??___fldiv
 10282     0E3E  072E               	addwf	??___fldiv,w
 10283     0E3F  00BE               	movwf	___fldiv@bexp
 10284     0E40                     l3396:
 10285     0E40  1FAC               	btfss	___fldiv@b+2,7
 10286     0E41  2E43               	goto	u3421
 10287     0E42  2E44               	goto	u3420
 10288     0E43                     u3421:
 10289     0E43  2E45               	goto	l3400
 10290     0E44                     u3420:
 10291     0E44                     l3398:
 10292     0E44  143E               	bsf	___fldiv@bexp,0
 10293     0E45                     l3400:
 10294     0E45  083E               	movf	___fldiv@bexp,w
 10295     0E46  1903               	btfsc	3,2
 10296     0E47  2E49               	goto	u3431
 10297     0E48  2E4A               	goto	u3430
 10298     0E49                     u3431:
 10299     0E49  2E5A               	goto	l3410
 10300     0E4A                     u3430:
 10301     0E4A                     l3402:
 10302     0E4A  0A3E               	incf	___fldiv@bexp,w
 10303     0E4B  1D03               	btfss	3,2
 10304     0E4C  2E4E               	goto	u3441
 10305     0E4D  2E4F               	goto	u3440
 10306     0E4E                     u3441:
 10307     0E4E  2E57               	goto	l3406
 10308     0E4F                     u3440:
 10309     0E4F                     l3404:
 10310     0E4F  3000               	movlw	0
 10311     0E50  00AD               	movwf	___fldiv@b+3
 10312     0E51  3000               	movlw	0
 10313     0E52  00AC               	movwf	___fldiv@b+2
 10314     0E53  3000               	movlw	0
 10315     0E54  00AB               	movwf	___fldiv@b+1
 10316     0E55  3000               	movlw	0
 10317     0E56  00AA               	movwf	___fldiv@b
 10318     0E57                     l3406:
 10319     0E57  17AC               	bsf	___fldiv@b+2,7
 10320     0E58                     l3408:
 10321     0E58  01AD               	clrf	___fldiv@b+3
 10322     0E59  2E62               	goto	l3412
 10323     0E5A                     l3410:
 10324     0E5A  3000               	movlw	0
 10325     0E5B  00AD               	movwf	___fldiv@b+3
 10326     0E5C  3000               	movlw	0
 10327     0E5D  00AC               	movwf	___fldiv@b+2
 10328     0E5E  3000               	movlw	0
 10329     0E5F  00AB               	movwf	___fldiv@b+1
 10330     0E60  3000               	movlw	0
 10331     0E61  00AA               	movwf	___fldiv@b
 10332     0E62                     l3412:
 10333     0E62  0829               	movf	___fldiv@a+3,w
 10334     0E63  3980               	andlw	128
 10335     0E64  06B7               	xorwf	___fldiv@sign,f
 10336     0E65                     l3414:
 10337     0E65  0829               	movf	___fldiv@a+3,w
 10338     0E66  00AE               	movwf	??___fldiv
 10339     0E67  072E               	addwf	??___fldiv,w
 10340     0E68  00BF               	movwf	___fldiv@aexp
 10341     0E69                     l3416:
 10342     0E69  1FA8               	btfss	___fldiv@a+2,7
 10343     0E6A  2E6C               	goto	u3451
 10344     0E6B  2E6D               	goto	u3450
 10345     0E6C                     u3451:
 10346     0E6C  2E6E               	goto	l3420
 10347     0E6D                     u3450:
 10348     0E6D                     l3418:
 10349     0E6D  143F               	bsf	___fldiv@aexp,0
 10350     0E6E                     l3420:
 10351     0E6E  083F               	movf	___fldiv@aexp,w
 10352     0E6F  1903               	btfsc	3,2
 10353     0E70  2E72               	goto	u3461
 10354     0E71  2E73               	goto	u3460
 10355     0E72                     u3461:
 10356     0E72  2E83               	goto	l3430
 10357     0E73                     u3460:
 10358     0E73                     l3422:
 10359     0E73  0A3F               	incf	___fldiv@aexp,w
 10360     0E74  1D03               	btfss	3,2
 10361     0E75  2E77               	goto	u3471
 10362     0E76  2E78               	goto	u3470
 10363     0E77                     u3471:
 10364     0E77  2E80               	goto	l3426
 10365     0E78                     u3470:
 10366     0E78                     l3424:
 10367     0E78  3000               	movlw	0
 10368     0E79  00A9               	movwf	___fldiv@a+3
 10369     0E7A  3000               	movlw	0
 10370     0E7B  00A8               	movwf	___fldiv@a+2
 10371     0E7C  3000               	movlw	0
 10372     0E7D  00A7               	movwf	___fldiv@a+1
 10373     0E7E  3000               	movlw	0
 10374     0E7F  00A6               	movwf	___fldiv@a
 10375     0E80                     l3426:
 10376     0E80  17A8               	bsf	___fldiv@a+2,7
 10377     0E81                     l3428:
 10378     0E81  01A9               	clrf	___fldiv@a+3
 10379     0E82  2E8B               	goto	l999
 10380     0E83                     l3430:
 10381     0E83  3000               	movlw	0
 10382     0E84  00A9               	movwf	___fldiv@a+3
 10383     0E85  3000               	movlw	0
 10384     0E86  00A8               	movwf	___fldiv@a+2
 10385     0E87  3000               	movlw	0
 10386     0E88  00A7               	movwf	___fldiv@a+1
 10387     0E89  3000               	movlw	0
 10388     0E8A  00A6               	movwf	___fldiv@a
 10389     0E8B                     l999:
 10390     0E8B  0829               	movf	___fldiv@a+3,w
 10391     0E8C  0428               	iorwf	___fldiv@a+2,w
 10392     0E8D  0427               	iorwf	___fldiv@a+1,w
 10393     0E8E  0426               	iorwf	___fldiv@a,w
 10394     0E8F  1D03               	skipz
 10395     0E90  2E92               	goto	u3481
 10396     0E91  2E93               	goto	u3480
 10397     0E92                     u3481:
 10398     0E92  2EAA               	goto	l3440
 10399     0E93                     u3480:
 10400     0E93                     l3432:
 10401     0E93  3000               	movlw	0
 10402     0E94  00AD               	movwf	___fldiv@b+3
 10403     0E95  3000               	movlw	0
 10404     0E96  00AC               	movwf	___fldiv@b+2
 10405     0E97  3000               	movlw	0
 10406     0E98  00AB               	movwf	___fldiv@b+1
 10407     0E99  3000               	movlw	0
 10408     0E9A  00AA               	movwf	___fldiv@b
 10409     0E9B  3080               	movlw	128
 10410     0E9C  04AC               	iorwf	___fldiv@b+2,f
 10411     0E9D  307F               	movlw	127
 10412     0E9E  04AD               	iorwf	___fldiv@b+3,f
 10413     0E9F                     l3434:
 10414     0E9F  0837               	movf	___fldiv@sign,w
 10415     0EA0  04AD               	iorwf	___fldiv@b+3,f
 10416     0EA1                     l3436:
 10417     0EA1  082D               	movf	___fldiv@b+3,w
 10418     0EA2  00A9               	movwf	?___fldiv+3
 10419     0EA3  082C               	movf	___fldiv@b+2,w
 10420     0EA4  00A8               	movwf	?___fldiv+2
 10421     0EA5  082B               	movf	___fldiv@b+1,w
 10422     0EA6  00A7               	movwf	?___fldiv+1
 10423     0EA7  082A               	movf	___fldiv@b,w
 10424     0EA8  00A6               	movwf	?___fldiv
 10425     0EA9  2FFF               	goto	l1001
 10426     0EAA                     l3440:
 10427     0EAA  083E               	movf	___fldiv@bexp,w
 10428     0EAB  1D03               	btfss	3,2
 10429     0EAC  2EAE               	goto	u3491
 10430     0EAD  2EAF               	goto	u3490
 10431     0EAE                     u3491:
 10432     0EAE  2EB8               	goto	l3446
 10433     0EAF                     u3490:
 10434     0EAF                     l3442:
 10435     0EAF  3000               	movlw	0
 10436     0EB0  00A9               	movwf	?___fldiv+3
 10437     0EB1  3000               	movlw	0
 10438     0EB2  00A8               	movwf	?___fldiv+2
 10439     0EB3  3000               	movlw	0
 10440     0EB4  00A7               	movwf	?___fldiv+1
 10441     0EB5  3000               	movlw	0
 10442     0EB6  00A6               	movwf	?___fldiv
 10443     0EB7  2FFF               	goto	l1001
 10444     0EB8                     l3446:
 10445     0EB8  083E               	movf	___fldiv@bexp,w
 10446     0EB9  00AE               	movwf	??___fldiv
 10447     0EBA  01AF               	clrf	??___fldiv+1
 10448     0EBB  082F               	movf	??___fldiv+1,w
 10449     0EBC  00B1               	movwf	??___fldiv+3
 10450     0EBD  083F               	movf	___fldiv@aexp,w
 10451     0EBE  022E               	subwf	??___fldiv,w
 10452     0EBF  00B0               	movwf	??___fldiv+2
 10453     0EC0  1C03               	skipc
 10454     0EC1  03B1               	decf	??___fldiv+3,f
 10455     0EC2  0830               	movf	??___fldiv+2,w
 10456     0EC3  3E7F               	addlw	127
 10457     0EC4  00B8               	movwf	___fldiv@new_exp
 10458     0EC5  0831               	movf	??___fldiv+3,w
 10459     0EC6  1803               	skipnc
 10460     0EC7  3E01               	addlw	1
 10461     0EC8  3E00               	addlw	0
 10462     0EC9  00B9               	movwf	___fldiv@new_exp+1
 10463     0ECA                     l3448:
 10464     0ECA  082D               	movf	___fldiv@b+3,w
 10465     0ECB  00B6               	movwf	___fldiv@rem+3
 10466     0ECC  082C               	movf	___fldiv@b+2,w
 10467     0ECD  00B5               	movwf	___fldiv@rem+2
 10468     0ECE  082B               	movf	___fldiv@b+1,w
 10469     0ECF  00B4               	movwf	___fldiv@rem+1
 10470     0ED0  082A               	movf	___fldiv@b,w
 10471     0ED1  00B3               	movwf	___fldiv@rem
 10472     0ED2                     l3450:
 10473     0ED2  3000               	movlw	0
 10474     0ED3  00AD               	movwf	___fldiv@b+3
 10475     0ED4  3000               	movlw	0
 10476     0ED5  00AC               	movwf	___fldiv@b+2
 10477     0ED6  3000               	movlw	0
 10478     0ED7  00AB               	movwf	___fldiv@b+1
 10479     0ED8  3000               	movlw	0
 10480     0ED9  00AA               	movwf	___fldiv@b
 10481     0EDA                     l3452:
 10482     0EDA  3000               	movlw	0
 10483     0EDB  00BD               	movwf	___fldiv@grs+3
 10484     0EDC  3000               	movlw	0
 10485     0EDD  00BC               	movwf	___fldiv@grs+2
 10486     0EDE  3000               	movlw	0
 10487     0EDF  00BB               	movwf	___fldiv@grs+1
 10488     0EE0  3000               	movlw	0
 10489     0EE1  00BA               	movwf	___fldiv@grs
 10490     0EE2                     l3454:
 10491     0EE2  01BF               	clrf	___fldiv@aexp
 10492     0EE3  2F2C               	goto	l3474
 10493     0EE4                     l3456:
 10494     0EE4  083F               	movf	___fldiv@aexp,w
 10495     0EE5  1903               	btfsc	3,2
 10496     0EE6  2EE8               	goto	u3501
 10497     0EE7  2EE9               	goto	u3500
 10498     0EE8                     u3501:
 10499     0EE8  2F09               	goto	l3466
 10500     0EE9                     u3500:
 10501     0EE9                     l3458:
 10502     0EE9  3001               	movlw	1
 10503     0EEA  00AE               	movwf	??___fldiv
 10504     0EEB                     u3515:
 10505     0EEB  1003               	clrc
 10506     0EEC  0DB3               	rlf	___fldiv@rem,f
 10507     0EED  0DB4               	rlf	___fldiv@rem+1,f
 10508     0EEE  0DB5               	rlf	___fldiv@rem+2,f
 10509     0EEF  0DB6               	rlf	___fldiv@rem+3,f
 10510     0EF0  0BAE               	decfsz	??___fldiv,f
 10511     0EF1  2EEB               	goto	u3515
 10512     0EF2  3001               	movlw	1
 10513     0EF3  00AE               	movwf	??___fldiv
 10514     0EF4                     u3525:
 10515     0EF4  1003               	clrc
 10516     0EF5  0DAA               	rlf	___fldiv@b,f
 10517     0EF6  0DAB               	rlf	___fldiv@b+1,f
 10518     0EF7  0DAC               	rlf	___fldiv@b+2,f
 10519     0EF8  0DAD               	rlf	___fldiv@b+3,f
 10520     0EF9  0BAE               	decfsz	??___fldiv,f
 10521     0EFA  2EF4               	goto	u3525
 10522     0EFB                     l3460:
 10523     0EFB  1FBD               	btfss	___fldiv@grs+3,7
 10524     0EFC  2EFE               	goto	u3531
 10525     0EFD  2EFF               	goto	u3530
 10526     0EFE                     u3531:
 10527     0EFE  2F00               	goto	l3464
 10528     0EFF                     u3530:
 10529     0EFF                     l3462:
 10530     0EFF  142A               	bsf	___fldiv@b,0
 10531     0F00                     l3464:
 10532     0F00  3001               	movlw	1
 10533     0F01  00AE               	movwf	??___fldiv
 10534     0F02                     u3545:
 10535     0F02  1003               	clrc
 10536     0F03  0DBA               	rlf	___fldiv@grs,f
 10537     0F04  0DBB               	rlf	___fldiv@grs+1,f
 10538     0F05  0DBC               	rlf	___fldiv@grs+2,f
 10539     0F06  0DBD               	rlf	___fldiv@grs+3,f
 10540     0F07  0BAE               	decfsz	??___fldiv,f
 10541     0F08  2F02               	goto	u3545
 10542     0F09                     l3466:
 10543     0F09  0829               	movf	___fldiv@a+3,w
 10544     0F0A  0236               	subwf	___fldiv@rem+3,w
 10545     0F0B  1D03               	skipz
 10546     0F0C  2F17               	goto	u3555
 10547     0F0D  0828               	movf	___fldiv@a+2,w
 10548     0F0E  0235               	subwf	___fldiv@rem+2,w
 10549     0F0F  1D03               	skipz
 10550     0F10  2F17               	goto	u3555
 10551     0F11  0827               	movf	___fldiv@a+1,w
 10552     0F12  0234               	subwf	___fldiv@rem+1,w
 10553     0F13  1D03               	skipz
 10554     0F14  2F17               	goto	u3555
 10555     0F15  0826               	movf	___fldiv@a,w
 10556     0F16  0233               	subwf	___fldiv@rem,w
 10557     0F17                     u3555:
 10558     0F17  1C03               	skipc
 10559     0F18  2F1A               	goto	u3551
 10560     0F19  2F1B               	goto	u3550
 10561     0F1A                     u3551:
 10562     0F1A  2F2A               	goto	l3472
 10563     0F1B                     u3550:
 10564     0F1B                     l3468:
 10565     0F1B  173D               	bsf	___fldiv@grs+3,6
 10566     0F1C                     l3470:
 10567     0F1C  0826               	movf	___fldiv@a,w
 10568     0F1D  02B3               	subwf	___fldiv@rem,f
 10569     0F1E  0827               	movf	___fldiv@a+1,w
 10570     0F1F  1C03               	skipc
 10571     0F20  0F27               	incfsz	___fldiv@a+1,w
 10572     0F21  02B4               	subwf	___fldiv@rem+1,f
 10573     0F22  0828               	movf	___fldiv@a+2,w
 10574     0F23  1C03               	skipc
 10575     0F24  0F28               	incfsz	___fldiv@a+2,w
 10576     0F25  02B5               	subwf	___fldiv@rem+2,f
 10577     0F26  0829               	movf	___fldiv@a+3,w
 10578     0F27  1C03               	skipc
 10579     0F28  0F29               	incfsz	___fldiv@a+3,w
 10580     0F29  02B6               	subwf	___fldiv@rem+3,f
 10581     0F2A                     l3472:
 10582     0F2A  3001               	movlw	1
 10583     0F2B  07BF               	addwf	___fldiv@aexp,f
 10584     0F2C                     l3474:
 10585     0F2C  301A               	movlw	26
 10586     0F2D  023F               	subwf	___fldiv@aexp,w
 10587     0F2E  1C03               	skipc
 10588     0F2F  2F31               	goto	u3561
 10589     0F30  2F32               	goto	u3560
 10590     0F31                     u3561:
 10591     0F31  2EE4               	goto	l3456
 10592     0F32                     u3560:
 10593     0F32                     l3476:
 10594     0F32  0836               	movf	___fldiv@rem+3,w
 10595     0F33  0435               	iorwf	___fldiv@rem+2,w
 10596     0F34  0434               	iorwf	___fldiv@rem+1,w
 10597     0F35  0433               	iorwf	___fldiv@rem,w
 10598     0F36  1903               	skipnz
 10599     0F37  2F39               	goto	u3571
 10600     0F38  2F3A               	goto	u3570
 10601     0F39                     u3571:
 10602     0F39  2F59               	goto	l3490
 10603     0F3A                     u3570:
 10604     0F3A                     l3478:
 10605     0F3A  143A               	bsf	___fldiv@grs,0
 10606     0F3B  2F59               	goto	l3490
 10607     0F3C                     l3480:
 10608     0F3C  3001               	movlw	1
 10609     0F3D  00AE               	movwf	??___fldiv
 10610     0F3E                     u3585:
 10611     0F3E  1003               	clrc
 10612     0F3F  0DAA               	rlf	___fldiv@b,f
 10613     0F40  0DAB               	rlf	___fldiv@b+1,f
 10614     0F41  0DAC               	rlf	___fldiv@b+2,f
 10615     0F42  0DAD               	rlf	___fldiv@b+3,f
 10616     0F43  0BAE               	decfsz	??___fldiv,f
 10617     0F44  2F3E               	goto	u3585
 10618     0F45                     l3482:
 10619     0F45  1FBD               	btfss	___fldiv@grs+3,7
 10620     0F46  2F48               	goto	u3591
 10621     0F47  2F49               	goto	u3590
 10622     0F48                     u3591:
 10623     0F48  2F4A               	goto	l3486
 10624     0F49                     u3590:
 10625     0F49                     l3484:
 10626     0F49  142A               	bsf	___fldiv@b,0
 10627     0F4A                     l3486:
 10628     0F4A  3001               	movlw	1
 10629     0F4B  00AE               	movwf	??___fldiv
 10630     0F4C                     u3605:
 10631     0F4C  1003               	clrc
 10632     0F4D  0DBA               	rlf	___fldiv@grs,f
 10633     0F4E  0DBB               	rlf	___fldiv@grs+1,f
 10634     0F4F  0DBC               	rlf	___fldiv@grs+2,f
 10635     0F50  0DBD               	rlf	___fldiv@grs+3,f
 10636     0F51  0BAE               	decfsz	??___fldiv,f
 10637     0F52  2F4C               	goto	u3605
 10638     0F53                     l3488:
 10639     0F53  30FF               	movlw	255
 10640     0F54  07B8               	addwf	___fldiv@new_exp,f
 10641     0F55  1803               	skipnc
 10642     0F56  0AB9               	incf	___fldiv@new_exp+1,f
 10643     0F57  30FF               	movlw	255
 10644     0F58  07B9               	addwf	___fldiv@new_exp+1,f
 10645     0F59                     l3490:
 10646     0F59  1FAC               	btfss	___fldiv@b+2,7
 10647     0F5A  2F5C               	goto	u3611
 10648     0F5B  2F5D               	goto	u3610
 10649     0F5C                     u3611:
 10650     0F5C  2F3C               	goto	l3480
 10651     0F5D                     u3610:
 10652     0F5D                     l3492:
 10653     0F5D  01BF               	clrf	___fldiv@aexp
 10654     0F5E                     l3494:
 10655     0F5E  1FBD               	btfss	___fldiv@grs+3,7
 10656     0F5F  2F61               	goto	u3621
 10657     0F60  2F62               	goto	u3620
 10658     0F61                     u3621:
 10659     0F61  2F7E               	goto	l3502
 10660     0F62                     u3620:
 10661     0F62                     l3496:
 10662     0F62  30FF               	movlw	255
 10663     0F63  053A               	andwf	___fldiv@grs,w
 10664     0F64  00AE               	movwf	??___fldiv
 10665     0F65  30FF               	movlw	255
 10666     0F66  053B               	andwf	___fldiv@grs+1,w
 10667     0F67  00AF               	movwf	??___fldiv+1
 10668     0F68  30FF               	movlw	255
 10669     0F69  053C               	andwf	___fldiv@grs+2,w
 10670     0F6A  00B0               	movwf	??___fldiv+2
 10671     0F6B  307F               	movlw	127
 10672     0F6C  053D               	andwf	___fldiv@grs+3,w
 10673     0F6D  00B1               	movwf	??___fldiv+3
 10674     0F6E  0831               	movf	??___fldiv+3,w
 10675     0F6F  0430               	iorwf	??___fldiv+2,w
 10676     0F70  042F               	iorwf	??___fldiv+1,w
 10677     0F71  042E               	iorwf	??___fldiv,w
 10678     0F72  1903               	skipnz
 10679     0F73  2F75               	goto	u3631
 10680     0F74  2F76               	goto	u3630
 10681     0F75                     u3631:
 10682     0F75  2F79               	goto	l1015
 10683     0F76                     u3630:
 10684     0F76                     l3498:
 10685     0F76  3001               	movlw	1
 10686     0F77  00BF               	movwf	___fldiv@aexp
 10687     0F78  2F7E               	goto	l3502
 10688     0F79                     l1015:
 10689     0F79  1C2A               	btfss	___fldiv@b,0
 10690     0F7A  2F7C               	goto	u3641
 10691     0F7B  2F7D               	goto	u3640
 10692     0F7C                     u3641:
 10693     0F7C  2F7E               	goto	l3502
 10694     0F7D                     u3640:
 10695     0F7D  2F76               	goto	l3498
 10696     0F7E                     l3502:
 10697     0F7E  083F               	movf	___fldiv@aexp,w
 10698     0F7F  1903               	btfsc	3,2
 10699     0F80  2F82               	goto	u3651
 10700     0F81  2F83               	goto	u3650
 10701     0F82                     u3651:
 10702     0F82  2FB4               	goto	l3512
 10703     0F83                     u3650:
 10704     0F83                     l3504:
 10705     0F83  3001               	movlw	1
 10706     0F84  07AA               	addwf	___fldiv@b,f
 10707     0F85  3000               	movlw	0
 10708     0F86  1803               	skipnc
 10709     0F87  3001               	movlw	1
 10710     0F88  07AB               	addwf	___fldiv@b+1,f
 10711     0F89  3000               	movlw	0
 10712     0F8A  1803               	skipnc
 10713     0F8B  3001               	movlw	1
 10714     0F8C  07AC               	addwf	___fldiv@b+2,f
 10715     0F8D  3000               	movlw	0
 10716     0F8E  1803               	skipnc
 10717     0F8F  3001               	movlw	1
 10718     0F90  07AD               	addwf	___fldiv@b+3,f
 10719     0F91                     l3506:
 10720     0F91  1C2D               	btfss	___fldiv@b+3,0
 10721     0F92  2F94               	goto	u3661
 10722     0F93  2F95               	goto	u3660
 10723     0F94                     u3661:
 10724     0F94  2FB4               	goto	l3512
 10725     0F95                     u3660:
 10726     0F95                     l3508:
 10727     0F95  082A               	movf	___fldiv@b,w
 10728     0F96  00AE               	movwf	??___fldiv
 10729     0F97  082B               	movf	___fldiv@b+1,w
 10730     0F98  00AF               	movwf	??___fldiv+1
 10731     0F99  082C               	movf	___fldiv@b+2,w
 10732     0F9A  00B0               	movwf	??___fldiv+2
 10733     0F9B  082D               	movf	___fldiv@b+3,w
 10734     0F9C  00B1               	movwf	??___fldiv+3
 10735     0F9D  3001               	movlw	1
 10736     0F9E  00B2               	movwf	??___fldiv+4
 10737     0F9F                     u3675:
 10738     0F9F  0D31               	rlf	??___fldiv+3,w
 10739     0FA0  0CB1               	rrf	??___fldiv+3,f
 10740     0FA1  0CB0               	rrf	??___fldiv+2,f
 10741     0FA2  0CAF               	rrf	??___fldiv+1,f
 10742     0FA3  0CAE               	rrf	??___fldiv,f
 10743     0FA4                     u3670:
 10744     0FA4  0BB2               	decfsz	??___fldiv+4,f
 10745     0FA5  2F9F               	goto	u3675
 10746     0FA6  0831               	movf	??___fldiv+3,w
 10747     0FA7  00AD               	movwf	___fldiv@b+3
 10748     0FA8  0830               	movf	??___fldiv+2,w
 10749     0FA9  00AC               	movwf	___fldiv@b+2
 10750     0FAA  082F               	movf	??___fldiv+1,w
 10751     0FAB  00AB               	movwf	___fldiv@b+1
 10752     0FAC  082E               	movf	??___fldiv,w
 10753     0FAD  00AA               	movwf	___fldiv@b
 10754     0FAE                     l3510:
 10755     0FAE  3001               	movlw	1
 10756     0FAF  07B8               	addwf	___fldiv@new_exp,f
 10757     0FB0  1803               	skipnc
 10758     0FB1  0AB9               	incf	___fldiv@new_exp+1,f
 10759     0FB2  3000               	movlw	0
 10760     0FB3  07B9               	addwf	___fldiv@new_exp+1,f
 10761     0FB4                     l3512:
 10762     0FB4  0839               	movf	___fldiv@new_exp+1,w
 10763     0FB5  3A80               	xorlw	128
 10764     0FB6  00FF               	movwf	btemp1
 10765     0FB7  3080               	movlw	128
 10766     0FB8  027F               	subwf	btemp1,w
 10767     0FB9  1D03               	skipz
 10768     0FBA  2FBD               	goto	u3685
 10769     0FBB  30FF               	movlw	255
 10770     0FBC  0238               	subwf	___fldiv@new_exp,w
 10771     0FBD                     u3685:
 10772     0FBD  1C03               	skipc
 10773     0FBE  2FC0               	goto	u3681
 10774     0FBF  2FC1               	goto	u3680
 10775     0FC0                     u3681:
 10776     0FC0  2FCF               	goto	l3516
 10777     0FC1                     u3680:
 10778     0FC1                     l3514:
 10779     0FC1  30FF               	movlw	255
 10780     0FC2  1283               	bcf	3,5	;RP0=0, select bank0
 10781     0FC3  1303               	bcf	3,6	;RP1=0, select bank0
 10782     0FC4  00B8               	movwf	___fldiv@new_exp
 10783     0FC5  3000               	movlw	0
 10784     0FC6  00B9               	movwf	___fldiv@new_exp+1
 10785     0FC7  3000               	movlw	0
 10786     0FC8  00AD               	movwf	___fldiv@b+3
 10787     0FC9  3000               	movlw	0
 10788     0FCA  00AC               	movwf	___fldiv@b+2
 10789     0FCB  3000               	movlw	0
 10790     0FCC  00AB               	movwf	___fldiv@b+1
 10791     0FCD  3000               	movlw	0
 10792     0FCE  00AA               	movwf	___fldiv@b
 10793     0FCF                     l3516:
 10794     0FCF  1283               	bcf	3,5	;RP0=0, select bank0
 10795     0FD0  1303               	bcf	3,6	;RP1=0, select bank0
 10796     0FD1  0839               	movf	___fldiv@new_exp+1,w
 10797     0FD2  3A80               	xorlw	128
 10798     0FD3  00FF               	movwf	btemp1
 10799     0FD4  3080               	movlw	128
 10800     0FD5  027F               	subwf	btemp1,w
 10801     0FD6  1D03               	skipz
 10802     0FD7  2FDA               	goto	u3695
 10803     0FD8  3001               	movlw	1
 10804     0FD9  0238               	subwf	___fldiv@new_exp,w
 10805     0FDA                     u3695:
 10806     0FDA  1803               	skipnc
 10807     0FDB  2FDD               	goto	u3691
 10808     0FDC  2FDE               	goto	u3690
 10809     0FDD                     u3691:
 10810     0FDD  2FEB               	goto	l1021
 10811     0FDE                     u3690:
 10812     0FDE                     l3518:
 10813     0FDE  1283               	bcf	3,5	;RP0=0, select bank0
 10814     0FDF  1303               	bcf	3,6	;RP1=0, select bank0
 10815     0FE0  01B8               	clrf	___fldiv@new_exp
 10816     0FE1  01B9               	clrf	___fldiv@new_exp+1
 10817     0FE2                     l3520:
 10818     0FE2  3000               	movlw	0
 10819     0FE3  00AD               	movwf	___fldiv@b+3
 10820     0FE4  3000               	movlw	0
 10821     0FE5  00AC               	movwf	___fldiv@b+2
 10822     0FE6  3000               	movlw	0
 10823     0FE7  00AB               	movwf	___fldiv@b+1
 10824     0FE8  3000               	movlw	0
 10825     0FE9  00AA               	movwf	___fldiv@b
 10826     0FEA                     l3522:
 10827     0FEA  01B7               	clrf	___fldiv@sign
 10828     0FEB                     l1021:
 10829     0FEB  1283               	bcf	3,5	;RP0=0, select bank0
 10830     0FEC  1303               	bcf	3,6	;RP1=0, select bank0
 10831     0FED  0838               	movf	___fldiv@new_exp,w
 10832     0FEE  00BE               	movwf	___fldiv@bexp
 10833     0FEF                     l3524:
 10834     0FEF  1C3E               	btfss	___fldiv@bexp,0
 10835     0FF0  2FF2               	goto	u3701
 10836     0FF1  2FF3               	goto	u3700
 10837     0FF2                     u3701:
 10838     0FF2  2FF5               	goto	l3528
 10839     0FF3                     u3700:
 10840     0FF3                     l3526:
 10841     0FF3  17AC               	bsf	___fldiv@b+2,7
 10842     0FF4  2FF7               	goto	l1023
 10843     0FF5                     l3528:
 10844     0FF5  307F               	movlw	127
 10845     0FF6  05AC               	andwf	___fldiv@b+2,f
 10846     0FF7                     l1023:
 10847     0FF7  083E               	movf	___fldiv@bexp,w
 10848     0FF8  00AE               	movwf	??___fldiv
 10849     0FF9  1003               	clrc
 10850     0FFA  0C2E               	rrf	??___fldiv,w
 10851     0FFB  00AD               	movwf	___fldiv@b+3
 10852     0FFC  0837               	movf	___fldiv@sign,w
 10853     0FFD  04AD               	iorwf	___fldiv@b+3,f
 10854     0FFE  2EA1               	goto	l3436
 10855     0FFF                     l1001:
 10856     0FFF  0008               	return
 10857     1000                     __end_of___fldiv:
 10858     0002                     ___latbits      equ	2
 10859     007E                     btemp           set	126	;btemp
 10860     007E                     btemp0          set	126
 10861     007F                     btemp1          set	127
 10862     007E                     wtemp0          set	126
 10863     007F                     wtemp0a         set	127
 10864     007F                     ttemp0a         set	127
 10865     0080                     ltemp0a         set	128
 10866                           
 10867                           	psect	config
 10868                           
 10869                           ;Config register CONFIG @ 0x2007
 10870                           ;	Oscillator Selection bits
 10871                           ;	FOSC = 0x3, unprogrammed default
 10872                           ;	Watchdog Timer Enable bit
 10873                           ;	WDTE = OFF, WDT disabled
 10874                           ;	Power-up Timer Enable bit
 10875                           ;	PWRTE = 0x1, unprogrammed default
 10876                           ;	Brown-out Reset Enable bit
 10877                           ;	BOREN = 0x1, unprogrammed default
 10878                           ;	Low-Voltage (Single-Supply) In-Circuit Serial Programming Enable bit
 10879                           ;	LVP = 0x1, unprogrammed default
 10880                           ;	Data EEPROM Memory Code Protection bit
 10881                           ;	CPD = 0x1, unprogrammed default
 10882                           ;	Flash Program Memory Write Enable bits
 10883                           ;	WRT = 0x3, unprogrammed default
 10884                           ;	In-Circuit Debugger Mode bit
 10885                           ;	DEBUG = 0x1, unprogrammed default
 10886                           ;	Flash Program Memory Code Protection bit
 10887                           ;	CP = 0x1, unprogrammed default
 10888     2007                     	org	8199
 10889     2007  3FFB               	dw	16379

Data Sizes:
    Strings     515
    Constant    0
    Data        41
    BSS         148
    Persistent  0
    Stack       0

Auto Spaces:
    Space          Size  Autos    Used
    COMMON           14     14      14
    BANK0            80     49      80
    BANK1            80      0      73
    BANK3            96      0      85
    BANK2            96      0       0

Pointer List with Targets:

    clcd_print@str	PTR const unsigned char  size(2) Largest target is 20
		 -> set_time@temp(BANK0[9]), speed(BANK1[3]), STR_1(CODE[17]), STR_10(CODE[3]), 
		 -> STR_11(CODE[17]), STR_12(CODE[17]), STR_13(CODE[9]), STR_14(CODE[10]), 
		 -> STR_15(CODE[13]), STR_16(CODE[9]), STR_17(CODE[12]), STR_18(CODE[17]), 
		 -> STR_19(CODE[12]), STR_2(CODE[17]), STR_20(CODE[17]), STR_21(CODE[17]), 
		 -> STR_22(CODE[16]), STR_23(CODE[17]), STR_24(CODE[17]), STR_25(CODE[17]), 
		 -> STR_26(CODE[16]), STR_27(CODE[16]), STR_28(CODE[17]), STR_29(CODE[17]), 
		 -> STR_3(CODE[3]), STR_30(CODE[17]), STR_31(CODE[17]), STR_32(CODE[17]), 
		 -> STR_33(CODE[17]), STR_34(CODE[16]), STR_35(CODE[17]), STR_36(CODE[20]), 
		 -> STR_37(CODE[15]), STR_38(CODE[15]), STR_39(CODE[17]), STR_4(CODE[3]), 
		 -> STR_40(CODE[17]), STR_41(CODE[16]), STR_42(CODE[16]), STR_47(CODE[16]), 
		 -> STR_48(CODE[16]), STR_5(CODE[3]), STR_50(CODE[16]), STR_51(CODE[16]), 
		 -> STR_52(CODE[17]), STR_53(CODE[17]), STR_54(CODE[17]), STR_55(CODE[16]), 
		 -> STR_56(CODE[17]), STR_57(CODE[17]), STR_58(CODE[16]), STR_59(CODE[17]), 
		 -> STR_6(CODE[3]), STR_60(CODE[17]), STR_61(CODE[16]), STR_62(CODE[16]), 
		 -> STR_63(CODE[16]), STR_64(CODE[16]), STR_65(CODE[17]), STR_66(CODE[17]), 
		 -> STR_7(CODE[3]), STR_8(CODE[3]), STR_9(CODE[3]), time(BANK1[9]), 
		 -> view_log@log(BANK0[17]), 

    display_time@clock_reg	PTR unsigned char  size(1) Largest target is 3
		 -> clock_reg(BANK1[3]), 

    event	PTR unsigned char [8] size(2) Largest target is 3
		 -> STR_10(CODE[3]), STR_3(CODE[3]), STR_4(CODE[3]), STR_5(CODE[3]), 
		 -> STR_6(CODE[3]), STR_7(CODE[3]), STR_8(CODE[3]), STR_9(CODE[3]), 

    get_time@clock_reg	PTR unsigned char  size(1) Largest target is 3
		 -> clock_reg(BANK1[3]), 

    sp__strcpy	PTR unsigned char  size(1) Largest target is 5
		 -> password(BANK1[5]), 

    str	PTR unsigned char [5] size(2) Largest target is 13
		 -> STR_13(CODE[9]), STR_14(CODE[10]), STR_15(CODE[13]), STR_16(CODE[9]), 
		 -> STR_17(CODE[12]), 

    strcmp@l	PTR const unsigned char  size(1) Largest target is 5
		 -> change_password@temp(BANK1[5]), login@entered(BANK1[5]), 

    strcmp@r	PTR const unsigned char  size(1) Largest target is 5
		 -> change_password@temp2(BANK1[5]), password(BANK1[5]), 

    strcpy@d	PTR unsigned char  size(1) Largest target is 5
		 -> password(BANK1[5]), 

    strcpy@dest	PTR unsigned char  size(1) Largest target is 5
		 -> password(BANK1[5]), 

    strcpy@src	PTR const unsigned char  size(1) Largest target is 5
		 -> change_password@temp(BANK1[5]), 

    uart_puts@str	PTR const unsigned char  size(2) Largest target is 19
		 -> STR_43(CODE[3]), STR_44(CODE[17]), STR_45(CODE[19]), STR_46(CODE[16]), 
		 -> STR_49(CODE[3]), 


Critical Paths under _main in COMMON

    _main->_login
    _menu->_change_password
    _view_log->_clcd_print
    _set_time->_write_ds1307
    _download_log->_clcd_print
    _download_log->_uart_puts
    _uart_puts->_uart_putch
    _uart_putch->_read_external_eeprom
    _read_external_eeprom->_i2c_read
    _clear_log->_clcd_print
    _change_password->_clcd_putch
    _login->_clcd_putch
    _clcd_putch->___awdiv
    _init_i2c->___lldiv
    _init_ds1307->_write_ds1307
    _write_ds1307->___awdiv
    _init_clcd->_init_display_controller
    _init_display_controller->_clcd_write
    _dashboard->___xxtofl
    _dashboard->_store_event
    _store_event->_write_external_eeprom
    _write_external_eeprom->_i2c_write
    _get_time->_read_ds1307
    _read_ds1307->_i2c_read
    _display_time->_clcd_print
    _clcd_print->_clcd_write
    ___xxtofl->_read_adc
    ___fltol->___xxtofl
    ___fldiv->___xxtofl

Critical Paths under _main in BANK0

    _main->_dashboard
    _menu->_view_log
    _init_config->_init_i2c
    _dashboard->___fltol
    ___fltol->___fldiv
    ___fldiv->___xxtofl

Critical Paths under _main in BANK1

    None.

Critical Paths under _main in BANK3

    None.

Critical Paths under _main in BANK2

    None.

Call Graph Tables:

 ---------------------------------------------------------------------------------
 (Depth) Function   	        Calls       Base Space   Used Autos Params    Refs
 ---------------------------------------------------------------------------------
 (0) _main                                                 2     2      0   11234
                                             47 BANK0      2     2      0
                         _clcd_print
                          _dashboard
                        _init_config
                              _login
                               _menu
                _read_digital_keypad
 ---------------------------------------------------------------------------------
 (1) _menu                                                 8     8      0    5672
                                             19 BANK0      8     8      0
                    _change_password
                         _clcd_print
                         _clcd_putch
                          _clear_log
                       _download_log
                _read_digital_keypad
                           _set_time
                           _view_log
 ---------------------------------------------------------------------------------
 (2) _view_log                                            21    21      0    1274
                                              7 COMMON     2     2      0
                                              0 BANK0     19    19      0
                             ___bmul
                         _clcd_print
               _read_external_eeprom
 ---------------------------------------------------------------------------------
 (2) _set_time                                            17    17      0    1821
                                              0 BANK0     17    17      0
                            ___awdiv
                            ___awmod
                             ___bmul
                         _clcd_print
                           _get_time
                       _write_ds1307
 ---------------------------------------------------------------------------------
 (3) ___bmul                                               3     2      1     111
                                              0 COMMON     3     2      1
 ---------------------------------------------------------------------------------
 (2) _read_digital_keypad                                  2     2      0      29
                                              0 COMMON     2     2      0
 ---------------------------------------------------------------------------------
 (2) _download_log                                         5     5      0     770
                                              7 COMMON     5     5      0
                         _clcd_print
               _read_external_eeprom
                         _uart_putch
                          _uart_puts
 ---------------------------------------------------------------------------------
 (3) _uart_puts                                            2     0      2      79
                                              5 COMMON     2     0      2
                         _uart_putch
 ---------------------------------------------------------------------------------
 (4) _uart_putch                                           1     1      0      29
                                              4 COMMON     1     1      0
               _read_external_eeprom (ARG)
 ---------------------------------------------------------------------------------
 (3) _read_external_eeprom                                 2     2      0     133
                                              2 COMMON     2     2      0
                           _i2c_read
                      _i2c_rep_start
                          _i2c_start
                           _i2c_stop
                          _i2c_write
 ---------------------------------------------------------------------------------
 (2) _clear_log                                            2     2      0     274
                                              7 COMMON     2     2      0
                         _clcd_print
 ---------------------------------------------------------------------------------
 (2) _change_password                                      7     5      2     741
                                             10 COMMON     3     1      2
                                              0 BANK0      4     4      0
                         _clcd_print
                         _clcd_putch
                             _strcmp
                             _strcpy
 ---------------------------------------------------------------------------------
 (3) _strcpy                                               3     1      2      75
                                              0 COMMON     3     1      2
 ---------------------------------------------------------------------------------
 (1) _login                                                9     9      0    1278
                                             10 COMMON     4     4      0
                                              0 BANK0      5     5      0
                            ___awdiv
                            ___awmod
                         _clcd_print
                         _clcd_putch
                             _strcmp
 ---------------------------------------------------------------------------------
 (3) _strcmp                                               4     2      2     116
                                              0 COMMON     4     2      2
 ---------------------------------------------------------------------------------
 (3) _clcd_putch                                           2     1      1     160
                                              8 COMMON     2     1      1
                            ___awdiv (ARG)
                            ___awmod (ARG)
                         _clcd_write
 ---------------------------------------------------------------------------------
 (3) ___awmod                                              6     2      4     310
                                              0 COMMON     6     2      4
 ---------------------------------------------------------------------------------
 (3) ___awdiv                                              8     4      4     314
                                              0 COMMON     8     4      4
 ---------------------------------------------------------------------------------
 (1) _init_config                                          0     0      0     541
                           _init_adc
                          _init_clcd
                _init_digital_keypad
                        _init_ds1307
                           _init_i2c
                          _init_uart
 ---------------------------------------------------------------------------------
 (2) _init_uart                                            0     0      0       0
 ---------------------------------------------------------------------------------
 (2) _init_i2c                                             8     4      4     187
                                              0 BANK0      8     4      4
                            ___lldiv
 ---------------------------------------------------------------------------------
 (3) ___lldiv                                             14     6      8     164
                                              0 COMMON    14     6      8
 ---------------------------------------------------------------------------------
 (2) _init_ds1307                                          1     1      0     263
                                             10 COMMON     1     1      0
                        _read_ds1307
                       _write_ds1307
 ---------------------------------------------------------------------------------
 (3) _write_ds1307                                         2     1      1     106
                                              8 COMMON     2     1      1
                            ___awdiv (ARG)
                            ___awmod (ARG)
                          _i2c_start
                           _i2c_stop
                          _i2c_write
 ---------------------------------------------------------------------------------
 (2) _init_digital_keypad                                  0     0      0       0
 ---------------------------------------------------------------------------------
 (2) _init_clcd                                            0     0      0      91
            _init_display_controller
 ---------------------------------------------------------------------------------
 (3) _init_display_controller                              2     2      0      91
                                              4 COMMON     2     2      0
                         _clcd_write
 ---------------------------------------------------------------------------------
 (2) _init_adc                                             0     0      0       0
 ---------------------------------------------------------------------------------
 (1) _dashboard                                            5     5      0    3305
                                             42 BANK0      5     5      0
                            ___fldiv
                            ___fltol
                            ___lwdiv
                            ___lwmod
                           ___xxtofl
                         _clcd_print
                       _display_time
                           _get_time
                           _read_adc
                        _store_event
 ---------------------------------------------------------------------------------
 (2) _store_event                                          9     9      0     220
                                              5 COMMON     9     9      0
              _write_external_eeprom
 ---------------------------------------------------------------------------------
 (3) _write_external_eeprom                                4     3      1     108
                                              1 COMMON     4     3      1
                          _i2c_start
                           _i2c_stop
                          _i2c_write
 ---------------------------------------------------------------------------------
 (2) _read_adc                                             6     4      2      52
                                              0 COMMON     6     4      2
 ---------------------------------------------------------------------------------
 (3) _get_time                                             1     0      1     201
                                              4 COMMON     1     0      1
                        _read_ds1307
 ---------------------------------------------------------------------------------
 (4) _read_ds1307                                          2     2      0     133
                                              2 COMMON     2     2      0
                           _i2c_read
                      _i2c_rep_start
                          _i2c_start
                           _i2c_stop
                          _i2c_write
 ---------------------------------------------------------------------------------
 (5) _i2c_write                                            1     1      0      29
                                              0 COMMON     1     1      0
                  _i2c_wait_for_idle
 ---------------------------------------------------------------------------------
 (5) _i2c_rep_start                                        0     0      0       0
                          _i2c_start
                           _i2c_stop
 ---------------------------------------------------------------------------------
 (6) _i2c_stop                                             0     0      0       0
                  _i2c_wait_for_idle
 ---------------------------------------------------------------------------------
 (6) _i2c_start                                            0     0      0       0
                  _i2c_wait_for_idle
 ---------------------------------------------------------------------------------
 (5) _i2c_read                                             2     2      0      52
                                              0 COMMON     2     2      0
                  _i2c_wait_for_idle
 ---------------------------------------------------------------------------------
 (7) _i2c_wait_for_idle                                    0     0      0       0
 ---------------------------------------------------------------------------------
 (2) _display_time                                         4     3      1     455
                                              7 COMMON     4     3      1
                         _clcd_print
 ---------------------------------------------------------------------------------
 (3) _clcd_print                                           3     0      3     274
                                              4 COMMON     3     0      3
                         _clcd_write
 ---------------------------------------------------------------------------------
 (4) _clcd_write                                           4     3      1      91
                                              0 COMMON     4     3      1
 ---------------------------------------------------------------------------------
 (2) ___xxtofl                                            14    10      4     337
                                              6 COMMON     8     4      4
                                              0 BANK0      6     6      0
                           _read_adc (ARG)
 ---------------------------------------------------------------------------------
 (2) ___lwmod                                              5     1      4     161
                                              0 COMMON     5     1      4
 ---------------------------------------------------------------------------------
 (2) ___lwdiv                                              7     3      4     164
                                              0 COMMON     7     3      4
 ---------------------------------------------------------------------------------
 (2) ___fltol                                             10     6      4     230
                                             32 BANK0     10     6      4
                            ___fldiv (ARG)
                           ___xxtofl (ARG)
                           _read_adc (ARG)
 ---------------------------------------------------------------------------------
 (2) ___fldiv                                             26    18      8    1124
                                              6 BANK0     26    18      8
                           ___xxtofl (ARG)
                           _read_adc (ARG)
 ---------------------------------------------------------------------------------
 Estimated maximum stack depth 7
 ---------------------------------------------------------------------------------

 Call Graph Graphs:

 _main (ROOT)
   _clcd_print
     _clcd_write
   _dashboard
     ___fldiv
       ___xxtofl (ARG)
         _read_adc (ARG)
       _read_adc (ARG)
     ___fltol
       ___fldiv (ARG)
       ___xxtofl (ARG)
       _read_adc (ARG)
     ___lwdiv
     ___lwmod
     ___xxtofl
     _clcd_print
     _display_time
       _clcd_print
     _get_time
       _read_ds1307
         _i2c_read
           _i2c_wait_for_idle
         _i2c_rep_start
           _i2c_start
             _i2c_wait_for_idle
           _i2c_stop
             _i2c_wait_for_idle
         _i2c_start
         _i2c_stop
         _i2c_write
           _i2c_wait_for_idle
     _read_adc
     _store_event
       _write_external_eeprom
         _i2c_start
         _i2c_stop
         _i2c_write
   _init_config
     _init_adc
     _init_clcd
       _init_display_controller
         _clcd_write
     _init_digital_keypad
     _init_ds1307
       _read_ds1307
       _write_ds1307
         ___awdiv (ARG)
         ___awmod (ARG)
         _i2c_start (ARG)
         _i2c_stop (ARG)
         _i2c_write (ARG)
     _init_i2c
       ___lldiv
     _init_uart
   _login
     ___awdiv
     ___awmod
     _clcd_print
     _clcd_putch
       ___awdiv (ARG)
       ___awmod (ARG)
       _clcd_write (ARG)
     _strcmp
   _menu
     _change_password
       _clcd_print
       _clcd_putch
       _strcmp
       _strcpy
     _clcd_print
     _clcd_putch
     _clear_log
       _clcd_print
     _download_log
       _clcd_print
       _read_external_eeprom
         _i2c_read
         _i2c_rep_start
         _i2c_start
         _i2c_stop
         _i2c_write
       _uart_putch
         _read_external_eeprom (ARG)
       _uart_puts
         _uart_putch
     _read_digital_keypad
     _set_time
       ___awdiv
       ___awmod
       ___bmul
       _clcd_print
       _get_time
       _write_ds1307
     _view_log
       ___bmul
       _clcd_print
       _read_external_eeprom
   _read_digital_keypad

Address spaces:
Name               Size   Autos  Total    Usage
BANK3               96      0      85     88.5%
BITBANK3            96      0       0      0.0%
BANK2               96      0       0      0.0%
BITBANK2            96      0       0      0.0%
BANK1               80      0      73     91.2%
BITBANK1            80      0       0      0.0%
BANK0               80     49      80    100.0%
BITBANK0            80      0       0      0.0%
COMMON              14     14      14    100.0%
BITCOMMON           14      0       0      0.0%
DATA                 0      0     252      0.0%
STACK                0      0       0      0.0%


Microchip Technology PIC Macro Assembler V3.10 build 20250813170317 
Symbol Table                                                                                   Wed Jun 24 08:02:13 2026

                   ___fldiv@aexp 003F                     ___fldiv@bexp 003E                                pc 0002  
                   ___fldiv@sign 0037            _write_external_eeprom 136C                   ___bmul@product 0071  
                 clcd_print@addr 0076                               l20 11D7                               l23 11E5  
                             l17 0A09                               l50 12BC                               l55 1674  
                             l91 113A                               l85 1403                               l94 114B  
                             l88 15A7                               _GO 00FA                     ___awdiv@sign 0075  
                             fsr 0004                              l100 136B                              l201 0003  
                            l210 1124                              l204 000F                              l116 139B  
                            l140 115D                              l300 1107                              l213 1105  
                            l221 112F                              l207 10FC                              l143 1311  
                            l119 133C                              l303 110F                              l152 14ED  
                            l216 1240                              l217 1243                              l218 1245  
                            l146 11C6                              l149 1224                              l261 0D08  
                            l309 126B                              l165 12E6                              l159 10EB  
                            l520 06E7                              l274 17FF                              l522 07C6  
                            l451 0BF3                              l381 0570                              l517 06DD  
                            l429 0176                              l198 13CD                              l471 0E35  
                            l519 06E2                              l297 116F                              l466 147E  
                            l467 1498                              l556 0341                              l808 1544  
                            l922 1445                              l843 1737                              l836 174C  
                            l932 0A41                              l668 1195                              l846 174C  
                            l678 166E                              l795 160A                              l999 0E8B  
                            _RE1 0049                              _RE2 004A                              _PEN 048A  
                            _SEN 0488                    ?_display_time 0077                   clcd_putch@addr 0078  
                            _pos 0055                              fsr0 0004                              _str 00DA  
                 clcd_putch@data 0079                              indf 0000                     ___awmod@sign 0075  
                   ___fltol@exp1 0049                             l1001 0FFF                             l1021 0FEB  
                           l1023 0FF7                             l1015 0F79                             l1112 1182  
                           l1106 1293                             l3002 1482                             l3010 0D20  
                           l1083 0A66                             l1084 0A77                             l3020 0D61  
                           l3012 0D29                             l3004 0D09                             l3100 05E0  
                           l1085 0AF7                             l3030 0D7E                             l3014 0D32  
                           l3006 0D0A                             l3110 05F0                             l3102 05E1  
                           l1096 0AC1                             l3200 0179                             l3040 0DBC  
                           l3032 0D8B                             l3024 0D6F                             l3016 0D3B  
                           l3008 0D15                             l3120 0606                             l3112 05F6  
                           l3104 05E7                             l1097 0ACD                             l1089 0AA5  
          ??_read_digital_keypad 0070                             l3202 017E                             l3210 01AB  
                           l3050 0DE9                             l3042 0DBE                             l3034 0D91  
                           l3026 0D71                             l3018 0D42                             l3130 061B  
                           l3122 060B                             l3114 05FB                             l3106 05E9  
                           l3212 01B1                             l3220 01C9                             l3204 019F  
                           l3300 0332                             l3052 0DFC                             l3044 0DCB  
                           l3036 0D9E                             l3028 0D7C                             l3060 0E16  
                           l3140 064C                             l3132 061E                             l3124 0610  
                           l3116 0600                             l3108 05EF                             l3302 033F  
                           l3222 01CF                             l3230 01E6                             l3214 01B7  
                           l3206 01A7                             l3062 0E1E                             l3054 0DFE  
                           l3046 0DD1                             l3038 0DA9                             l3150 06A2  
                           l3142 0661                             l3126 0613                             l3118 0603  
                           l3134 0620                             l3070 0580                             l3400 0E45  
                           l3320 1709                             l3312 16EB                             l2520 10F9  
                           l2600 1573                             l3240 01FE                             l3232 01EE  
                           l3224 01D5                             l3216 01BD                             l3208 01AA  
                           l3056 0E0B                             l3048 0DDE                             l3160 06C1  
                           l3152 06A3                             l3144 0676                             l3136 0635  
                           l3128 0616                             l3080 05BA                             l3072 0591  
                           l3402 0E4A                             l3410 0E5A                             l3322 170D  
                           l3330 1725                             l3314 16FE                             l3306 16D7  
                           l2514 0003                             l2522 10FD                             l2530 112F  
                           l2610 15A2                             l2602 157A                             l3250 0236  
                           l3242 021F                             l3234 01F1                             l3226 01DB  
                           l3218 01BF                             l3058 0E14                             l3162 06CB  
                           l3154 06AE                             l3146 0678                             l3138 064A  
                           l3090 05CE                             l3082 05BF                             l3074 05A2  
                           l3066 0574                             l3420 0E6E                             l3412 0E62  
                           l3404 0E4F                             l3340 1741                             l3316 16FF  
                           l3308 16E2                             l2516 0009                             l2540 1233  
                           l2524 1102                             l2604 1586                             l2700 15B4  
                           l2612 113C                             l3260 0254                             l3252 023C  
                           l3244 0227                             l3236 01F6                             l3228 01DD  
                           l2620 1313                             l3180 07B8                             l3172 06F7  
                           l3164 06D1                             l3156 06B6                             l3148 068D  
                           l3092 05D0                             l3084 05C1                             l3076 05B3  
                           l3068 0579                             l3510 0FAE                             l3502 0F7E  
                           l3422 0E73                             l3430 0E83                             l3414 0E65  
                           l3406 0E57                             l3318 1707                             l3350 1416  
                           l3342 1404                             l2550 13CF                             l2542 1237  
                           l2518 10F4                             l2534 111A                             l2526 1126  
                           l2614 136D                             l2606 158B                             l2710 15C7  
                           l2702 15B8                             l3270 0270                             l3262 025A  
                           l3254 023E                             l3246 022A                             l3238 01F9  
                           l2622 133B                             l2630 1246                             l3190 07C3  
                           l3174 06FF                             l3158 06BF                             l3094 05D6  
                           l3086 05C7                             l3078 05B4                             l3520 0FE2  
                           l3504 0F83                             l3512 0FB4                             l3432 0E93  
                           l3440 0EAA                             l3424 0E78                             l3416 0E69  
                           l3408 0E58                             l3336 172C                             l3328 1715  
                           l3360 1434                             l3352 1418                             l3344 1406  
                           l2560 13E5                             l2552 13D9                             l2544 123C  
                           l2536 1226                             l2528 112B                             l2616 1389  
                           l3600 0C2F                             l2608 159B                             l2800 114C  
                           l2720 15E8                             l2712 15CA                             l2704 15BD  
                           l2640 126D                             l3280 02CB                             l3272 027B  
                           l3264 025C                             l3248 0230                             l3256 0248  
                           l2632 1247                             l3176 07B3                             l3184 07BA  
                           l3168 06EC                             l3096 05D8                             l3088 05C9  
                           l3522 0FEA                             l3514 0FC1                             l3506 0F91  
                           l3450 0ED2                             l3442 0EAF                             l3434 0E9F  
                           l3426 0E80                             l3418 0E6D                             l3338 173C  
                           l3362 143B                             l3354 141C                             l3346 140C  
                           l3370 0A10                             l2562 13F1                             l2554 13DC  
                           l2546 1244                             l2538 122B                             l2570 12E8  
                           l2618 138D                             l3602 0C3C                             l2626 11AA  
                           l2802 1153                             l2730 1601                             l2722 15EE  
                           l2714 15D1                             l2706 15BF                             l2642 1271  
                           l2650 1170                             l3290 032A                             l3282 02D5  
                           l3274 0286                             l3258 024E                             l3266 0265  
                           l2634 1255                             l2810 12C3                             l3186 07C0  
                           l3194 07C5                             l3178 07B7                             l3098 05DA  
                           l3524 0FEF                             l3516 0FCF                             l3508 0F95  
                           l3460 0EFB                             l3452 0EDA                             l3436 0EA1  
                           l3428 0E81                             l3356 142D                             l3348 140F  
                           l3364 1441                             l3380 0A2A                             l3372 0A13  
                           l3540 0A5E                             l2564 13F2                             l2556 13DD  
                           l2580 133D                             l2572 1310                             l2628 1205  
                           l2900 17FD                             l3620 0C74                             l3612 0C58  
                           l3604 0C44                             l2804 1155                             l2732 1606  
                           l2724 15EF                             l2716 15D3                             l2708 15C1  
                           l2740 14F3                             l2644 127E                             l3700 0456  
                           l2652 1172                             l3292 032C                             l3284 02DA  
                           l3276 0295                             l3268 026D                             l2636 125B  
                           l2820 12D8                             l2660 118B                             l3188 07C2  
                           l3526 0FF3                             l3518 0FDE                             l3470 0F1C  
                           l3462 0EFF                             l3454 0EE2                             l3446 0EB8  
                           l3390 0E36                             l3358 1433                             l3382 0A30  
                           l3374 0A1A                             l3550 0A8C                             l3542 0A6E  
                           l3534 0A45                             l2566 13F7                             l2558 13E2  
                           l2582 1345                             l3630 0CE8                             l3614 0C65  
                           l3606 0C4A                             l2590 154D                             l2670 161B  
                           l2806 115E                             l2726 15F6                             l2718 15D7  
                           l2750 1509                             l2742 14F8                             l2646 1285  
                           l2638 126C                             l3710 0475                             l3702 045C  
                           l3294 032D                             l3286 0311                             l3278 02B5  
                           l3198 0178                             l2830 12E3                             l2662 118D  
                           l2654 1184                             l2902 0AFB                             l3528 0FF5  
                           l3480 0F3C                             l3472 0F2A                             l3464 0F00  
                           l3456 0EE4                             l3448 0ECA                             l3392 0E3A  
                           l3384 0A37                             l3376 0A1C                             l3368 0A0A  
                           l3560 0ABB                             l3552 0A8E                             l3536 0A4A  
                           l2568 13FA                             l2584 1355                             l2840 14A0  
                           l3632 0CFC                             l3608 0C50                             l3624 0C79  
                           l2592 1554                             l2680 1648                             l2672 161E  
                           l2728 15FC                             l2760 1523                             l2752 150C  
                           l2744 14FA                             l2736 14EE                             l3720 0497  
                           l3712 047B                             l3704 0462                             l3640 0360  
                           l3288 0327                             l2576 1107                             l2832 12E5  
                           l2816 12C8                             l2808 12BE                             l2664 1194  
                           l2656 1185                             l2920 0B34                             l2904 0B00  
                           l2912 0B20                             l3800 0037                             l3482 0F45  
                           l3490 0F59                             l3458 0EE9                             l3466 0F09  
                           l3474 0F2C                             l3394 0E3C                             l3378 0A20  
                           l3386 0A3D                             l3570 0AEE                             l3562 0AC5  
                           l3554 0A9C                             l3546 0A7A                             l3538 0A4E  
                           l2586 135B                             l2850 14C8                             l2842 14AE  
                           l3634 0CFD                             l3626 0C8E                             l3618 0C6E  
                           l2594 1564                             l2682 1656                             l2674 1629  
                           l2770 1540                             l2762 1529                             l2754 1513  
                           l2746 14FE                             l2738 14EF                             l3730 04BB  
                           l3722 04A0                             l3706 0468                             l3714 0485  
                           l3650 03C9                             l3642 037B                             l2578 110D  
                           l2818 12D3                             l2658 1189                             l2922 0B46  
                           l2930 0B52                             l2914 0B26                             l2906 0B16  
                           l3810 004B                             l3802 003C                             l3492 0F5D  
                           l3484 0F49                             l3476 0F32                             l3468 0F1B  
                           l3396 0E40                             l3572 0AEF                             l3564 0ACF  
                           l3556 0AAC                             l3548 0A85                             l2860 14E1  
                           l2852 14CA                             l2844 14B2                             l2836 1499  
                           l2780 11DB                             l3628 0CD6                             l2596 1569  
                           l2588 1545                             l2684 1657                             l2676 162D  
                           l2668 160B                             l3580 129E                             l2692 15A8  
                           l2764 1530                             l2756 1515                             l2748 1503  
                           l3740 04EB                             l3732 04BE                             l3724 04A4  
                           l3716 048B                             l3708 0471                             l3660 03D7  
                           l3652 03CE                             l3644 0396                             l3636 0345  
                           l2828 12DA                             l2940 0B7A                             l2932 0B5F  
                           l2924 0B4B                             l2916 0B2B                             l2908 0B1E  
                           l3820 0067                             l3812 004F                             l3804 0042  
                           l3900 16BD                             l3494 0F5E                             l3486 0F4A  
                           l3478 0F3A                             l3398 0E44                             l3566 0AE5  
                           l3558 0AB7                             l2862 14E2                             l2854 14CF  
                           l2846 14B4                             l2838 149E                             l2870 174F  
                           l3590 0C09                             l2774 0A03                             l2598 1570  
                           l2790 1135                             l2686 1660                             l2678 1636  
                           l3582 12A3                             l2694 15A9                             l2758 1519  
                           l2766 1536                             l3750 04F2                             l3742 04EC  
                           l3734 04CD                             l3726 04AA                             l3718 0491  
                           l3662 03E2                             l3654 03CF                             l3646 03BB  
                           l3638 034A                             l2950 0B92                             l2942 0B7C  
                           l2934 0B6A                             l2918 0B2E                             l3830 00A0  
                           l3822 006D                             l3814 0058                             l3910 16CD  
                           l3496 0F62                             l3488 0F53                             l3568 0AEA  
                           l2856 14D1                             l2848 14C2                             l2776 11C8  
                           l2880 1776                             l2872 1756                             l2864 174D  
                           l3592 0C10                             l2784 1130                             l2792 10E6  
                           l2688 1666                             l3584 12B2                             l3576 1294  
                           l2696 15AD                             l2768 153B                             l3752 04FD  
                           l3736 04D1                             l3728 04B3                             l3680 0411  
                           l3664 03ED                             l3656 03D1                             l3648 03C5  
                           l3672 03F1                             l2960 0BAA                             l2952 0B94  
                           l2944 0B85                             l2936 0B6F                             l3832 00A6  
                           l3824 0073                             l3816 005E                             l3808 0045  
                           l3904 16C0                             l3498 0F76                             l2858 14DD  
                           l2778 11D6                             l2890 17DC                             l2882 1783  
                           l2874 175E                             l3594 0C1B                             l3586 0BF7  
                           l2786 1133                             l2794 139C                             l3578 1299  
                           l2698 15B2                             l3770 055D                             l3762 051D  
                           l3754 0508                             l3738 04E7                             l3690 0432  
                           l3682 0412                             l3674 03F6                             l3658 03D3  
                           l2970 0BC2                             l2962 0BAC                             l2954 0B9D  
                           l2946 0B87                             l2938 0B71                             l3850 00CC  
                           l3842 00B0                             l3826 0089                             l3906 16C6  
                           l2892 17EC                             l2884 17A0                             l2876 176C  
                           l3596 0C23                             l3588 0C02                             l2788 1134  
                           l2796 139F                             l3772 0561                             l3764 052D  
                           l3756 0513                             l3748 04EE                             l3692 0434  
                           l3684 041A                             l3676 040C                             l3668 03EF  
                           l2980 0BDA                             l2972 0BC4                             l2964 0BB5  
                           l2956 0B9F                             l2948 0B89                             l3860 00E9  
                           l3844 00B9                             l3828 0092                             l3908 16C8  
                           l2894 17F0                             l2886 17A4                             l2878 1770  
                           l3598 0C2A                             l2798 13CA                             l3774 056B  
                           l3766 0540                             l3694 0439                             l3678 040F  
                           l3686 041D                             l2990 1446                             l2982 0BDC  
                           l2974 0BCD                             l2966 0BB7                             l2958 0BA1  
                           l3870 010F                             l3862 00EA                             l3846 00C5  
                           l3838 00A8                             l3790 0024                             l3782 0013  
                           l2896 17F6                             l2888 17D0                             l3776 056D  
                           l3768 0556                             l3696 0443                             l3688 0423  
                           l2992 144D                             l2984 0BE5                             l2976 0BCF  
                           l2968 0BB9                             l3880 015B                             l3872 0124  
                           l3864 00F5                             l3856 00D3                             l3792 0029  
                           l3784 0019                             l2898 17F7                             l3698 044C  
                           l2994 144E                             l2986 0BE7                             l2978 0BD1  
                           l3882 0163                             l3874 012C                             l3866 0100  
                           l3858 00E4                             l3786 001E                             l3890 1688  
                           l2996 1459                             l2988 0BE8                             l3868 0107  
                           l3876 0140                             l3788 001F                             l3796 002C  
                           l3892 1690                             l3884 166F                             l2998 146B  
                           l3878 0153                             l3798 0032                             l3894 16A6  
                           l3886 167D                             l3896 16AF                             l3888 1682  
                           _ADFM 04FF                             l3898 16B8                             _ADON 00F8  
                           STR_1 086B                             STR_2 086B                             STR_3 09FD  
                           STR_4 09FA                             STR_5 09EE                             STR_6 09F1  
                           STR_7 09F4                             STR_8 09F7                             STR_9 0A00  
                           _BRGH 04C2                             _CREN 00C4                             u2200 110D  
                           u3000 06FF                             u2201 110C                             u3001 06FE  
                           u2210 136B                             u2211 136A                             u2140 0009  
                           u2220 139B                             u3100 01EE                             u2141 0008  
                           u2221 139A                             u3101 01ED                             u2150 000F  
                           u2310 162D                             u3110 01FE                             u2230 126B  
                           u2151 000E                             u2311 162C                             u3111 01FD  
                           u2231 126A                             u3015 072A                             u3200 16F9  
                           u2160 123C                             u2400 15D7                             u2240 127E  
                           u4000 0455                             u3120 0230                             u3040 07C0  
                           u2161 123B                             u2305 1620                             u2401 15D6  
                           u2241 127D                             u3121 022F                             u3041 07BF  
                           u3025 0766                             u3210 170D                             u2170 13D6  
                           u2330 1648                             u2250 1285                             u4010 045C  
                           u3130 0236                             u3050 017E                             u3211 170C  
                           u2171 13D2                             u2331 1647                             u2251 1284  
                           u4011 045B                             u3131 0235                             u3051 017D  
                           u3035 07A2                             u3220 1714                             u2420 15E8  
                           u2500 1519                             u4100 055D                             u4020 0462  
                           u2260 1182                             u3140 024E                             u3060 01B1  
                           u3221 1713                             u3205 16F4                             u2325 162F  
                           u2421 15E7                             u2501 1518                             u4101 055C  
                           u4021 0461                             u2261 1181                             u3141 024D  
                           u3061 01B0                             u3310 141C                             u2350 1666  
                           u2510 1523                             u4030 047B                             u3150 0254  
                           u3070 01B7                             u2270 1189                             u4110 0019  
                           u3311 141B                             u2351 1665                             u2335 1644  
                           u2415 15D8                             u2511 1522                             u4031 047A  
                           u3151 0253                             u3071 01B6                             u2271 1188  
                           u4111 0018                             u3240 1724                             u2184 13D9  
                           u2440 15FC                             u2360 15AD                             u4040 048B  
                           u3160 026D                             u3080 01CF                             u2600 12D8  
                           u2280 1194                             u4200 00AF                             u4120 001E  
                           u3241 1723                             u3305 1410                             u2345 1658  
                           u2441 15FB                             u2425 15E4                             u2361 15AC  
                           u4041 048A                             u3161 026C                             u3081 01CE  
                           u2601 12D7                             u2281 1193                             u4201 00AE  
                           u4121 001D                             u3250 172B                             u3330 142D  
                           u3410 0A3D                             u2290 161B                             u2450 1601  
                           u2370 15B8                             u2530 1536                             u4050 0491  
                           u3170 0295                             u3090 01D5                             u2610 12E3  
                           u4210 00CB                             u4130 0029                             u3251 172A  
                           u3235 1716                             u3331 142C                             u3411 0A3C  
                           u2195 13E9                             u2291 161A                             u2451 1600  
                           u2435 15F0                             u2371 15B7                             u2531 1535  
                           u2515 151F                             u4051 0490                             u3171 0294  
                           u3091 01D4                             u2611 12E2                             u4211 00CA  
                           u4131 0028                             u3500 0EE9                             u3420 0E44  
                           u2380 15C7                             u2540 153B                             u2460 14F3  
                           u4060 04AA                             u3180 0311                             u2700 0B00  
                           u4220 00D2                             u4140 0032                             u4300 16C6  
                           u3501 0EE8                             u3421 0E43                             u3325 141D  
                           u3405 0A31                             u2381 15C6                             u2541 153A  
                           u2525 152A                             u2461 14F2                             u4061 04A9  
                           u3181 0310                             u2701 0AFF                             u4221 00D1  
                           u4141 0031                             u4301 16C5                             u3430 0E4A  
                           u3270 173C                             u3190 16E2                             u3350 1441  
                           u2470 14FE                             u4070 04BB                             u2710 0B1E  
                           u4230 00E9                             u4150 0037                             u4310 16CD  
                           u3431 0E49                             u3271 173B                             u3191 16E1  
                           u3351 1440                             u3335 1429                             u2471 14FD  
                           u4071 04BA                             u3183 030D                             u2711 0B1D  
                           u4231 00E8                             u4151 0036                             u4311 16CC  
                           u3440 0E4F                             u3280 1741                             u3360 0A10  
                           u2560 11DB                             u2480 1509                             u4080 04CD  
                           u2800 0E1E                             u2720 0B26                             u4240 0107  
                           u4160 0042                             u3441 0E4E                             u3281 1740  
                           u3265 172E                             u3345 1435                             u3361 0A0F  
                           u2625 14A3                             u2561 11DA                             u2481 1508  
                           u4081 04CC                             u2801 0E1D                             u2721 0B25  
                           u4241 0106                             u4161 0041                             u3610 0F5D  
                           u3530 0EFF                             u3450 0E6D                             u3290 140C  
                           u2650 1756                             u2570 13AD                             u4090 0540  
                           u2810 0579                             u2730 0B2B                             u4250 012C  
                           u4170 004B            ?_read_external_eeprom 0070                             u3611 0F5C  
                           u3531 0EFE                             u3515 0EEB                             u3451 0E6C  
                           u3291 140B                             u2635 14B9                             u2555 11CB  
                           u2651 1755                             u2395 15CB                             u4091 053F  
                           u2811 0578                             u2731 0B2A                             u4251 012B  
                           u4171 004A                             u3700 0FF3                             u3620 0F62  
                           u3460 0E73                             u3380 0A20                             u2660 175D  
                           u2580 12C3                             u2900 05F6                             u2820 05BA  
                           u2740 0B34                             u4260 0163                             u4180 0066  
                           u3701 0FF2                             u3621 0F61                             u3605 0F4C  
                           u3525 0EF4                             u3461 0E72                             u3381 0A1F  
                           u2645 14D4                             u2661 175C                             u4093 053C  
                           u2581 12C2                             u2901 05F5                             u2821 05B9  
                           u2741 0B33                             u4261 0162                             u4181 0065  
                           u3630 0F76                             u3550 0F1B                             u3470 0E78  
                           u3390 0A2A                             u3710 0A4A                             u2670 1783  
                           u2590 12D3                             u2910 05FB                             u2830 05BF  
                           u2750 0B46                             u4190 00A6                             u4270 1682  
                           u3631 0F75                             u3551 0F1A                             u3471 0E77  
                           u3391 0A29                             u3375 0A14                             u3711 0A49  
                           u4407 13DF                             u2671 1782                             u2575 13A8  
                           u2495 150D                             u4327 0D67                             u2591 12D2  
                           u2911 05FA                             u2831 05BE                             u2751 0B45  
                           u4191 00A5                             u4271 1681                             u3640 0F7D  
                           u3560 0F32                             u3480 0E93                             u3800 0AC1  
                           u3720 0A4E                             u2680 17F6                             u2920 0600  
                           u2840 05C7                             u2760 0B51                             u4280 1690  
                           u3641 0F7C                             u3561 0F31                             u3545 0F02  
                           u3481 0E92                             u3801 0AC0                             u3721 0A4D  
                           u4417 13F4                             u2681 17F5                             u4337 1549  
                           u2921 05FF                             u2841 05C6                             u2761 0B50  
                           u4281 168F                             u3650 0F83                             u3570 0F3A  
                           u3490 0EAF                             u3810 0AC5                             u3730 0A6E  
                           u2690 17FD                             u2770 144D                             u2930 060B  
                           u2850 05CE                             u4290 16BD                             u3651 0F82  
                           u3571 0F39                             u3555 0F17                             u3491 0EAE  
                           u3395 0A26                             u3811 0AC4                             u3731 0A6D  
                           u4427 13FE                             u2691 17FC                             u2675 177F  
                           u4347 1558                             u2771 144C                             u2931 060A  
                           u2851 05CD                             u2755 0B42                             u4291 16BC  
                           u3660 0F95                             u3820 0ADA                             u3900 0C65  
                           u2780 147D                             u2940 0610                             u2860 05D6  
                           u3661 0F94                             u3901 0C64                             u4357 1566  
                           u2781 147C                             u2941 060F                             u2861 05D5  
                           u3670 0FA4                             u3590 0F49                             u3830 0AEA  
                           u3750 0A8B                             u3910 0C74                             u2790 0D42  
                           u2950 061B                             u2870 05E0                             u3591 0F48  
                           u3831 0AE9                             u3751 0A8A                             u3911 0C73  
                           u4367 157C                             u2791 0D41                             u2951 061A  
                           u2871 05DF                             u3680 0FC1                             u3840 0AEE  
                           u3920 034A                             u2960 06BF                             u2880 05E7  
                           u3681 0FC0                             u3585 0F3E                             u3841 0AED  
                           u3825 0AD5                             u3745 0A7D                             u3905 0C61  
                           u4377 1588                             u3921 0349                             u2961 06BE  
                           u2881 05E6                             u3690 0FDE                             u3770 0AAB  
                           u3850 0C23                             u3930 03BB                             u2970 06C9  
                           u2890 05EF                             u3691 0FDD                             u3675 0F9F  
                           u3771 0AAA                             u3851 0C22                             u4387 1596  
                           u3931 03BA                             u2971 06C7                             u2891 05EE  
                           u3860 0C2A                             u3940 03CE                             u2980 06CA  
                           _RCEN 048B                             u3685 0FBD                             u3765 0A9D  
                           u3861 0C29                             u4397 15A4                             u3941 03CD  
                           u3933 03B7                             u3790 0ABB                             u3870 0C3C  
                           u3950 03F6                             u2990 06D1                             u3695 0FDA  
                           u3791 0ABA                             u3871 0C3B                             u3951 03F5  
                           u2991 06D0                             u3880 0C50                             u3960 0423  
                           u3785 0AB0                             u3881 0C4F                             u3961 0422  
                           u3890 0C57                             u3970 0432                             u3891 0C56  
                           u3875 0C38                             u3971 0431                             u3980 0439  
                           u3981 0438                             u3990 0454                             u3991 0452  
                           _SPEN 00C7                             _TXEN 04C5                             _TXIF 0064  
                           _SYNC 04C4                             _R_nW 04A2                             _data 0190  
                  login@attempts 006C                             _main 166F                             _menu 0010  
                           _time 00AC                             btemp 007E                             start 0000  
                ___fldiv@new_exp 0038                    login@sec_left 006B                ___bmul@multiplier 0072  
                 clcd_write@byte 0073                   clcd_write@mode 0070                      _store_event 174D  
                  _i2c_rep_start 111A                     ?_init_ds1307 0070                    ___fltol@sign1 0048  
                          ?_main 0070                     ?_read_ds1307 0070                            _ACKEN 048C  
                          _ACKDT 048D                   ??_display_time 0078                            ?_menu 0070  
                __end_of___fldiv 1000                  __end_of___awdiv 160B                            STR_10 09EB  
                          STR_11 085A                            STR_20 086B                            STR_12 085A  
                          STR_21 086B                            STR_13 09E2                            STR_30 086B  
                          STR_22 097C                            STR_14 09CF                            STR_31 086B  
                          STR_23 086B                            STR_15 09AA                            STR_40 086B  
                          STR_32 086B                            STR_24 086B                            STR_16 09D9  
                          STR_33 086B                            STR_25 086B                            STR_41 092C  
                          STR_17 09C3                            STR_26 096C                            STR_34 093C  
                          STR_50 090C                            STR_42 08EC                            STR_18 0849  
                          STR_43 0824                            STR_35 086B                            STR_19 09B7  
                          STR_27 08FC                            STR_51 08BC                            STR_60 086B  
                          STR_28 086B                            STR_52 0838                            STR_44 0827  
                          STR_36 0800                  __end_of___awmod 1545                            STR_53 086B  
                          STR_29 086B                            STR_37 098C                            STR_61 08DC  
                          STR_45 0814                            STR_54 086B                            STR_38 099B  
                          STR_62 089C                            STR_46 087C                            STR_39 086B  
                          STR_55 095C                            STR_63 094C                            STR_47 08AC  
                          STR_56 086B                            STR_64 08CC                            STR_48 088C  
                          STR_49 0824                            STR_65 086B                            STR_57 086B  
                          STR_66 086B                            STR_58 091C                            STR_59 086B  
                __end_of___fltol 174D                  __end_of___lldiv 166F                      i2c_read@ack 0070  
                ___awdiv@divisor 0070                  __end_of___lwdiv 1446                  __end_of___lwmod 0A42  
                   ?_init_config 0070                  ___awdiv@counter 0074                            _SPBRG 0099  
                          _PORTB 0006                            _PORTD 0008                            _SSPM3 00A3  
                          _TRISB 0086                            _TRISD 0088                            _SSPEN 00A5  
                          _TXREG 0019                            _nDONE 00FA        write_external_eeprom@data 0071  
      write_external_eeprom@wait 0072                            _event 00CA                     view_log@addr 0032  
                          _login 0342                            _speed 00C4                            btemp0 007E  
                          btemp1 007F                  _change_password 0177                            pclath 000A  
                          status 0003                            wtemp0 007E                 init_ds1307@dummy 007A  
                __initialization 07C7                   ?_i2c_rep_start 0070           ?_write_external_eeprom 0071  
                   __end_of_main 16D7                     __end_of_menu 0177                 __end_of_i2c_read 1246  
               __end_of_i2c_stop 1106                    ?_download_log 0070                           ??_main 007E  
                         ??_menu 0033                           _ADCON0 001F           ??_read_external_eeprom 0072  
                         _ADRESH 001E                           ?_login 0070                           _ADRESL 009E  
               ___awdiv@dividend 0072                     i2c_read@data 0071                     _write_ds1307 11A9  
                 clear_log@delay 00AA                           _SSPADD 0093                      menu@ret_355 0035  
                         _TRISE1 0449                           _TRISE2 044A                           _TRISC6 043E  
                         _TRISC7 043F                           _SSPBUF 0013                 __end_of___xxtofl 0AF8  
    __end_of_init_digital_keypad 10EC                 __end_of_get_time 1225                           ___bmul 1183  
        _init_display_controller 1545                        ??___fldiv 002E                        ??___awdiv 0074  
                      ??___awmod 0074                        ??___fltol 0044                        ??___lldiv 0078  
                      ??___lwdiv 0074                        ??___lwmod 0074                 __end_of_init_i2c 13CE  
               __end_of_init_adc 0A0A                 __end_of_read_adc 11E6                   ??_download_log 0077  
               ___awdiv@quotient 0076                  ___awmod@divisor 0070                  set_time@visible 0067  
                ___awmod@counter 0074                           _strcmp 126C                           _strcpy 1170  
             store_event@address 0062                           login@i 0021          __end_of_change_password 0342  
               __end_of_set_time 07C7                           ltemp0a 0080                 __end_of_view_log 0BF4  
                         ttemp0a 007F                           wtemp0a 007F                     ___xxtofl@arg 0022  
                   ___xxtofl@exp 0021                     ___xxtofl@val 0076          __end_of__initialization 07FC  
           __end_of_display_time 14EE                       ___fltol@f1 0040                  ??_i2c_rep_start 0070  
            ___bmul@multiplicand 0070                   __pcstackCOMMON 0070                     __pidataBANK0 1110  
                   __pidataBANK1 11E6                    __end_of_login 0571                __end_of_i2c_start 10FD  
              __end_of_i2c_write 1130                _i2c_wait_for_idle 0003                          ??_login 007A  
             ?_i2c_wait_for_idle 0070                       __pbssBANK0 0051                       __pbssBANK1 00A0  
                     __pbssBANK3 0190                        ?_i2c_read 0070                        ?_i2c_stop 0070  
      ??_init_display_controller 0074                       _clcd_print 133D              ??_i2c_wait_for_idle 0070  
                     _clcd_putch 113B                       _clcd_write 13CE     write_external_eeprom@address 0074  
                     __pmaintext 166F                 login@blink_state 005F                  read_ds1307@addr 0072  
                   ?_store_event 0070                  read_ds1307@data 0073                          ?___bmul 0070  
                        _ACKSTAT 048E                          ?_strcmp 0070                          ?_strcpy 0070  
    __end_of_read_digital_keypad 12E7                        ?___xxtofl 0076                 ?_change_password 007A  
      __end_of_i2c_wait_for_idle 0010                     init_i2c@baud 0020                          _SSPCON2 0091  
                      ?_get_time 0074                     menu@menu_pos 0037                       __stringtab 1000  
                     ??_i2c_read 0070                __end_of_dashboard 0D09                       ??_i2c_stop 0070  
                      ?_init_i2c 0020             __end_of_download_log 0E36                        ?_init_adc 0070  
                      ?_read_adc 0070                __end_of_clear_log 1499          ??_write_external_eeprom 0072  
                      ?_set_time 0070               change_password@key 007C                          ___fldiv 0E36  
                        ___awdiv 15A8                          ___awmod 14EE                        ?_view_log 0070  
                        ___fltol 16D7                          ___lldiv 160B                          _adc_val 0053  
                        ___lwdiv 1404                     store_event@i 007C                          ___lwmod 0A0A  
                        __ptext1 0010                          __ptext2 0AF8                          __ptext3 0571  
                        __ptext4 1183                          __ptext5 12BD                          __ptext6 0D09  
                        __ptext7 1246                          __ptext8 1106                          __ptext9 1312  
__end_of_init_display_controller 15A8                __end_of_init_clcd 113B                       ??___xxtofl 007A  
              __end_of_init_uart 1170                 ___awmod@dividend 0072                          main@key 0050  
                        clrloop0 10ED                          main@ret 004F                       ??_get_time 0075  
           end_of_initialization 07FC                          menu@key 003A                          menu@ret 0038  
                        menu@top 005E                      set_time@key 0030                       ??_init_i2c 0024  
                     ??_init_adc 0070                       ??_read_adc 0072                      ?_clcd_print 0074  
                    ?_clcd_putch 0078                  ___lldiv@divisor 0070                __end_of_uart_puts 126C  
                    ?_clcd_write 0070                  ___lldiv@counter 007D                       ??_set_time 0020  
                     ??_view_log 0077                   display_time@hr 0079                     __pstringtext 0800  
                        strcmp@l 0070                          strcmp@r 0071                          strcpy@d 0072  
                     _uart_putch 1106                  read_adc@channel 0075                     _display_time 1499  
                  i2c_write@data 0070                    ___xxtofl@sign 0020                      ___fldiv@grs 003A  
                    ___fldiv@rem 0033                    clcd_print@str 0074                     login@blocked 0060  
       read_external_eeprom@data 0073                     login@entered 00BF                   __end_of___bmul 1196  
                    view_log@key 0031                      view_log@log 0020                   __end_of_strcmp 1294  
                 __end_of_strcpy 1183              start_initialization 07C7                        _i2c_start 10F4  
                      _i2c_write 1125                    clear_log@once 0069                       menu@redraw 006A  
                     menu@select 005D            __end_of_i2c_rep_start 1125                         ??___bmul 0071  
                     init_fetch0 1196             change_password@delay 00A0                    ??_init_ds1307 007A  
                    __pdataBANK0 0066                      __pdataBANK1 00CA             change_password@index 0057  
           change_password@temp2 00B5             change_password@state 0058                      ?_uart_putch 0070  
                  ??_read_ds1307 0072                     _download_log 0D09                         ??_strcmp 0072  
                       ??_strcpy 0072                    ??_init_config 007E                        ___fldiv@a 0026  
                      ___fldiv@b 002A                       login@delay 00A4                       login@blink 0051  
                      ___latbits 0002                       login@index 0061                    __pcstackBANK0 0020  
                     ?_i2c_start 0070                       ?_i2c_write 0070                        _dashboard 0BF4  
               ___lwdiv@dividend 0072    __end_of_write_external_eeprom 139C                        _clear_log 1446  
                       ?___fldiv 0026                         ?___awdiv 0070                         ?___awmod 0070  
                       ?___fltol 0040                         ?___lldiv 0070                         ?___lwdiv 0070  
                      _clock_reg 00C7                         ?___lwmod 0070                        __pstrings 1000  
            __end_of_init_ds1307 115E              read_adc@adc_reg_val 0073              __end_of_read_ds1307 1312  
               ___lwdiv@quotient 0074                        _init_clcd 1130              __end_of_init_config 12BD  
                      _init_uart 115E                    ?_write_ds1307 0078         ?_init_display_controller 0070  
                   _old_menu_pos 006E      read_external_eeprom@address 0072                        clear_ram0 10EC  
                   ??_clcd_print 0077                     ??_clcd_putch 0079                     ??_clcd_write 0071  
                     ?_dashboard 0070                       ?_clear_log 0070                        _operation 0064  
                      _uart_puts 1246                     dashboard@key 004E                    download_log@i 007A  
                    __stringbase 1012                      ??_i2c_start 0070               __end_of_clcd_print 136C  
                    ??_i2c_write 0070               __end_of_clcd_putch 114C               __end_of_clcd_write 1404  
                     ?_init_clcd 0070                       ?_init_uart 0070                   ??_write_ds1307 0079  
            _init_digital_keypad 10E6                         _i2c_read 1225                         _i2c_stop 10FD  
              get_time@clock_reg 0074                    set_time@blink 00A8                    set_time@field 005C  
                  set_time@hours 005B              change_password@once 0066              change_password@temp 00BA  
                     ?_uart_puts 0075     __end_of_read_external_eeprom 133D             ?_init_digital_keypad 0070  
                    _init_ds1307 114C                      _event_count 0063                        login@once 006D  
             __end_of__stringtab 1012                      _read_ds1307 12E7                      _init_config 1294  
                       ___xxtofl 0A42                  ___lwdiv@divisor 0070                  ___lwdiv@counter 0076  
                       __ptext10 1446                         __ptext11 0177                         __ptext20 139C  
                       __ptext12 1170                         __ptext21 160B                         __ptext13 0342  
                       __ptext30 136C                         __ptext22 114C                         __ptext14 126C  
                       __ptext31 11C7                         __ptext23 11A9                         __ptext15 113B  
                       __ptext40 1499                         __ptext32 1205                         __ptext24 10E6  
                       __ptext16 14EE                         __ptext41 133D                         __ptext33 12E7  
                       __ptext25 1130                         __ptext17 15A8                         __ptext42 13CE  
                       __ptext34 1125                         __ptext26 1545                         __ptext18 1294  
                       __ptext43 0A42                         __ptext35 111A                         __ptext27 0A03  
                       __ptext19 115E                         __ptext44 0A0A                         __ptext36 10FD  
                       __ptext28 0BF4                         __ptext45 1404                         __ptext37 10F4  
                       __ptext29 174D                         __ptext46 16D7                         __ptext38 1225  
                       __ptext47 0E36                         __ptext39 0003                         _get_time 1205  
                     strcpy@dest 0070                         _init_i2c 139C                         _init_adc 0A03  
                       _read_adc 11C7          read_digital_keypad@mode 0071          read_digital_keypad@once 006F  
                    ??_dashboard 004A                         _password 00E4            display_time@clock_reg 0077  
                    ??_clear_log 0077                    ??_store_event 0075                ??_change_password 0020  
                       _set_time 0571                         _view_log 0AF8                  view_log@log_pos 0065  
          ??_init_digital_keypad 0070                     ??_uart_putch 0074                     set_time@mins 005A  
                   set_time@once 0068                     set_time@secs 0059                     set_time@temp 0027  
                       init_ram0 119A                      ??_init_clcd 0076                      ??_init_uart 0070  
                       login@key 0020                 ___lwmod@dividend 0072                 ___lldiv@dividend 0074  
             __end_of_uart_putch 1110                        strcpy@src 0071                        stringcode 100A  
                    ??_uart_puts 0077             __end_of_write_ds1307 11C7              _read_digital_keypad 12BD  
            __end_of_store_event 1800                  display_time@sec 007A                 ___lldiv@quotient 0079  
                ___lwmod@divisor 0070                  ___lwmod@counter 0074                         stringtab 1000  
                 uart_putch@data 0074             ?_read_digital_keypad 0070                 write_ds1307@addr 0079  
               write_ds1307@data 0078             _read_external_eeprom 1312                 download_log@addr 007B  
                   uart_puts@str 0075  
